ARM GAS  C:\Users\z80\AppData\Local\Temp\ccfOmD6n.s 			page 1


   1              		.syntax unified
   2              		.cpu cortex-m3
   3              		.fpu softvfp
   4              		.eabi_attribute 20, 1
   5              		.eabi_attribute 21, 1
   6              		.eabi_attribute 23, 3
   7              		.eabi_attribute 24, 1
   8              		.eabi_attribute 25, 1
   9              		.eabi_attribute 26, 1
  10              		.eabi_attribute 30, 6
  11              		.eabi_attribute 18, 4
  12              		.thumb
  13              		.file	"shell.c"
  14              		.section	.debug_abbrev,"",%progbits
  15              	.Ldebug_abbrev0:
  16              		.section	.debug_info,"",%progbits
  17              	.Ldebug_info0:
  18              		.section	.debug_line,"",%progbits
  19              	.Ldebug_line0:
  20 0000 25030000 		.text
  20      0200D801 
  20      00000201 
  20      FB0E0D00 
  20      01010101 
  21              	.Ltext0:
  22              		.cfi_sections	.debug_frame
  23              		.global	shell_terminated
  24              		.section	.bss.shell_terminated,"aw",%nobits
  25              		.align	2
  26              		.type	shell_terminated, %object
  27              		.size	shell_terminated, 4
  28              	shell_terminated:
  29 0000 00000000 		.space	4
  30              		.section	.text._strtok,"ax",%progbits
  31              		.align	2
  32              		.p2align 4,,15
  33              		.thumb
  34              		.thumb_func
  35              		.type	_strtok, %function
  36              	_strtok:
  37              	.LFB62:
  38              		.file 1 "../chibios_2.4.x/os/various/shell.c"
  39              		.loc 1 48 0
  40              		.cfi_startproc
  41              		@ args = 0, pretend = 0, frame = 24
  42              		@ frame_needed = 0, uses_anonymous_args = 0
  43 0000 00B5     		push	{lr}
  44              	.LCFI0:
  45              		.cfi_def_cfa_offset 4
  46 0002 87B0     		sub	sp, sp, #28
  47              	.LCFI1:
  48              		.cfi_def_cfa_offset 32
  49 0004 0390     		str	r0, [sp, #12]
  50 0006 0291     		str	r1, [sp, #8]
  51 0008 0192     		str	r2, [sp, #4]
  52              		.loc 1 50 0
  53 000a 039B     		ldr	r3, [sp, #12]
ARM GAS  C:\Users\z80\AppData\Local\Temp\ccfOmD6n.s 			page 2


  54 000c 002B     		cmp	r3, #0
  55 000e 02D0     		beq	.L2
  56              		.cfi_offset 14, -4
  57              		.loc 1 51 0
  58 0010 019B     		ldr	r3, [sp, #4]
  59 0012 039A     		ldr	r2, [sp, #12]
  60 0014 1A60     		str	r2, [r3, #0]
  61              	.L2:
  62              		.loc 1 52 0
  63 0016 019B     		ldr	r3, [sp, #4]
  64 0018 1B68     		ldr	r3, [r3, #0]
  65 001a 0593     		str	r3, [sp, #20]
  66              		.loc 1 54 0
  67 001c 059B     		ldr	r3, [sp, #20]
  68 001e 002B     		cmp	r3, #0
  69 0020 02D1     		bne	.L3
  70              		.loc 1 55 0
  71 0022 4FF00003 		mov	r3, #0
  72 0026 23E0     		b	.L4
  73              	.L3:
  74              		.loc 1 57 0
  75 0028 0598     		ldr	r0, [sp, #20]
  76 002a 0299     		ldr	r1, [sp, #8]
  77 002c FFF7FEFF 		bl	strspn
  78 0030 0346     		mov	r3, r0
  79 0032 059A     		ldr	r2, [sp, #20]
  80 0034 1344     		add	r3, r2, r3
  81 0036 0593     		str	r3, [sp, #20]
  82              		.loc 1 58 0
  83 0038 0598     		ldr	r0, [sp, #20]
  84 003a 0299     		ldr	r1, [sp, #8]
  85 003c FFF7FEFF 		bl	strpbrk
  86 0040 0246     		mov	r2, r0
  87 0042 019B     		ldr	r3, [sp, #4]
  88 0044 1A60     		str	r2, [r3, #0]
  89              		.loc 1 59 0
  90 0046 019B     		ldr	r3, [sp, #4]
  91 0048 1B68     		ldr	r3, [r3, #0]
  92 004a 002B     		cmp	r3, #0
  93 004c 08D0     		beq	.L5
  94              		.loc 1 60 0
  95 004e 019B     		ldr	r3, [sp, #4]
  96 0050 1B68     		ldr	r3, [r3, #0]
  97 0052 4FF00002 		mov	r2, #0
  98 0056 1A70     		strb	r2, [r3, #0]
  99 0058 03F10102 		add	r2, r3, #1
 100 005c 019B     		ldr	r3, [sp, #4]
 101 005e 1A60     		str	r2, [r3, #0]
 102              	.L5:
 103              		.loc 1 62 0
 104 0060 059B     		ldr	r3, [sp, #20]
 105 0062 1B78     		ldrb	r3, [r3, #0]	@ zero_extendqisi2
 106 0064 002B     		cmp	r3, #0
 107 0066 01D0     		beq	.L6
 108              		.loc 1 62 0 is_stmt 0 discriminator 1
 109 0068 059B     		ldr	r3, [sp, #20]
 110 006a 01E0     		b	.L7
ARM GAS  C:\Users\z80\AppData\Local\Temp\ccfOmD6n.s 			page 3


 111              	.L6:
 112              		.loc 1 62 0 discriminator 2
 113 006c 4FF00003 		mov	r3, #0
 114              	.L7:
 115              	.L4:
 116              		.loc 1 63 0 is_stmt 1
 117 0070 1846     		mov	r0, r3
 118 0072 07B0     		add	sp, sp, #28
 119 0074 00BD     		pop	{pc}
 120              		.cfi_endproc
 121              	.LFE62:
 122              		.size	_strtok, .-_strtok
 123 0076 00BFAFF3 		.section	.rodata
 123      0080AFF3 
 123      0080
 124              		.align	2
 125              	.LC0:
 126 0000 55736167 		.ascii	"Usage: %s\015\012\000"
 126      653A2025 
 126      730D0A00 
 127              		.section	.text.usage,"ax",%progbits
 128              		.align	2
 129              		.p2align 4,,15
 130              		.thumb
 131              		.thumb_func
 132              		.type	usage, %function
 133              	usage:
 134              	.LFB63:
 135              		.loc 1 65 0
 136              		.cfi_startproc
 137              		@ args = 0, pretend = 0, frame = 8
 138              		@ frame_needed = 0, uses_anonymous_args = 0
 139 0000 00B5     		push	{lr}
 140              	.LCFI2:
 141              		.cfi_def_cfa_offset 4
 142 0002 83B0     		sub	sp, sp, #12
 143              	.LCFI3:
 144              		.cfi_def_cfa_offset 16
 145 0004 0190     		str	r0, [sp, #4]
 146 0006 0091     		str	r1, [sp, #0]
 147              		.loc 1 67 0
 148 0008 0198     		ldr	r0, [sp, #4]
 149 000a 40F20001 		movw	r1, #:lower16:.LC0
 150 000e C0F20001 		movt	r1, #:upper16:.LC0
 151 0012 009A     		ldr	r2, [sp, #0]
 152              		.cfi_offset 14, -4
 153 0014 FFF7FEFF 		bl	chprintf
 154              		.loc 1 68 0
 155 0018 03B0     		add	sp, sp, #12
 156 001a 00BD     		pop	{pc}
 157              		.cfi_endproc
 158              	.LFE63:
 159              		.size	usage, .-usage
 160 001c AFF30080 		.section	.rodata
 161              		.align	2
 162              	.LC1:
 163 000c 25732000 		.ascii	"%s \000"
ARM GAS  C:\Users\z80\AppData\Local\Temp\ccfOmD6n.s 			page 4


 164              		.section	.text.list_commands,"ax",%progbits
 165              		.align	2
 166              		.p2align 4,,15
 167              		.thumb
 168              		.thumb_func
 169              		.type	list_commands, %function
 170              	list_commands:
 171              	.LFB64:
 172              		.loc 1 70 0
 173              		.cfi_startproc
 174              		@ args = 0, pretend = 0, frame = 8
 175              		@ frame_needed = 0, uses_anonymous_args = 0
 176 0000 00B5     		push	{lr}
 177              	.LCFI4:
 178              		.cfi_def_cfa_offset 4
 179 0002 83B0     		sub	sp, sp, #12
 180              	.LCFI5:
 181              		.cfi_def_cfa_offset 16
 182 0004 0190     		str	r0, [sp, #4]
 183 0006 0091     		str	r1, [sp, #0]
 184              		.loc 1 72 0
 185 0008 0DE0     		b	.L10
 186              		.cfi_offset 14, -4
 187              	.L11:
 188              		.loc 1 73 0
 189 000a 009B     		ldr	r3, [sp, #0]
 190 000c 1B68     		ldr	r3, [r3, #0]
 191 000e 0198     		ldr	r0, [sp, #4]
 192 0010 40F20001 		movw	r1, #:lower16:.LC1
 193 0014 C0F20001 		movt	r1, #:upper16:.LC1
 194 0018 1A46     		mov	r2, r3
 195 001a FFF7FEFF 		bl	chprintf
 196              		.loc 1 74 0
 197 001e 009B     		ldr	r3, [sp, #0]
 198 0020 03F10803 		add	r3, r3, #8
 199 0024 0093     		str	r3, [sp, #0]
 200              	.L10:
 201              		.loc 1 72 0 discriminator 1
 202 0026 009B     		ldr	r3, [sp, #0]
 203 0028 1B68     		ldr	r3, [r3, #0]
 204 002a 002B     		cmp	r3, #0
 205 002c EDD1     		bne	.L11
 206              		.loc 1 76 0
 207 002e 03B0     		add	sp, sp, #12
 208 0030 00BD     		pop	{pc}
 209              		.cfi_endproc
 210              	.LFE64:
 211              		.size	list_commands, .-list_commands
 212 0032 00BFAFF3 		.section	.rodata
 212      0080AFF3 
 212      0080AFF3 
 212      0080
 213              		.align	2
 214              	.LC2:
 215 0010 696E666F 		.ascii	"info\000"
 215      00
 216 0015 000000   		.align	2
ARM GAS  C:\Users\z80\AppData\Local\Temp\ccfOmD6n.s 			page 5


 217              	.LC3:
 218 0018 4B65726E 		.ascii	"Kernel:       %s\015\012\000"
 218      656C3A20 
 218      20202020 
 218      20202573 
 218      0D0A00
 219 002b 00       		.align	2
 220              	.LC4:
 221 002c 322E342E 		.ascii	"2.4.3\000"
 221      3300
 222 0032 0000     		.align	2
 223              	.LC5:
 224 0034 436F6D70 		.ascii	"Compiler:     %s\015\012\000"
 224      696C6572 
 224      3A202020 
 224      20202573 
 224      0D0A00
 225 0047 00       		.align	2
 226              	.LC6:
 227 0048 47434320 		.ascii	"GCC 4.5.0\000"
 227      342E352E 
 227      3000
 228 0052 0000     		.align	2
 229              	.LC7:
 230 0054 41726368 		.ascii	"Architecture: %s\015\012\000"
 230      69746563 
 230      74757265 
 230      3A202573 
 230      0D0A00
 231 0067 00       		.align	2
 232              	.LC8:
 233 0068 41524D76 		.ascii	"ARMv7-M\000"
 233      372D4D00 
 234              		.align	2
 235              	.LC9:
 236 0070 436F7265 		.ascii	"Core Variant: %s\015\012\000"
 236      20566172 
 236      69616E74 
 236      3A202573 
 236      0D0A00
 237 0083 00       		.align	2
 238              	.LC10:
 239 0084 436F7274 		.ascii	"Cortex-M3\000"
 239      65782D4D 
 239      3300
 240 008e 0000     		.align	2
 241              	.LC11:
 242 0090 506F7274 		.ascii	"Port Info:    %s\015\012\000"
 242      20496E66 
 242      6F3A2020 
 242      20202573 
 242      0D0A00
 243 00a3 00       		.align	2
 244              	.LC12:
 245 00a4 41647661 		.ascii	"Advanced kernel mode\000"
 245      6E636564 
 245      206B6572 
ARM GAS  C:\Users\z80\AppData\Local\Temp\ccfOmD6n.s 			page 6


 245      6E656C20 
 245      6D6F6465 
 246 00b9 000000   		.align	2
 247              	.LC13:
 248 00bc 506C6174 		.ascii	"Platform:     %s\015\012\000"
 248      666F726D 
 248      3A202020 
 248      20202573 
 248      0D0A00
 249 00cf 00       		.align	2
 250              	.LC14:
 251 00d0 53544D33 		.ascii	"STM32F1 Performance Line Medium Density\000"
 251      32463120 
 251      50657266 
 251      6F726D61 
 251      6E636520 
 252              		.align	2
 253              	.LC15:
 254 00f8 426F6172 		.ascii	"Board:        %s\015\012\000"
 254      643A2020 
 254      20202020 
 254      20202573 
 254      0D0A00
 255 010b 00       		.align	2
 256              	.LC16:
 257 010c 6D792063 		.ascii	"my ctrl-board\000"
 257      74726C2D 
 257      626F6172 
 257      6400
 258 011a 0000     		.align	2
 259              	.LC17:
 260 011c 4275696C 		.ascii	"Build time:   %s%s%s\015\012\000"
 260      64207469 
 260      6D653A20 
 260      20202573 
 260      25732573 
 261 0133 00       		.align	2
 262              	.LC18:
 263 0134 4A756E20 		.ascii	"Jun 12 2015\000"
 263      31322032 
 263      30313500 
 264              		.align	2
 265              	.LC19:
 266 0140 202D2000 		.ascii	" - \000"
 267              		.align	2
 268              	.LC20:
 269 0144 31373A30 		.ascii	"17:04:45\000"
 269      343A3435 
 269      00
 270              		.section	.text.cmd_info,"ax",%progbits
 271              		.align	2
 272              		.p2align 4,,15
 273              		.thumb
 274              		.thumb_func
 275              		.type	cmd_info, %function
 276              	cmd_info:
 277              	.LFB65:
ARM GAS  C:\Users\z80\AppData\Local\Temp\ccfOmD6n.s 			page 7


 278              		.loc 1 78 0
 279              		.cfi_startproc
 280              		@ args = 0, pretend = 0, frame = 16
 281              		@ frame_needed = 0, uses_anonymous_args = 0
 282 0000 00B5     		push	{lr}
 283              	.LCFI6:
 284              		.cfi_def_cfa_offset 4
 285 0002 87B0     		sub	sp, sp, #28
 286              	.LCFI7:
 287              		.cfi_def_cfa_offset 32
 288 0004 0590     		str	r0, [sp, #20]
 289 0006 0491     		str	r1, [sp, #16]
 290 0008 0392     		str	r2, [sp, #12]
 291              		.loc 1 81 0
 292 000a 049B     		ldr	r3, [sp, #16]
 293 000c 002B     		cmp	r3, #0
 294 000e 07DD     		ble	.L13
 295              		.cfi_offset 14, -4
 296              		.loc 1 82 0
 297 0010 0598     		ldr	r0, [sp, #20]
 298 0012 40F20001 		movw	r1, #:lower16:.LC2
 299 0016 C0F20001 		movt	r1, #:upper16:.LC2
 300 001a FFF7FEFF 		bl	usage
 301              		.loc 1 83 0
 302 001e 60E0     		b	.L12
 303              	.L13:
 304              		.loc 1 86 0
 305 0020 0598     		ldr	r0, [sp, #20]
 306 0022 40F20001 		movw	r1, #:lower16:.LC3
 307 0026 C0F20001 		movt	r1, #:upper16:.LC3
 308 002a 40F20002 		movw	r2, #:lower16:.LC4
 309 002e C0F20002 		movt	r2, #:upper16:.LC4
 310 0032 FFF7FEFF 		bl	chprintf
 311              		.loc 1 88 0
 312 0036 0598     		ldr	r0, [sp, #20]
 313 0038 40F20001 		movw	r1, #:lower16:.LC5
 314 003c C0F20001 		movt	r1, #:upper16:.LC5
 315 0040 40F20002 		movw	r2, #:lower16:.LC6
 316 0044 C0F20002 		movt	r2, #:upper16:.LC6
 317 0048 FFF7FEFF 		bl	chprintf
 318              		.loc 1 90 0
 319 004c 0598     		ldr	r0, [sp, #20]
 320 004e 40F20001 		movw	r1, #:lower16:.LC7
 321 0052 C0F20001 		movt	r1, #:upper16:.LC7
 322 0056 40F20002 		movw	r2, #:lower16:.LC8
 323 005a C0F20002 		movt	r2, #:upper16:.LC8
 324 005e FFF7FEFF 		bl	chprintf
 325              		.loc 1 92 0
 326 0062 0598     		ldr	r0, [sp, #20]
 327 0064 40F20001 		movw	r1, #:lower16:.LC9
 328 0068 C0F20001 		movt	r1, #:upper16:.LC9
 329 006c 40F20002 		movw	r2, #:lower16:.LC10
 330 0070 C0F20002 		movt	r2, #:upper16:.LC10
 331 0074 FFF7FEFF 		bl	chprintf
 332              		.loc 1 95 0
 333 0078 0598     		ldr	r0, [sp, #20]
 334 007a 40F20001 		movw	r1, #:lower16:.LC11
ARM GAS  C:\Users\z80\AppData\Local\Temp\ccfOmD6n.s 			page 8


 335 007e C0F20001 		movt	r1, #:upper16:.LC11
 336 0082 40F20002 		movw	r2, #:lower16:.LC12
 337 0086 C0F20002 		movt	r2, #:upper16:.LC12
 338 008a FFF7FEFF 		bl	chprintf
 339              		.loc 1 98 0
 340 008e 0598     		ldr	r0, [sp, #20]
 341 0090 40F20001 		movw	r1, #:lower16:.LC13
 342 0094 C0F20001 		movt	r1, #:upper16:.LC13
 343 0098 40F20002 		movw	r2, #:lower16:.LC14
 344 009c C0F20002 		movt	r2, #:upper16:.LC14
 345 00a0 FFF7FEFF 		bl	chprintf
 346              		.loc 1 101 0
 347 00a4 0598     		ldr	r0, [sp, #20]
 348 00a6 40F20001 		movw	r1, #:lower16:.LC15
 349 00aa C0F20001 		movt	r1, #:upper16:.LC15
 350 00ae 40F20002 		movw	r2, #:lower16:.LC16
 351 00b2 C0F20002 		movt	r2, #:upper16:.LC16
 352 00b6 FFF7FEFF 		bl	chprintf
 353              		.loc 1 105 0
 354 00ba 40F20003 		movw	r3, #:lower16:.LC20
 355 00be C0F20003 		movt	r3, #:upper16:.LC20
 356 00c2 0093     		str	r3, [sp, #0]
 357 00c4 0598     		ldr	r0, [sp, #20]
 358 00c6 40F20001 		movw	r1, #:lower16:.LC17
 359 00ca C0F20001 		movt	r1, #:upper16:.LC17
 360 00ce 40F20002 		movw	r2, #:lower16:.LC18
 361 00d2 C0F20002 		movt	r2, #:upper16:.LC18
 362 00d6 40F20003 		movw	r3, #:lower16:.LC19
 363 00da C0F20003 		movt	r3, #:upper16:.LC19
 364 00de FFF7FEFF 		bl	chprintf
 365              	.L12:
 366              		.loc 1 108 0
 367 00e2 07B0     		add	sp, sp, #28
 368 00e4 00BD     		pop	{pc}
 369              		.cfi_endproc
 370              	.LFE65:
 371              		.size	cmd_info, .-cmd_info
 372 00e6 00BFAFF3 		.section	.rodata
 372      0080AFF3 
 372      0080
 373 014d 000000   		.align	2
 374              	.LC21:
 375 0150 73797374 		.ascii	"systime\000"
 375      696D6500 
 376              		.align	2
 377              	.LC22:
 378 0158 256C750D 		.ascii	"%lu\015\012\000"
 378      0A00
 379              		.section	.text.cmd_systime,"ax",%progbits
 380              		.align	2
 381              		.p2align 4,,15
 382              		.thumb
 383              		.thumb_func
 384              		.type	cmd_systime, %function
 385              	cmd_systime:
 386              	.LFB66:
 387              		.loc 1 110 0
ARM GAS  C:\Users\z80\AppData\Local\Temp\ccfOmD6n.s 			page 9


 388              		.cfi_startproc
 389              		@ args = 0, pretend = 0, frame = 16
 390              		@ frame_needed = 0, uses_anonymous_args = 0
 391 0000 00B5     		push	{lr}
 392              	.LCFI8:
 393              		.cfi_def_cfa_offset 4
 394 0002 85B0     		sub	sp, sp, #20
 395              	.LCFI9:
 396              		.cfi_def_cfa_offset 24
 397 0004 0390     		str	r0, [sp, #12]
 398 0006 0291     		str	r1, [sp, #8]
 399 0008 0192     		str	r2, [sp, #4]
 400              		.loc 1 113 0
 401 000a 029B     		ldr	r3, [sp, #8]
 402 000c 002B     		cmp	r3, #0
 403 000e 07DD     		ble	.L16
 404              		.cfi_offset 14, -4
 405              		.loc 1 114 0
 406 0010 0398     		ldr	r0, [sp, #12]
 407 0012 40F20001 		movw	r1, #:lower16:.LC21
 408 0016 C0F20001 		movt	r1, #:upper16:.LC21
 409 001a FFF7FEFF 		bl	usage
 410              		.loc 1 115 0
 411 001e 0CE0     		b	.L15
 412              	.L16:
 413              		.loc 1 117 0
 414 0020 40F20003 		movw	r3, #:lower16:vtlist
 415 0024 C0F20003 		movt	r3, #:upper16:vtlist
 416 0028 DB68     		ldr	r3, [r3, #12]
 417 002a 0398     		ldr	r0, [sp, #12]
 418 002c 40F20001 		movw	r1, #:lower16:.LC22
 419 0030 C0F20001 		movt	r1, #:upper16:.LC22
 420 0034 1A46     		mov	r2, r3
 421 0036 FFF7FEFF 		bl	chprintf
 422              	.L15:
 423              		.loc 1 118 0
 424 003a 05B0     		add	sp, sp, #20
 425 003c 00BD     		pop	{pc}
 426              		.cfi_endproc
 427              	.LFE66:
 428              		.size	cmd_systime, .-cmd_systime
 429 003e 00BF     		.section	.data.local_commands,"aw",%progbits
 430              		.align	2
 431              		.type	local_commands, %object
 432              		.size	local_commands, 24
 433              	local_commands:
 434 0000 10000000 		.word	.LC2
 435 0004 00000000 		.word	cmd_info
 436 0008 50010000 		.word	.LC21
 437 000c 00000000 		.word	cmd_systime
 438 0010 00000000 		.word	0
 439 0014 00000000 		.word	0
 440              		.section	.text.cmdexec,"ax",%progbits
 441              		.align	2
 442              		.p2align 4,,15
 443              		.thumb
 444              		.thumb_func
ARM GAS  C:\Users\z80\AppData\Local\Temp\ccfOmD6n.s 			page 10


 445              		.type	cmdexec, %function
 446              	cmdexec:
 447              	.LFB67:
 448              		.loc 1 130 0
 449              		.cfi_startproc
 450              		@ args = 4, pretend = 0, frame = 16
 451              		@ frame_needed = 0, uses_anonymous_args = 0
 452 0000 00B5     		push	{lr}
 453              	.LCFI10:
 454              		.cfi_def_cfa_offset 4
 455 0002 85B0     		sub	sp, sp, #20
 456              	.LCFI11:
 457              		.cfi_def_cfa_offset 24
 458 0004 0390     		str	r0, [sp, #12]
 459 0006 0291     		str	r1, [sp, #8]
 460 0008 0192     		str	r2, [sp, #4]
 461 000a 0093     		str	r3, [sp, #0]
 462              		.loc 1 132 0
 463 000c 15E0     		b	.L19
 464              		.cfi_offset 14, -4
 465              	.L22:
 466              		.loc 1 133 0
 467 000e 039B     		ldr	r3, [sp, #12]
 468 0010 1B68     		ldr	r3, [r3, #0]
 469 0012 1846     		mov	r0, r3
 470 0014 0199     		ldr	r1, [sp, #4]
 471 0016 FFF7FEFF 		bl	strcasecmp
 472 001a 0346     		mov	r3, r0
 473 001c 002B     		cmp	r3, #0
 474 001e 08D1     		bne	.L20
 475              		.loc 1 134 0
 476 0020 039B     		ldr	r3, [sp, #12]
 477 0022 5B68     		ldr	r3, [r3, #4]
 478 0024 0298     		ldr	r0, [sp, #8]
 479 0026 0099     		ldr	r1, [sp, #0]
 480 0028 069A     		ldr	r2, [sp, #24]
 481 002a 9847     		blx	r3
 482              		.loc 1 135 0
 483 002c 4FF00003 		mov	r3, #0
 484 0030 09E0     		b	.L21
 485              	.L20:
 486              		.loc 1 137 0
 487 0032 039B     		ldr	r3, [sp, #12]
 488 0034 03F10803 		add	r3, r3, #8
 489 0038 0393     		str	r3, [sp, #12]
 490              	.L19:
 491              		.loc 1 132 0 discriminator 1
 492 003a 039B     		ldr	r3, [sp, #12]
 493 003c 1B68     		ldr	r3, [r3, #0]
 494 003e 002B     		cmp	r3, #0
 495 0040 E5D1     		bne	.L22
 496              		.loc 1 139 0
 497 0042 4FF00103 		mov	r3, #1
 498              	.L21:
 499              		.loc 1 140 0
 500 0046 1846     		mov	r0, r3
 501 0048 05B0     		add	sp, sp, #20
ARM GAS  C:\Users\z80\AppData\Local\Temp\ccfOmD6n.s 			page 11


 502 004a 00BD     		pop	{pc}
 503              		.cfi_endproc
 504              	.LFE67:
 505              		.size	cmdexec, .-cmdexec
 506 004c AFF30080 		.section	.rodata
 507 015e 0000     		.align	2
 508              	.LC23:
 509 0160 7368656C 		.ascii	"shell\000"
 509      6C00
 510 0166 0000     		.align	2
 511              	.LC24:
 512 0168 0D0A4368 		.ascii	"\015\012ChibiOS/RT Shell\015\012\000"
 512      6962694F 
 512      532F5254 
 512      20536865 
 512      6C6C0D0A 
 513 017d 000000   		.align	2
 514              	.LC25:
 515 0180 63683E20 		.ascii	"ch> \000"
 515      00
 516 0185 000000   		.align	2
 517              	.LC26:
 518 0188 0D0A6C6F 		.ascii	"\015\012logout\000"
 518      676F7574 
 518      00
 519 0191 000000   		.align	2
 520              	.LC27:
 521 0194 20003900 		.ascii	" \0009\000"
 522              		.align	2
 523              	.LC28:
 524 0198 746F6F20 		.ascii	"too many arguments\015\012\000"
 524      6D616E79 
 524      20617267 
 524      756D656E 
 524      74730D0A 
 525 01ad 000000   		.align	2
 526              	.LC29:
 527 01b0 65786974 		.ascii	"exit\000"
 527      00
 528 01b5 000000   		.align	2
 529              	.LC30:
 530 01b8 68656C70 		.ascii	"help\000"
 530      00
 531 01bd 000000   		.align	2
 532              	.LC31:
 533 01c0 436F6D6D 		.ascii	"Commands: help exit \000"
 533      616E6473 
 533      3A206865 
 533      6C702065 
 533      78697420 
 534 01d5 000000   		.align	2
 535              	.LC32:
 536 01d8 0D0A00   		.ascii	"\015\012\000"
 537 01db 00       		.align	2
 538              	.LC33:
 539 01dc 257300   		.ascii	"%s\000"
 540 01df 00       		.align	2
ARM GAS  C:\Users\z80\AppData\Local\Temp\ccfOmD6n.s 			page 12


 541              	.LC34:
 542 01e0 203F0D0A 		.ascii	" ?\015\012\000"
 542      00
 543              		.section	.text.shell_thread,"ax",%progbits
 544              		.align	2
 545              		.p2align 4,,15
 546              		.thumb
 547              		.thumb_func
 548              		.type	shell_thread, %function
 549              	shell_thread:
 550              	.LFB68:
 551              		.loc 1 150 0
 552              		.cfi_startproc
 553              		@ args = 0, pretend = 0, frame = 120
 554              		@ frame_needed = 0, uses_anonymous_args = 0
 555 0000 00B5     		push	{lr}
 556              	.LCFI12:
 557              		.cfi_def_cfa_offset 4
 558 0002 A1B0     		sub	sp, sp, #132
 559              	.LCFI13:
 560              		.cfi_def_cfa_offset 136
 561 0004 0390     		str	r0, [sp, #12]
 562              		.loc 1 152 0
 563 0006 4FF00003 		mov	r3, #0
 564 000a 1D93     		str	r3, [sp, #116]
 565              		.loc 1 153 0
 566 000c 039B     		ldr	r3, [sp, #12]
 567 000e 1B68     		ldr	r3, [r3, #0]
 568 0010 1C93     		str	r3, [sp, #112]
 569              		.loc 1 154 0
 570 0012 039B     		ldr	r3, [sp, #12]
 571 0014 5B68     		ldr	r3, [r3, #4]
 572 0016 1B93     		str	r3, [sp, #108]
 573              		.loc 1 158 0
 574 0018 40F20003 		movw	r3, #:lower16:rlist
 575 001c C0F20003 		movt	r3, #:upper16:rlist
 576 0020 DA69     		ldr	r2, [r3, #28]
 577 0022 40F20003 		movw	r3, #:lower16:.LC23
 578 0026 C0F20003 		movt	r3, #:upper16:.LC23
 579 002a 9361     		str	r3, [r2, #24]
 580              		.loc 1 159 0
 581 002c 1C98     		ldr	r0, [sp, #112]
 582 002e 40F20001 		movw	r1, #:lower16:.LC24
 583 0032 C0F20001 		movt	r1, #:upper16:.LC24
 584              		.cfi_offset 14, -4
 585 0036 FFF7FEFF 		bl	chprintf
 586 003a 04E0     		b	.L37
 587              	.L38:
 588              		.loc 1 203 0
 589 003c 00BF     		nop
 590 003e 02E0     		b	.L37
 591              	.L40:
 592 0040 00BF     		nop
 593 0042 00E0     		b	.L37
 594              	.L41:
 595 0044 00BF     		nop
 596              	.L37:
ARM GAS  C:\Users\z80\AppData\Local\Temp\ccfOmD6n.s 			page 13


 597              		.loc 1 161 0
 598 0046 1C98     		ldr	r0, [sp, #112]
 599 0048 40F20001 		movw	r1, #:lower16:.LC25
 600 004c C0F20001 		movt	r1, #:upper16:.LC25
 601 0050 FFF7FEFF 		bl	chprintf
 602              		.loc 1 162 0
 603 0054 09AB     		add	r3, sp, #36
 604 0056 1C98     		ldr	r0, [sp, #112]
 605 0058 1946     		mov	r1, r3
 606 005a 4FF04002 		mov	r2, #64
 607 005e FFF7FEFF 		bl	shellGetLine
 608 0062 0346     		mov	r3, r0
 609 0064 002B     		cmp	r3, #0
 610 0066 07D0     		beq	.L24
 611              		.loc 1 163 0
 612 0068 1C98     		ldr	r0, [sp, #112]
 613 006a 40F20001 		movw	r1, #:lower16:.LC26
 614 006e C0F20001 		movt	r1, #:upper16:.LC26
 615 0072 FFF7FEFF 		bl	chprintf
 616              		.loc 1 164 0
 617 0076 BDE0     		b	.L25
 618              	.L24:
 619              		.loc 1 166 0
 620 0078 09AA     		add	r2, sp, #36
 621 007a 19AB     		add	r3, sp, #100
 622 007c 1046     		mov	r0, r2
 623 007e 40F20001 		movw	r1, #:lower16:.LC27
 624 0082 C0F20001 		movt	r1, #:upper16:.LC27
 625 0086 1A46     		mov	r2, r3
 626 0088 FFF7FEFF 		bl	_strtok
 627 008c 0346     		mov	r3, r0
 628 008e 1A93     		str	r3, [sp, #104]
 629              		.loc 1 167 0
 630 0090 1A9B     		ldr	r3, [sp, #104]
 631 0092 1E93     		str	r3, [sp, #120]
 632              		.loc 1 168 0
 633 0094 4FF00003 		mov	r3, #0
 634 0098 1F93     		str	r3, [sp, #124]
 635              		.loc 1 169 0
 636 009a 19E0     		b	.L26
 637              	.L29:
 638              		.loc 1 170 0
 639 009c 1F9B     		ldr	r3, [sp, #124]
 640 009e 032B     		cmp	r3, #3
 641 00a0 0ADD     		ble	.L27
 642              		.loc 1 171 0
 643 00a2 1C98     		ldr	r0, [sp, #112]
 644 00a4 40F20001 		movw	r1, #:lower16:.LC28
 645 00a8 C0F20001 		movt	r1, #:upper16:.LC28
 646 00ac FFF7FEFF 		bl	chprintf
 647              		.loc 1 172 0
 648 00b0 4FF00003 		mov	r3, #0
 649 00b4 1E93     		str	r3, [sp, #120]
 650              		.loc 1 173 0
 651 00b6 1AE0     		b	.L28
 652              	.L27:
 653              		.loc 1 175 0
ARM GAS  C:\Users\z80\AppData\Local\Temp\ccfOmD6n.s 			page 14


 654 00b8 1F9B     		ldr	r3, [sp, #124]
 655 00ba 4FEA8303 		lsl	r3, r3, #2
 656 00be 20AA     		add	r2, sp, #128
 657 00c0 1344     		add	r3, r2, r3
 658 00c2 1A9A     		ldr	r2, [sp, #104]
 659 00c4 43F8702C 		str	r2, [r3, #-112]
 660 00c8 1F9B     		ldr	r3, [sp, #124]
 661 00ca 03F10103 		add	r3, r3, #1
 662 00ce 1F93     		str	r3, [sp, #124]
 663              	.L26:
 664              		.loc 1 169 0 discriminator 1
 665 00d0 19AB     		add	r3, sp, #100
 666 00d2 4FF00000 		mov	r0, #0
 667 00d6 40F20001 		movw	r1, #:lower16:.LC27
 668 00da C0F20001 		movt	r1, #:upper16:.LC27
 669 00de 1A46     		mov	r2, r3
 670 00e0 FFF7FEFF 		bl	_strtok
 671 00e4 0346     		mov	r3, r0
 672 00e6 1A93     		str	r3, [sp, #104]
 673 00e8 1A9B     		ldr	r3, [sp, #104]
 674 00ea 002B     		cmp	r3, #0
 675 00ec D6D1     		bne	.L29
 676              	.L28:
 677              		.loc 1 177 0
 678 00ee 1F9B     		ldr	r3, [sp, #124]
 679 00f0 4FEA8303 		lsl	r3, r3, #2
 680 00f4 20AA     		add	r2, sp, #128
 681 00f6 1344     		add	r3, r2, r3
 682 00f8 4FF00002 		mov	r2, #0
 683 00fc 43F8702C 		str	r2, [r3, #-112]
 684              		.loc 1 178 0
 685 0100 1E9B     		ldr	r3, [sp, #120]
 686 0102 002B     		cmp	r3, #0
 687 0104 9AD0     		beq	.L38
 688              		.loc 1 179 0
 689 0106 1E98     		ldr	r0, [sp, #120]
 690 0108 40F20001 		movw	r1, #:lower16:.LC29
 691 010c C0F20001 		movt	r1, #:upper16:.LC29
 692 0110 FFF7FEFF 		bl	strcasecmp
 693 0114 0346     		mov	r3, r0
 694 0116 002B     		cmp	r3, #0
 695 0118 0AD1     		bne	.L31
 696              		.loc 1 180 0
 697 011a 1F9B     		ldr	r3, [sp, #124]
 698 011c 002B     		cmp	r3, #0
 699 011e 68DD     		ble	.L39
 700              		.loc 1 181 0
 701 0120 1C98     		ldr	r0, [sp, #112]
 702 0122 40F20001 		movw	r1, #:lower16:.LC29
 703 0126 C0F20001 		movt	r1, #:upper16:.LC29
 704 012a FFF7FEFF 		bl	usage
 705              		.loc 1 182 0
 706 012e 5FE0     		b	.L30
 707              	.L31:
 708              		.loc 1 186 0
 709 0130 1E98     		ldr	r0, [sp, #120]
 710 0132 40F20001 		movw	r1, #:lower16:.LC30
ARM GAS  C:\Users\z80\AppData\Local\Temp\ccfOmD6n.s 			page 15


 711 0136 C0F20001 		movt	r1, #:upper16:.LC30
 712 013a FFF7FEFF 		bl	strcasecmp
 713 013e 0346     		mov	r3, r0
 714 0140 002B     		cmp	r3, #0
 715 0142 27D1     		bne	.L33
 716              		.loc 1 187 0
 717 0144 1F9B     		ldr	r3, [sp, #124]
 718 0146 002B     		cmp	r3, #0
 719 0148 07DD     		ble	.L34
 720              		.loc 1 188 0
 721 014a 1C98     		ldr	r0, [sp, #112]
 722 014c 40F20001 		movw	r1, #:lower16:.LC30
 723 0150 C0F20001 		movt	r1, #:upper16:.LC30
 724 0154 FFF7FEFF 		bl	usage
 725              		.loc 1 189 0
 726 0158 4AE0     		b	.L30
 727              	.L34:
 728              		.loc 1 191 0
 729 015a 1C98     		ldr	r0, [sp, #112]
 730 015c 40F20001 		movw	r1, #:lower16:.LC31
 731 0160 C0F20001 		movt	r1, #:upper16:.LC31
 732 0164 FFF7FEFF 		bl	chprintf
 733              		.loc 1 192 0
 734 0168 1C98     		ldr	r0, [sp, #112]
 735 016a 40F20001 		movw	r1, #:lower16:local_commands
 736 016e C0F20001 		movt	r1, #:upper16:local_commands
 737 0172 FFF7FEFF 		bl	list_commands
 738              		.loc 1 193 0
 739 0176 1B9B     		ldr	r3, [sp, #108]
 740 0178 002B     		cmp	r3, #0
 741 017a 03D0     		beq	.L35
 742              		.loc 1 194 0
 743 017c 1C98     		ldr	r0, [sp, #112]
 744 017e 1B99     		ldr	r1, [sp, #108]
 745 0180 FFF7FEFF 		bl	list_commands
 746              	.L35:
 747              		.loc 1 195 0
 748 0184 1C98     		ldr	r0, [sp, #112]
 749 0186 40F20001 		movw	r1, #:lower16:.LC32
 750 018a C0F20001 		movt	r1, #:upper16:.LC32
 751 018e FFF7FEFF 		bl	chprintf
 752              		.loc 1 203 0
 753 0192 58E7     		b	.L37
 754              	.L33:
 755              		.loc 1 197 0
 756 0194 04AB     		add	r3, sp, #16
 757 0196 0093     		str	r3, [sp, #0]
 758 0198 40F20000 		movw	r0, #:lower16:local_commands
 759 019c C0F20000 		movt	r0, #:upper16:local_commands
 760 01a0 1C99     		ldr	r1, [sp, #112]
 761 01a2 1E9A     		ldr	r2, [sp, #120]
 762 01a4 1F9B     		ldr	r3, [sp, #124]
 763 01a6 FFF7FEFF 		bl	cmdexec
 764 01aa 0346     		mov	r3, r0
 765 01ac 002B     		cmp	r3, #0
 766 01ae 3FF447AF 		beq	.L40
 767              		.loc 1 197 0 is_stmt 0 discriminator 1
ARM GAS  C:\Users\z80\AppData\Local\Temp\ccfOmD6n.s 			page 16


 768 01b2 1B9B     		ldr	r3, [sp, #108]
 769 01b4 002B     		cmp	r3, #0
 770 01b6 0BD0     		beq	.L36
 771              		.loc 1 198 0 is_stmt 1
 772 01b8 04AB     		add	r3, sp, #16
 773 01ba 0093     		str	r3, [sp, #0]
 774 01bc 1B98     		ldr	r0, [sp, #108]
 775 01be 1C99     		ldr	r1, [sp, #112]
 776 01c0 1E9A     		ldr	r2, [sp, #120]
 777 01c2 1F9B     		ldr	r3, [sp, #124]
 778 01c4 FFF7FEFF 		bl	cmdexec
 779 01c8 0346     		mov	r3, r0
 780 01ca 002B     		cmp	r3, #0
 781 01cc 3FF43AAF 		beq	.L41
 782              	.L36:
 783              		.loc 1 199 0
 784 01d0 1C98     		ldr	r0, [sp, #112]
 785 01d2 40F20001 		movw	r1, #:lower16:.LC33
 786 01d6 C0F20001 		movt	r1, #:upper16:.LC33
 787 01da 1E9A     		ldr	r2, [sp, #120]
 788 01dc FFF7FEFF 		bl	chprintf
 789              		.loc 1 200 0
 790 01e0 1C98     		ldr	r0, [sp, #112]
 791 01e2 40F20001 		movw	r1, #:lower16:.LC34
 792 01e6 C0F20001 		movt	r1, #:upper16:.LC34
 793 01ea FFF7FEFF 		bl	chprintf
 794              		.loc 1 203 0
 795 01ee 2AE7     		b	.L37
 796              	.L30:
 797 01f0 29E7     		b	.L37
 798              	.L39:
 799              		.loc 1 184 0
 800 01f2 00BF     		nop
 801              	.L25:
 802              	.LBB2:
 803              		.loc 1 206 0
 804 01f4 4FF02003 		mov	r3, #32
 805              	@ 206 "../chibios_2.4.x/os/various/shell.c" 1
 806 01f8 83F31188 		msr     BASEPRI, r3
 807              	@ 0 "" 2
 808              		.thumb
 809              	.LBE2:
 810 01fc FFF7FEFF 		bl	dbg_check_lock
 811              		.loc 1 207 0
 812 0200 40F20000 		movw	r0, #:lower16:shell_terminated
 813 0204 C0F20000 		movt	r0, #:upper16:shell_terminated
 814 0208 4FF00001 		mov	r1, #0
 815 020c FFF7FEFF 		bl	chEvtBroadcastFlagsI
 816              		.loc 1 208 0
 817 0210 1D98     		ldr	r0, [sp, #116]
 818 0212 FFF7FEFF 		bl	chThdExitS
 819              		.loc 1 209 0
 820 0216 4FF00003 		mov	r3, #0
 821              		.loc 1 210 0
 822 021a 1846     		mov	r0, r3
 823 021c 21B0     		add	sp, sp, #132
 824 021e 00BD     		pop	{pc}
ARM GAS  C:\Users\z80\AppData\Local\Temp\ccfOmD6n.s 			page 17


 825              		.cfi_endproc
 826              	.LFE68:
 827              		.size	shell_thread, .-shell_thread
 828              		.section	.text.shellInit,"ax",%progbits
 829              		.align	2
 830              		.p2align 4,,15
 831              		.global	shellInit
 832              		.thumb
 833              		.thumb_func
 834              		.type	shellInit, %function
 835              	shellInit:
 836              	.LFB69:
 837              		.loc 1 215 0
 838              		.cfi_startproc
 839              		@ args = 0, pretend = 0, frame = 0
 840              		@ frame_needed = 0, uses_anonymous_args = 0
 841              		@ link register save eliminated.
 842              		.loc 1 217 0
 843 0000 40F20002 		movw	r2, #:lower16:shell_terminated
 844 0004 C0F20002 		movt	r2, #:upper16:shell_terminated
 845 0008 40F20003 		movw	r3, #:lower16:shell_terminated
 846 000c C0F20003 		movt	r3, #:upper16:shell_terminated
 847 0010 1A60     		str	r2, [r3, #0]
 848              		.loc 1 218 0
 849 0012 7047     		bx	lr
 850              		.cfi_endproc
 851              	.LFE69:
 852              		.size	shellInit, .-shellInit
 853 0014 AFF30080 		.section	.text.shellCreateStatic,"ax",%progbits
 853      AFF30080 
 853      AFF30080 
 854              		.align	2
 855              		.p2align 4,,15
 856              		.global	shellCreateStatic
 857              		.thumb
 858              		.thumb_func
 859              		.type	shellCreateStatic, %function
 860              	shellCreateStatic:
 861              	.LFB70:
 862              		.loc 1 247 0
 863              		.cfi_startproc
 864              		@ args = 0, pretend = 0, frame = 16
 865              		@ frame_needed = 0, uses_anonymous_args = 0
 866 0000 00B5     		push	{lr}
 867              	.LCFI14:
 868              		.cfi_def_cfa_offset 4
 869 0002 87B0     		sub	sp, sp, #28
 870              	.LCFI15:
 871              		.cfi_def_cfa_offset 32
 872 0004 0590     		str	r0, [sp, #20]
 873 0006 0491     		str	r1, [sp, #16]
 874 0008 0392     		str	r2, [sp, #12]
 875 000a 0293     		str	r3, [sp, #8]
 876              		.loc 1 249 0
 877 000c 059B     		ldr	r3, [sp, #20]
 878 000e 0093     		str	r3, [sp, #0]
 879 0010 0498     		ldr	r0, [sp, #16]
ARM GAS  C:\Users\z80\AppData\Local\Temp\ccfOmD6n.s 			page 18


 880 0012 0399     		ldr	r1, [sp, #12]
 881 0014 029A     		ldr	r2, [sp, #8]
 882 0016 40F20003 		movw	r3, #:lower16:shell_thread
 883 001a C0F20003 		movt	r3, #:upper16:shell_thread
 884              		.cfi_offset 14, -4
 885 001e FFF7FEFF 		bl	chThdCreateStatic
 886 0022 0346     		mov	r3, r0
 887              		.loc 1 250 0
 888 0024 1846     		mov	r0, r3
 889 0026 07B0     		add	sp, sp, #28
 890 0028 00BD     		pop	{pc}
 891              		.cfi_endproc
 892              	.LFE70:
 893              		.size	shellCreateStatic, .-shellCreateStatic
 894 002a 00BFAFF3 		.section	.rodata
 894      0080
 895 01e5 000000   		.align	2
 896              	.LC35:
 897 01e8 5E4400   		.ascii	"^D\000"
 898 01eb 00       		.section	.text.shellGetLine,"ax",%progbits
 899              		.align	2
 900              		.p2align 4,,15
 901              		.global	shellGetLine
 902              		.thumb
 903              		.thumb_func
 904              		.type	shellGetLine, %function
 905              	shellGetLine:
 906              	.LFB71:
 907              		.loc 1 262 0
 908              		.cfi_startproc
 909              		@ args = 0, pretend = 0, frame = 24
 910              		@ frame_needed = 0, uses_anonymous_args = 0
 911 0000 00B5     		push	{lr}
 912              	.LCFI16:
 913              		.cfi_def_cfa_offset 4
 914 0002 87B0     		sub	sp, sp, #28
 915              	.LCFI17:
 916              		.cfi_def_cfa_offset 32
 917 0004 0390     		str	r0, [sp, #12]
 918 0006 0291     		str	r1, [sp, #8]
 919 0008 0192     		str	r2, [sp, #4]
 920              		.loc 1 263 0
 921 000a 029B     		ldr	r3, [sp, #8]
 922 000c 0593     		str	r3, [sp, #20]
 923 000e 00E0     		b	.L53
 924              		.cfi_offset 14, -4
 925              	.L54:
 926              		.loc 1 293 0
 927 0010 00BF     		nop
 928              	.L53:
 929              	.LBB3:
 930              		.loc 1 266 0
 931 0012 039B     		ldr	r3, [sp, #12]
 932 0014 1B68     		ldr	r3, [r3, #0]
 933 0016 5B69     		ldr	r3, [r3, #20]
 934 0018 0398     		ldr	r0, [sp, #12]
 935 001a 4FF0FF31 		mov	r1, #-1
ARM GAS  C:\Users\z80\AppData\Local\Temp\ccfOmD6n.s 			page 19


 936 001e 9847     		blx	r3
 937 0020 0346     		mov	r3, r0
 938 0022 ADF81230 		strh	r3, [sp, #18]	@ movhi
 939              		.loc 1 267 0
 940 0026 BDF91230 		ldrsh	r3, [sp, #18]
 941 002a 002B     		cmp	r3, #0
 942 002c 02DA     		bge	.L45
 943              		.loc 1 268 0
 944 002e 4FF00103 		mov	r3, #1
 945 0032 6EE0     		b	.L46
 946              	.L45:
 947              		.loc 1 269 0
 948 0034 BDF91230 		ldrsh	r3, [sp, #18]
 949 0038 042B     		cmp	r3, #4
 950 003a 09D1     		bne	.L47
 951              		.loc 1 270 0
 952 003c 0398     		ldr	r0, [sp, #12]
 953 003e 40F20001 		movw	r1, #:lower16:.LC35
 954 0042 C0F20001 		movt	r1, #:upper16:.LC35
 955 0046 FFF7FEFF 		bl	chprintf
 956              		.loc 1 271 0
 957 004a 4FF00103 		mov	r3, #1
 958 004e 60E0     		b	.L46
 959              	.L47:
 960              		.loc 1 273 0
 961 0050 BDF91230 		ldrsh	r3, [sp, #18]
 962 0054 082B     		cmp	r3, #8
 963 0056 27D1     		bne	.L48
 964              		.loc 1 274 0
 965 0058 059A     		ldr	r2, [sp, #20]
 966 005a 029B     		ldr	r3, [sp, #8]
 967 005c 9A42     		cmp	r2, r3
 968 005e 22D0     		beq	.L49
 969              		.loc 1 275 0
 970 0060 039B     		ldr	r3, [sp, #12]
 971 0062 1B68     		ldr	r3, [r3, #0]
 972 0064 1B69     		ldr	r3, [r3, #16]
 973 0066 BDF81220 		ldrh	r2, [sp, #18]	@ movhi
 974 006a D2B2     		uxtb	r2, r2
 975 006c 0398     		ldr	r0, [sp, #12]
 976 006e 1146     		mov	r1, r2
 977 0070 4FF0FF32 		mov	r2, #-1
 978 0074 9847     		blx	r3
 979              		.loc 1 276 0
 980 0076 039B     		ldr	r3, [sp, #12]
 981 0078 1B68     		ldr	r3, [r3, #0]
 982 007a 1B69     		ldr	r3, [r3, #16]
 983 007c 0398     		ldr	r0, [sp, #12]
 984 007e 4FF02001 		mov	r1, #32
 985 0082 4FF0FF32 		mov	r2, #-1
 986 0086 9847     		blx	r3
 987              		.loc 1 277 0
 988 0088 039B     		ldr	r3, [sp, #12]
 989 008a 1B68     		ldr	r3, [r3, #0]
 990 008c 1B69     		ldr	r3, [r3, #16]
 991 008e BDF81220 		ldrh	r2, [sp, #18]	@ movhi
 992 0092 D2B2     		uxtb	r2, r2
ARM GAS  C:\Users\z80\AppData\Local\Temp\ccfOmD6n.s 			page 20


 993 0094 0398     		ldr	r0, [sp, #12]
 994 0096 1146     		mov	r1, r2
 995 0098 4FF0FF32 		mov	r2, #-1
 996 009c 9847     		blx	r3
 997              		.loc 1 278 0
 998 009e 059B     		ldr	r3, [sp, #20]
 999 00a0 03F1FF33 		add	r3, r3, #-1
 1000 00a4 0593     		str	r3, [sp, #20]
 1001              	.L49:
 1002              		.loc 1 280 0
 1003 00a6 33E0     		b	.L50
 1004              	.L48:
 1005              		.loc 1 282 0
 1006 00a8 BDF91230 		ldrsh	r3, [sp, #18]
 1007 00ac 0D2B     		cmp	r3, #13
 1008 00ae 0DD1     		bne	.L51
 1009              		.loc 1 283 0
 1010 00b0 0398     		ldr	r0, [sp, #12]
 1011 00b2 40F20001 		movw	r1, #:lower16:.LC32
 1012 00b6 C0F20001 		movt	r1, #:upper16:.LC32
 1013 00ba FFF7FEFF 		bl	chprintf
 1014              		.loc 1 284 0
 1015 00be 059B     		ldr	r3, [sp, #20]
 1016 00c0 4FF00002 		mov	r2, #0
 1017 00c4 1A70     		strb	r2, [r3, #0]
 1018              		.loc 1 285 0
 1019 00c6 4FF00003 		mov	r3, #0
 1020 00ca 22E0     		b	.L46
 1021              	.L51:
 1022              		.loc 1 287 0
 1023 00cc BDF91230 		ldrsh	r3, [sp, #18]
 1024 00d0 1F2B     		cmp	r3, #31
 1025 00d2 00DC     		bgt	.L52
 1026              		.loc 1 288 0
 1027 00d4 1CE0     		b	.L50
 1028              	.L52:
 1029              		.loc 1 289 0
 1030 00d6 019B     		ldr	r3, [sp, #4]
 1031 00d8 03F1FF33 		add	r3, r3, #-1
 1032 00dc 029A     		ldr	r2, [sp, #8]
 1033 00de 1A44     		add	r2, r2, r3
 1034 00e0 059B     		ldr	r3, [sp, #20]
 1035 00e2 9A42     		cmp	r2, r3
 1036 00e4 94D9     		bls	.L54
 1037              		.loc 1 290 0
 1038 00e6 039B     		ldr	r3, [sp, #12]
 1039 00e8 1B68     		ldr	r3, [r3, #0]
 1040 00ea 1B69     		ldr	r3, [r3, #16]
 1041 00ec BDF81220 		ldrh	r2, [sp, #18]	@ movhi
 1042 00f0 D2B2     		uxtb	r2, r2
 1043 00f2 0398     		ldr	r0, [sp, #12]
 1044 00f4 1146     		mov	r1, r2
 1045 00f6 4FF0FF32 		mov	r2, #-1
 1046 00fa 9847     		blx	r3
 1047              		.loc 1 291 0
 1048 00fc BDF81230 		ldrh	r3, [sp, #18]	@ movhi
 1049 0100 DAB2     		uxtb	r2, r3
ARM GAS  C:\Users\z80\AppData\Local\Temp\ccfOmD6n.s 			page 21


 1050 0102 059B     		ldr	r3, [sp, #20]
 1051 0104 1A70     		strb	r2, [r3, #0]
 1052 0106 059B     		ldr	r3, [sp, #20]
 1053 0108 03F10103 		add	r3, r3, #1
 1054 010c 0593     		str	r3, [sp, #20]
 1055              	.LBE3:
 1056              		.loc 1 293 0
 1057 010e 80E7     		b	.L53
 1058              	.L50:
 1059 0110 7FE7     		b	.L53
 1060              	.L46:
 1061              		.loc 1 294 0
 1062 0112 1846     		mov	r0, r3
 1063 0114 07B0     		add	sp, sp, #28
 1064 0116 00BD     		pop	{pc}
 1065              		.cfi_endproc
 1066              	.LFE71:
 1067              		.size	shellGetLine, .-shellGetLine
 1068 0118 AFF30080 		.text
 1068      AFF30080 
 1069              	.Letext0:
 1070              		.section	.debug_loc,"",%progbits
 1071              	.Ldebug_loc0:
 1072              	.LLST0:
 1073 0000 00000000 		.4byte	.LFB62
 1074 0004 02000000 		.4byte	.LCFI0
 1075 0008 0200     		.2byte	0x2
 1076 000a 7D       		.byte	0x7d
 1077 000b 00       		.sleb128 0
 1078 000c 02000000 		.4byte	.LCFI0
 1079 0010 04000000 		.4byte	.LCFI1
 1080 0014 0200     		.2byte	0x2
 1081 0016 7D       		.byte	0x7d
 1082 0017 04       		.sleb128 4
 1083 0018 04000000 		.4byte	.LCFI1
 1084 001c 76000000 		.4byte	.LFE62
 1085 0020 0200     		.2byte	0x2
 1086 0022 7D       		.byte	0x7d
 1087 0023 20       		.sleb128 32
 1088 0024 00000000 		.4byte	0x0
 1089 0028 00000000 		.4byte	0x0
 1090              	.LLST1:
 1091 002c 00000000 		.4byte	.LFB63
 1092 0030 02000000 		.4byte	.LCFI2
 1093 0034 0200     		.2byte	0x2
 1094 0036 7D       		.byte	0x7d
 1095 0037 00       		.sleb128 0
 1096 0038 02000000 		.4byte	.LCFI2
 1097 003c 04000000 		.4byte	.LCFI3
 1098 0040 0200     		.2byte	0x2
 1099 0042 7D       		.byte	0x7d
 1100 0043 04       		.sleb128 4
 1101 0044 04000000 		.4byte	.LCFI3
 1102 0048 1C000000 		.4byte	.LFE63
 1103 004c 0200     		.2byte	0x2
 1104 004e 7D       		.byte	0x7d
 1105 004f 10       		.sleb128 16
ARM GAS  C:\Users\z80\AppData\Local\Temp\ccfOmD6n.s 			page 22


 1106 0050 00000000 		.4byte	0x0
 1107 0054 00000000 		.4byte	0x0
 1108              	.LLST2:
 1109 0058 00000000 		.4byte	.LFB64
 1110 005c 02000000 		.4byte	.LCFI4
 1111 0060 0200     		.2byte	0x2
 1112 0062 7D       		.byte	0x7d
 1113 0063 00       		.sleb128 0
 1114 0064 02000000 		.4byte	.LCFI4
 1115 0068 04000000 		.4byte	.LCFI5
 1116 006c 0200     		.2byte	0x2
 1117 006e 7D       		.byte	0x7d
 1118 006f 04       		.sleb128 4
 1119 0070 04000000 		.4byte	.LCFI5
 1120 0074 32000000 		.4byte	.LFE64
 1121 0078 0200     		.2byte	0x2
 1122 007a 7D       		.byte	0x7d
 1123 007b 10       		.sleb128 16
 1124 007c 00000000 		.4byte	0x0
 1125 0080 00000000 		.4byte	0x0
 1126              	.LLST3:
 1127 0084 00000000 		.4byte	.LFB65
 1128 0088 02000000 		.4byte	.LCFI6
 1129 008c 0200     		.2byte	0x2
 1130 008e 7D       		.byte	0x7d
 1131 008f 00       		.sleb128 0
 1132 0090 02000000 		.4byte	.LCFI6
 1133 0094 04000000 		.4byte	.LCFI7
 1134 0098 0200     		.2byte	0x2
 1135 009a 7D       		.byte	0x7d
 1136 009b 04       		.sleb128 4
 1137 009c 04000000 		.4byte	.LCFI7
 1138 00a0 E6000000 		.4byte	.LFE65
 1139 00a4 0200     		.2byte	0x2
 1140 00a6 7D       		.byte	0x7d
 1141 00a7 20       		.sleb128 32
 1142 00a8 00000000 		.4byte	0x0
 1143 00ac 00000000 		.4byte	0x0
 1144              	.LLST4:
 1145 00b0 00000000 		.4byte	.LFB66
 1146 00b4 02000000 		.4byte	.LCFI8
 1147 00b8 0200     		.2byte	0x2
 1148 00ba 7D       		.byte	0x7d
 1149 00bb 00       		.sleb128 0
 1150 00bc 02000000 		.4byte	.LCFI8
 1151 00c0 04000000 		.4byte	.LCFI9
 1152 00c4 0200     		.2byte	0x2
 1153 00c6 7D       		.byte	0x7d
 1154 00c7 04       		.sleb128 4
 1155 00c8 04000000 		.4byte	.LCFI9
 1156 00cc 3E000000 		.4byte	.LFE66
 1157 00d0 0200     		.2byte	0x2
 1158 00d2 7D       		.byte	0x7d
 1159 00d3 18       		.sleb128 24
 1160 00d4 00000000 		.4byte	0x0
 1161 00d8 00000000 		.4byte	0x0
 1162              	.LLST5:
ARM GAS  C:\Users\z80\AppData\Local\Temp\ccfOmD6n.s 			page 23


 1163 00dc 00000000 		.4byte	.LFB67
 1164 00e0 02000000 		.4byte	.LCFI10
 1165 00e4 0200     		.2byte	0x2
 1166 00e6 7D       		.byte	0x7d
 1167 00e7 00       		.sleb128 0
 1168 00e8 02000000 		.4byte	.LCFI10
 1169 00ec 04000000 		.4byte	.LCFI11
 1170 00f0 0200     		.2byte	0x2
 1171 00f2 7D       		.byte	0x7d
 1172 00f3 04       		.sleb128 4
 1173 00f4 04000000 		.4byte	.LCFI11
 1174 00f8 4C000000 		.4byte	.LFE67
 1175 00fc 0200     		.2byte	0x2
 1176 00fe 7D       		.byte	0x7d
 1177 00ff 18       		.sleb128 24
 1178 0100 00000000 		.4byte	0x0
 1179 0104 00000000 		.4byte	0x0
 1180              	.LLST6:
 1181 0108 00000000 		.4byte	.LFB68
 1182 010c 02000000 		.4byte	.LCFI12
 1183 0110 0200     		.2byte	0x2
 1184 0112 7D       		.byte	0x7d
 1185 0113 00       		.sleb128 0
 1186 0114 02000000 		.4byte	.LCFI12
 1187 0118 04000000 		.4byte	.LCFI13
 1188 011c 0200     		.2byte	0x2
 1189 011e 7D       		.byte	0x7d
 1190 011f 04       		.sleb128 4
 1191 0120 04000000 		.4byte	.LCFI13
 1192 0124 20020000 		.4byte	.LFE68
 1193 0128 0300     		.2byte	0x3
 1194 012a 7D       		.byte	0x7d
 1195 012b 8801     		.sleb128 136
 1196 012d 00000000 		.4byte	0x0
 1197 0131 00000000 		.4byte	0x0
 1198              	.LLST7:
 1199 0135 00000000 		.4byte	.LFB70
 1200 0139 02000000 		.4byte	.LCFI14
 1201 013d 0200     		.2byte	0x2
 1202 013f 7D       		.byte	0x7d
 1203 0140 00       		.sleb128 0
 1204 0141 02000000 		.4byte	.LCFI14
 1205 0145 04000000 		.4byte	.LCFI15
 1206 0149 0200     		.2byte	0x2
 1207 014b 7D       		.byte	0x7d
 1208 014c 04       		.sleb128 4
 1209 014d 04000000 		.4byte	.LCFI15
 1210 0151 2A000000 		.4byte	.LFE70
 1211 0155 0200     		.2byte	0x2
 1212 0157 7D       		.byte	0x7d
 1213 0158 20       		.sleb128 32
 1214 0159 00000000 		.4byte	0x0
 1215 015d 00000000 		.4byte	0x0
 1216              	.LLST8:
 1217 0161 00000000 		.4byte	.LFB71
 1218 0165 02000000 		.4byte	.LCFI16
 1219 0169 0200     		.2byte	0x2
ARM GAS  C:\Users\z80\AppData\Local\Temp\ccfOmD6n.s 			page 24


 1220 016b 7D       		.byte	0x7d
 1221 016c 00       		.sleb128 0
 1222 016d 02000000 		.4byte	.LCFI16
 1223 0171 04000000 		.4byte	.LCFI17
 1224 0175 0200     		.2byte	0x2
 1225 0177 7D       		.byte	0x7d
 1226 0178 04       		.sleb128 4
 1227 0179 04000000 		.4byte	.LCFI17
 1228 017d 18010000 		.4byte	.LFE71
 1229 0181 0200     		.2byte	0x2
 1230 0183 7D       		.byte	0x7d
 1231 0184 20       		.sleb128 32
 1232 0185 00000000 		.4byte	0x0
 1233 0189 00000000 		.4byte	0x0
 1234              		.file 2 "c:\\programs\\yagarto\\bin\\../lib/gcc/arm-none-eabi/4.5.0/include/stddef.h"
 1235              		.file 3 "c:/programs/yagarto/lib/gcc/../../arm-none-eabi/sys-include/stdint.h"
 1236              		.file 4 "../chibios_2.4.x/os/ports/GCC/ARMCMx/chtypes.h"
 1237              		.file 5 "../chibios_2.4.x/os/kernel/include/chlists.h"
 1238              		.file 6 "../chibios_2.4.x/os/kernel/include/chthreads.h"
 1239              		.file 7 "../chibios_2.4.x/os/ports/GCC/ARMCMx/chcore_v7m.h"
 1240              		.file 8 "../chibios_2.4.x/os/kernel/include/chvt.h"
 1241              		.file 9 "../chibios_2.4.x/os/kernel/include/chschd.h"
 1242              		.file 10 "../chibios_2.4.x/os/kernel/include/chmtx.h"
 1243              		.file 11 "../chibios_2.4.x/os/kernel/include/chevents.h"
 1244              		.file 12 "../chibios_2.4.x/os/kernel/include/chioch.h"
 1245              		.file 13 "../chibios_2.4.x/os/various/shell.h"
 1246              		.file 14 "../chibios_2.4.x/os/ports/common/ARMCMx/CMSIS/include/core_cm3.h"
 1247              		.section	.debug_info
 1248 0000 BB0B0000 		.4byte	0xbbb
 1249 0004 0200     		.2byte	0x2
 1250 0006 00000000 		.4byte	.Ldebug_abbrev0
 1251 000a 04       		.byte	0x4
 1252 000b 01       		.uleb128 0x1
 1253 000c 54040000 		.4byte	.LASF118
 1254 0010 01       		.byte	0x1
 1255 0011 A3010000 		.4byte	.LASF119
 1256 0015 50020000 		.4byte	.LASF120
 1257 0019 00000000 		.4byte	0x0
 1258 001d 00000000 		.4byte	0x0
 1259 0021 00000000 		.4byte	.Ldebug_ranges0+0x0
 1260 0025 00000000 		.4byte	.Ldebug_line0
 1261 0029 02       		.uleb128 0x2
 1262 002a 01       		.byte	0x1
 1263 002b 06       		.byte	0x6
 1264 002c 81000000 		.4byte	.LASF0
 1265 0030 02       		.uleb128 0x2
 1266 0031 01       		.byte	0x1
 1267 0032 08       		.byte	0x8
 1268 0033 C4020000 		.4byte	.LASF1
 1269 0037 02       		.uleb128 0x2
 1270 0038 02       		.byte	0x2
 1271 0039 05       		.byte	0x5
 1272 003a E8020000 		.4byte	.LASF2
 1273 003e 02       		.uleb128 0x2
 1274 003f 02       		.byte	0x2
 1275 0040 07       		.byte	0x7
 1276 0041 7B010000 		.4byte	.LASF3
ARM GAS  C:\Users\z80\AppData\Local\Temp\ccfOmD6n.s 			page 25


 1277 0045 03       		.uleb128 0x3
 1278 0046 04       		.byte	0x4
 1279 0047 05       		.byte	0x5
 1280 0048 696E7400 		.ascii	"int\000"
 1281 004c 02       		.uleb128 0x2
 1282 004d 04       		.byte	0x4
 1283 004e 07       		.byte	0x7
 1284 004f 38010000 		.4byte	.LASF4
 1285 0053 02       		.uleb128 0x2
 1286 0054 08       		.byte	0x8
 1287 0055 05       		.byte	0x5
 1288 0056 73000000 		.4byte	.LASF5
 1289 005a 02       		.uleb128 0x2
 1290 005b 08       		.byte	0x8
 1291 005c 07       		.byte	0x7
 1292 005d 21000000 		.4byte	.LASF6
 1293 0061 02       		.uleb128 0x2
 1294 0062 04       		.byte	0x4
 1295 0063 05       		.byte	0x5
 1296 0064 A7000000 		.4byte	.LASF7
 1297 0068 04       		.uleb128 0x4
 1298 0069 04       		.byte	0x4
 1299 006a 07       		.byte	0x7
 1300 006b 05       		.uleb128 0x5
 1301 006c 04       		.byte	0x4
 1302 006d 02       		.uleb128 0x2
 1303 006e 04       		.byte	0x4
 1304 006f 07       		.byte	0x7
 1305 0070 53030000 		.4byte	.LASF8
 1306 0074 06       		.uleb128 0x6
 1307 0075 04       		.byte	0x4
 1308 0076 7A000000 		.4byte	0x7a
 1309 007a 02       		.uleb128 0x2
 1310 007b 01       		.byte	0x1
 1311 007c 08       		.byte	0x8
 1312 007d 74030000 		.4byte	.LASF9
 1313 0081 06       		.uleb128 0x6
 1314 0082 04       		.byte	0x4
 1315 0083 87000000 		.4byte	0x87
 1316 0087 07       		.uleb128 0x7
 1317 0088 7A000000 		.4byte	0x7a
 1318 008c 08       		.uleb128 0x8
 1319 008d 00000000 		.4byte	.LASF10
 1320 0091 02       		.byte	0x2
 1321 0092 D3       		.byte	0xd3
 1322 0093 4C000000 		.4byte	0x4c
 1323 0097 08       		.uleb128 0x8
 1324 0098 26040000 		.4byte	.LASF11
 1325 009c 03       		.byte	0x3
 1326 009d 2A       		.byte	0x2a
 1327 009e 30000000 		.4byte	0x30
 1328 00a2 08       		.uleb128 0x8
 1329 00a3 BC020000 		.4byte	.LASF12
 1330 00a7 03       		.byte	0x3
 1331 00a8 4F       		.byte	0x4f
 1332 00a9 61000000 		.4byte	0x61
 1333 00ad 08       		.uleb128 0x8
ARM GAS  C:\Users\z80\AppData\Local\Temp\ccfOmD6n.s 			page 26


 1334 00ae 37030000 		.4byte	.LASF13
 1335 00b2 03       		.byte	0x3
 1336 00b3 50       		.byte	0x50
 1337 00b4 6D000000 		.4byte	0x6d
 1338 00b8 08       		.uleb128 0x8
 1339 00b9 07000000 		.4byte	.LASF14
 1340 00bd 03       		.byte	0x3
 1341 00be 78       		.byte	0x78
 1342 00bf 5A000000 		.4byte	0x5a
 1343 00c3 08       		.uleb128 0x8
 1344 00c4 8D000000 		.4byte	.LASF15
 1345 00c8 04       		.byte	0x4
 1346 00c9 2E       		.byte	0x2e
 1347 00ca A2000000 		.4byte	0xa2
 1348 00ce 08       		.uleb128 0x8
 1349 00cf C7010000 		.4byte	.LASF16
 1350 00d3 04       		.byte	0x4
 1351 00d4 2F       		.byte	0x2f
 1352 00d5 97000000 		.4byte	0x97
 1353 00d9 08       		.uleb128 0x8
 1354 00da BD000000 		.4byte	.LASF17
 1355 00de 04       		.byte	0x4
 1356 00df 30       		.byte	0x30
 1357 00e0 97000000 		.4byte	0x97
 1358 00e4 08       		.uleb128 0x8
 1359 00e5 AC020000 		.4byte	.LASF18
 1360 00e9 04       		.byte	0x4
 1361 00ea 32       		.byte	0x32
 1362 00eb AD000000 		.4byte	0xad
 1363 00ef 08       		.uleb128 0x8
 1364 00f0 8E010000 		.4byte	.LASF19
 1365 00f4 04       		.byte	0x4
 1366 00f5 33       		.byte	0x33
 1367 00f6 A2000000 		.4byte	0xa2
 1368 00fa 08       		.uleb128 0x8
 1369 00fb DB010000 		.4byte	.LASF20
 1370 00ff 04       		.byte	0x4
 1371 0100 35       		.byte	0x35
 1372 0101 AD000000 		.4byte	0xad
 1373 0105 08       		.uleb128 0x8
 1374 0106 9B030000 		.4byte	.LASF21
 1375 010a 04       		.byte	0x4
 1376 010b 36       		.byte	0x36
 1377 010c AD000000 		.4byte	0xad
 1378 0110 08       		.uleb128 0x8
 1379 0111 27010000 		.4byte	.LASF22
 1380 0115 04       		.byte	0x4
 1381 0116 37       		.byte	0x37
 1382 0117 A2000000 		.4byte	0xa2
 1383 011b 08       		.uleb128 0x8
 1384 011c 25030000 		.4byte	.LASF23
 1385 0120 05       		.byte	0x5
 1386 0121 2A       		.byte	0x2a
 1387 0122 26010000 		.4byte	0x126
 1388 0126 09       		.uleb128 0x9
 1389 0127 25030000 		.4byte	.LASF23
 1390 012b 48       		.byte	0x48
ARM GAS  C:\Users\z80\AppData\Local\Temp\ccfOmD6n.s 			page 27


 1391 012c 06       		.byte	0x6
 1392 012d 5E       		.byte	0x5e
 1393 012e 2F020000 		.4byte	0x22f
 1394 0132 0A       		.uleb128 0xa
 1395 0133 10030000 		.4byte	.LASF24
 1396 0137 06       		.byte	0x6
 1397 0138 5F       		.byte	0x5f
 1398 0139 54020000 		.4byte	0x254
 1399 013d 02       		.byte	0x2
 1400 013e 23       		.byte	0x23
 1401 013f 00       		.uleb128 0x0
 1402 0140 0A       		.uleb128 0xa
 1403 0141 A5020000 		.4byte	.LASF25
 1404 0145 06       		.byte	0x6
 1405 0146 61       		.byte	0x61
 1406 0147 54020000 		.4byte	0x254
 1407 014b 02       		.byte	0x2
 1408 014c 23       		.byte	0x23
 1409 014d 04       		.uleb128 0x4
 1410 014e 0A       		.uleb128 0xa
 1411 014f 66000000 		.4byte	.LASF26
 1412 0153 06       		.byte	0x6
 1413 0154 63       		.byte	0x63
 1414 0155 E4000000 		.4byte	0xe4
 1415 0159 02       		.byte	0x2
 1416 015a 23       		.byte	0x23
 1417 015b 08       		.uleb128 0x8
 1418 015c 0A       		.uleb128 0xa
 1419 015d A1040000 		.4byte	.LASF27
 1420 0161 06       		.byte	0x6
 1421 0162 64       		.byte	0x64
 1422 0163 2A030000 		.4byte	0x32a
 1423 0167 02       		.byte	0x2
 1424 0168 23       		.byte	0x23
 1425 0169 0C       		.uleb128 0xc
 1426 016a 0A       		.uleb128 0xa
 1427 016b D2000000 		.4byte	.LASF28
 1428 016f 06       		.byte	0x6
 1429 0170 66       		.byte	0x66
 1430 0171 54020000 		.4byte	0x254
 1431 0175 02       		.byte	0x2
 1432 0176 23       		.byte	0x23
 1433 0177 10       		.uleb128 0x10
 1434 0178 0A       		.uleb128 0xa
 1435 0179 23020000 		.4byte	.LASF29
 1436 017d 06       		.byte	0x6
 1437 017e 67       		.byte	0x67
 1438 017f 54020000 		.4byte	0x254
 1439 0183 02       		.byte	0x2
 1440 0184 23       		.byte	0x23
 1441 0185 14       		.uleb128 0x14
 1442 0186 0A       		.uleb128 0xa
 1443 0187 CF030000 		.4byte	.LASF30
 1444 018b 06       		.byte	0x6
 1445 018c 6E       		.byte	0x6e
 1446 018d 81000000 		.4byte	0x81
 1447 0191 02       		.byte	0x2
ARM GAS  C:\Users\z80\AppData\Local\Temp\ccfOmD6n.s 			page 28


 1448 0192 23       		.byte	0x23
 1449 0193 18       		.uleb128 0x18
 1450 0194 0A       		.uleb128 0xa
 1451 0195 2D010000 		.4byte	.LASF31
 1452 0199 06       		.byte	0x6
 1453 019a 74       		.byte	0x74
 1454 019b 80050000 		.4byte	0x580
 1455 019f 02       		.byte	0x2
 1456 01a0 23       		.byte	0x23
 1457 01a1 1C       		.uleb128 0x1c
 1458 01a2 0A       		.uleb128 0xa
 1459 01a3 F2020000 		.4byte	.LASF32
 1460 01a7 06       		.byte	0x6
 1461 01a8 79       		.byte	0x79
 1462 01a9 D9000000 		.4byte	0xd9
 1463 01ad 02       		.byte	0x2
 1464 01ae 23       		.byte	0x23
 1465 01af 20       		.uleb128 0x20
 1466 01b0 0A       		.uleb128 0xa
 1467 01b1 1D030000 		.4byte	.LASF33
 1468 01b5 06       		.byte	0x6
 1469 01b6 7D       		.byte	0x7d
 1470 01b7 CE000000 		.4byte	0xce
 1471 01bb 02       		.byte	0x2
 1472 01bc 23       		.byte	0x23
 1473 01bd 21       		.uleb128 0x21
 1474 01be 0A       		.uleb128 0xa
 1475 01bf C6000000 		.4byte	.LASF34
 1476 01c3 06       		.byte	0x6
 1477 01c4 89       		.byte	0x89
 1478 01c5 0F040000 		.4byte	0x40f
 1479 01c9 02       		.byte	0x2
 1480 01ca 23       		.byte	0x23
 1481 01cb 24       		.uleb128 0x24
 1482 01cc 0B       		.uleb128 0xb
 1483 01cd 705F7500 		.ascii	"p_u\000"
 1484 01d1 06       		.byte	0x6
 1485 01d2 AE       		.byte	0xae
 1486 01d3 4B050000 		.4byte	0x54b
 1487 01d7 02       		.byte	0x2
 1488 01d8 23       		.byte	0x23
 1489 01d9 28       		.uleb128 0x28
 1490 01da 0A       		.uleb128 0xa
 1491 01db 00020000 		.4byte	.LASF35
 1492 01df 06       		.byte	0x6
 1493 01e0 B3       		.byte	0xb3
 1494 01e1 7C020000 		.4byte	0x27c
 1495 01e5 02       		.byte	0x2
 1496 01e6 23       		.byte	0x23
 1497 01e7 2C       		.uleb128 0x2c
 1498 01e8 0A       		.uleb128 0xa
 1499 01e9 59010000 		.4byte	.LASF36
 1500 01ed 06       		.byte	0x6
 1501 01ee B9       		.byte	0xb9
 1502 01ef 5A020000 		.4byte	0x25a
 1503 01f3 02       		.byte	0x2
 1504 01f4 23       		.byte	0x23
ARM GAS  C:\Users\z80\AppData\Local\Temp\ccfOmD6n.s 			page 29


 1505 01f5 30       		.uleb128 0x30
 1506 01f6 0A       		.uleb128 0xa
 1507 01f7 DE030000 		.4byte	.LASF37
 1508 01fb 06       		.byte	0x6
 1509 01fc BD       		.byte	0xbd
 1510 01fd EF000000 		.4byte	0xef
 1511 0201 02       		.byte	0x2
 1512 0202 23       		.byte	0x23
 1513 0203 38       		.uleb128 0x38
 1514 0204 0A       		.uleb128 0xa
 1515 0205 2C030000 		.4byte	.LASF38
 1516 0209 06       		.byte	0x6
 1517 020a C3       		.byte	0xc3
 1518 020b FA000000 		.4byte	0xfa
 1519 020f 02       		.byte	0x2
 1520 0210 23       		.byte	0x23
 1521 0211 3C       		.uleb128 0x3c
 1522 0212 0A       		.uleb128 0xa
 1523 0213 DE020000 		.4byte	.LASF39
 1524 0217 06       		.byte	0x6
 1525 0218 CA       		.byte	0xca
 1526 0219 86050000 		.4byte	0x586
 1527 021d 02       		.byte	0x2
 1528 021e 23       		.byte	0x23
 1529 021f 40       		.uleb128 0x40
 1530 0220 0A       		.uleb128 0xa
 1531 0221 A5030000 		.4byte	.LASF40
 1532 0225 06       		.byte	0x6
 1533 0226 CE       		.byte	0xce
 1534 0227 E4000000 		.4byte	0xe4
 1535 022b 02       		.byte	0x2
 1536 022c 23       		.byte	0x23
 1537 022d 44       		.uleb128 0x44
 1538 022e 00       		.byte	0x0
 1539 022f 0C       		.uleb128 0xc
 1540 0230 08       		.byte	0x8
 1541 0231 05       		.byte	0x5
 1542 0232 61       		.byte	0x61
 1543 0233 54020000 		.4byte	0x254
 1544 0237 0A       		.uleb128 0xa
 1545 0238 10030000 		.4byte	.LASF24
 1546 023c 05       		.byte	0x5
 1547 023d 62       		.byte	0x62
 1548 023e 54020000 		.4byte	0x254
 1549 0242 02       		.byte	0x2
 1550 0243 23       		.byte	0x23
 1551 0244 00       		.uleb128 0x0
 1552 0245 0A       		.uleb128 0xa
 1553 0246 A5020000 		.4byte	.LASF25
 1554 024a 05       		.byte	0x5
 1555 024b 64       		.byte	0x64
 1556 024c 54020000 		.4byte	0x254
 1557 0250 02       		.byte	0x2
 1558 0251 23       		.byte	0x23
 1559 0252 04       		.uleb128 0x4
 1560 0253 00       		.byte	0x0
 1561 0254 06       		.uleb128 0x6
ARM GAS  C:\Users\z80\AppData\Local\Temp\ccfOmD6n.s 			page 30


 1562 0255 04       		.byte	0x4
 1563 0256 1B010000 		.4byte	0x11b
 1564 025a 08       		.uleb128 0x8
 1565 025b 43020000 		.4byte	.LASF41
 1566 025f 05       		.byte	0x5
 1567 0260 66       		.byte	0x66
 1568 0261 2F020000 		.4byte	0x22f
 1569 0265 0C       		.uleb128 0xc
 1570 0266 04       		.byte	0x4
 1571 0267 05       		.byte	0x5
 1572 0268 6B       		.byte	0x6b
 1573 0269 7C020000 		.4byte	0x27c
 1574 026d 0A       		.uleb128 0xa
 1575 026e 10030000 		.4byte	.LASF24
 1576 0272 05       		.byte	0x5
 1577 0273 6D       		.byte	0x6d
 1578 0274 54020000 		.4byte	0x254
 1579 0278 02       		.byte	0x2
 1580 0279 23       		.byte	0x23
 1581 027a 00       		.uleb128 0x0
 1582 027b 00       		.byte	0x0
 1583 027c 08       		.uleb128 0x8
 1584 027d CF010000 		.4byte	.LASF42
 1585 0281 05       		.byte	0x5
 1586 0282 70       		.byte	0x70
 1587 0283 65020000 		.4byte	0x265
 1588 0287 08       		.uleb128 0x8
 1589 0288 F5000000 		.4byte	.LASF43
 1590 028c 07       		.byte	0x7
 1591 028d D7       		.byte	0xd7
 1592 028e 6B000000 		.4byte	0x6b
 1593 0292 08       		.uleb128 0x8
 1594 0293 E7010000 		.4byte	.LASF44
 1595 0297 07       		.byte	0x7
 1596 0298 DD       		.byte	0xdd
 1597 0299 B8000000 		.4byte	0xb8
 1598 029d 09       		.uleb128 0x9
 1599 029e F0030000 		.4byte	.LASF45
 1600 02a2 24       		.byte	0x24
 1601 02a3 07       		.byte	0x7
 1602 02a4 FE       		.byte	0xfe
 1603 02a5 2A030000 		.4byte	0x32a
 1604 02a9 0D       		.uleb128 0xd
 1605 02aa 723400   		.ascii	"r4\000"
 1606 02ad 07       		.byte	0x7
 1607 02ae 1101     		.2byte	0x111
 1608 02b0 87020000 		.4byte	0x287
 1609 02b4 02       		.byte	0x2
 1610 02b5 23       		.byte	0x23
 1611 02b6 00       		.uleb128 0x0
 1612 02b7 0D       		.uleb128 0xd
 1613 02b8 723500   		.ascii	"r5\000"
 1614 02bb 07       		.byte	0x7
 1615 02bc 1201     		.2byte	0x112
 1616 02be 87020000 		.4byte	0x287
 1617 02c2 02       		.byte	0x2
 1618 02c3 23       		.byte	0x23
ARM GAS  C:\Users\z80\AppData\Local\Temp\ccfOmD6n.s 			page 31


 1619 02c4 04       		.uleb128 0x4
 1620 02c5 0D       		.uleb128 0xd
 1621 02c6 723600   		.ascii	"r6\000"
 1622 02c9 07       		.byte	0x7
 1623 02ca 1301     		.2byte	0x113
 1624 02cc 87020000 		.4byte	0x287
 1625 02d0 02       		.byte	0x2
 1626 02d1 23       		.byte	0x23
 1627 02d2 08       		.uleb128 0x8
 1628 02d3 0D       		.uleb128 0xd
 1629 02d4 723700   		.ascii	"r7\000"
 1630 02d7 07       		.byte	0x7
 1631 02d8 1401     		.2byte	0x114
 1632 02da 87020000 		.4byte	0x287
 1633 02de 02       		.byte	0x2
 1634 02df 23       		.byte	0x23
 1635 02e0 0C       		.uleb128 0xc
 1636 02e1 0D       		.uleb128 0xd
 1637 02e2 723800   		.ascii	"r8\000"
 1638 02e5 07       		.byte	0x7
 1639 02e6 1501     		.2byte	0x115
 1640 02e8 87020000 		.4byte	0x287
 1641 02ec 02       		.byte	0x2
 1642 02ed 23       		.byte	0x23
 1643 02ee 10       		.uleb128 0x10
 1644 02ef 0D       		.uleb128 0xd
 1645 02f0 723900   		.ascii	"r9\000"
 1646 02f3 07       		.byte	0x7
 1647 02f4 1601     		.2byte	0x116
 1648 02f6 87020000 		.4byte	0x287
 1649 02fa 02       		.byte	0x2
 1650 02fb 23       		.byte	0x23
 1651 02fc 14       		.uleb128 0x14
 1652 02fd 0D       		.uleb128 0xd
 1653 02fe 72313000 		.ascii	"r10\000"
 1654 0302 07       		.byte	0x7
 1655 0303 1701     		.2byte	0x117
 1656 0305 87020000 		.4byte	0x287
 1657 0309 02       		.byte	0x2
 1658 030a 23       		.byte	0x23
 1659 030b 18       		.uleb128 0x18
 1660 030c 0D       		.uleb128 0xd
 1661 030d 72313100 		.ascii	"r11\000"
 1662 0311 07       		.byte	0x7
 1663 0312 1801     		.2byte	0x118
 1664 0314 87020000 		.4byte	0x287
 1665 0318 02       		.byte	0x2
 1666 0319 23       		.byte	0x23
 1667 031a 1C       		.uleb128 0x1c
 1668 031b 0D       		.uleb128 0xd
 1669 031c 6C7200   		.ascii	"lr\000"
 1670 031f 07       		.byte	0x7
 1671 0320 1901     		.2byte	0x119
 1672 0322 87020000 		.4byte	0x287
 1673 0326 02       		.byte	0x2
 1674 0327 23       		.byte	0x23
 1675 0328 20       		.uleb128 0x20
ARM GAS  C:\Users\z80\AppData\Local\Temp\ccfOmD6n.s 			page 32


 1676 0329 00       		.byte	0x0
 1677 032a 0E       		.uleb128 0xe
 1678 032b D6030000 		.4byte	.LASF46
 1679 032f 04       		.byte	0x4
 1680 0330 07       		.byte	0x7
 1681 0331 2301     		.2byte	0x123
 1682 0333 47030000 		.4byte	0x347
 1683 0337 0D       		.uleb128 0xd
 1684 0338 72313300 		.ascii	"r13\000"
 1685 033c 07       		.byte	0x7
 1686 033d 2401     		.2byte	0x124
 1687 033f 47030000 		.4byte	0x347
 1688 0343 02       		.byte	0x2
 1689 0344 23       		.byte	0x23
 1690 0345 00       		.uleb128 0x0
 1691 0346 00       		.byte	0x0
 1692 0347 06       		.uleb128 0x6
 1693 0348 04       		.byte	0x4
 1694 0349 9D020000 		.4byte	0x29d
 1695 034d 08       		.uleb128 0x8
 1696 034e B0030000 		.4byte	.LASF47
 1697 0352 08       		.byte	0x8
 1698 0353 53       		.byte	0x53
 1699 0354 58030000 		.4byte	0x358
 1700 0358 06       		.uleb128 0x6
 1701 0359 04       		.byte	0x4
 1702 035a 5E030000 		.4byte	0x35e
 1703 035e 0F       		.uleb128 0xf
 1704 035f 01       		.byte	0x1
 1705 0360 6A030000 		.4byte	0x36a
 1706 0364 10       		.uleb128 0x10
 1707 0365 6B000000 		.4byte	0x6b
 1708 0369 00       		.byte	0x0
 1709 036a 08       		.uleb128 0x8
 1710 036b 69010000 		.4byte	.LASF48
 1711 036f 08       		.byte	0x8
 1712 0370 58       		.byte	0x58
 1713 0371 75030000 		.4byte	0x375
 1714 0375 09       		.uleb128 0x9
 1715 0376 69010000 		.4byte	.LASF48
 1716 037a 14       		.byte	0x14
 1717 037b 08       		.byte	0x8
 1718 037c 5F       		.byte	0x5f
 1719 037d C8030000 		.4byte	0x3c8
 1720 0381 0A       		.uleb128 0xa
 1721 0382 45010000 		.4byte	.LASF49
 1722 0386 08       		.byte	0x8
 1723 0387 60       		.byte	0x60
 1724 0388 C8030000 		.4byte	0x3c8
 1725 038c 02       		.byte	0x2
 1726 038d 23       		.byte	0x23
 1727 038e 00       		.uleb128 0x0
 1728 038f 0A       		.uleb128 0xa
 1729 0390 FE000000 		.4byte	.LASF50
 1730 0394 08       		.byte	0x8
 1731 0395 62       		.byte	0x62
 1732 0396 C8030000 		.4byte	0x3c8
ARM GAS  C:\Users\z80\AppData\Local\Temp\ccfOmD6n.s 			page 33


 1733 039a 02       		.byte	0x2
 1734 039b 23       		.byte	0x23
 1735 039c 04       		.uleb128 0x4
 1736 039d 0A       		.uleb128 0xa
 1737 039e F8010000 		.4byte	.LASF51
 1738 03a2 08       		.byte	0x8
 1739 03a3 64       		.byte	0x64
 1740 03a4 05010000 		.4byte	0x105
 1741 03a8 02       		.byte	0x2
 1742 03a9 23       		.byte	0x23
 1743 03aa 08       		.uleb128 0x8
 1744 03ab 0A       		.uleb128 0xa
 1745 03ac A7040000 		.4byte	.LASF52
 1746 03b0 08       		.byte	0x8
 1747 03b1 65       		.byte	0x65
 1748 03b2 4D030000 		.4byte	0x34d
 1749 03b6 02       		.byte	0x2
 1750 03b7 23       		.byte	0x23
 1751 03b8 0C       		.uleb128 0xc
 1752 03b9 0A       		.uleb128 0xa
 1753 03ba FD030000 		.4byte	.LASF53
 1754 03be 08       		.byte	0x8
 1755 03bf 67       		.byte	0x67
 1756 03c0 6B000000 		.4byte	0x6b
 1757 03c4 02       		.byte	0x2
 1758 03c5 23       		.byte	0x23
 1759 03c6 10       		.uleb128 0x10
 1760 03c7 00       		.byte	0x0
 1761 03c8 06       		.uleb128 0x6
 1762 03c9 04       		.byte	0x4
 1763 03ca 6A030000 		.4byte	0x36a
 1764 03ce 0C       		.uleb128 0xc
 1765 03cf 10       		.byte	0x10
 1766 03d0 08       		.byte	0x8
 1767 03d1 71       		.byte	0x71
 1768 03d2 0F040000 		.4byte	0x40f
 1769 03d6 0A       		.uleb128 0xa
 1770 03d7 45010000 		.4byte	.LASF49
 1771 03db 08       		.byte	0x8
 1772 03dc 72       		.byte	0x72
 1773 03dd C8030000 		.4byte	0x3c8
 1774 03e1 02       		.byte	0x2
 1775 03e2 23       		.byte	0x23
 1776 03e3 00       		.uleb128 0x0
 1777 03e4 0A       		.uleb128 0xa
 1778 03e5 FE000000 		.4byte	.LASF50
 1779 03e9 08       		.byte	0x8
 1780 03ea 74       		.byte	0x74
 1781 03eb C8030000 		.4byte	0x3c8
 1782 03ef 02       		.byte	0x2
 1783 03f0 23       		.byte	0x23
 1784 03f1 04       		.uleb128 0x4
 1785 03f2 0A       		.uleb128 0xa
 1786 03f3 F8010000 		.4byte	.LASF51
 1787 03f7 08       		.byte	0x8
 1788 03f8 76       		.byte	0x76
 1789 03f9 05010000 		.4byte	0x105
ARM GAS  C:\Users\z80\AppData\Local\Temp\ccfOmD6n.s 			page 34


 1790 03fd 02       		.byte	0x2
 1791 03fe 23       		.byte	0x23
 1792 03ff 08       		.uleb128 0x8
 1793 0400 0A       		.uleb128 0xa
 1794 0401 48030000 		.4byte	.LASF54
 1795 0405 08       		.byte	0x8
 1796 0406 77       		.byte	0x77
 1797 0407 0F040000 		.4byte	0x40f
 1798 040b 02       		.byte	0x2
 1799 040c 23       		.byte	0x23
 1800 040d 0C       		.uleb128 0xc
 1801 040e 00       		.byte	0x0
 1802 040f 11       		.uleb128 0x11
 1803 0410 05010000 		.4byte	0x105
 1804 0414 08       		.uleb128 0x8
 1805 0415 88040000 		.4byte	.LASF55
 1806 0419 08       		.byte	0x8
 1807 041a 78       		.byte	0x78
 1808 041b CE030000 		.4byte	0x3ce
 1809 041f 0C       		.uleb128 0xc
 1810 0420 20       		.byte	0x20
 1811 0421 09       		.byte	0x9
 1812 0422 5E       		.byte	0x5e
 1813 0423 8A040000 		.4byte	0x48a
 1814 0427 0A       		.uleb128 0xa
 1815 0428 40030000 		.4byte	.LASF56
 1816 042c 09       		.byte	0x9
 1817 042d 5F       		.byte	0x5f
 1818 042e 5A020000 		.4byte	0x25a
 1819 0432 02       		.byte	0x2
 1820 0433 23       		.byte	0x23
 1821 0434 00       		.uleb128 0x0
 1822 0435 0A       		.uleb128 0xa
 1823 0436 02030000 		.4byte	.LASF57
 1824 043a 09       		.byte	0x9
 1825 043b 60       		.byte	0x60
 1826 043c E4000000 		.4byte	0xe4
 1827 0440 02       		.byte	0x2
 1828 0441 23       		.byte	0x23
 1829 0442 08       		.uleb128 0x8
 1830 0443 0A       		.uleb128 0xa
 1831 0444 2B020000 		.4byte	.LASF58
 1832 0448 09       		.byte	0x9
 1833 0449 62       		.byte	0x62
 1834 044a 2A030000 		.4byte	0x32a
 1835 044e 02       		.byte	0x2
 1836 044f 23       		.byte	0x23
 1837 0450 0C       		.uleb128 0xc
 1838 0451 0A       		.uleb128 0xa
 1839 0452 ED000000 		.4byte	.LASF59
 1840 0456 09       		.byte	0x9
 1841 0457 65       		.byte	0x65
 1842 0458 54020000 		.4byte	0x254
 1843 045c 02       		.byte	0x2
 1844 045d 23       		.byte	0x23
 1845 045e 10       		.uleb128 0x10
 1846 045f 0A       		.uleb128 0xa
ARM GAS  C:\Users\z80\AppData\Local\Temp\ccfOmD6n.s 			page 35


 1847 0460 8F020000 		.4byte	.LASF60
 1848 0464 09       		.byte	0x9
 1849 0465 66       		.byte	0x66
 1850 0466 54020000 		.4byte	0x254
 1851 046a 02       		.byte	0x2
 1852 046b 23       		.byte	0x23
 1853 046c 14       		.uleb128 0x14
 1854 046d 0A       		.uleb128 0xa
 1855 046e C5030000 		.4byte	.LASF61
 1856 0472 09       		.byte	0x9
 1857 0473 6A       		.byte	0x6a
 1858 0474 10010000 		.4byte	0x110
 1859 0478 02       		.byte	0x2
 1860 0479 23       		.byte	0x23
 1861 047a 18       		.uleb128 0x18
 1862 047b 0A       		.uleb128 0xa
 1863 047c 65030000 		.4byte	.LASF62
 1864 0480 09       		.byte	0x9
 1865 0481 6C       		.byte	0x6c
 1866 0482 54020000 		.4byte	0x254
 1867 0486 02       		.byte	0x2
 1868 0487 23       		.byte	0x23
 1869 0488 1C       		.uleb128 0x1c
 1870 0489 00       		.byte	0x0
 1871 048a 08       		.uleb128 0x8
 1872 048b 17000000 		.4byte	.LASF63
 1873 048f 09       		.byte	0x9
 1874 0490 6E       		.byte	0x6e
 1875 0491 1F040000 		.4byte	0x41f
 1876 0495 09       		.uleb128 0x9
 1877 0496 0A020000 		.4byte	.LASF64
 1878 049a 10       		.byte	0x10
 1879 049b 0A       		.byte	0xa
 1880 049c 2C       		.byte	0x2c
 1881 049d CC040000 		.4byte	0x4cc
 1882 04a1 0A       		.uleb128 0xa
 1883 04a2 94000000 		.4byte	.LASF65
 1884 04a6 0A       		.byte	0xa
 1885 04a7 2D       		.byte	0x2d
 1886 04a8 5A020000 		.4byte	0x25a
 1887 04ac 02       		.byte	0x2
 1888 04ad 23       		.byte	0x23
 1889 04ae 00       		.uleb128 0x0
 1890 04af 0A       		.uleb128 0xa
 1891 04b0 99040000 		.4byte	.LASF66
 1892 04b4 0A       		.byte	0xa
 1893 04b5 2F       		.byte	0x2f
 1894 04b6 54020000 		.4byte	0x254
 1895 04ba 02       		.byte	0x2
 1896 04bb 23       		.byte	0x23
 1897 04bc 08       		.uleb128 0x8
 1898 04bd 0A       		.uleb128 0xa
 1899 04be 94030000 		.4byte	.LASF67
 1900 04c2 0A       		.byte	0xa
 1901 04c3 31       		.byte	0x31
 1902 04c4 CC040000 		.4byte	0x4cc
 1903 04c8 02       		.byte	0x2
ARM GAS  C:\Users\z80\AppData\Local\Temp\ccfOmD6n.s 			page 36


 1904 04c9 23       		.byte	0x23
 1905 04ca 0C       		.uleb128 0xc
 1906 04cb 00       		.byte	0x0
 1907 04cc 06       		.uleb128 0x6
 1908 04cd 04       		.byte	0x4
 1909 04ce 95040000 		.4byte	0x495
 1910 04d2 08       		.uleb128 0x8
 1911 04d3 0A020000 		.4byte	.LASF64
 1912 04d7 0A       		.byte	0xa
 1913 04d8 33       		.byte	0x33
 1914 04d9 95040000 		.4byte	0x495
 1915 04dd 08       		.uleb128 0x8
 1916 04de 46040000 		.4byte	.LASF68
 1917 04e2 0B       		.byte	0xb
 1918 04e3 29       		.byte	0x29
 1919 04e4 E8040000 		.4byte	0x4e8
 1920 04e8 09       		.uleb128 0x9
 1921 04e9 46040000 		.4byte	.LASF68
 1922 04ed 0C       		.byte	0xc
 1923 04ee 0B       		.byte	0xb
 1924 04ef 2E       		.byte	0x2e
 1925 04f0 1F050000 		.4byte	0x51f
 1926 04f4 0A       		.uleb128 0xa
 1927 04f5 94010000 		.4byte	.LASF69
 1928 04f9 0B       		.byte	0xb
 1929 04fa 2F       		.byte	0x2f
 1930 04fb 1F050000 		.4byte	0x51f
 1931 04ff 02       		.byte	0x2
 1932 0500 23       		.byte	0x23
 1933 0501 00       		.uleb128 0x0
 1934 0502 0A       		.uleb128 0xa
 1935 0503 D2020000 		.4byte	.LASF70
 1936 0507 0B       		.byte	0xb
 1937 0508 32       		.byte	0x32
 1938 0509 54020000 		.4byte	0x254
 1939 050d 02       		.byte	0x2
 1940 050e 23       		.byte	0x23
 1941 050f 04       		.uleb128 0x4
 1942 0510 0A       		.uleb128 0xa
 1943 0511 1B020000 		.4byte	.LASF71
 1944 0515 0B       		.byte	0xb
 1945 0516 34       		.byte	0x34
 1946 0517 FA000000 		.4byte	0xfa
 1947 051b 02       		.byte	0x2
 1948 051c 23       		.byte	0x23
 1949 051d 08       		.uleb128 0x8
 1950 051e 00       		.byte	0x0
 1951 051f 06       		.uleb128 0x6
 1952 0520 04       		.byte	0x4
 1953 0521 DD040000 		.4byte	0x4dd
 1954 0525 09       		.uleb128 0x9
 1955 0526 1B010000 		.4byte	.LASF72
 1956 052a 04       		.byte	0x4
 1957 052b 0B       		.byte	0xb
 1958 052c 3C       		.byte	0x3c
 1959 052d 40050000 		.4byte	0x540
 1960 0531 0A       		.uleb128 0xa
ARM GAS  C:\Users\z80\AppData\Local\Temp\ccfOmD6n.s 			page 37


 1961 0532 0B040000 		.4byte	.LASF73
 1962 0536 0B       		.byte	0xb
 1963 0537 3D       		.byte	0x3d
 1964 0538 1F050000 		.4byte	0x51f
 1965 053c 02       		.byte	0x2
 1966 053d 23       		.byte	0x23
 1967 053e 00       		.uleb128 0x0
 1968 053f 00       		.byte	0x0
 1969 0540 08       		.uleb128 0x8
 1970 0541 1B010000 		.4byte	.LASF72
 1971 0545 0B       		.byte	0xb
 1972 0546 40       		.byte	0x40
 1973 0547 25050000 		.4byte	0x525
 1974 054b 12       		.uleb128 0x12
 1975 054c 04       		.byte	0x4
 1976 054d 06       		.byte	0x6
 1977 054e 90       		.byte	0x90
 1978 054f 80050000 		.4byte	0x580
 1979 0553 13       		.uleb128 0x13
 1980 0554 04040000 		.4byte	.LASF74
 1981 0558 06       		.byte	0x6
 1982 0559 97       		.byte	0x97
 1983 055a EF000000 		.4byte	0xef
 1984 055e 13       		.uleb128 0x13
 1985 055f 47000000 		.4byte	.LASF75
 1986 0563 06       		.byte	0x6
 1987 0564 9E       		.byte	0x9e
 1988 0565 EF000000 		.4byte	0xef
 1989 0569 13       		.uleb128 0x13
 1990 056a 60040000 		.4byte	.LASF76
 1991 056e 06       		.byte	0x6
 1992 056f A5       		.byte	0xa5
 1993 0570 6B000000 		.4byte	0x6b
 1994 0574 13       		.uleb128 0x13
 1995 0575 09030000 		.4byte	.LASF77
 1996 0579 06       		.byte	0x6
 1997 057a AC       		.byte	0xac
 1998 057b FA000000 		.4byte	0xfa
 1999 057f 00       		.byte	0x0
 2000 0580 06       		.uleb128 0x6
 2001 0581 04       		.byte	0x4
 2002 0582 92020000 		.4byte	0x292
 2003 0586 06       		.uleb128 0x6
 2004 0587 04       		.byte	0x4
 2005 0588 D2040000 		.4byte	0x4d2
 2006 058c 06       		.uleb128 0x6
 2007 058d 04       		.byte	0x4
 2008 058e 97000000 		.4byte	0x97
 2009 0592 14       		.uleb128 0x14
 2010 0593 01       		.byte	0x1
 2011 0594 8C000000 		.4byte	0x8c
 2012 0598 AC050000 		.4byte	0x5ac
 2013 059c 10       		.uleb128 0x10
 2014 059d 6B000000 		.4byte	0x6b
 2015 05a1 10       		.uleb128 0x10
 2016 05a2 AC050000 		.4byte	0x5ac
 2017 05a6 10       		.uleb128 0x10
ARM GAS  C:\Users\z80\AppData\Local\Temp\ccfOmD6n.s 			page 38


 2018 05a7 8C000000 		.4byte	0x8c
 2019 05ab 00       		.byte	0x0
 2020 05ac 06       		.uleb128 0x6
 2021 05ad 04       		.byte	0x4
 2022 05ae B2050000 		.4byte	0x5b2
 2023 05b2 07       		.uleb128 0x7
 2024 05b3 97000000 		.4byte	0x97
 2025 05b7 06       		.uleb128 0x6
 2026 05b8 04       		.byte	0x4
 2027 05b9 92050000 		.4byte	0x592
 2028 05bd 14       		.uleb128 0x14
 2029 05be 01       		.byte	0x1
 2030 05bf 8C000000 		.4byte	0x8c
 2031 05c3 D7050000 		.4byte	0x5d7
 2032 05c7 10       		.uleb128 0x10
 2033 05c8 6B000000 		.4byte	0x6b
 2034 05cc 10       		.uleb128 0x10
 2035 05cd 8C050000 		.4byte	0x58c
 2036 05d1 10       		.uleb128 0x10
 2037 05d2 8C000000 		.4byte	0x8c
 2038 05d6 00       		.byte	0x0
 2039 05d7 06       		.uleb128 0x6
 2040 05d8 04       		.byte	0x4
 2041 05d9 BD050000 		.4byte	0x5bd
 2042 05dd 09       		.uleb128 0x9
 2043 05de 38000000 		.4byte	.LASF78
 2044 05e2 20       		.byte	0x20
 2045 05e3 0C       		.byte	0xc
 2046 05e4 51       		.byte	0x51
 2047 05e5 5A060000 		.4byte	0x65a
 2048 05e9 0A       		.uleb128 0xa
 2049 05ea F2010000 		.4byte	.LASF79
 2050 05ee 0C       		.byte	0xc
 2051 05ef 52       		.byte	0x52
 2052 05f0 B7050000 		.4byte	0x5b7
 2053 05f4 02       		.byte	0x2
 2054 05f5 23       		.byte	0x23
 2055 05f6 00       		.uleb128 0x0
 2056 05f7 0A       		.uleb128 0xa
 2057 05f8 6F030000 		.4byte	.LASF80
 2058 05fc 0C       		.byte	0xc
 2059 05fd 52       		.byte	0x52
 2060 05fe D7050000 		.4byte	0x5d7
 2061 0602 02       		.byte	0x2
 2062 0603 23       		.byte	0x23
 2063 0604 04       		.uleb128 0x4
 2064 0605 0A       		.uleb128 0xa
 2065 0606 DA000000 		.4byte	.LASF81
 2066 060a 0C       		.byte	0xc
 2067 060b 52       		.byte	0x52
 2068 060c 6A060000 		.4byte	0x66a
 2069 0610 02       		.byte	0x2
 2070 0611 23       		.byte	0x23
 2071 0612 08       		.uleb128 0x8
 2072 0613 0A       		.uleb128 0xa
 2073 0614 7A040000 		.4byte	.LASF82
 2074 0618 0C       		.byte	0xc
ARM GAS  C:\Users\z80\AppData\Local\Temp\ccfOmD6n.s 			page 39


 2075 0619 52       		.byte	0x52
 2076 061a 6A060000 		.4byte	0x66a
 2077 061e 02       		.byte	0x2
 2078 061f 23       		.byte	0x23
 2079 0620 0C       		.uleb128 0xc
 2080 0621 0B       		.uleb128 0xb
 2081 0622 70757400 		.ascii	"put\000"
 2082 0626 0C       		.byte	0xc
 2083 0627 52       		.byte	0x52
 2084 0628 8A060000 		.4byte	0x68a
 2085 062c 02       		.byte	0x2
 2086 062d 23       		.byte	0x23
 2087 062e 10       		.uleb128 0x10
 2088 062f 0B       		.uleb128 0xb
 2089 0630 67657400 		.ascii	"get\000"
 2090 0634 0C       		.byte	0xc
 2091 0635 52       		.byte	0x52
 2092 0636 A5060000 		.4byte	0x6a5
 2093 063a 02       		.byte	0x2
 2094 063b 23       		.byte	0x23
 2095 063c 14       		.uleb128 0x14
 2096 063d 0A       		.uleb128 0xa
 2097 063e 9C010000 		.4byte	.LASF83
 2098 0642 0C       		.byte	0xc
 2099 0643 52       		.byte	0x52
 2100 0644 CA060000 		.4byte	0x6ca
 2101 0648 02       		.byte	0x2
 2102 0649 23       		.byte	0x23
 2103 064a 18       		.uleb128 0x18
 2104 064b 0A       		.uleb128 0xa
 2105 064c 6D000000 		.4byte	.LASF84
 2106 0650 0C       		.byte	0xc
 2107 0651 52       		.byte	0x52
 2108 0652 EF060000 		.4byte	0x6ef
 2109 0656 02       		.byte	0x2
 2110 0657 23       		.byte	0x23
 2111 0658 1C       		.uleb128 0x1c
 2112 0659 00       		.byte	0x0
 2113 065a 14       		.uleb128 0x14
 2114 065b 01       		.byte	0x1
 2115 065c C3000000 		.4byte	0xc3
 2116 0660 6A060000 		.4byte	0x66a
 2117 0664 10       		.uleb128 0x10
 2118 0665 6B000000 		.4byte	0x6b
 2119 0669 00       		.byte	0x0
 2120 066a 06       		.uleb128 0x6
 2121 066b 04       		.byte	0x4
 2122 066c 5A060000 		.4byte	0x65a
 2123 0670 14       		.uleb128 0x14
 2124 0671 01       		.byte	0x1
 2125 0672 EF000000 		.4byte	0xef
 2126 0676 8A060000 		.4byte	0x68a
 2127 067a 10       		.uleb128 0x10
 2128 067b 6B000000 		.4byte	0x6b
 2129 067f 10       		.uleb128 0x10
 2130 0680 97000000 		.4byte	0x97
 2131 0684 10       		.uleb128 0x10
ARM GAS  C:\Users\z80\AppData\Local\Temp\ccfOmD6n.s 			page 40


 2132 0685 05010000 		.4byte	0x105
 2133 0689 00       		.byte	0x0
 2134 068a 06       		.uleb128 0x6
 2135 068b 04       		.byte	0x4
 2136 068c 70060000 		.4byte	0x670
 2137 0690 14       		.uleb128 0x14
 2138 0691 01       		.byte	0x1
 2139 0692 EF000000 		.4byte	0xef
 2140 0696 A5060000 		.4byte	0x6a5
 2141 069a 10       		.uleb128 0x10
 2142 069b 6B000000 		.4byte	0x6b
 2143 069f 10       		.uleb128 0x10
 2144 06a0 05010000 		.4byte	0x105
 2145 06a4 00       		.byte	0x0
 2146 06a5 06       		.uleb128 0x6
 2147 06a6 04       		.byte	0x4
 2148 06a7 90060000 		.4byte	0x690
 2149 06ab 14       		.uleb128 0x14
 2150 06ac 01       		.byte	0x1
 2151 06ad 8C000000 		.4byte	0x8c
 2152 06b1 CA060000 		.4byte	0x6ca
 2153 06b5 10       		.uleb128 0x10
 2154 06b6 6B000000 		.4byte	0x6b
 2155 06ba 10       		.uleb128 0x10
 2156 06bb AC050000 		.4byte	0x5ac
 2157 06bf 10       		.uleb128 0x10
 2158 06c0 8C000000 		.4byte	0x8c
 2159 06c4 10       		.uleb128 0x10
 2160 06c5 05010000 		.4byte	0x105
 2161 06c9 00       		.byte	0x0
 2162 06ca 06       		.uleb128 0x6
 2163 06cb 04       		.byte	0x4
 2164 06cc AB060000 		.4byte	0x6ab
 2165 06d0 14       		.uleb128 0x14
 2166 06d1 01       		.byte	0x1
 2167 06d2 8C000000 		.4byte	0x8c
 2168 06d6 EF060000 		.4byte	0x6ef
 2169 06da 10       		.uleb128 0x10
 2170 06db 6B000000 		.4byte	0x6b
 2171 06df 10       		.uleb128 0x10
 2172 06e0 8C050000 		.4byte	0x58c
 2173 06e4 10       		.uleb128 0x10
 2174 06e5 8C000000 		.4byte	0x8c
 2175 06e9 10       		.uleb128 0x10
 2176 06ea 05010000 		.4byte	0x105
 2177 06ee 00       		.byte	0x0
 2178 06ef 06       		.uleb128 0x6
 2179 06f0 04       		.byte	0x4
 2180 06f1 D0060000 		.4byte	0x6d0
 2181 06f5 0C       		.uleb128 0xc
 2182 06f6 04       		.byte	0x4
 2183 06f7 0C       		.byte	0xc
 2184 06f8 5C       		.byte	0x5c
 2185 06f9 0C070000 		.4byte	0x70c
 2186 06fd 0B       		.uleb128 0xb
 2187 06fe 766D7400 		.ascii	"vmt\000"
 2188 0702 0C       		.byte	0xc
ARM GAS  C:\Users\z80\AppData\Local\Temp\ccfOmD6n.s 			page 41


 2189 0703 5E       		.byte	0x5e
 2190 0704 0C070000 		.4byte	0x70c
 2191 0708 02       		.byte	0x2
 2192 0709 23       		.byte	0x23
 2193 070a 00       		.uleb128 0x0
 2194 070b 00       		.byte	0x0
 2195 070c 06       		.uleb128 0x6
 2196 070d 04       		.byte	0x4
 2197 070e 12070000 		.4byte	0x712
 2198 0712 07       		.uleb128 0x7
 2199 0713 DD050000 		.4byte	0x5dd
 2200 0717 08       		.uleb128 0x8
 2201 0718 2E040000 		.4byte	.LASF85
 2202 071c 0C       		.byte	0xc
 2203 071d 60       		.byte	0x60
 2204 071e F5060000 		.4byte	0x6f5
 2205 0722 11       		.uleb128 0x11
 2206 0723 A2000000 		.4byte	0xa2
 2207 0727 08       		.uleb128 0x8
 2208 0728 10020000 		.4byte	.LASF86
 2209 072c 0D       		.byte	0xd
 2210 072d 38       		.byte	0x38
 2211 072e 32070000 		.4byte	0x732
 2212 0732 06       		.uleb128 0x6
 2213 0733 04       		.byte	0x4
 2214 0734 38070000 		.4byte	0x738
 2215 0738 0F       		.uleb128 0xf
 2216 0739 01       		.byte	0x1
 2217 073a 4E070000 		.4byte	0x74e
 2218 073e 10       		.uleb128 0x10
 2219 073f 4E070000 		.4byte	0x74e
 2220 0743 10       		.uleb128 0x10
 2221 0744 45000000 		.4byte	0x45
 2222 0748 10       		.uleb128 0x10
 2223 0749 54070000 		.4byte	0x754
 2224 074d 00       		.byte	0x0
 2225 074e 06       		.uleb128 0x6
 2226 074f 04       		.byte	0x4
 2227 0750 17070000 		.4byte	0x717
 2228 0754 06       		.uleb128 0x6
 2229 0755 04       		.byte	0x4
 2230 0756 74000000 		.4byte	0x74
 2231 075a 0C       		.uleb128 0xc
 2232 075b 08       		.byte	0x8
 2233 075c 0D       		.byte	0xd
 2234 075d 3D       		.byte	0x3d
 2235 075e 7F070000 		.4byte	0x77f
 2236 0762 0A       		.uleb128 0xa
 2237 0763 13010000 		.4byte	.LASF87
 2238 0767 0D       		.byte	0xd
 2239 0768 3E       		.byte	0x3e
 2240 0769 81000000 		.4byte	0x81
 2241 076d 02       		.byte	0x2
 2242 076e 23       		.byte	0x23
 2243 076f 00       		.uleb128 0x0
 2244 0770 0A       		.uleb128 0xa
 2245 0771 3A040000 		.4byte	.LASF88
ARM GAS  C:\Users\z80\AppData\Local\Temp\ccfOmD6n.s 			page 42


 2246 0775 0D       		.byte	0xd
 2247 0776 3F       		.byte	0x3f
 2248 0777 27070000 		.4byte	0x727
 2249 077b 02       		.byte	0x2
 2250 077c 23       		.byte	0x23
 2251 077d 04       		.uleb128 0x4
 2252 077e 00       		.byte	0x0
 2253 077f 08       		.uleb128 0x8
 2254 0780 B0000000 		.4byte	.LASF89
 2255 0784 0D       		.byte	0xd
 2256 0785 40       		.byte	0x40
 2257 0786 5A070000 		.4byte	0x75a
 2258 078a 0C       		.uleb128 0xc
 2259 078b 08       		.byte	0x8
 2260 078c 0D       		.byte	0xd
 2261 078d 45       		.byte	0x45
 2262 078e AF070000 		.4byte	0x7af
 2263 0792 0A       		.uleb128 0xa
 2264 0793 9C000000 		.4byte	.LASF90
 2265 0797 0D       		.byte	0xd
 2266 0798 46       		.byte	0x46
 2267 0799 4E070000 		.4byte	0x74e
 2268 079d 02       		.byte	0x2
 2269 079e 23       		.byte	0x23
 2270 079f 00       		.uleb128 0x0
 2271 07a0 0A       		.uleb128 0xa
 2272 07a1 4D010000 		.4byte	.LASF91
 2273 07a5 0D       		.byte	0xd
 2274 07a6 48       		.byte	0x48
 2275 07a7 AF070000 		.4byte	0x7af
 2276 07ab 02       		.byte	0x2
 2277 07ac 23       		.byte	0x23
 2278 07ad 04       		.uleb128 0x4
 2279 07ae 00       		.byte	0x0
 2280 07af 06       		.uleb128 0x6
 2281 07b0 04       		.byte	0x4
 2282 07b1 B5070000 		.4byte	0x7b5
 2283 07b5 07       		.uleb128 0x7
 2284 07b6 7F070000 		.4byte	0x77f
 2285 07ba 08       		.uleb128 0x8
 2286 07bb B9030000 		.4byte	.LASF92
 2287 07bf 0D       		.byte	0xd
 2288 07c0 4A       		.byte	0x4a
 2289 07c1 8A070000 		.4byte	0x78a
 2290 07c5 15       		.uleb128 0x15
 2291 07c6 B4020000 		.4byte	.LASF101
 2292 07ca 01       		.byte	0x1
 2293 07cb 30       		.byte	0x30
 2294 07cc 01       		.byte	0x1
 2295 07cd 74000000 		.4byte	0x74
 2296 07d1 00000000 		.4byte	.LFB62
 2297 07d5 76000000 		.4byte	.LFE62
 2298 07d9 00000000 		.4byte	.LLST0
 2299 07dd 1A080000 		.4byte	0x81a
 2300 07e1 16       		.uleb128 0x16
 2301 07e2 73747200 		.ascii	"str\000"
 2302 07e6 01       		.byte	0x1
ARM GAS  C:\Users\z80\AppData\Local\Temp\ccfOmD6n.s 			page 43


 2303 07e7 30       		.byte	0x30
 2304 07e8 74000000 		.4byte	0x74
 2305 07ec 02       		.byte	0x2
 2306 07ed 91       		.byte	0x91
 2307 07ee 6C       		.sleb128 -20
 2308 07ef 17       		.uleb128 0x17
 2309 07f0 17030000 		.4byte	.LASF93
 2310 07f4 01       		.byte	0x1
 2311 07f5 30       		.byte	0x30
 2312 07f6 81000000 		.4byte	0x81
 2313 07fa 02       		.byte	0x2
 2314 07fb 91       		.byte	0x91
 2315 07fc 68       		.sleb128 -24
 2316 07fd 17       		.uleb128 0x17
 2317 07fe 9D020000 		.4byte	.LASF94
 2318 0802 01       		.byte	0x1
 2319 0803 30       		.byte	0x30
 2320 0804 54070000 		.4byte	0x754
 2321 0808 02       		.byte	0x2
 2322 0809 91       		.byte	0x91
 2323 080a 64       		.sleb128 -28
 2324 080b 18       		.uleb128 0x18
 2325 080c 97020000 		.4byte	.LASF105
 2326 0810 01       		.byte	0x1
 2327 0811 31       		.byte	0x31
 2328 0812 74000000 		.4byte	0x74
 2329 0816 02       		.byte	0x2
 2330 0817 91       		.byte	0x91
 2331 0818 74       		.sleb128 -12
 2332 0819 00       		.byte	0x0
 2333 081a 19       		.uleb128 0x19
 2334 081b F7030000 		.4byte	.LASF95
 2335 081f 01       		.byte	0x1
 2336 0820 41       		.byte	0x41
 2337 0821 01       		.byte	0x1
 2338 0822 00000000 		.4byte	.LFB63
 2339 0826 1C000000 		.4byte	.LFE63
 2340 082a 2C000000 		.4byte	.LLST1
 2341 082e 4D080000 		.4byte	0x84d
 2342 0832 16       		.uleb128 0x16
 2343 0833 63687000 		.ascii	"chp\000"
 2344 0837 01       		.byte	0x1
 2345 0838 41       		.byte	0x41
 2346 0839 4E070000 		.4byte	0x74e
 2347 083d 02       		.byte	0x2
 2348 083e 91       		.byte	0x91
 2349 083f 74       		.sleb128 -12
 2350 0840 16       		.uleb128 0x16
 2351 0841 7000     		.ascii	"p\000"
 2352 0843 01       		.byte	0x1
 2353 0844 41       		.byte	0x41
 2354 0845 74000000 		.4byte	0x74
 2355 0849 02       		.byte	0x2
 2356 084a 91       		.byte	0x91
 2357 084b 70       		.sleb128 -16
 2358 084c 00       		.byte	0x0
 2359 084d 19       		.uleb128 0x19
ARM GAS  C:\Users\z80\AppData\Local\Temp\ccfOmD6n.s 			page 44


 2360 084e 6C040000 		.4byte	.LASF96
 2361 0852 01       		.byte	0x1
 2362 0853 46       		.byte	0x46
 2363 0854 01       		.byte	0x1
 2364 0855 00000000 		.4byte	.LFB64
 2365 0859 32000000 		.4byte	.LFE64
 2366 085d 58000000 		.4byte	.LLST2
 2367 0861 82080000 		.4byte	0x882
 2368 0865 16       		.uleb128 0x16
 2369 0866 63687000 		.ascii	"chp\000"
 2370 086a 01       		.byte	0x1
 2371 086b 46       		.byte	0x46
 2372 086c 4E070000 		.4byte	0x74e
 2373 0870 02       		.byte	0x2
 2374 0871 91       		.byte	0x91
 2375 0872 74       		.sleb128 -12
 2376 0873 16       		.uleb128 0x16
 2377 0874 73637000 		.ascii	"scp\000"
 2378 0878 01       		.byte	0x1
 2379 0879 46       		.byte	0x46
 2380 087a AF070000 		.4byte	0x7af
 2381 087e 02       		.byte	0x2
 2382 087f 91       		.byte	0x91
 2383 0880 70       		.sleb128 -16
 2384 0881 00       		.byte	0x0
 2385 0882 19       		.uleb128 0x19
 2386 0883 5D000000 		.4byte	.LASF97
 2387 0887 01       		.byte	0x1
 2388 0888 4E       		.byte	0x4e
 2389 0889 01       		.byte	0x1
 2390 088a 00000000 		.4byte	.LFB65
 2391 088e E6000000 		.4byte	.LFE65
 2392 0892 84000000 		.4byte	.LLST3
 2393 0896 C5080000 		.4byte	0x8c5
 2394 089a 16       		.uleb128 0x16
 2395 089b 63687000 		.ascii	"chp\000"
 2396 089f 01       		.byte	0x1
 2397 08a0 4E       		.byte	0x4e
 2398 08a1 4E070000 		.4byte	0x74e
 2399 08a5 02       		.byte	0x2
 2400 08a6 91       		.byte	0x91
 2401 08a7 74       		.sleb128 -12
 2402 08a8 17       		.uleb128 0x17
 2403 08a9 67040000 		.4byte	.LASF98
 2404 08ad 01       		.byte	0x1
 2405 08ae 4E       		.byte	0x4e
 2406 08af 45000000 		.4byte	0x45
 2407 08b3 02       		.byte	0x2
 2408 08b4 91       		.byte	0x91
 2409 08b5 70       		.sleb128 -16
 2410 08b6 17       		.uleb128 0x17
 2411 08b7 94040000 		.4byte	.LASF99
 2412 08bb 01       		.byte	0x1
 2413 08bc 4E       		.byte	0x4e
 2414 08bd 54070000 		.4byte	0x754
 2415 08c1 02       		.byte	0x2
 2416 08c2 91       		.byte	0x91
ARM GAS  C:\Users\z80\AppData\Local\Temp\ccfOmD6n.s 			page 45


 2417 08c3 6C       		.sleb128 -20
 2418 08c4 00       		.byte	0x0
 2419 08c5 19       		.uleb128 0x19
 2420 08c6 E4030000 		.4byte	.LASF100
 2421 08ca 01       		.byte	0x1
 2422 08cb 6E       		.byte	0x6e
 2423 08cc 01       		.byte	0x1
 2424 08cd 00000000 		.4byte	.LFB66
 2425 08d1 3E000000 		.4byte	.LFE66
 2426 08d5 B0000000 		.4byte	.LLST4
 2427 08d9 08090000 		.4byte	0x908
 2428 08dd 16       		.uleb128 0x16
 2429 08de 63687000 		.ascii	"chp\000"
 2430 08e2 01       		.byte	0x1
 2431 08e3 6E       		.byte	0x6e
 2432 08e4 4E070000 		.4byte	0x74e
 2433 08e8 02       		.byte	0x2
 2434 08e9 91       		.byte	0x91
 2435 08ea 74       		.sleb128 -12
 2436 08eb 17       		.uleb128 0x17
 2437 08ec 67040000 		.4byte	.LASF98
 2438 08f0 01       		.byte	0x1
 2439 08f1 6E       		.byte	0x6e
 2440 08f2 45000000 		.4byte	0x45
 2441 08f6 02       		.byte	0x2
 2442 08f7 91       		.byte	0x91
 2443 08f8 70       		.sleb128 -16
 2444 08f9 17       		.uleb128 0x17
 2445 08fa 94040000 		.4byte	.LASF99
 2446 08fe 01       		.byte	0x1
 2447 08ff 6E       		.byte	0x6e
 2448 0900 54070000 		.4byte	0x754
 2449 0904 02       		.byte	0x2
 2450 0905 91       		.byte	0x91
 2451 0906 6C       		.sleb128 -20
 2452 0907 00       		.byte	0x0
 2453 0908 15       		.uleb128 0x15
 2454 0909 FA020000 		.4byte	.LASF102
 2455 090d 01       		.byte	0x1
 2456 090e 81       		.byte	0x81
 2457 090f 01       		.byte	0x1
 2458 0910 C3000000 		.4byte	0xc3
 2459 0914 00000000 		.4byte	.LFB67
 2460 0918 4C000000 		.4byte	.LFE67
 2461 091c DC000000 		.4byte	.LLST5
 2462 0920 6B090000 		.4byte	0x96b
 2463 0924 16       		.uleb128 0x16
 2464 0925 73637000 		.ascii	"scp\000"
 2465 0929 01       		.byte	0x1
 2466 092a 81       		.byte	0x81
 2467 092b AF070000 		.4byte	0x7af
 2468 092f 02       		.byte	0x2
 2469 0930 91       		.byte	0x91
 2470 0931 74       		.sleb128 -12
 2471 0932 16       		.uleb128 0x16
 2472 0933 63687000 		.ascii	"chp\000"
 2473 0937 01       		.byte	0x1
ARM GAS  C:\Users\z80\AppData\Local\Temp\ccfOmD6n.s 			page 46


 2474 0938 81       		.byte	0x81
 2475 0939 4E070000 		.4byte	0x74e
 2476 093d 02       		.byte	0x2
 2477 093e 91       		.byte	0x91
 2478 093f 70       		.sleb128 -16
 2479 0940 17       		.uleb128 0x17
 2480 0941 64010000 		.4byte	.LASF103
 2481 0945 01       		.byte	0x1
 2482 0946 82       		.byte	0x82
 2483 0947 74000000 		.4byte	0x74
 2484 094b 02       		.byte	0x2
 2485 094c 91       		.byte	0x91
 2486 094d 6C       		.sleb128 -20
 2487 094e 17       		.uleb128 0x17
 2488 094f 67040000 		.4byte	.LASF98
 2489 0953 01       		.byte	0x1
 2490 0954 82       		.byte	0x82
 2491 0955 45000000 		.4byte	0x45
 2492 0959 02       		.byte	0x2
 2493 095a 91       		.byte	0x91
 2494 095b 68       		.sleb128 -24
 2495 095c 17       		.uleb128 0x17
 2496 095d 94040000 		.4byte	.LASF99
 2497 0961 01       		.byte	0x1
 2498 0962 82       		.byte	0x82
 2499 0963 54070000 		.4byte	0x754
 2500 0967 02       		.byte	0x2
 2501 0968 91       		.byte	0x91
 2502 0969 00       		.sleb128 0
 2503 096a 00       		.byte	0x0
 2504 096b 15       		.uleb128 0x15
 2505 096c 13040000 		.4byte	.LASF104
 2506 0970 01       		.byte	0x1
 2507 0971 96       		.byte	0x96
 2508 0972 01       		.byte	0x1
 2509 0973 EF000000 		.4byte	0xef
 2510 0977 00000000 		.4byte	.LFB68
 2511 097b 20020000 		.4byte	.LFE68
 2512 097f 08010000 		.4byte	.LLST6
 2513 0983 290A0000 		.4byte	0xa29
 2514 0987 16       		.uleb128 0x16
 2515 0988 7000     		.ascii	"p\000"
 2516 098a 01       		.byte	0x1
 2517 098b 96       		.byte	0x96
 2518 098c 6B000000 		.4byte	0x6b
 2519 0990 03       		.byte	0x3
 2520 0991 91       		.byte	0x91
 2521 0992 847F     		.sleb128 -124
 2522 0994 1A       		.uleb128 0x1a
 2523 0995 6E00     		.ascii	"n\000"
 2524 0997 01       		.byte	0x1
 2525 0998 97       		.byte	0x97
 2526 0999 45000000 		.4byte	0x45
 2527 099d 02       		.byte	0x2
 2528 099e 91       		.byte	0x91
 2529 099f 74       		.sleb128 -12
 2530 09a0 1A       		.uleb128 0x1a
ARM GAS  C:\Users\z80\AppData\Local\Temp\ccfOmD6n.s 			page 47


 2531 09a1 6D736700 		.ascii	"msg\000"
 2532 09a5 01       		.byte	0x1
 2533 09a6 98       		.byte	0x98
 2534 09a7 EF000000 		.4byte	0xef
 2535 09ab 02       		.byte	0x2
 2536 09ac 91       		.byte	0x91
 2537 09ad 6C       		.sleb128 -20
 2538 09ae 1A       		.uleb128 0x1a
 2539 09af 63687000 		.ascii	"chp\000"
 2540 09b3 01       		.byte	0x1
 2541 09b4 99       		.byte	0x99
 2542 09b5 4E070000 		.4byte	0x74e
 2543 09b9 02       		.byte	0x2
 2544 09ba 91       		.byte	0x91
 2545 09bb 68       		.sleb128 -24
 2546 09bc 1A       		.uleb128 0x1a
 2547 09bd 73637000 		.ascii	"scp\000"
 2548 09c1 01       		.byte	0x1
 2549 09c2 9A       		.byte	0x9a
 2550 09c3 AF070000 		.4byte	0x7af
 2551 09c7 02       		.byte	0x2
 2552 09c8 91       		.byte	0x91
 2553 09c9 64       		.sleb128 -28
 2554 09ca 1A       		.uleb128 0x1a
 2555 09cb 6C7000   		.ascii	"lp\000"
 2556 09ce 01       		.byte	0x1
 2557 09cf 9B       		.byte	0x9b
 2558 09d0 74000000 		.4byte	0x74
 2559 09d4 02       		.byte	0x2
 2560 09d5 91       		.byte	0x91
 2561 09d6 60       		.sleb128 -32
 2562 09d7 1A       		.uleb128 0x1a
 2563 09d8 636D6400 		.ascii	"cmd\000"
 2564 09dc 01       		.byte	0x1
 2565 09dd 9B       		.byte	0x9b
 2566 09de 74000000 		.4byte	0x74
 2567 09e2 02       		.byte	0x2
 2568 09e3 91       		.byte	0x91
 2569 09e4 70       		.sleb128 -16
 2570 09e5 18       		.uleb128 0x18
 2571 09e6 CD000000 		.4byte	.LASF106
 2572 09ea 01       		.byte	0x1
 2573 09eb 9B       		.byte	0x9b
 2574 09ec 74000000 		.4byte	0x74
 2575 09f0 02       		.byte	0x2
 2576 09f1 91       		.byte	0x91
 2577 09f2 5C       		.sleb128 -36
 2578 09f3 18       		.uleb128 0x18
 2579 09f4 E8000000 		.4byte	.LASF107
 2580 09f8 01       		.byte	0x1
 2581 09f9 9B       		.byte	0x9b
 2582 09fa 290A0000 		.4byte	0xa29
 2583 09fe 03       		.byte	0x3
 2584 09ff 91       		.byte	0x91
 2585 0a00 9C7F     		.sleb128 -100
 2586 0a02 18       		.uleb128 0x18
 2587 0a03 8F040000 		.4byte	.LASF108
ARM GAS  C:\Users\z80\AppData\Local\Temp\ccfOmD6n.s 			page 48


 2588 0a07 01       		.byte	0x1
 2589 0a08 9C       		.byte	0x9c
 2590 0a09 390A0000 		.4byte	0xa39
 2591 0a0d 03       		.byte	0x3
 2592 0a0e 91       		.byte	0x91
 2593 0a0f 887F     		.sleb128 -120
 2594 0a11 1B       		.uleb128 0x1b
 2595 0a12 F4010000 		.4byte	.LBB2
 2596 0a16 FC010000 		.4byte	.LBE2
 2597 0a1a 1A       		.uleb128 0x1a
 2598 0a1b 746D7000 		.ascii	"tmp\000"
 2599 0a1f 01       		.byte	0x1
 2600 0a20 CE       		.byte	0xce
 2601 0a21 AD000000 		.4byte	0xad
 2602 0a25 01       		.byte	0x1
 2603 0a26 53       		.byte	0x53
 2604 0a27 00       		.byte	0x0
 2605 0a28 00       		.byte	0x0
 2606 0a29 1C       		.uleb128 0x1c
 2607 0a2a 7A000000 		.4byte	0x7a
 2608 0a2e 390A0000 		.4byte	0xa39
 2609 0a32 1D       		.uleb128 0x1d
 2610 0a33 68000000 		.4byte	0x68
 2611 0a37 3F       		.byte	0x3f
 2612 0a38 00       		.byte	0x0
 2613 0a39 1C       		.uleb128 0x1c
 2614 0a3a 74000000 		.4byte	0x74
 2615 0a3e 490A0000 		.4byte	0xa49
 2616 0a42 1D       		.uleb128 0x1d
 2617 0a43 68000000 		.4byte	0x68
 2618 0a47 04       		.byte	0x4
 2619 0a48 00       		.byte	0x0
 2620 0a49 1E       		.uleb128 0x1e
 2621 0a4a 01       		.byte	0x1
 2622 0a4b 8A030000 		.4byte	.LASF121
 2623 0a4f 01       		.byte	0x1
 2624 0a50 D7       		.byte	0xd7
 2625 0a51 01       		.byte	0x1
 2626 0a52 00000000 		.4byte	.LFB69
 2627 0a56 14000000 		.4byte	.LFE69
 2628 0a5a 02       		.byte	0x2
 2629 0a5b 7D       		.byte	0x7d
 2630 0a5c 00       		.sleb128 0
 2631 0a5d 1F       		.uleb128 0x1f
 2632 0a5e 01       		.byte	0x1
 2633 0a5f 31020000 		.4byte	.LASF111
 2634 0a63 01       		.byte	0x1
 2635 0a64 F6       		.byte	0xf6
 2636 0a65 01       		.byte	0x1
 2637 0a66 54020000 		.4byte	0x254
 2638 0a6a 00000000 		.4byte	.LFB70
 2639 0a6e 2A000000 		.4byte	.LFE70
 2640 0a72 35010000 		.4byte	.LLST7
 2641 0a76 B30A0000 		.4byte	0xab3
 2642 0a7a 16       		.uleb128 0x16
 2643 0a7b 73637000 		.ascii	"scp\000"
 2644 0a7f 01       		.byte	0x1
ARM GAS  C:\Users\z80\AppData\Local\Temp\ccfOmD6n.s 			page 49


 2645 0a80 F6       		.byte	0xf6
 2646 0a81 B30A0000 		.4byte	0xab3
 2647 0a85 02       		.byte	0x2
 2648 0a86 91       		.byte	0x91
 2649 0a87 74       		.sleb128 -12
 2650 0a88 16       		.uleb128 0x16
 2651 0a89 77737000 		.ascii	"wsp\000"
 2652 0a8d 01       		.byte	0x1
 2653 0a8e F6       		.byte	0xf6
 2654 0a8f 6B000000 		.4byte	0x6b
 2655 0a93 02       		.byte	0x2
 2656 0a94 91       		.byte	0x91
 2657 0a95 70       		.sleb128 -16
 2658 0a96 17       		.uleb128 0x17
 2659 0a97 76010000 		.4byte	.LASF109
 2660 0a9b 01       		.byte	0x1
 2661 0a9c F7       		.byte	0xf7
 2662 0a9d 8C000000 		.4byte	0x8c
 2663 0aa1 02       		.byte	0x2
 2664 0aa2 91       		.byte	0x91
 2665 0aa3 6C       		.sleb128 -20
 2666 0aa4 17       		.uleb128 0x17
 2667 0aa5 8A020000 		.4byte	.LASF110
 2668 0aa9 01       		.byte	0x1
 2669 0aaa F7       		.byte	0xf7
 2670 0aab E4000000 		.4byte	0xe4
 2671 0aaf 02       		.byte	0x2
 2672 0ab0 91       		.byte	0x91
 2673 0ab1 68       		.sleb128 -24
 2674 0ab2 00       		.byte	0x0
 2675 0ab3 06       		.uleb128 0x6
 2676 0ab4 04       		.byte	0x4
 2677 0ab5 B90A0000 		.4byte	0xab9
 2678 0ab9 07       		.uleb128 0x7
 2679 0aba BA070000 		.4byte	0x7ba
 2680 0abe 20       		.uleb128 0x20
 2681 0abf 01       		.byte	0x1
 2682 0ac0 06010000 		.4byte	.LASF112
 2683 0ac4 01       		.byte	0x1
 2684 0ac5 0601     		.2byte	0x106
 2685 0ac7 01       		.byte	0x1
 2686 0ac8 C3000000 		.4byte	0xc3
 2687 0acc 00000000 		.4byte	.LFB71
 2688 0ad0 18010000 		.4byte	.LFE71
 2689 0ad4 61010000 		.4byte	.LLST8
 2690 0ad8 2E0B0000 		.4byte	0xb2e
 2691 0adc 21       		.uleb128 0x21
 2692 0add 63687000 		.ascii	"chp\000"
 2693 0ae1 01       		.byte	0x1
 2694 0ae2 0601     		.2byte	0x106
 2695 0ae4 4E070000 		.4byte	0x74e
 2696 0ae8 02       		.byte	0x2
 2697 0ae9 91       		.byte	0x91
 2698 0aea 6C       		.sleb128 -20
 2699 0aeb 22       		.uleb128 0x22
 2700 0aec E8000000 		.4byte	.LASF107
 2701 0af0 01       		.byte	0x1
ARM GAS  C:\Users\z80\AppData\Local\Temp\ccfOmD6n.s 			page 50


 2702 0af1 0601     		.2byte	0x106
 2703 0af3 74000000 		.4byte	0x74
 2704 0af7 02       		.byte	0x2
 2705 0af8 91       		.byte	0x91
 2706 0af9 68       		.sleb128 -24
 2707 0afa 22       		.uleb128 0x22
 2708 0afb 76010000 		.4byte	.LASF109
 2709 0aff 01       		.byte	0x1
 2710 0b00 0601     		.2byte	0x106
 2711 0b02 4C000000 		.4byte	0x4c
 2712 0b06 02       		.byte	0x2
 2713 0b07 91       		.byte	0x91
 2714 0b08 64       		.sleb128 -28
 2715 0b09 23       		.uleb128 0x23
 2716 0b0a 7000     		.ascii	"p\000"
 2717 0b0c 01       		.byte	0x1
 2718 0b0d 0701     		.2byte	0x107
 2719 0b0f 74000000 		.4byte	0x74
 2720 0b13 02       		.byte	0x2
 2721 0b14 91       		.byte	0x91
 2722 0b15 74       		.sleb128 -12
 2723 0b16 1B       		.uleb128 0x1b
 2724 0b17 12000000 		.4byte	.LBB3
 2725 0b1b 0E010000 		.4byte	.LBE3
 2726 0b1f 23       		.uleb128 0x23
 2727 0b20 6300     		.ascii	"c\000"
 2728 0b22 01       		.byte	0x1
 2729 0b23 0A01     		.2byte	0x10a
 2730 0b25 37000000 		.4byte	0x37
 2731 0b29 02       		.byte	0x2
 2732 0b2a 91       		.byte	0x91
 2733 0b2b 72       		.sleb128 -14
 2734 0b2c 00       		.byte	0x0
 2735 0b2d 00       		.byte	0x0
 2736 0b2e 24       		.uleb128 0x24
 2737 0b2f 10000000 		.4byte	.LASF113
 2738 0b33 08       		.byte	0x8
 2739 0b34 7A       		.byte	0x7a
 2740 0b35 14040000 		.4byte	0x414
 2741 0b39 01       		.byte	0x1
 2742 0b3a 01       		.byte	0x1
 2743 0b3b 24       		.uleb128 0x24
 2744 0b3c 20040000 		.4byte	.LASF114
 2745 0b40 09       		.byte	0x9
 2746 0b41 72       		.byte	0x72
 2747 0b42 8A040000 		.4byte	0x48a
 2748 0b46 01       		.byte	0x1
 2749 0b47 01       		.byte	0x1
 2750 0b48 25       		.uleb128 0x25
 2751 0b49 50000000 		.4byte	.LASF115
 2752 0b4d 0E       		.byte	0xe
 2753 0b4e 9404     		.2byte	0x494
 2754 0b50 22070000 		.4byte	0x722
 2755 0b54 01       		.byte	0x1
 2756 0b55 01       		.byte	0x1
 2757 0b56 24       		.uleb128 0x24
 2758 0b57 79030000 		.4byte	.LASF116
ARM GAS  C:\Users\z80\AppData\Local\Temp\ccfOmD6n.s 			page 51


 2759 0b5b 0D       		.byte	0xd
 2760 0b5c 4D       		.byte	0x4d
 2761 0b5d 40050000 		.4byte	0x540
 2762 0b61 01       		.byte	0x1
 2763 0b62 01       		.byte	0x1
 2764 0b63 1C       		.uleb128 0x1c
 2765 0b64 7F070000 		.4byte	0x77f
 2766 0b68 730B0000 		.4byte	0xb73
 2767 0b6c 1D       		.uleb128 0x1d
 2768 0b6d 68000000 		.4byte	0x68
 2769 0b71 02       		.byte	0x2
 2770 0b72 00       		.byte	0x0
 2771 0b73 18       		.uleb128 0x18
 2772 0b74 7B020000 		.4byte	.LASF117
 2773 0b78 01       		.byte	0x1
 2774 0b79 7B       		.byte	0x7b
 2775 0b7a 630B0000 		.4byte	0xb63
 2776 0b7e 05       		.byte	0x5
 2777 0b7f 03       		.byte	0x3
 2778 0b80 00000000 		.4byte	local_commands
 2779 0b84 24       		.uleb128 0x24
 2780 0b85 10000000 		.4byte	.LASF113
 2781 0b89 08       		.byte	0x8
 2782 0b8a 7A       		.byte	0x7a
 2783 0b8b 14040000 		.4byte	0x414
 2784 0b8f 01       		.byte	0x1
 2785 0b90 01       		.byte	0x1
 2786 0b91 24       		.uleb128 0x24
 2787 0b92 20040000 		.4byte	.LASF114
 2788 0b96 09       		.byte	0x9
 2789 0b97 72       		.byte	0x72
 2790 0b98 8A040000 		.4byte	0x48a
 2791 0b9c 01       		.byte	0x1
 2792 0b9d 01       		.byte	0x1
 2793 0b9e 25       		.uleb128 0x25
 2794 0b9f 50000000 		.4byte	.LASF115
 2795 0ba3 0E       		.byte	0xe
 2796 0ba4 9404     		.2byte	0x494
 2797 0ba6 22070000 		.4byte	0x722
 2798 0baa 01       		.byte	0x1
 2799 0bab 01       		.byte	0x1
 2800 0bac 26       		.uleb128 0x26
 2801 0bad 79030000 		.4byte	.LASF116
 2802 0bb1 01       		.byte	0x1
 2803 0bb2 2E       		.byte	0x2e
 2804 0bb3 40050000 		.4byte	0x540
 2805 0bb7 01       		.byte	0x1
 2806 0bb8 05       		.byte	0x5
 2807 0bb9 03       		.byte	0x3
 2808 0bba 00000000 		.4byte	shell_terminated
 2809 0bbe 00       		.byte	0x0
 2810              		.section	.debug_abbrev
 2811 0000 01       		.uleb128 0x1
 2812 0001 11       		.uleb128 0x11
 2813 0002 01       		.byte	0x1
 2814 0003 25       		.uleb128 0x25
 2815 0004 0E       		.uleb128 0xe
ARM GAS  C:\Users\z80\AppData\Local\Temp\ccfOmD6n.s 			page 52


 2816 0005 13       		.uleb128 0x13
 2817 0006 0B       		.uleb128 0xb
 2818 0007 03       		.uleb128 0x3
 2819 0008 0E       		.uleb128 0xe
 2820 0009 1B       		.uleb128 0x1b
 2821 000a 0E       		.uleb128 0xe
 2822 000b 11       		.uleb128 0x11
 2823 000c 01       		.uleb128 0x1
 2824 000d 52       		.uleb128 0x52
 2825 000e 01       		.uleb128 0x1
 2826 000f 55       		.uleb128 0x55
 2827 0010 06       		.uleb128 0x6
 2828 0011 10       		.uleb128 0x10
 2829 0012 06       		.uleb128 0x6
 2830 0013 00       		.byte	0x0
 2831 0014 00       		.byte	0x0
 2832 0015 02       		.uleb128 0x2
 2833 0016 24       		.uleb128 0x24
 2834 0017 00       		.byte	0x0
 2835 0018 0B       		.uleb128 0xb
 2836 0019 0B       		.uleb128 0xb
 2837 001a 3E       		.uleb128 0x3e
 2838 001b 0B       		.uleb128 0xb
 2839 001c 03       		.uleb128 0x3
 2840 001d 0E       		.uleb128 0xe
 2841 001e 00       		.byte	0x0
 2842 001f 00       		.byte	0x0
 2843 0020 03       		.uleb128 0x3
 2844 0021 24       		.uleb128 0x24
 2845 0022 00       		.byte	0x0
 2846 0023 0B       		.uleb128 0xb
 2847 0024 0B       		.uleb128 0xb
 2848 0025 3E       		.uleb128 0x3e
 2849 0026 0B       		.uleb128 0xb
 2850 0027 03       		.uleb128 0x3
 2851 0028 08       		.uleb128 0x8
 2852 0029 00       		.byte	0x0
 2853 002a 00       		.byte	0x0
 2854 002b 04       		.uleb128 0x4
 2855 002c 24       		.uleb128 0x24
 2856 002d 00       		.byte	0x0
 2857 002e 0B       		.uleb128 0xb
 2858 002f 0B       		.uleb128 0xb
 2859 0030 3E       		.uleb128 0x3e
 2860 0031 0B       		.uleb128 0xb
 2861 0032 00       		.byte	0x0
 2862 0033 00       		.byte	0x0
 2863 0034 05       		.uleb128 0x5
 2864 0035 0F       		.uleb128 0xf
 2865 0036 00       		.byte	0x0
 2866 0037 0B       		.uleb128 0xb
 2867 0038 0B       		.uleb128 0xb
 2868 0039 00       		.byte	0x0
 2869 003a 00       		.byte	0x0
 2870 003b 06       		.uleb128 0x6
 2871 003c 0F       		.uleb128 0xf
 2872 003d 00       		.byte	0x0
ARM GAS  C:\Users\z80\AppData\Local\Temp\ccfOmD6n.s 			page 53


 2873 003e 0B       		.uleb128 0xb
 2874 003f 0B       		.uleb128 0xb
 2875 0040 49       		.uleb128 0x49
 2876 0041 13       		.uleb128 0x13
 2877 0042 00       		.byte	0x0
 2878 0043 00       		.byte	0x0
 2879 0044 07       		.uleb128 0x7
 2880 0045 26       		.uleb128 0x26
 2881 0046 00       		.byte	0x0
 2882 0047 49       		.uleb128 0x49
 2883 0048 13       		.uleb128 0x13
 2884 0049 00       		.byte	0x0
 2885 004a 00       		.byte	0x0
 2886 004b 08       		.uleb128 0x8
 2887 004c 16       		.uleb128 0x16
 2888 004d 00       		.byte	0x0
 2889 004e 03       		.uleb128 0x3
 2890 004f 0E       		.uleb128 0xe
 2891 0050 3A       		.uleb128 0x3a
 2892 0051 0B       		.uleb128 0xb
 2893 0052 3B       		.uleb128 0x3b
 2894 0053 0B       		.uleb128 0xb
 2895 0054 49       		.uleb128 0x49
 2896 0055 13       		.uleb128 0x13
 2897 0056 00       		.byte	0x0
 2898 0057 00       		.byte	0x0
 2899 0058 09       		.uleb128 0x9
 2900 0059 13       		.uleb128 0x13
 2901 005a 01       		.byte	0x1
 2902 005b 03       		.uleb128 0x3
 2903 005c 0E       		.uleb128 0xe
 2904 005d 0B       		.uleb128 0xb
 2905 005e 0B       		.uleb128 0xb
 2906 005f 3A       		.uleb128 0x3a
 2907 0060 0B       		.uleb128 0xb
 2908 0061 3B       		.uleb128 0x3b
 2909 0062 0B       		.uleb128 0xb
 2910 0063 01       		.uleb128 0x1
 2911 0064 13       		.uleb128 0x13
 2912 0065 00       		.byte	0x0
 2913 0066 00       		.byte	0x0
 2914 0067 0A       		.uleb128 0xa
 2915 0068 0D       		.uleb128 0xd
 2916 0069 00       		.byte	0x0
 2917 006a 03       		.uleb128 0x3
 2918 006b 0E       		.uleb128 0xe
 2919 006c 3A       		.uleb128 0x3a
 2920 006d 0B       		.uleb128 0xb
 2921 006e 3B       		.uleb128 0x3b
 2922 006f 0B       		.uleb128 0xb
 2923 0070 49       		.uleb128 0x49
 2924 0071 13       		.uleb128 0x13
 2925 0072 38       		.uleb128 0x38
 2926 0073 0A       		.uleb128 0xa
 2927 0074 00       		.byte	0x0
 2928 0075 00       		.byte	0x0
 2929 0076 0B       		.uleb128 0xb
ARM GAS  C:\Users\z80\AppData\Local\Temp\ccfOmD6n.s 			page 54


 2930 0077 0D       		.uleb128 0xd
 2931 0078 00       		.byte	0x0
 2932 0079 03       		.uleb128 0x3
 2933 007a 08       		.uleb128 0x8
 2934 007b 3A       		.uleb128 0x3a
 2935 007c 0B       		.uleb128 0xb
 2936 007d 3B       		.uleb128 0x3b
 2937 007e 0B       		.uleb128 0xb
 2938 007f 49       		.uleb128 0x49
 2939 0080 13       		.uleb128 0x13
 2940 0081 38       		.uleb128 0x38
 2941 0082 0A       		.uleb128 0xa
 2942 0083 00       		.byte	0x0
 2943 0084 00       		.byte	0x0
 2944 0085 0C       		.uleb128 0xc
 2945 0086 13       		.uleb128 0x13
 2946 0087 01       		.byte	0x1
 2947 0088 0B       		.uleb128 0xb
 2948 0089 0B       		.uleb128 0xb
 2949 008a 3A       		.uleb128 0x3a
 2950 008b 0B       		.uleb128 0xb
 2951 008c 3B       		.uleb128 0x3b
 2952 008d 0B       		.uleb128 0xb
 2953 008e 01       		.uleb128 0x1
 2954 008f 13       		.uleb128 0x13
 2955 0090 00       		.byte	0x0
 2956 0091 00       		.byte	0x0
 2957 0092 0D       		.uleb128 0xd
 2958 0093 0D       		.uleb128 0xd
 2959 0094 00       		.byte	0x0
 2960 0095 03       		.uleb128 0x3
 2961 0096 08       		.uleb128 0x8
 2962 0097 3A       		.uleb128 0x3a
 2963 0098 0B       		.uleb128 0xb
 2964 0099 3B       		.uleb128 0x3b
 2965 009a 05       		.uleb128 0x5
 2966 009b 49       		.uleb128 0x49
 2967 009c 13       		.uleb128 0x13
 2968 009d 38       		.uleb128 0x38
 2969 009e 0A       		.uleb128 0xa
 2970 009f 00       		.byte	0x0
 2971 00a0 00       		.byte	0x0
 2972 00a1 0E       		.uleb128 0xe
 2973 00a2 13       		.uleb128 0x13
 2974 00a3 01       		.byte	0x1
 2975 00a4 03       		.uleb128 0x3
 2976 00a5 0E       		.uleb128 0xe
 2977 00a6 0B       		.uleb128 0xb
 2978 00a7 0B       		.uleb128 0xb
 2979 00a8 3A       		.uleb128 0x3a
 2980 00a9 0B       		.uleb128 0xb
 2981 00aa 3B       		.uleb128 0x3b
 2982 00ab 05       		.uleb128 0x5
 2983 00ac 01       		.uleb128 0x1
 2984 00ad 13       		.uleb128 0x13
 2985 00ae 00       		.byte	0x0
 2986 00af 00       		.byte	0x0
ARM GAS  C:\Users\z80\AppData\Local\Temp\ccfOmD6n.s 			page 55


 2987 00b0 0F       		.uleb128 0xf
 2988 00b1 15       		.uleb128 0x15
 2989 00b2 01       		.byte	0x1
 2990 00b3 27       		.uleb128 0x27
 2991 00b4 0C       		.uleb128 0xc
 2992 00b5 01       		.uleb128 0x1
 2993 00b6 13       		.uleb128 0x13
 2994 00b7 00       		.byte	0x0
 2995 00b8 00       		.byte	0x0
 2996 00b9 10       		.uleb128 0x10
 2997 00ba 05       		.uleb128 0x5
 2998 00bb 00       		.byte	0x0
 2999 00bc 49       		.uleb128 0x49
 3000 00bd 13       		.uleb128 0x13
 3001 00be 00       		.byte	0x0
 3002 00bf 00       		.byte	0x0
 3003 00c0 11       		.uleb128 0x11
 3004 00c1 35       		.uleb128 0x35
 3005 00c2 00       		.byte	0x0
 3006 00c3 49       		.uleb128 0x49
 3007 00c4 13       		.uleb128 0x13
 3008 00c5 00       		.byte	0x0
 3009 00c6 00       		.byte	0x0
 3010 00c7 12       		.uleb128 0x12
 3011 00c8 17       		.uleb128 0x17
 3012 00c9 01       		.byte	0x1
 3013 00ca 0B       		.uleb128 0xb
 3014 00cb 0B       		.uleb128 0xb
 3015 00cc 3A       		.uleb128 0x3a
 3016 00cd 0B       		.uleb128 0xb
 3017 00ce 3B       		.uleb128 0x3b
 3018 00cf 0B       		.uleb128 0xb
 3019 00d0 01       		.uleb128 0x1
 3020 00d1 13       		.uleb128 0x13
 3021 00d2 00       		.byte	0x0
 3022 00d3 00       		.byte	0x0
 3023 00d4 13       		.uleb128 0x13
 3024 00d5 0D       		.uleb128 0xd
 3025 00d6 00       		.byte	0x0
 3026 00d7 03       		.uleb128 0x3
 3027 00d8 0E       		.uleb128 0xe
 3028 00d9 3A       		.uleb128 0x3a
 3029 00da 0B       		.uleb128 0xb
 3030 00db 3B       		.uleb128 0x3b
 3031 00dc 0B       		.uleb128 0xb
 3032 00dd 49       		.uleb128 0x49
 3033 00de 13       		.uleb128 0x13
 3034 00df 00       		.byte	0x0
 3035 00e0 00       		.byte	0x0
 3036 00e1 14       		.uleb128 0x14
 3037 00e2 15       		.uleb128 0x15
 3038 00e3 01       		.byte	0x1
 3039 00e4 27       		.uleb128 0x27
 3040 00e5 0C       		.uleb128 0xc
 3041 00e6 49       		.uleb128 0x49
 3042 00e7 13       		.uleb128 0x13
 3043 00e8 01       		.uleb128 0x1
ARM GAS  C:\Users\z80\AppData\Local\Temp\ccfOmD6n.s 			page 56


 3044 00e9 13       		.uleb128 0x13
 3045 00ea 00       		.byte	0x0
 3046 00eb 00       		.byte	0x0
 3047 00ec 15       		.uleb128 0x15
 3048 00ed 2E       		.uleb128 0x2e
 3049 00ee 01       		.byte	0x1
 3050 00ef 03       		.uleb128 0x3
 3051 00f0 0E       		.uleb128 0xe
 3052 00f1 3A       		.uleb128 0x3a
 3053 00f2 0B       		.uleb128 0xb
 3054 00f3 3B       		.uleb128 0x3b
 3055 00f4 0B       		.uleb128 0xb
 3056 00f5 27       		.uleb128 0x27
 3057 00f6 0C       		.uleb128 0xc
 3058 00f7 49       		.uleb128 0x49
 3059 00f8 13       		.uleb128 0x13
 3060 00f9 11       		.uleb128 0x11
 3061 00fa 01       		.uleb128 0x1
 3062 00fb 12       		.uleb128 0x12
 3063 00fc 01       		.uleb128 0x1
 3064 00fd 40       		.uleb128 0x40
 3065 00fe 06       		.uleb128 0x6
 3066 00ff 01       		.uleb128 0x1
 3067 0100 13       		.uleb128 0x13
 3068 0101 00       		.byte	0x0
 3069 0102 00       		.byte	0x0
 3070 0103 16       		.uleb128 0x16
 3071 0104 05       		.uleb128 0x5
 3072 0105 00       		.byte	0x0
 3073 0106 03       		.uleb128 0x3
 3074 0107 08       		.uleb128 0x8
 3075 0108 3A       		.uleb128 0x3a
 3076 0109 0B       		.uleb128 0xb
 3077 010a 3B       		.uleb128 0x3b
 3078 010b 0B       		.uleb128 0xb
 3079 010c 49       		.uleb128 0x49
 3080 010d 13       		.uleb128 0x13
 3081 010e 02       		.uleb128 0x2
 3082 010f 0A       		.uleb128 0xa
 3083 0110 00       		.byte	0x0
 3084 0111 00       		.byte	0x0
 3085 0112 17       		.uleb128 0x17
 3086 0113 05       		.uleb128 0x5
 3087 0114 00       		.byte	0x0
 3088 0115 03       		.uleb128 0x3
 3089 0116 0E       		.uleb128 0xe
 3090 0117 3A       		.uleb128 0x3a
 3091 0118 0B       		.uleb128 0xb
 3092 0119 3B       		.uleb128 0x3b
 3093 011a 0B       		.uleb128 0xb
 3094 011b 49       		.uleb128 0x49
 3095 011c 13       		.uleb128 0x13
 3096 011d 02       		.uleb128 0x2
 3097 011e 0A       		.uleb128 0xa
 3098 011f 00       		.byte	0x0
 3099 0120 00       		.byte	0x0
 3100 0121 18       		.uleb128 0x18
ARM GAS  C:\Users\z80\AppData\Local\Temp\ccfOmD6n.s 			page 57


 3101 0122 34       		.uleb128 0x34
 3102 0123 00       		.byte	0x0
 3103 0124 03       		.uleb128 0x3
 3104 0125 0E       		.uleb128 0xe
 3105 0126 3A       		.uleb128 0x3a
 3106 0127 0B       		.uleb128 0xb
 3107 0128 3B       		.uleb128 0x3b
 3108 0129 0B       		.uleb128 0xb
 3109 012a 49       		.uleb128 0x49
 3110 012b 13       		.uleb128 0x13
 3111 012c 02       		.uleb128 0x2
 3112 012d 0A       		.uleb128 0xa
 3113 012e 00       		.byte	0x0
 3114 012f 00       		.byte	0x0
 3115 0130 19       		.uleb128 0x19
 3116 0131 2E       		.uleb128 0x2e
 3117 0132 01       		.byte	0x1
 3118 0133 03       		.uleb128 0x3
 3119 0134 0E       		.uleb128 0xe
 3120 0135 3A       		.uleb128 0x3a
 3121 0136 0B       		.uleb128 0xb
 3122 0137 3B       		.uleb128 0x3b
 3123 0138 0B       		.uleb128 0xb
 3124 0139 27       		.uleb128 0x27
 3125 013a 0C       		.uleb128 0xc
 3126 013b 11       		.uleb128 0x11
 3127 013c 01       		.uleb128 0x1
 3128 013d 12       		.uleb128 0x12
 3129 013e 01       		.uleb128 0x1
 3130 013f 40       		.uleb128 0x40
 3131 0140 06       		.uleb128 0x6
 3132 0141 01       		.uleb128 0x1
 3133 0142 13       		.uleb128 0x13
 3134 0143 00       		.byte	0x0
 3135 0144 00       		.byte	0x0
 3136 0145 1A       		.uleb128 0x1a
 3137 0146 34       		.uleb128 0x34
 3138 0147 00       		.byte	0x0
 3139 0148 03       		.uleb128 0x3
 3140 0149 08       		.uleb128 0x8
 3141 014a 3A       		.uleb128 0x3a
 3142 014b 0B       		.uleb128 0xb
 3143 014c 3B       		.uleb128 0x3b
 3144 014d 0B       		.uleb128 0xb
 3145 014e 49       		.uleb128 0x49
 3146 014f 13       		.uleb128 0x13
 3147 0150 02       		.uleb128 0x2
 3148 0151 0A       		.uleb128 0xa
 3149 0152 00       		.byte	0x0
 3150 0153 00       		.byte	0x0
 3151 0154 1B       		.uleb128 0x1b
 3152 0155 0B       		.uleb128 0xb
 3153 0156 01       		.byte	0x1
 3154 0157 11       		.uleb128 0x11
 3155 0158 01       		.uleb128 0x1
 3156 0159 12       		.uleb128 0x12
 3157 015a 01       		.uleb128 0x1
ARM GAS  C:\Users\z80\AppData\Local\Temp\ccfOmD6n.s 			page 58


 3158 015b 00       		.byte	0x0
 3159 015c 00       		.byte	0x0
 3160 015d 1C       		.uleb128 0x1c
 3161 015e 01       		.uleb128 0x1
 3162 015f 01       		.byte	0x1
 3163 0160 49       		.uleb128 0x49
 3164 0161 13       		.uleb128 0x13
 3165 0162 01       		.uleb128 0x1
 3166 0163 13       		.uleb128 0x13
 3167 0164 00       		.byte	0x0
 3168 0165 00       		.byte	0x0
 3169 0166 1D       		.uleb128 0x1d
 3170 0167 21       		.uleb128 0x21
 3171 0168 00       		.byte	0x0
 3172 0169 49       		.uleb128 0x49
 3173 016a 13       		.uleb128 0x13
 3174 016b 2F       		.uleb128 0x2f
 3175 016c 0B       		.uleb128 0xb
 3176 016d 00       		.byte	0x0
 3177 016e 00       		.byte	0x0
 3178 016f 1E       		.uleb128 0x1e
 3179 0170 2E       		.uleb128 0x2e
 3180 0171 00       		.byte	0x0
 3181 0172 3F       		.uleb128 0x3f
 3182 0173 0C       		.uleb128 0xc
 3183 0174 03       		.uleb128 0x3
 3184 0175 0E       		.uleb128 0xe
 3185 0176 3A       		.uleb128 0x3a
 3186 0177 0B       		.uleb128 0xb
 3187 0178 3B       		.uleb128 0x3b
 3188 0179 0B       		.uleb128 0xb
 3189 017a 27       		.uleb128 0x27
 3190 017b 0C       		.uleb128 0xc
 3191 017c 11       		.uleb128 0x11
 3192 017d 01       		.uleb128 0x1
 3193 017e 12       		.uleb128 0x12
 3194 017f 01       		.uleb128 0x1
 3195 0180 40       		.uleb128 0x40
 3196 0181 0A       		.uleb128 0xa
 3197 0182 00       		.byte	0x0
 3198 0183 00       		.byte	0x0
 3199 0184 1F       		.uleb128 0x1f
 3200 0185 2E       		.uleb128 0x2e
 3201 0186 01       		.byte	0x1
 3202 0187 3F       		.uleb128 0x3f
 3203 0188 0C       		.uleb128 0xc
 3204 0189 03       		.uleb128 0x3
 3205 018a 0E       		.uleb128 0xe
 3206 018b 3A       		.uleb128 0x3a
 3207 018c 0B       		.uleb128 0xb
 3208 018d 3B       		.uleb128 0x3b
 3209 018e 0B       		.uleb128 0xb
 3210 018f 27       		.uleb128 0x27
 3211 0190 0C       		.uleb128 0xc
 3212 0191 49       		.uleb128 0x49
 3213 0192 13       		.uleb128 0x13
 3214 0193 11       		.uleb128 0x11
ARM GAS  C:\Users\z80\AppData\Local\Temp\ccfOmD6n.s 			page 59


 3215 0194 01       		.uleb128 0x1
 3216 0195 12       		.uleb128 0x12
 3217 0196 01       		.uleb128 0x1
 3218 0197 40       		.uleb128 0x40
 3219 0198 06       		.uleb128 0x6
 3220 0199 01       		.uleb128 0x1
 3221 019a 13       		.uleb128 0x13
 3222 019b 00       		.byte	0x0
 3223 019c 00       		.byte	0x0
 3224 019d 20       		.uleb128 0x20
 3225 019e 2E       		.uleb128 0x2e
 3226 019f 01       		.byte	0x1
 3227 01a0 3F       		.uleb128 0x3f
 3228 01a1 0C       		.uleb128 0xc
 3229 01a2 03       		.uleb128 0x3
 3230 01a3 0E       		.uleb128 0xe
 3231 01a4 3A       		.uleb128 0x3a
 3232 01a5 0B       		.uleb128 0xb
 3233 01a6 3B       		.uleb128 0x3b
 3234 01a7 05       		.uleb128 0x5
 3235 01a8 27       		.uleb128 0x27
 3236 01a9 0C       		.uleb128 0xc
 3237 01aa 49       		.uleb128 0x49
 3238 01ab 13       		.uleb128 0x13
 3239 01ac 11       		.uleb128 0x11
 3240 01ad 01       		.uleb128 0x1
 3241 01ae 12       		.uleb128 0x12
 3242 01af 01       		.uleb128 0x1
 3243 01b0 40       		.uleb128 0x40
 3244 01b1 06       		.uleb128 0x6
 3245 01b2 01       		.uleb128 0x1
 3246 01b3 13       		.uleb128 0x13
 3247 01b4 00       		.byte	0x0
 3248 01b5 00       		.byte	0x0
 3249 01b6 21       		.uleb128 0x21
 3250 01b7 05       		.uleb128 0x5
 3251 01b8 00       		.byte	0x0
 3252 01b9 03       		.uleb128 0x3
 3253 01ba 08       		.uleb128 0x8
 3254 01bb 3A       		.uleb128 0x3a
 3255 01bc 0B       		.uleb128 0xb
 3256 01bd 3B       		.uleb128 0x3b
 3257 01be 05       		.uleb128 0x5
 3258 01bf 49       		.uleb128 0x49
 3259 01c0 13       		.uleb128 0x13
 3260 01c1 02       		.uleb128 0x2
 3261 01c2 0A       		.uleb128 0xa
 3262 01c3 00       		.byte	0x0
 3263 01c4 00       		.byte	0x0
 3264 01c5 22       		.uleb128 0x22
 3265 01c6 05       		.uleb128 0x5
 3266 01c7 00       		.byte	0x0
 3267 01c8 03       		.uleb128 0x3
 3268 01c9 0E       		.uleb128 0xe
 3269 01ca 3A       		.uleb128 0x3a
 3270 01cb 0B       		.uleb128 0xb
 3271 01cc 3B       		.uleb128 0x3b
ARM GAS  C:\Users\z80\AppData\Local\Temp\ccfOmD6n.s 			page 60


 3272 01cd 05       		.uleb128 0x5
 3273 01ce 49       		.uleb128 0x49
 3274 01cf 13       		.uleb128 0x13
 3275 01d0 02       		.uleb128 0x2
 3276 01d1 0A       		.uleb128 0xa
 3277 01d2 00       		.byte	0x0
 3278 01d3 00       		.byte	0x0
 3279 01d4 23       		.uleb128 0x23
 3280 01d5 34       		.uleb128 0x34
 3281 01d6 00       		.byte	0x0
 3282 01d7 03       		.uleb128 0x3
 3283 01d8 08       		.uleb128 0x8
 3284 01d9 3A       		.uleb128 0x3a
 3285 01da 0B       		.uleb128 0xb
 3286 01db 3B       		.uleb128 0x3b
 3287 01dc 05       		.uleb128 0x5
 3288 01dd 49       		.uleb128 0x49
 3289 01de 13       		.uleb128 0x13
 3290 01df 02       		.uleb128 0x2
 3291 01e0 0A       		.uleb128 0xa
 3292 01e1 00       		.byte	0x0
 3293 01e2 00       		.byte	0x0
 3294 01e3 24       		.uleb128 0x24
 3295 01e4 34       		.uleb128 0x34
 3296 01e5 00       		.byte	0x0
 3297 01e6 03       		.uleb128 0x3
 3298 01e7 0E       		.uleb128 0xe
 3299 01e8 3A       		.uleb128 0x3a
 3300 01e9 0B       		.uleb128 0xb
 3301 01ea 3B       		.uleb128 0x3b
 3302 01eb 0B       		.uleb128 0xb
 3303 01ec 49       		.uleb128 0x49
 3304 01ed 13       		.uleb128 0x13
 3305 01ee 3F       		.uleb128 0x3f
 3306 01ef 0C       		.uleb128 0xc
 3307 01f0 3C       		.uleb128 0x3c
 3308 01f1 0C       		.uleb128 0xc
 3309 01f2 00       		.byte	0x0
 3310 01f3 00       		.byte	0x0
 3311 01f4 25       		.uleb128 0x25
 3312 01f5 34       		.uleb128 0x34
 3313 01f6 00       		.byte	0x0
 3314 01f7 03       		.uleb128 0x3
 3315 01f8 0E       		.uleb128 0xe
 3316 01f9 3A       		.uleb128 0x3a
 3317 01fa 0B       		.uleb128 0xb
 3318 01fb 3B       		.uleb128 0x3b
 3319 01fc 05       		.uleb128 0x5
 3320 01fd 49       		.uleb128 0x49
 3321 01fe 13       		.uleb128 0x13
 3322 01ff 3F       		.uleb128 0x3f
 3323 0200 0C       		.uleb128 0xc
 3324 0201 3C       		.uleb128 0x3c
 3325 0202 0C       		.uleb128 0xc
 3326 0203 00       		.byte	0x0
 3327 0204 00       		.byte	0x0
 3328 0205 26       		.uleb128 0x26
ARM GAS  C:\Users\z80\AppData\Local\Temp\ccfOmD6n.s 			page 61


 3329 0206 34       		.uleb128 0x34
 3330 0207 00       		.byte	0x0
 3331 0208 03       		.uleb128 0x3
 3332 0209 0E       		.uleb128 0xe
 3333 020a 3A       		.uleb128 0x3a
 3334 020b 0B       		.uleb128 0xb
 3335 020c 3B       		.uleb128 0x3b
 3336 020d 0B       		.uleb128 0xb
 3337 020e 49       		.uleb128 0x49
 3338 020f 13       		.uleb128 0x13
 3339 0210 3F       		.uleb128 0x3f
 3340 0211 0C       		.uleb128 0xc
 3341 0212 02       		.uleb128 0x2
 3342 0213 0A       		.uleb128 0xa
 3343 0214 00       		.byte	0x0
 3344 0215 00       		.byte	0x0
 3345 0216 00       		.byte	0x0
 3346              		.section	.debug_pubnames,"",%progbits
 3347 0000 58000000 		.4byte	0x58
 3348 0004 0200     		.2byte	0x2
 3349 0006 00000000 		.4byte	.Ldebug_info0
 3350 000a BF0B0000 		.4byte	0xbbf
 3351 000e 490A0000 		.4byte	0xa49
 3352 0012 7368656C 		.ascii	"shellInit\000"
 3352      6C496E69 
 3352      7400
 3353 001c 5D0A0000 		.4byte	0xa5d
 3354 0020 7368656C 		.ascii	"shellCreateStatic\000"
 3354      6C437265 
 3354      61746553 
 3354      74617469 
 3354      6300
 3355 0032 BE0A0000 		.4byte	0xabe
 3356 0036 7368656C 		.ascii	"shellGetLine\000"
 3356      6C476574 
 3356      4C696E65 
 3356      00
 3357 0043 AC0B0000 		.4byte	0xbac
 3358 0047 7368656C 		.ascii	"shell_terminated\000"
 3358      6C5F7465 
 3358      726D696E 
 3358      61746564 
 3358      00
 3359 0058 00000000 		.4byte	0x0
 3360              		.section	.debug_pubtypes,"",%progbits
 3361 0000 0A020000 		.4byte	0x20a
 3362 0004 0200     		.2byte	0x2
 3363 0006 00000000 		.4byte	.Ldebug_info0
 3364 000a BF0B0000 		.4byte	0xbbf
 3365 000e 8C000000 		.4byte	0x8c
 3366 0012 73697A65 		.ascii	"size_t\000"
 3366      5F7400
 3367 0019 97000000 		.4byte	0x97
 3368 001d 75696E74 		.ascii	"uint8_t\000"
 3368      385F7400 
 3369 0025 A2000000 		.4byte	0xa2
 3370 0029 696E7433 		.ascii	"int32_t\000"
ARM GAS  C:\Users\z80\AppData\Local\Temp\ccfOmD6n.s 			page 62


 3370      325F7400 
 3371 0031 AD000000 		.4byte	0xad
 3372 0035 75696E74 		.ascii	"uint32_t\000"
 3372      33325F74 
 3372      00
 3373 003e B8000000 		.4byte	0xb8
 3374 0042 75696E74 		.ascii	"uint64_t\000"
 3374      36345F74 
 3374      00
 3375 004b C3000000 		.4byte	0xc3
 3376 004f 626F6F6C 		.ascii	"bool_t\000"
 3376      5F7400
 3377 0056 CE000000 		.4byte	0xce
 3378 005a 746D6F64 		.ascii	"tmode_t\000"
 3378      655F7400 
 3379 0062 D9000000 		.4byte	0xd9
 3380 0066 74737461 		.ascii	"tstate_t\000"
 3380      74655F74 
 3380      00
 3381 006f E4000000 		.4byte	0xe4
 3382 0073 74707269 		.ascii	"tprio_t\000"
 3382      6F5F7400 
 3383 007b EF000000 		.4byte	0xef
 3384 007f 6D73675F 		.ascii	"msg_t\000"
 3384      7400
 3385 0085 FA000000 		.4byte	0xfa
 3386 0089 6576656E 		.ascii	"eventmask_t\000"
 3386      746D6173 
 3386      6B5F7400 
 3387 0095 05010000 		.4byte	0x105
 3388 0099 73797374 		.ascii	"systime_t\000"
 3388      696D655F 
 3388      7400
 3389 00a3 10010000 		.4byte	0x110
 3390 00a7 636E745F 		.ascii	"cnt_t\000"
 3390      7400
 3391 00ad 1B010000 		.4byte	0x11b
 3392 00b1 54687265 		.ascii	"Thread\000"
 3392      616400
 3393 00b8 5A020000 		.4byte	0x25a
 3394 00bc 54687265 		.ascii	"ThreadsQueue\000"
 3394      61647351 
 3394      75657565 
 3394      00
 3395 00c9 7C020000 		.4byte	0x27c
 3396 00cd 54687265 		.ascii	"ThreadsList\000"
 3396      6164734C 
 3396      69737400 
 3397 00d9 87020000 		.4byte	0x287
 3398 00dd 72656761 		.ascii	"regarm_t\000"
 3398      726D5F74 
 3398      00
 3399 00e6 92020000 		.4byte	0x292
 3400 00ea 73746B61 		.ascii	"stkalign_t\000"
 3400      6C69676E 
 3400      5F7400
 3401 00f5 9D020000 		.4byte	0x29d
ARM GAS  C:\Users\z80\AppData\Local\Temp\ccfOmD6n.s 			page 63


 3402 00f9 696E7463 		.ascii	"intctx\000"
 3402      747800
 3403 0100 2A030000 		.4byte	0x32a
 3404 0104 636F6E74 		.ascii	"context\000"
 3404      65787400 
 3405 010c 4D030000 		.4byte	0x34d
 3406 0110 76746675 		.ascii	"vtfunc_t\000"
 3406      6E635F74 
 3406      00
 3407 0119 6A030000 		.4byte	0x36a
 3408 011d 56697274 		.ascii	"VirtualTimer\000"
 3408      75616C54 
 3408      696D6572 
 3408      00
 3409 012a 75030000 		.4byte	0x375
 3410 012e 56697274 		.ascii	"VirtualTimer\000"
 3410      75616C54 
 3410      696D6572 
 3410      00
 3411 013b 14040000 		.4byte	0x414
 3412 013f 56544C69 		.ascii	"VTList\000"
 3412      737400
 3413 0146 8A040000 		.4byte	0x48a
 3414 014a 52656164 		.ascii	"ReadyList\000"
 3414      794C6973 
 3414      7400
 3415 0154 95040000 		.4byte	0x495
 3416 0158 4D757465 		.ascii	"Mutex\000"
 3416      7800
 3417 015e D2040000 		.4byte	0x4d2
 3418 0162 4D757465 		.ascii	"Mutex\000"
 3418      7800
 3419 0168 DD040000 		.4byte	0x4dd
 3420 016c 4576656E 		.ascii	"EventListener\000"
 3420      744C6973 
 3420      74656E65 
 3420      7200
 3421 017a E8040000 		.4byte	0x4e8
 3422 017e 4576656E 		.ascii	"EventListener\000"
 3422      744C6973 
 3422      74656E65 
 3422      7200
 3423 018c 25050000 		.4byte	0x525
 3424 0190 4576656E 		.ascii	"EventSource\000"
 3424      74536F75 
 3424      72636500 
 3425 019c 40050000 		.4byte	0x540
 3426 01a0 4576656E 		.ascii	"EventSource\000"
 3426      74536F75 
 3426      72636500 
 3427 01ac 26010000 		.4byte	0x126
 3428 01b0 54687265 		.ascii	"Thread\000"
 3428      616400
 3429 01b7 DD050000 		.4byte	0x5dd
 3430 01bb 42617365 		.ascii	"BaseChannelVMT\000"
 3430      4368616E 
 3430      6E656C56 
ARM GAS  C:\Users\z80\AppData\Local\Temp\ccfOmD6n.s 			page 64


 3430      4D5400
 3431 01ca 17070000 		.4byte	0x717
 3432 01ce 42617365 		.ascii	"BaseChannel\000"
 3432      4368616E 
 3432      6E656C00 
 3433 01da 27070000 		.4byte	0x727
 3434 01de 7368656C 		.ascii	"shellcmd_t\000"
 3434      6C636D64 
 3434      5F7400
 3435 01e9 7F070000 		.4byte	0x77f
 3436 01ed 5368656C 		.ascii	"ShellCommand\000"
 3436      6C436F6D 
 3436      6D616E64 
 3436      00
 3437 01fa BA070000 		.4byte	0x7ba
 3438 01fe 5368656C 		.ascii	"ShellConfig\000"
 3438      6C436F6E 
 3438      66696700 
 3439 020a 00000000 		.4byte	0x0
 3440              		.section	.debug_aranges,"",%progbits
 3441 0000 64000000 		.4byte	0x64
 3442 0004 0200     		.2byte	0x2
 3443 0006 00000000 		.4byte	.Ldebug_info0
 3444 000a 04       		.byte	0x4
 3445 000b 00       		.byte	0x0
 3446 000c 0000     		.2byte	0x0
 3447 000e 0000     		.2byte	0x0
 3448 0010 00000000 		.4byte	.LFB62
 3449 0014 76000000 		.4byte	.LFE62-.LFB62
 3450 0018 00000000 		.4byte	.LFB63
 3451 001c 1C000000 		.4byte	.LFE63-.LFB63
 3452 0020 00000000 		.4byte	.LFB64
 3453 0024 32000000 		.4byte	.LFE64-.LFB64
 3454 0028 00000000 		.4byte	.LFB65
 3455 002c E6000000 		.4byte	.LFE65-.LFB65
 3456 0030 00000000 		.4byte	.LFB66
 3457 0034 3E000000 		.4byte	.LFE66-.LFB66
 3458 0038 00000000 		.4byte	.LFB67
 3459 003c 4C000000 		.4byte	.LFE67-.LFB67
 3460 0040 00000000 		.4byte	.LFB68
 3461 0044 20020000 		.4byte	.LFE68-.LFB68
 3462 0048 00000000 		.4byte	.LFB69
 3463 004c 14000000 		.4byte	.LFE69-.LFB69
 3464 0050 00000000 		.4byte	.LFB70
 3465 0054 2A000000 		.4byte	.LFE70-.LFB70
 3466 0058 00000000 		.4byte	.LFB71
 3467 005c 18010000 		.4byte	.LFE71-.LFB71
 3468 0060 00000000 		.4byte	0x0
 3469 0064 00000000 		.4byte	0x0
 3470              		.section	.debug_ranges,"",%progbits
 3471              	.Ldebug_ranges0:
 3472 0000 00000000 		.4byte	.LFB62
 3473 0004 76000000 		.4byte	.LFE62
 3474 0008 00000000 		.4byte	.LFB63
 3475 000c 1C000000 		.4byte	.LFE63
 3476 0010 00000000 		.4byte	.LFB64
 3477 0014 32000000 		.4byte	.LFE64
ARM GAS  C:\Users\z80\AppData\Local\Temp\ccfOmD6n.s 			page 65


 3478 0018 00000000 		.4byte	.LFB65
 3479 001c E6000000 		.4byte	.LFE65
 3480 0020 00000000 		.4byte	.LFB66
 3481 0024 3E000000 		.4byte	.LFE66
 3482 0028 00000000 		.4byte	.LFB67
 3483 002c 4C000000 		.4byte	.LFE67
 3484 0030 00000000 		.4byte	.LFB68
 3485 0034 20020000 		.4byte	.LFE68
 3486 0038 00000000 		.4byte	.LFB69
 3487 003c 14000000 		.4byte	.LFE69
 3488 0040 00000000 		.4byte	.LFB70
 3489 0044 2A000000 		.4byte	.LFE70
 3490 0048 00000000 		.4byte	.LFB71
 3491 004c 18010000 		.4byte	.LFE71
 3492 0050 00000000 		.4byte	0x0
 3493 0054 00000000 		.4byte	0x0
 3494              		.section	.debug_str,"MS",%progbits,1
 3495              	.LASF10:
 3496 0000 73697A65 		.ascii	"size_t\000"
 3496      5F7400
 3497              	.LASF14:
 3498 0007 75696E74 		.ascii	"uint64_t\000"
 3498      36345F74 
 3498      00
 3499              	.LASF113:
 3500 0010 76746C69 		.ascii	"vtlist\000"
 3500      737400
 3501              	.LASF63:
 3502 0017 52656164 		.ascii	"ReadyList\000"
 3502      794C6973 
 3502      7400
 3503              	.LASF6:
 3504 0021 6C6F6E67 		.ascii	"long long unsigned int\000"
 3504      206C6F6E 
 3504      6720756E 
 3504      7369676E 
 3504      65642069 
 3505              	.LASF78:
 3506 0038 42617365 		.ascii	"BaseChannelVMT\000"
 3506      4368616E 
 3506      6E656C56 
 3506      4D5400
 3507              	.LASF75:
 3508 0047 65786974 		.ascii	"exitcode\000"
 3508      636F6465 
 3508      00
 3509              	.LASF115:
 3510 0050 49544D5F 		.ascii	"ITM_RxBuffer\000"
 3510      52784275 
 3510      66666572 
 3510      00
 3511              	.LASF97:
 3512 005d 636D645F 		.ascii	"cmd_info\000"
 3512      696E666F 
 3512      00
 3513              	.LASF26:
 3514 0066 705F7072 		.ascii	"p_prio\000"
ARM GAS  C:\Users\z80\AppData\Local\Temp\ccfOmD6n.s 			page 66


 3514      696F00
 3515              	.LASF84:
 3516 006d 72656164 		.ascii	"readt\000"
 3516      7400
 3517              	.LASF5:
 3518 0073 6C6F6E67 		.ascii	"long long int\000"
 3518      206C6F6E 
 3518      6720696E 
 3518      7400
 3519              	.LASF0:
 3520 0081 7369676E 		.ascii	"signed char\000"
 3520      65642063 
 3520      68617200 
 3521              	.LASF15:
 3522 008d 626F6F6C 		.ascii	"bool_t\000"
 3522      5F7400
 3523              	.LASF65:
 3524 0094 6D5F7175 		.ascii	"m_queue\000"
 3524      65756500 
 3525              	.LASF90:
 3526 009c 73635F63 		.ascii	"sc_channel\000"
 3526      68616E6E 
 3526      656C00
 3527              	.LASF7:
 3528 00a7 6C6F6E67 		.ascii	"long int\000"
 3528      20696E74 
 3528      00
 3529              	.LASF89:
 3530 00b0 5368656C 		.ascii	"ShellCommand\000"
 3530      6C436F6D 
 3530      6D616E64 
 3530      00
 3531              	.LASF17:
 3532 00bd 74737461 		.ascii	"tstate_t\000"
 3532      74655F74 
 3532      00
 3533              	.LASF34:
 3534 00c6 705F7469 		.ascii	"p_time\000"
 3534      6D6500
 3535              	.LASF106:
 3536 00cd 746F6B70 		.ascii	"tokp\000"
 3536      00
 3537              	.LASF28:
 3538 00d2 705F6E65 		.ascii	"p_newer\000"
 3538      77657200 
 3539              	.LASF81:
 3540 00da 70757477 		.ascii	"putwouldblock\000"
 3540      6F756C64 
 3540      626C6F63 
 3540      6B00
 3541              	.LASF107:
 3542 00e8 6C696E65 		.ascii	"line\000"
 3542      00
 3543              	.LASF59:
 3544 00ed 725F6E65 		.ascii	"r_newer\000"
 3544      77657200 
 3545              	.LASF43:
ARM GAS  C:\Users\z80\AppData\Local\Temp\ccfOmD6n.s 			page 67


 3546 00f5 72656761 		.ascii	"regarm_t\000"
 3546      726D5F74 
 3546      00
 3547              	.LASF50:
 3548 00fe 76745F70 		.ascii	"vt_prev\000"
 3548      72657600 
 3549              	.LASF112:
 3550 0106 7368656C 		.ascii	"shellGetLine\000"
 3550      6C476574 
 3550      4C696E65 
 3550      00
 3551              	.LASF87:
 3552 0113 73635F6E 		.ascii	"sc_name\000"
 3552      616D6500 
 3553              	.LASF72:
 3554 011b 4576656E 		.ascii	"EventSource\000"
 3554      74536F75 
 3554      72636500 
 3555              	.LASF22:
 3556 0127 636E745F 		.ascii	"cnt_t\000"
 3556      7400
 3557              	.LASF31:
 3558 012d 705F7374 		.ascii	"p_stklimit\000"
 3558      6B6C696D 
 3558      697400
 3559              	.LASF4:
 3560 0138 756E7369 		.ascii	"unsigned int\000"
 3560      676E6564 
 3560      20696E74 
 3560      00
 3561              	.LASF49:
 3562 0145 76745F6E 		.ascii	"vt_next\000"
 3562      65787400 
 3563              	.LASF91:
 3564 014d 73635F63 		.ascii	"sc_commands\000"
 3564      6F6D6D61 
 3564      6E647300 
 3565              	.LASF36:
 3566 0159 705F6D73 		.ascii	"p_msgqueue\000"
 3566      67717565 
 3566      756500
 3567              	.LASF103:
 3568 0164 6E616D65 		.ascii	"name\000"
 3568      00
 3569              	.LASF48:
 3570 0169 56697274 		.ascii	"VirtualTimer\000"
 3570      75616C54 
 3570      696D6572 
 3570      00
 3571              	.LASF109:
 3572 0176 73697A65 		.ascii	"size\000"
 3572      00
 3573              	.LASF3:
 3574 017b 73686F72 		.ascii	"short unsigned int\000"
 3574      7420756E 
 3574      7369676E 
 3574      65642069 
ARM GAS  C:\Users\z80\AppData\Local\Temp\ccfOmD6n.s 			page 68


 3574      6E7400
 3575              	.LASF19:
 3576 018e 6D73675F 		.ascii	"msg_t\000"
 3576      7400
 3577              	.LASF69:
 3578 0194 656C5F6E 		.ascii	"el_next\000"
 3578      65787400 
 3579              	.LASF83:
 3580 019c 77726974 		.ascii	"writet\000"
 3580      657400
 3581              	.LASF119:
 3582 01a3 2E2E2F63 		.ascii	"../chibios_2.4.x/os/various/shell.c\000"
 3582      68696269 
 3582      6F735F32 
 3582      2E342E78 
 3582      2F6F732F 
 3583              	.LASF16:
 3584 01c7 746D6F64 		.ascii	"tmode_t\000"
 3584      655F7400 
 3585              	.LASF42:
 3586 01cf 54687265 		.ascii	"ThreadsList\000"
 3586      6164734C 
 3586      69737400 
 3587              	.LASF20:
 3588 01db 6576656E 		.ascii	"eventmask_t\000"
 3588      746D6173 
 3588      6B5F7400 
 3589              	.LASF44:
 3590 01e7 73746B61 		.ascii	"stkalign_t\000"
 3590      6C69676E 
 3590      5F7400
 3591              	.LASF79:
 3592 01f2 77726974 		.ascii	"write\000"
 3592      6500
 3593              	.LASF51:
 3594 01f8 76745F74 		.ascii	"vt_time\000"
 3594      696D6500 
 3595              	.LASF35:
 3596 0200 705F7761 		.ascii	"p_waiting\000"
 3596      6974696E 
 3596      6700
 3597              	.LASF64:
 3598 020a 4D757465 		.ascii	"Mutex\000"
 3598      7800
 3599              	.LASF86:
 3600 0210 7368656C 		.ascii	"shellcmd_t\000"
 3600      6C636D64 
 3600      5F7400
 3601              	.LASF71:
 3602 021b 656C5F6D 		.ascii	"el_mask\000"
 3602      61736B00 
 3603              	.LASF29:
 3604 0223 705F6F6C 		.ascii	"p_older\000"
 3604      64657200 
 3605              	.LASF58:
 3606 022b 725F6374 		.ascii	"r_ctx\000"
 3606      7800
ARM GAS  C:\Users\z80\AppData\Local\Temp\ccfOmD6n.s 			page 69


 3607              	.LASF111:
 3608 0231 7368656C 		.ascii	"shellCreateStatic\000"
 3608      6C437265 
 3608      61746553 
 3608      74617469 
 3608      6300
 3609              	.LASF41:
 3610 0243 54687265 		.ascii	"ThreadsQueue\000"
 3610      61647351 
 3610      75657565 
 3610      00
 3611              	.LASF120:
 3612 0250 433A5C70 		.ascii	"C:\\projects\\voltamper.git\\firmware\\voltamp\000"
 3612      726F6A65 
 3612      6374735C 
 3612      766F6C74 
 3612      616D7065 
 3613              	.LASF117:
 3614 027b 6C6F6361 		.ascii	"local_commands\000"
 3614      6C5F636F 
 3614      6D6D616E 
 3614      647300
 3615              	.LASF110:
 3616 028a 7072696F 		.ascii	"prio\000"
 3616      00
 3617              	.LASF60:
 3618 028f 725F6F6C 		.ascii	"r_older\000"
 3618      64657200 
 3619              	.LASF105:
 3620 0297 746F6B65 		.ascii	"token\000"
 3620      6E00
 3621              	.LASF94:
 3622 029d 73617665 		.ascii	"saveptr\000"
 3622      70747200 
 3623              	.LASF25:
 3624 02a5 705F7072 		.ascii	"p_prev\000"
 3624      657600
 3625              	.LASF18:
 3626 02ac 74707269 		.ascii	"tprio_t\000"
 3626      6F5F7400 
 3627              	.LASF101:
 3628 02b4 5F737472 		.ascii	"_strtok\000"
 3628      746F6B00 
 3629              	.LASF12:
 3630 02bc 696E7433 		.ascii	"int32_t\000"
 3630      325F7400 
 3631              	.LASF1:
 3632 02c4 756E7369 		.ascii	"unsigned char\000"
 3632      676E6564 
 3632      20636861 
 3632      7200
 3633              	.LASF70:
 3634 02d2 656C5F6C 		.ascii	"el_listener\000"
 3634      69737465 
 3634      6E657200 
 3635              	.LASF39:
 3636 02de 705F6D74 		.ascii	"p_mtxlist\000"
ARM GAS  C:\Users\z80\AppData\Local\Temp\ccfOmD6n.s 			page 70


 3636      786C6973 
 3636      7400
 3637              	.LASF2:
 3638 02e8 73686F72 		.ascii	"short int\000"
 3638      7420696E 
 3638      7400
 3639              	.LASF32:
 3640 02f2 705F7374 		.ascii	"p_state\000"
 3640      61746500 
 3641              	.LASF102:
 3642 02fa 636D6465 		.ascii	"cmdexec\000"
 3642      78656300 
 3643              	.LASF57:
 3644 0302 725F7072 		.ascii	"r_prio\000"
 3644      696F00
 3645              	.LASF77:
 3646 0309 65776D61 		.ascii	"ewmask\000"
 3646      736B00
 3647              	.LASF24:
 3648 0310 705F6E65 		.ascii	"p_next\000"
 3648      787400
 3649              	.LASF93:
 3650 0317 64656C69 		.ascii	"delim\000"
 3650      6D00
 3651              	.LASF33:
 3652 031d 705F666C 		.ascii	"p_flags\000"
 3652      61677300 
 3653              	.LASF23:
 3654 0325 54687265 		.ascii	"Thread\000"
 3654      616400
 3655              	.LASF38:
 3656 032c 705F6570 		.ascii	"p_epending\000"
 3656      656E6469 
 3656      6E6700
 3657              	.LASF13:
 3658 0337 75696E74 		.ascii	"uint32_t\000"
 3658      33325F74 
 3658      00
 3659              	.LASF56:
 3660 0340 725F7175 		.ascii	"r_queue\000"
 3660      65756500 
 3661              	.LASF54:
 3662 0348 76745F73 		.ascii	"vt_systime\000"
 3662      79737469 
 3662      6D6500
 3663              	.LASF8:
 3664 0353 6C6F6E67 		.ascii	"long unsigned int\000"
 3664      20756E73 
 3664      69676E65 
 3664      6420696E 
 3664      7400
 3665              	.LASF62:
 3666 0365 725F6375 		.ascii	"r_current\000"
 3666      7272656E 
 3666      7400
 3667              	.LASF80:
 3668 036f 72656164 		.ascii	"read\000"
ARM GAS  C:\Users\z80\AppData\Local\Temp\ccfOmD6n.s 			page 71


 3668      00
 3669              	.LASF9:
 3670 0374 63686172 		.ascii	"char\000"
 3670      00
 3671              	.LASF116:
 3672 0379 7368656C 		.ascii	"shell_terminated\000"
 3672      6C5F7465 
 3672      726D696E 
 3672      61746564 
 3672      00
 3673              	.LASF121:
 3674 038a 7368656C 		.ascii	"shellInit\000"
 3674      6C496E69 
 3674      7400
 3675              	.LASF67:
 3676 0394 6D5F6E65 		.ascii	"m_next\000"
 3676      787400
 3677              	.LASF21:
 3678 039b 73797374 		.ascii	"systime_t\000"
 3678      696D655F 
 3678      7400
 3679              	.LASF40:
 3680 03a5 705F7265 		.ascii	"p_realprio\000"
 3680      616C7072 
 3680      696F00
 3681              	.LASF47:
 3682 03b0 76746675 		.ascii	"vtfunc_t\000"
 3682      6E635F74 
 3682      00
 3683              	.LASF92:
 3684 03b9 5368656C 		.ascii	"ShellConfig\000"
 3684      6C436F6E 
 3684      66696700 
 3685              	.LASF61:
 3686 03c5 725F7072 		.ascii	"r_preempt\000"
 3686      65656D70 
 3686      7400
 3687              	.LASF30:
 3688 03cf 705F6E61 		.ascii	"p_name\000"
 3688      6D6500
 3689              	.LASF46:
 3690 03d6 636F6E74 		.ascii	"context\000"
 3690      65787400 
 3691              	.LASF37:
 3692 03de 705F6D73 		.ascii	"p_msg\000"
 3692      6700
 3693              	.LASF100:
 3694 03e4 636D645F 		.ascii	"cmd_systime\000"
 3694      73797374 
 3694      696D6500 
 3695              	.LASF45:
 3696 03f0 696E7463 		.ascii	"intctx\000"
 3696      747800
 3697              	.LASF95:
 3698 03f7 75736167 		.ascii	"usage\000"
 3698      6500
 3699              	.LASF53:
ARM GAS  C:\Users\z80\AppData\Local\Temp\ccfOmD6n.s 			page 72


 3700 03fd 76745F70 		.ascii	"vt_par\000"
 3700      617200
 3701              	.LASF74:
 3702 0404 7264796D 		.ascii	"rdymsg\000"
 3702      736700
 3703              	.LASF73:
 3704 040b 65735F6E 		.ascii	"es_next\000"
 3704      65787400 
 3705              	.LASF104:
 3706 0413 7368656C 		.ascii	"shell_thread\000"
 3706      6C5F7468 
 3706      72656164 
 3706      00
 3707              	.LASF114:
 3708 0420 726C6973 		.ascii	"rlist\000"
 3708      7400
 3709              	.LASF11:
 3710 0426 75696E74 		.ascii	"uint8_t\000"
 3710      385F7400 
 3711              	.LASF85:
 3712 042e 42617365 		.ascii	"BaseChannel\000"
 3712      4368616E 
 3712      6E656C00 
 3713              	.LASF88:
 3714 043a 73635F66 		.ascii	"sc_function\000"
 3714      756E6374 
 3714      696F6E00 
 3715              	.LASF68:
 3716 0446 4576656E 		.ascii	"EventListener\000"
 3716      744C6973 
 3716      74656E65 
 3716      7200
 3717              	.LASF118:
 3718 0454 474E5520 		.ascii	"GNU C 4.5.0\000"
 3718      4320342E 
 3718      352E3000 
 3719              	.LASF76:
 3720 0460 77746F62 		.ascii	"wtobjp\000"
 3720      6A7000
 3721              	.LASF98:
 3722 0467 61726763 		.ascii	"argc\000"
 3722      00
 3723              	.LASF96:
 3724 046c 6C697374 		.ascii	"list_commands\000"
 3724      5F636F6D 
 3724      6D616E64 
 3724      7300
 3725              	.LASF82:
 3726 047a 67657477 		.ascii	"getwouldblock\000"
 3726      6F756C64 
 3726      626C6F63 
 3726      6B00
 3727              	.LASF55:
 3728 0488 56544C69 		.ascii	"VTList\000"
 3728      737400
 3729              	.LASF108:
 3730 048f 61726773 		.ascii	"args\000"
ARM GAS  C:\Users\z80\AppData\Local\Temp\ccfOmD6n.s 			page 73


 3730      00
 3731              	.LASF99:
 3732 0494 61726776 		.ascii	"argv\000"
 3732      00
 3733              	.LASF66:
 3734 0499 6D5F6F77 		.ascii	"m_owner\000"
 3734      6E657200 
 3735              	.LASF27:
 3736 04a1 705F6374 		.ascii	"p_ctx\000"
 3736      7800
 3737              	.LASF52:
 3738 04a7 76745F66 		.ascii	"vt_func\000"
 3738      756E6300 
 3739              		.ident	"GCC: (GNU) 4.5.0"
ARM GAS  C:\Users\z80\AppData\Local\Temp\ccfOmD6n.s 			page 74


DEFINED SYMBOLS
                            *ABS*:00000000 shell.c
C:\Users\z80\AppData\Local\Temp\ccfOmD6n.s:28     .bss.shell_terminated:00000000 shell_terminated
C:\Users\z80\AppData\Local\Temp\ccfOmD6n.s:25     .bss.shell_terminated:00000000 $d
C:\Users\z80\AppData\Local\Temp\ccfOmD6n.s:31     .text._strtok:00000000 $t
C:\Users\z80\AppData\Local\Temp\ccfOmD6n.s:36     .text._strtok:00000000 _strtok
C:\Users\z80\AppData\Local\Temp\ccfOmD6n.s:124    .rodata:00000000 $d
C:\Users\z80\AppData\Local\Temp\ccfOmD6n.s:125    .rodata:00000000 .LC0
C:\Users\z80\AppData\Local\Temp\ccfOmD6n.s:128    .text.usage:00000000 $t
C:\Users\z80\AppData\Local\Temp\ccfOmD6n.s:133    .text.usage:00000000 usage
C:\Users\z80\AppData\Local\Temp\ccfOmD6n.s:162    .rodata:0000000c .LC1
C:\Users\z80\AppData\Local\Temp\ccfOmD6n.s:165    .text.list_commands:00000000 $t
C:\Users\z80\AppData\Local\Temp\ccfOmD6n.s:170    .text.list_commands:00000000 list_commands
C:\Users\z80\AppData\Local\Temp\ccfOmD6n.s:214    .rodata:00000010 .LC2
C:\Users\z80\AppData\Local\Temp\ccfOmD6n.s:217    .rodata:00000018 .LC3
C:\Users\z80\AppData\Local\Temp\ccfOmD6n.s:220    .rodata:0000002c .LC4
C:\Users\z80\AppData\Local\Temp\ccfOmD6n.s:223    .rodata:00000034 .LC5
C:\Users\z80\AppData\Local\Temp\ccfOmD6n.s:226    .rodata:00000048 .LC6
C:\Users\z80\AppData\Local\Temp\ccfOmD6n.s:229    .rodata:00000054 .LC7
C:\Users\z80\AppData\Local\Temp\ccfOmD6n.s:232    .rodata:00000068 .LC8
C:\Users\z80\AppData\Local\Temp\ccfOmD6n.s:235    .rodata:00000070 .LC9
C:\Users\z80\AppData\Local\Temp\ccfOmD6n.s:238    .rodata:00000084 .LC10
C:\Users\z80\AppData\Local\Temp\ccfOmD6n.s:241    .rodata:00000090 .LC11
C:\Users\z80\AppData\Local\Temp\ccfOmD6n.s:244    .rodata:000000a4 .LC12
C:\Users\z80\AppData\Local\Temp\ccfOmD6n.s:247    .rodata:000000bc .LC13
C:\Users\z80\AppData\Local\Temp\ccfOmD6n.s:250    .rodata:000000d0 .LC14
C:\Users\z80\AppData\Local\Temp\ccfOmD6n.s:253    .rodata:000000f8 .LC15
C:\Users\z80\AppData\Local\Temp\ccfOmD6n.s:256    .rodata:0000010c .LC16
C:\Users\z80\AppData\Local\Temp\ccfOmD6n.s:259    .rodata:0000011c .LC17
C:\Users\z80\AppData\Local\Temp\ccfOmD6n.s:262    .rodata:00000134 .LC18
C:\Users\z80\AppData\Local\Temp\ccfOmD6n.s:265    .rodata:00000140 .LC19
C:\Users\z80\AppData\Local\Temp\ccfOmD6n.s:268    .rodata:00000144 .LC20
C:\Users\z80\AppData\Local\Temp\ccfOmD6n.s:271    .text.cmd_info:00000000 $t
C:\Users\z80\AppData\Local\Temp\ccfOmD6n.s:276    .text.cmd_info:00000000 cmd_info
C:\Users\z80\AppData\Local\Temp\ccfOmD6n.s:374    .rodata:00000150 .LC21
C:\Users\z80\AppData\Local\Temp\ccfOmD6n.s:377    .rodata:00000158 .LC22
C:\Users\z80\AppData\Local\Temp\ccfOmD6n.s:380    .text.cmd_systime:00000000 $t
C:\Users\z80\AppData\Local\Temp\ccfOmD6n.s:385    .text.cmd_systime:00000000 cmd_systime
C:\Users\z80\AppData\Local\Temp\ccfOmD6n.s:430    .data.local_commands:00000000 $d
C:\Users\z80\AppData\Local\Temp\ccfOmD6n.s:433    .data.local_commands:00000000 local_commands
C:\Users\z80\AppData\Local\Temp\ccfOmD6n.s:441    .text.cmdexec:00000000 $t
C:\Users\z80\AppData\Local\Temp\ccfOmD6n.s:446    .text.cmdexec:00000000 cmdexec
C:\Users\z80\AppData\Local\Temp\ccfOmD6n.s:508    .rodata:00000160 .LC23
C:\Users\z80\AppData\Local\Temp\ccfOmD6n.s:511    .rodata:00000168 .LC24
C:\Users\z80\AppData\Local\Temp\ccfOmD6n.s:514    .rodata:00000180 .LC25
C:\Users\z80\AppData\Local\Temp\ccfOmD6n.s:517    .rodata:00000188 .LC26
C:\Users\z80\AppData\Local\Temp\ccfOmD6n.s:520    .rodata:00000194 .LC27
C:\Users\z80\AppData\Local\Temp\ccfOmD6n.s:523    .rodata:00000198 .LC28
C:\Users\z80\AppData\Local\Temp\ccfOmD6n.s:526    .rodata:000001b0 .LC29
C:\Users\z80\AppData\Local\Temp\ccfOmD6n.s:529    .rodata:000001b8 .LC30
C:\Users\z80\AppData\Local\Temp\ccfOmD6n.s:532    .rodata:000001c0 .LC31
C:\Users\z80\AppData\Local\Temp\ccfOmD6n.s:535    .rodata:000001d8 .LC32
C:\Users\z80\AppData\Local\Temp\ccfOmD6n.s:538    .rodata:000001dc .LC33
C:\Users\z80\AppData\Local\Temp\ccfOmD6n.s:541    .rodata:000001e0 .LC34
C:\Users\z80\AppData\Local\Temp\ccfOmD6n.s:544    .text.shell_thread:00000000 $t
C:\Users\z80\AppData\Local\Temp\ccfOmD6n.s:549    .text.shell_thread:00000000 shell_thread
C:\Users\z80\AppData\Local\Temp\ccfOmD6n.s:905    .text.shellGetLine:00000000 shellGetLine
ARM GAS  C:\Users\z80\AppData\Local\Temp\ccfOmD6n.s 			page 75


C:\Users\z80\AppData\Local\Temp\ccfOmD6n.s:829    .text.shellInit:00000000 $t
C:\Users\z80\AppData\Local\Temp\ccfOmD6n.s:835    .text.shellInit:00000000 shellInit
C:\Users\z80\AppData\Local\Temp\ccfOmD6n.s:854    .text.shellCreateStatic:00000000 $t
C:\Users\z80\AppData\Local\Temp\ccfOmD6n.s:860    .text.shellCreateStatic:00000000 shellCreateStatic
C:\Users\z80\AppData\Local\Temp\ccfOmD6n.s:896    .rodata:000001e8 .LC35
C:\Users\z80\AppData\Local\Temp\ccfOmD6n.s:899    .text.shellGetLine:00000000 $t
                     .debug_frame:00000010 $d

UNDEFINED SYMBOLS
strspn
strpbrk
chprintf
vtlist
strcasecmp
rlist
dbg_check_lock
chEvtBroadcastFlagsI
chThdExitS
chThdCreateStatic
