ARM GAS  C:\Users\z80\AppData\Local\Temp\ccfOmD6n.s 			page 1


   1              		.syntax unified
   2              		.cpu cortex-m3
   3              		.fpu softvfp
   4              		.eabi_attribute 20, 1
   5              		.eabi_attribute 21, 1
   6              		.eabi_attribute 23, 3
   7              		.eabi_attribute 24, 1
   8              		.eabi_attribute 25, 1
   9              		.eabi_attribute 26, 1
  10              		.eabi_attribute 30, 6
  11              		.eabi_attribute 18, 4
  12              		.thumb
  13              		.file	"shell.c"
  20 0000 25030000 		.text
  20      0200D801 
  20      00000201 
  20      FB0E0D00 
  20      01010101 
  21              	.Ltext0:
  22              		.cfi_sections	.debug_frame
  23              		.global	shell_terminated
  24              		.section	.bss.shell_terminated,"aw",%nobits
  25              		.align	2
  26              		.type	shell_terminated, %object
  27              		.size	shell_terminated, 4
  28              	shell_terminated:
  29 0000 00000000 		.space	4
  30              		.section	.text._strtok,"ax",%progbits
  31              		.align	2
  32              		.p2align 4,,15
  33              		.thumb
  34              		.thumb_func
  35              		.type	_strtok, %function
  36              	_strtok:
  37              	.LFB62:
  38              		.file 1 "../chibios_2.4.x/os/various/shell.c"
  39              		.loc 1 48 0
  40              		.cfi_startproc
  41              		@ args = 0, pretend = 0, frame = 24
  42              		@ frame_needed = 0, uses_anonymous_args = 0
  43 0000 00B5     		push	{lr}
  44              	.LCFI0:
  45              		.cfi_def_cfa_offset 4
  46 0002 87B0     		sub	sp, sp, #28
  47              	.LCFI1:
  48              		.cfi_def_cfa_offset 32
  49 0004 0390     		str	r0, [sp, #12]
  50 0006 0291     		str	r1, [sp, #8]
  51 0008 0192     		str	r2, [sp, #4]
  52              		.loc 1 50 0
  53 000a 039B     		ldr	r3, [sp, #12]
ARM GAS  C:\Users\z80\AppData\Local\Temp\ccfOmD6n.s 			page 2


  54 000c 002B     		cmp	r3, #0
  55 000e 02D0     		beq	.L2
  56              		.cfi_offset 14, -4
  57              		.loc 1 51 0
  58 0010 019B     		ldr	r3, [sp, #4]
  59 0012 039A     		ldr	r2, [sp, #12]
  60 0014 1A60     		str	r2, [r3, #0]
  61              	.L2:
  62              		.loc 1 52 0
  63 0016 019B     		ldr	r3, [sp, #4]
  64 0018 1B68     		ldr	r3, [r3, #0]
  65 001a 0593     		str	r3, [sp, #20]
  66              		.loc 1 54 0
  67 001c 059B     		ldr	r3, [sp, #20]
  68 001e 002B     		cmp	r3, #0
  69 0020 02D1     		bne	.L3
  70              		.loc 1 55 0
  71 0022 4FF00003 		mov	r3, #0
  72 0026 23E0     		b	.L4
  73              	.L3:
  74              		.loc 1 57 0
  75 0028 0598     		ldr	r0, [sp, #20]
  76 002a 0299     		ldr	r1, [sp, #8]
  77 002c FFF7FEFF 		bl	strspn
  78 0030 0346     		mov	r3, r0
  79 0032 059A     		ldr	r2, [sp, #20]
  80 0034 1344     		add	r3, r2, r3
  81 0036 0593     		str	r3, [sp, #20]
  82              		.loc 1 58 0
  83 0038 0598     		ldr	r0, [sp, #20]
  84 003a 0299     		ldr	r1, [sp, #8]
  85 003c FFF7FEFF 		bl	strpbrk
  86 0040 0246     		mov	r2, r0
  87 0042 019B     		ldr	r3, [sp, #4]
  88 0044 1A60     		str	r2, [r3, #0]
  89              		.loc 1 59 0
  90 0046 019B     		ldr	r3, [sp, #4]
  91 0048 1B68     		ldr	r3, [r3, #0]
  92 004a 002B     		cmp	r3, #0
  93 004c 08D0     		beq	.L5
  94              		.loc 1 60 0
  95 004e 019B     		ldr	r3, [sp, #4]
  96 0050 1B68     		ldr	r3, [r3, #0]
  97 0052 4FF00002 		mov	r2, #0
  98 0056 1A70     		strb	r2, [r3, #0]
  99 0058 03F10102 		add	r2, r3, #1
 100 005c 019B     		ldr	r3, [sp, #4]
 101 005e 1A60     		str	r2, [r3, #0]
 102              	.L5:
 103              		.loc 1 62 0
 104 0060 059B     		ldr	r3, [sp, #20]
 105 0062 1B78     		ldrb	r3, [r3, #0]	@ zero_extendqisi2
 106 0064 002B     		cmp	r3, #0
 107 0066 01D0     		beq	.L6
 108              		.loc 1 62 0 is_stmt 0 discriminator 1
 109 0068 059B     		ldr	r3, [sp, #20]
 110 006a 01E0     		b	.L7
ARM GAS  C:\Users\z80\AppData\Local\Temp\ccfOmD6n.s 			page 3


 111              	.L6:
 112              		.loc 1 62 0 discriminator 2
 113 006c 4FF00003 		mov	r3, #0
 114              	.L7:
 115              	.L4:
 116              		.loc 1 63 0 is_stmt 1
 117 0070 1846     		mov	r0, r3
 118 0072 07B0     		add	sp, sp, #28
 119 0074 00BD     		pop	{pc}
 120              		.cfi_endproc
 121              	.LFE62:
 122              		.size	_strtok, .-_strtok
 123 0076 00BFAFF3 		.section	.rodata
 123      0080AFF3 
 123      0080
 124              		.align	2
 125              	.LC0:
 126 0000 55736167 		.ascii	"Usage: %s\015\012\000"
 126      653A2025 
 126      730D0A00 
 127              		.section	.text.usage,"ax",%progbits
 128              		.align	2
 129              		.p2align 4,,15
 130              		.thumb
 131              		.thumb_func
 132              		.type	usage, %function
 133              	usage:
 134              	.LFB63:
 135              		.loc 1 65 0
 136              		.cfi_startproc
 137              		@ args = 0, pretend = 0, frame = 8
 138              		@ frame_needed = 0, uses_anonymous_args = 0
 139 0000 00B5     		push	{lr}
 140              	.LCFI2:
 141              		.cfi_def_cfa_offset 4
 142 0002 83B0     		sub	sp, sp, #12
 143              	.LCFI3:
 144              		.cfi_def_cfa_offset 16
 145 0004 0190     		str	r0, [sp, #4]
 146 0006 0091     		str	r1, [sp, #0]
 147              		.loc 1 67 0
 148 0008 0198     		ldr	r0, [sp, #4]
 149 000a 40F20001 		movw	r1, #:lower16:.LC0
 150 000e C0F20001 		movt	r1, #:upper16:.LC0
 151 0012 009A     		ldr	r2, [sp, #0]
 152              		.cfi_offset 14, -4
 153 0014 FFF7FEFF 		bl	chprintf
 154              		.loc 1 68 0
 155 0018 03B0     		add	sp, sp, #12
 156 001a 00BD     		pop	{pc}
 157              		.cfi_endproc
 158              	.LFE63:
 159              		.size	usage, .-usage
 160 001c AFF30080 		.section	.rodata
 161              		.align	2
 162              	.LC1:
 163 000c 25732000 		.ascii	"%s \000"
ARM GAS  C:\Users\z80\AppData\Local\Temp\ccfOmD6n.s 			page 4


 164              		.section	.text.list_commands,"ax",%progbits
 165              		.align	2
 166              		.p2align 4,,15
 167              		.thumb
 168              		.thumb_func
 169              		.type	list_commands, %function
 170              	list_commands:
 171              	.LFB64:
 172              		.loc 1 70 0
 173              		.cfi_startproc
 174              		@ args = 0, pretend = 0, frame = 8
 175              		@ frame_needed = 0, uses_anonymous_args = 0
 176 0000 00B5     		push	{lr}
 177              	.LCFI4:
 178              		.cfi_def_cfa_offset 4
 179 0002 83B0     		sub	sp, sp, #12
 180              	.LCFI5:
 181              		.cfi_def_cfa_offset 16
 182 0004 0190     		str	r0, [sp, #4]
 183 0006 0091     		str	r1, [sp, #0]
 184              		.loc 1 72 0
 185 0008 0DE0     		b	.L10
 186              		.cfi_offset 14, -4
 187              	.L11:
 188              		.loc 1 73 0
 189 000a 009B     		ldr	r3, [sp, #0]
 190 000c 1B68     		ldr	r3, [r3, #0]
 191 000e 0198     		ldr	r0, [sp, #4]
 192 0010 40F20001 		movw	r1, #:lower16:.LC1
 193 0014 C0F20001 		movt	r1, #:upper16:.LC1
 194 0018 1A46     		mov	r2, r3
 195 001a FFF7FEFF 		bl	chprintf
 196              		.loc 1 74 0
 197 001e 009B     		ldr	r3, [sp, #0]
 198 0020 03F10803 		add	r3, r3, #8
 199 0024 0093     		str	r3, [sp, #0]
 200              	.L10:
 201              		.loc 1 72 0 discriminator 1
 202 0026 009B     		ldr	r3, [sp, #0]
 203 0028 1B68     		ldr	r3, [r3, #0]
 204 002a 002B     		cmp	r3, #0
 205 002c EDD1     		bne	.L11
 206              		.loc 1 76 0
 207 002e 03B0     		add	sp, sp, #12
 208 0030 00BD     		pop	{pc}
 209              		.cfi_endproc
 210              	.LFE64:
 211              		.size	list_commands, .-list_commands
 212 0032 00BFAFF3 		.section	.rodata
 212      0080AFF3 
 212      0080AFF3 
 212      0080
 213              		.align	2
 214              	.LC2:
 215 0010 696E666F 		.ascii	"info\000"
 215      00
 216 0015 000000   		.align	2
ARM GAS  C:\Users\z80\AppData\Local\Temp\ccfOmD6n.s 			page 5


 217              	.LC3:
 218 0018 4B65726E 		.ascii	"Kernel:       %s\015\012\000"
 218      656C3A20 
 218      20202020 
 218      20202573 
 218      0D0A00
 219 002b 00       		.align	2
 220              	.LC4:
 221 002c 322E342E 		.ascii	"2.4.3\000"
 221      3300
 222 0032 0000     		.align	2
 223              	.LC5:
 224 0034 436F6D70 		.ascii	"Compiler:     %s\015\012\000"
 224      696C6572 
 224      3A202020 
 224      20202573 
 224      0D0A00
 225 0047 00       		.align	2
 226              	.LC6:
 227 0048 47434320 		.ascii	"GCC 4.5.0\000"
 227      342E352E 
 227      3000
 228 0052 0000     		.align	2
 229              	.LC7:
 230 0054 41726368 		.ascii	"Architecture: %s\015\012\000"
 230      69746563 
 230      74757265 
 230      3A202573 
 230      0D0A00
 231 0067 00       		.align	2
 232              	.LC8:
 233 0068 41524D76 		.ascii	"ARMv7-M\000"
 233      372D4D00 
 234              		.align	2
 235              	.LC9:
 236 0070 436F7265 		.ascii	"Core Variant: %s\015\012\000"
 236      20566172 
 236      69616E74 
 236      3A202573 
 236      0D0A00
 237 0083 00       		.align	2
 238              	.LC10:
 239 0084 436F7274 		.ascii	"Cortex-M3\000"
 239      65782D4D 
 239      3300
 240 008e 0000     		.align	2
 241              	.LC11:
 242 0090 506F7274 		.ascii	"Port Info:    %s\015\012\000"
 242      20496E66 
 242      6F3A2020 
 242      20202573 
 242      0D0A00
 243 00a3 00       		.align	2
 244              	.LC12:
 245 00a4 41647661 		.ascii	"Advanced kernel mode\000"
 245      6E636564 
 245      206B6572 
ARM GAS  C:\Users\z80\AppData\Local\Temp\ccfOmD6n.s 			page 6


 245      6E656C20 
 245      6D6F6465 
 246 00b9 000000   		.align	2
 247              	.LC13:
 248 00bc 506C6174 		.ascii	"Platform:     %s\015\012\000"
 248      666F726D 
 248      3A202020 
 248      20202573 
 248      0D0A00
 249 00cf 00       		.align	2
 250              	.LC14:
 251 00d0 53544D33 		.ascii	"STM32F1 Performance Line Medium Density\000"
 251      32463120 
 251      50657266 
 251      6F726D61 
 251      6E636520 
 252              		.align	2
 253              	.LC15:
 254 00f8 426F6172 		.ascii	"Board:        %s\015\012\000"
 254      643A2020 
 254      20202020 
 254      20202573 
 254      0D0A00
 255 010b 00       		.align	2
 256              	.LC16:
 257 010c 6D792063 		.ascii	"my ctrl-board\000"
 257      74726C2D 
 257      626F6172 
 257      6400
 258 011a 0000     		.align	2
 259              	.LC17:
 260 011c 4275696C 		.ascii	"Build time:   %s%s%s\015\012\000"
 260      64207469 
 260      6D653A20 
 260      20202573 
 260      25732573 
 261 0133 00       		.align	2
 262              	.LC18:
 263 0134 4A756E20 		.ascii	"Jun 12 2015\000"
 263      31322032 
 263      30313500 
 264              		.align	2
 265              	.LC19:
 266 0140 202D2000 		.ascii	" - \000"
 267              		.align	2
 268              	.LC20:
 269 0144 31373A30 		.ascii	"17:04:45\000"
 269      343A3435 
 269      00
 270              		.section	.text.cmd_info,"ax",%progbits
 271              		.align	2
 272              		.p2align 4,,15
 273              		.thumb
 274              		.thumb_func
 275              		.type	cmd_info, %function
 276              	cmd_info:
 277              	.LFB65:
ARM GAS  C:\Users\z80\AppData\Local\Temp\ccfOmD6n.s 			page 7


 278              		.loc 1 78 0
 279              		.cfi_startproc
 280              		@ args = 0, pretend = 0, frame = 16
 281              		@ frame_needed = 0, uses_anonymous_args = 0
 282 0000 00B5     		push	{lr}
 283              	.LCFI6:
 284              		.cfi_def_cfa_offset 4
 285 0002 87B0     		sub	sp, sp, #28
 286              	.LCFI7:
 287              		.cfi_def_cfa_offset 32
 288 0004 0590     		str	r0, [sp, #20]
 289 0006 0491     		str	r1, [sp, #16]
 290 0008 0392     		str	r2, [sp, #12]
 291              		.loc 1 81 0
 292 000a 049B     		ldr	r3, [sp, #16]
 293 000c 002B     		cmp	r3, #0
 294 000e 07DD     		ble	.L13
 295              		.cfi_offset 14, -4
 296              		.loc 1 82 0
 297 0010 0598     		ldr	r0, [sp, #20]
 298 0012 40F20001 		movw	r1, #:lower16:.LC2
 299 0016 C0F20001 		movt	r1, #:upper16:.LC2
 300 001a FFF7FEFF 		bl	usage
 301              		.loc 1 83 0
 302 001e 60E0     		b	.L12
 303              	.L13:
 304              		.loc 1 86 0
 305 0020 0598     		ldr	r0, [sp, #20]
 306 0022 40F20001 		movw	r1, #:lower16:.LC3
 307 0026 C0F20001 		movt	r1, #:upper16:.LC3
 308 002a 40F20002 		movw	r2, #:lower16:.LC4
 309 002e C0F20002 		movt	r2, #:upper16:.LC4
 310 0032 FFF7FEFF 		bl	chprintf
 311              		.loc 1 88 0
 312 0036 0598     		ldr	r0, [sp, #20]
 313 0038 40F20001 		movw	r1, #:lower16:.LC5
 314 003c C0F20001 		movt	r1, #:upper16:.LC5
 315 0040 40F20002 		movw	r2, #:lower16:.LC6
 316 0044 C0F20002 		movt	r2, #:upper16:.LC6
 317 0048 FFF7FEFF 		bl	chprintf
 318              		.loc 1 90 0
 319 004c 0598     		ldr	r0, [sp, #20]
 320 004e 40F20001 		movw	r1, #:lower16:.LC7
 321 0052 C0F20001 		movt	r1, #:upper16:.LC7
 322 0056 40F20002 		movw	r2, #:lower16:.LC8
 323 005a C0F20002 		movt	r2, #:upper16:.LC8
 324 005e FFF7FEFF 		bl	chprintf
 325              		.loc 1 92 0
 326 0062 0598     		ldr	r0, [sp, #20]
 327 0064 40F20001 		movw	r1, #:lower16:.LC9
 328 0068 C0F20001 		movt	r1, #:upper16:.LC9
 329 006c 40F20002 		movw	r2, #:lower16:.LC10
 330 0070 C0F20002 		movt	r2, #:upper16:.LC10
 331 0074 FFF7FEFF 		bl	chprintf
 332              		.loc 1 95 0
 333 0078 0598     		ldr	r0, [sp, #20]
 334 007a 40F20001 		movw	r1, #:lower16:.LC11
ARM GAS  C:\Users\z80\AppData\Local\Temp\ccfOmD6n.s 			page 8


 335 007e C0F20001 		movt	r1, #:upper16:.LC11
 336 0082 40F20002 		movw	r2, #:lower16:.LC12
 337 0086 C0F20002 		movt	r2, #:upper16:.LC12
 338 008a FFF7FEFF 		bl	chprintf
 339              		.loc 1 98 0
 340 008e 0598     		ldr	r0, [sp, #20]
 341 0090 40F20001 		movw	r1, #:lower16:.LC13
 342 0094 C0F20001 		movt	r1, #:upper16:.LC13
 343 0098 40F20002 		movw	r2, #:lower16:.LC14
 344 009c C0F20002 		movt	r2, #:upper16:.LC14
 345 00a0 FFF7FEFF 		bl	chprintf
 346              		.loc 1 101 0
 347 00a4 0598     		ldr	r0, [sp, #20]
 348 00a6 40F20001 		movw	r1, #:lower16:.LC15
 349 00aa C0F20001 		movt	r1, #:upper16:.LC15
 350 00ae 40F20002 		movw	r2, #:lower16:.LC16
 351 00b2 C0F20002 		movt	r2, #:upper16:.LC16
 352 00b6 FFF7FEFF 		bl	chprintf
 353              		.loc 1 105 0
 354 00ba 40F20003 		movw	r3, #:lower16:.LC20
 355 00be C0F20003 		movt	r3, #:upper16:.LC20
 356 00c2 0093     		str	r3, [sp, #0]
 357 00c4 0598     		ldr	r0, [sp, #20]
 358 00c6 40F20001 		movw	r1, #:lower16:.LC17
 359 00ca C0F20001 		movt	r1, #:upper16:.LC17
 360 00ce 40F20002 		movw	r2, #:lower16:.LC18
 361 00d2 C0F20002 		movt	r2, #:upper16:.LC18
 362 00d6 40F20003 		movw	r3, #:lower16:.LC19
 363 00da C0F20003 		movt	r3, #:upper16:.LC19
 364 00de FFF7FEFF 		bl	chprintf
 365              	.L12:
 366              		.loc 1 108 0
 367 00e2 07B0     		add	sp, sp, #28
 368 00e4 00BD     		pop	{pc}
 369              		.cfi_endproc
 370              	.LFE65:
 371              		.size	cmd_info, .-cmd_info
 372 00e6 00BFAFF3 		.section	.rodata
 372      0080AFF3 
 372      0080
 373 014d 000000   		.align	2
 374              	.LC21:
 375 0150 73797374 		.ascii	"systime\000"
 375      696D6500 
 376              		.align	2
 377              	.LC22:
 378 0158 256C750D 		.ascii	"%lu\015\012\000"
 378      0A00
 379              		.section	.text.cmd_systime,"ax",%progbits
 380              		.align	2
 381              		.p2align 4,,15
 382              		.thumb
 383              		.thumb_func
 384              		.type	cmd_systime, %function
 385              	cmd_systime:
 386              	.LFB66:
 387              		.loc 1 110 0
ARM GAS  C:\Users\z80\AppData\Local\Temp\ccfOmD6n.s 			page 9


 388              		.cfi_startproc
 389              		@ args = 0, pretend = 0, frame = 16
 390              		@ frame_needed = 0, uses_anonymous_args = 0
 391 0000 00B5     		push	{lr}
 392              	.LCFI8:
 393              		.cfi_def_cfa_offset 4
 394 0002 85B0     		sub	sp, sp, #20
 395              	.LCFI9:
 396              		.cfi_def_cfa_offset 24
 397 0004 0390     		str	r0, [sp, #12]
 398 0006 0291     		str	r1, [sp, #8]
 399 0008 0192     		str	r2, [sp, #4]
 400              		.loc 1 113 0
 401 000a 029B     		ldr	r3, [sp, #8]
 402 000c 002B     		cmp	r3, #0
 403 000e 07DD     		ble	.L16
 404              		.cfi_offset 14, -4
 405              		.loc 1 114 0
 406 0010 0398     		ldr	r0, [sp, #12]
 407 0012 40F20001 		movw	r1, #:lower16:.LC21
 408 0016 C0F20001 		movt	r1, #:upper16:.LC21
 409 001a FFF7FEFF 		bl	usage
 410              		.loc 1 115 0
 411 001e 0CE0     		b	.L15
 412              	.L16:
 413              		.loc 1 117 0
 414 0020 40F20003 		movw	r3, #:lower16:vtlist
 415 0024 C0F20003 		movt	r3, #:upper16:vtlist
 416 0028 DB68     		ldr	r3, [r3, #12]
 417 002a 0398     		ldr	r0, [sp, #12]
 418 002c 40F20001 		movw	r1, #:lower16:.LC22
 419 0030 C0F20001 		movt	r1, #:upper16:.LC22
 420 0034 1A46     		mov	r2, r3
 421 0036 FFF7FEFF 		bl	chprintf
 422              	.L15:
 423              		.loc 1 118 0
 424 003a 05B0     		add	sp, sp, #20
 425 003c 00BD     		pop	{pc}
 426              		.cfi_endproc
 427              	.LFE66:
 428              		.size	cmd_systime, .-cmd_systime
 429 003e 00BF     		.section	.data.local_commands,"aw",%progbits
 430              		.align	2
 431              		.type	local_commands, %object
 432              		.size	local_commands, 24
 433              	local_commands:
 434 0000 10000000 		.word	.LC2
 435 0004 00000000 		.word	cmd_info
 436 0008 50010000 		.word	.LC21
 437 000c 00000000 		.word	cmd_systime
 438 0010 00000000 		.word	0
 439 0014 00000000 		.word	0
 440              		.section	.text.cmdexec,"ax",%progbits
 441              		.align	2
 442              		.p2align 4,,15
 443              		.thumb
 444              		.thumb_func
ARM GAS  C:\Users\z80\AppData\Local\Temp\ccfOmD6n.s 			page 10


 445              		.type	cmdexec, %function
 446              	cmdexec:
 447              	.LFB67:
 448              		.loc 1 130 0
 449              		.cfi_startproc
 450              		@ args = 4, pretend = 0, frame = 16
 451              		@ frame_needed = 0, uses_anonymous_args = 0
 452 0000 00B5     		push	{lr}
 453              	.LCFI10:
 454              		.cfi_def_cfa_offset 4
 455 0002 85B0     		sub	sp, sp, #20
 456              	.LCFI11:
 457              		.cfi_def_cfa_offset 24
 458 0004 0390     		str	r0, [sp, #12]
 459 0006 0291     		str	r1, [sp, #8]
 460 0008 0192     		str	r2, [sp, #4]
 461 000a 0093     		str	r3, [sp, #0]
 462              		.loc 1 132 0
 463 000c 15E0     		b	.L19
 464              		.cfi_offset 14, -4
 465              	.L22:
 466              		.loc 1 133 0
 467 000e 039B     		ldr	r3, [sp, #12]
 468 0010 1B68     		ldr	r3, [r3, #0]
 469 0012 1846     		mov	r0, r3
 470 0014 0199     		ldr	r1, [sp, #4]
 471 0016 FFF7FEFF 		bl	strcasecmp
 472 001a 0346     		mov	r3, r0
 473 001c 002B     		cmp	r3, #0
 474 001e 08D1     		bne	.L20
 475              		.loc 1 134 0
 476 0020 039B     		ldr	r3, [sp, #12]
 477 0022 5B68     		ldr	r3, [r3, #4]
 478 0024 0298     		ldr	r0, [sp, #8]
 479 0026 0099     		ldr	r1, [sp, #0]
 480 0028 069A     		ldr	r2, [sp, #24]
 481 002a 9847     		blx	r3
 482              		.loc 1 135 0
 483 002c 4FF00003 		mov	r3, #0
 484 0030 09E0     		b	.L21
 485              	.L20:
 486              		.loc 1 137 0
 487 0032 039B     		ldr	r3, [sp, #12]
 488 0034 03F10803 		add	r3, r3, #8
 489 0038 0393     		str	r3, [sp, #12]
 490              	.L19:
 491              		.loc 1 132 0 discriminator 1
 492 003a 039B     		ldr	r3, [sp, #12]
 493 003c 1B68     		ldr	r3, [r3, #0]
 494 003e 002B     		cmp	r3, #0
 495 0040 E5D1     		bne	.L22
 496              		.loc 1 139 0
 497 0042 4FF00103 		mov	r3, #1
 498              	.L21:
 499              		.loc 1 140 0
 500 0046 1846     		mov	r0, r3
 501 0048 05B0     		add	sp, sp, #20
ARM GAS  C:\Users\z80\AppData\Local\Temp\ccfOmD6n.s 			page 11


 502 004a 00BD     		pop	{pc}
 503              		.cfi_endproc
 504              	.LFE67:
 505              		.size	cmdexec, .-cmdexec
 506 004c AFF30080 		.section	.rodata
 507 015e 0000     		.align	2
 508              	.LC23:
 509 0160 7368656C 		.ascii	"shell\000"
 509      6C00
 510 0166 0000     		.align	2
 511              	.LC24:
 512 0168 0D0A4368 		.ascii	"\015\012ChibiOS/RT Shell\015\012\000"
 512      6962694F 
 512      532F5254 
 512      20536865 
 512      6C6C0D0A 
 513 017d 000000   		.align	2
 514              	.LC25:
 515 0180 63683E20 		.ascii	"ch> \000"
 515      00
 516 0185 000000   		.align	2
 517              	.LC26:
 518 0188 0D0A6C6F 		.ascii	"\015\012logout\000"
 518      676F7574 
 518      00
 519 0191 000000   		.align	2
 520              	.LC27:
 521 0194 20003900 		.ascii	" \0009\000"
 522              		.align	2
 523              	.LC28:
 524 0198 746F6F20 		.ascii	"too many arguments\015\012\000"
 524      6D616E79 
 524      20617267 
 524      756D656E 
 524      74730D0A 
 525 01ad 000000   		.align	2
 526              	.LC29:
 527 01b0 65786974 		.ascii	"exit\000"
 527      00
 528 01b5 000000   		.align	2
 529              	.LC30:
 530 01b8 68656C70 		.ascii	"help\000"
 530      00
 531 01bd 000000   		.align	2
 532              	.LC31:
 533 01c0 436F6D6D 		.ascii	"Commands: help exit \000"
 533      616E6473 
 533      3A206865 
 533      6C702065 
 533      78697420 
 534 01d5 000000   		.align	2
 535              	.LC32:
 536 01d8 0D0A00   		.ascii	"\015\012\000"
 537 01db 00       		.align	2
 538              	.LC33:
 539 01dc 257300   		.ascii	"%s\000"
 540 01df 00       		.align	2
ARM GAS  C:\Users\z80\AppData\Local\Temp\ccfOmD6n.s 			page 12


 541              	.LC34:
 542 01e0 203F0D0A 		.ascii	" ?\015\012\000"
 542      00
 543              		.section	.text.shell_thread,"ax",%progbits
 544              		.align	2
 545              		.p2align 4,,15
 546              		.thumb
 547              		.thumb_func
 548              		.type	shell_thread, %function
 549              	shell_thread:
 550              	.LFB68:
 551              		.loc 1 150 0
 552              		.cfi_startproc
 553              		@ args = 0, pretend = 0, frame = 120
 554              		@ frame_needed = 0, uses_anonymous_args = 0
 555 0000 00B5     		push	{lr}
 556              	.LCFI12:
 557              		.cfi_def_cfa_offset 4
 558 0002 A1B0     		sub	sp, sp, #132
 559              	.LCFI13:
 560              		.cfi_def_cfa_offset 136
 561 0004 0390     		str	r0, [sp, #12]
 562              		.loc 1 152 0
 563 0006 4FF00003 		mov	r3, #0
 564 000a 1D93     		str	r3, [sp, #116]
 565              		.loc 1 153 0
 566 000c 039B     		ldr	r3, [sp, #12]
 567 000e 1B68     		ldr	r3, [r3, #0]
 568 0010 1C93     		str	r3, [sp, #112]
 569              		.loc 1 154 0
 570 0012 039B     		ldr	r3, [sp, #12]
 571 0014 5B68     		ldr	r3, [r3, #4]
 572 0016 1B93     		str	r3, [sp, #108]
 573              		.loc 1 158 0
 574 0018 40F20003 		movw	r3, #:lower16:rlist
 575 001c C0F20003 		movt	r3, #:upper16:rlist
 576 0020 DA69     		ldr	r2, [r3, #28]
 577 0022 40F20003 		movw	r3, #:lower16:.LC23
 578 0026 C0F20003 		movt	r3, #:upper16:.LC23
 579 002a 9361     		str	r3, [r2, #24]
 580              		.loc 1 159 0
 581 002c 1C98     		ldr	r0, [sp, #112]
 582 002e 40F20001 		movw	r1, #:lower16:.LC24
 583 0032 C0F20001 		movt	r1, #:upper16:.LC24
 584              		.cfi_offset 14, -4
 585 0036 FFF7FEFF 		bl	chprintf
 586 003a 04E0     		b	.L37
 587              	.L38:
 588              		.loc 1 203 0
 589 003c 00BF     		nop
 590 003e 02E0     		b	.L37
 591              	.L40:
 592 0040 00BF     		nop
 593 0042 00E0     		b	.L37
 594              	.L41:
 595 0044 00BF     		nop
 596              	.L37:
ARM GAS  C:\Users\z80\AppData\Local\Temp\ccfOmD6n.s 			page 13


 597              		.loc 1 161 0
 598 0046 1C98     		ldr	r0, [sp, #112]
 599 0048 40F20001 		movw	r1, #:lower16:.LC25
 600 004c C0F20001 		movt	r1, #:upper16:.LC25
 601 0050 FFF7FEFF 		bl	chprintf
 602              		.loc 1 162 0
 603 0054 09AB     		add	r3, sp, #36
 604 0056 1C98     		ldr	r0, [sp, #112]
 605 0058 1946     		mov	r1, r3
 606 005a 4FF04002 		mov	r2, #64
 607 005e FFF7FEFF 		bl	shellGetLine
 608 0062 0346     		mov	r3, r0
 609 0064 002B     		cmp	r3, #0
 610 0066 07D0     		beq	.L24
 611              		.loc 1 163 0
 612 0068 1C98     		ldr	r0, [sp, #112]
 613 006a 40F20001 		movw	r1, #:lower16:.LC26
 614 006e C0F20001 		movt	r1, #:upper16:.LC26
 615 0072 FFF7FEFF 		bl	chprintf
 616              		.loc 1 164 0
 617 0076 BDE0     		b	.L25
 618              	.L24:
 619              		.loc 1 166 0
 620 0078 09AA     		add	r2, sp, #36
 621 007a 19AB     		add	r3, sp, #100
 622 007c 1046     		mov	r0, r2
 623 007e 40F20001 		movw	r1, #:lower16:.LC27
 624 0082 C0F20001 		movt	r1, #:upper16:.LC27
 625 0086 1A46     		mov	r2, r3
 626 0088 FFF7FEFF 		bl	_strtok
 627 008c 0346     		mov	r3, r0
 628 008e 1A93     		str	r3, [sp, #104]
 629              		.loc 1 167 0
 630 0090 1A9B     		ldr	r3, [sp, #104]
 631 0092 1E93     		str	r3, [sp, #120]
 632              		.loc 1 168 0
 633 0094 4FF00003 		mov	r3, #0
 634 0098 1F93     		str	r3, [sp, #124]
 635              		.loc 1 169 0
 636 009a 19E0     		b	.L26
 637              	.L29:
 638              		.loc 1 170 0
 639 009c 1F9B     		ldr	r3, [sp, #124]
 640 009e 032B     		cmp	r3, #3
 641 00a0 0ADD     		ble	.L27
 642              		.loc 1 171 0
 643 00a2 1C98     		ldr	r0, [sp, #112]
 644 00a4 40F20001 		movw	r1, #:lower16:.LC28
 645 00a8 C0F20001 		movt	r1, #:upper16:.LC28
 646 00ac FFF7FEFF 		bl	chprintf
 647              		.loc 1 172 0
 648 00b0 4FF00003 		mov	r3, #0
 649 00b4 1E93     		str	r3, [sp, #120]
 650              		.loc 1 173 0
 651 00b6 1AE0     		b	.L28
 652              	.L27:
 653              		.loc 1 175 0
ARM GAS  C:\Users\z80\AppData\Local\Temp\ccfOmD6n.s 			page 14


 654 00b8 1F9B     		ldr	r3, [sp, #124]
 655 00ba 4FEA8303 		lsl	r3, r3, #2
 656 00be 20AA     		add	r2, sp, #128
 657 00c0 1344     		add	r3, r2, r3
 658 00c2 1A9A     		ldr	r2, [sp, #104]
 659 00c4 43F8702C 		str	r2, [r3, #-112]
 660 00c8 1F9B     		ldr	r3, [sp, #124]
 661 00ca 03F10103 		add	r3, r3, #1
 662 00ce 1F93     		str	r3, [sp, #124]
 663              	.L26:
 664              		.loc 1 169 0 discriminator 1
 665 00d0 19AB     		add	r3, sp, #100
 666 00d2 4FF00000 		mov	r0, #0
 667 00d6 40F20001 		movw	r1, #:lower16:.LC27
 668 00da C0F20001 		movt	r1, #:upper16:.LC27
 669 00de 1A46     		mov	r2, r3
 670 00e0 FFF7FEFF 		bl	_strtok
 671 00e4 0346     		mov	r3, r0
 672 00e6 1A93     		str	r3, [sp, #104]
 673 00e8 1A9B     		ldr	r3, [sp, #104]
 674 00ea 002B     		cmp	r3, #0
 675 00ec D6D1     		bne	.L29
 676              	.L28:
 677              		.loc 1 177 0
 678 00ee 1F9B     		ldr	r3, [sp, #124]
 679 00f0 4FEA8303 		lsl	r3, r3, #2
 680 00f4 20AA     		add	r2, sp, #128
 681 00f6 1344     		add	r3, r2, r3
 682 00f8 4FF00002 		mov	r2, #0
 683 00fc 43F8702C 		str	r2, [r3, #-112]
 684              		.loc 1 178 0
 685 0100 1E9B     		ldr	r3, [sp, #120]
 686 0102 002B     		cmp	r3, #0
 687 0104 9AD0     		beq	.L38
 688              		.loc 1 179 0
 689 0106 1E98     		ldr	r0, [sp, #120]
 690 0108 40F20001 		movw	r1, #:lower16:.LC29
 691 010c C0F20001 		movt	r1, #:upper16:.LC29
 692 0110 FFF7FEFF 		bl	strcasecmp
 693 0114 0346     		mov	r3, r0
 694 0116 002B     		cmp	r3, #0
 695 0118 0AD1     		bne	.L31
 696              		.loc 1 180 0
 697 011a 1F9B     		ldr	r3, [sp, #124]
 698 011c 002B     		cmp	r3, #0
 699 011e 68DD     		ble	.L39
 700              		.loc 1 181 0
 701 0120 1C98     		ldr	r0, [sp, #112]
 702 0122 40F20001 		movw	r1, #:lower16:.LC29
 703 0126 C0F20001 		movt	r1, #:upper16:.LC29
 704 012a FFF7FEFF 		bl	usage
 705              		.loc 1 182 0
 706 012e 5FE0     		b	.L30
 707              	.L31:
 708              		.loc 1 186 0
 709 0130 1E98     		ldr	r0, [sp, #120]
 710 0132 40F20001 		movw	r1, #:lower16:.LC30
ARM GAS  C:\Users\z80\AppData\Local\Temp\ccfOmD6n.s 			page 15


 711 0136 C0F20001 		movt	r1, #:upper16:.LC30
 712 013a FFF7FEFF 		bl	strcasecmp
 713 013e 0346     		mov	r3, r0
 714 0140 002B     		cmp	r3, #0
 715 0142 27D1     		bne	.L33
 716              		.loc 1 187 0
 717 0144 1F9B     		ldr	r3, [sp, #124]
 718 0146 002B     		cmp	r3, #0
 719 0148 07DD     		ble	.L34
 720              		.loc 1 188 0
 721 014a 1C98     		ldr	r0, [sp, #112]
 722 014c 40F20001 		movw	r1, #:lower16:.LC30
 723 0150 C0F20001 		movt	r1, #:upper16:.LC30
 724 0154 FFF7FEFF 		bl	usage
 725              		.loc 1 189 0
 726 0158 4AE0     		b	.L30
 727              	.L34:
 728              		.loc 1 191 0
 729 015a 1C98     		ldr	r0, [sp, #112]
 730 015c 40F20001 		movw	r1, #:lower16:.LC31
 731 0160 C0F20001 		movt	r1, #:upper16:.LC31
 732 0164 FFF7FEFF 		bl	chprintf
 733              		.loc 1 192 0
 734 0168 1C98     		ldr	r0, [sp, #112]
 735 016a 40F20001 		movw	r1, #:lower16:local_commands
 736 016e C0F20001 		movt	r1, #:upper16:local_commands
 737 0172 FFF7FEFF 		bl	list_commands
 738              		.loc 1 193 0
 739 0176 1B9B     		ldr	r3, [sp, #108]
 740 0178 002B     		cmp	r3, #0
 741 017a 03D0     		beq	.L35
 742              		.loc 1 194 0
 743 017c 1C98     		ldr	r0, [sp, #112]
 744 017e 1B99     		ldr	r1, [sp, #108]
 745 0180 FFF7FEFF 		bl	list_commands
 746              	.L35:
 747              		.loc 1 195 0
 748 0184 1C98     		ldr	r0, [sp, #112]
 749 0186 40F20001 		movw	r1, #:lower16:.LC32
 750 018a C0F20001 		movt	r1, #:upper16:.LC32
 751 018e FFF7FEFF 		bl	chprintf
 752              		.loc 1 203 0
 753 0192 58E7     		b	.L37
 754              	.L33:
 755              		.loc 1 197 0
 756 0194 04AB     		add	r3, sp, #16
 757 0196 0093     		str	r3, [sp, #0]
 758 0198 40F20000 		movw	r0, #:lower16:local_commands
 759 019c C0F20000 		movt	r0, #:upper16:local_commands
 760 01a0 1C99     		ldr	r1, [sp, #112]
 761 01a2 1E9A     		ldr	r2, [sp, #120]
 762 01a4 1F9B     		ldr	r3, [sp, #124]
 763 01a6 FFF7FEFF 		bl	cmdexec
 764 01aa 0346     		mov	r3, r0
 765 01ac 002B     		cmp	r3, #0
 766 01ae 3FF447AF 		beq	.L40
 767              		.loc 1 197 0 is_stmt 0 discriminator 1
ARM GAS  C:\Users\z80\AppData\Local\Temp\ccfOmD6n.s 			page 16


 768 01b2 1B9B     		ldr	r3, [sp, #108]
 769 01b4 002B     		cmp	r3, #0
 770 01b6 0BD0     		beq	.L36
 771              		.loc 1 198 0 is_stmt 1
 772 01b8 04AB     		add	r3, sp, #16
 773 01ba 0093     		str	r3, [sp, #0]
 774 01bc 1B98     		ldr	r0, [sp, #108]
 775 01be 1C99     		ldr	r1, [sp, #112]
 776 01c0 1E9A     		ldr	r2, [sp, #120]
 777 01c2 1F9B     		ldr	r3, [sp, #124]
 778 01c4 FFF7FEFF 		bl	cmdexec
 779 01c8 0346     		mov	r3, r0
 780 01ca 002B     		cmp	r3, #0
 781 01cc 3FF43AAF 		beq	.L41
 782              	.L36:
 783              		.loc 1 199 0
 784 01d0 1C98     		ldr	r0, [sp, #112]
 785 01d2 40F20001 		movw	r1, #:lower16:.LC33
 786 01d6 C0F20001 		movt	r1, #:upper16:.LC33
 787 01da 1E9A     		ldr	r2, [sp, #120]
 788 01dc FFF7FEFF 		bl	chprintf
 789              		.loc 1 200 0
 790 01e0 1C98     		ldr	r0, [sp, #112]
 791 01e2 40F20001 		movw	r1, #:lower16:.LC34
 792 01e6 C0F20001 		movt	r1, #:upper16:.LC34
 793 01ea FFF7FEFF 		bl	chprintf
 794              		.loc 1 203 0
 795 01ee 2AE7     		b	.L37
 796              	.L30:
 797 01f0 29E7     		b	.L37
 798              	.L39:
 799              		.loc 1 184 0
 800 01f2 00BF     		nop
 801              	.L25:
 802              	.LBB2:
 803              		.loc 1 206 0
 804 01f4 4FF02003 		mov	r3, #32
 805              	@ 206 "../chibios_2.4.x/os/various/shell.c" 1
 806 01f8 83F31188 		msr     BASEPRI, r3
 807              	@ 0 "" 2
 808              		.thumb
 809              	.LBE2:
 810 01fc FFF7FEFF 		bl	dbg_check_lock
 811              		.loc 1 207 0
 812 0200 40F20000 		movw	r0, #:lower16:shell_terminated
 813 0204 C0F20000 		movt	r0, #:upper16:shell_terminated
 814 0208 4FF00001 		mov	r1, #0
 815 020c FFF7FEFF 		bl	chEvtBroadcastFlagsI
 816              		.loc 1 208 0
 817 0210 1D98     		ldr	r0, [sp, #116]
 818 0212 FFF7FEFF 		bl	chThdExitS
 819              		.loc 1 209 0
 820 0216 4FF00003 		mov	r3, #0
 821              		.loc 1 210 0
 822 021a 1846     		mov	r0, r3
 823 021c 21B0     		add	sp, sp, #132
 824 021e 00BD     		pop	{pc}
ARM GAS  C:\Users\z80\AppData\Local\Temp\ccfOmD6n.s 			page 17


 825              		.cfi_endproc
 826              	.LFE68:
 827              		.size	shell_thread, .-shell_thread
 828              		.section	.text.shellInit,"ax",%progbits
 829              		.align	2
 830              		.p2align 4,,15
 831              		.global	shellInit
 832              		.thumb
 833              		.thumb_func
 834              		.type	shellInit, %function
 835              	shellInit:
 836              	.LFB69:
 837              		.loc 1 215 0
 838              		.cfi_startproc
 839              		@ args = 0, pretend = 0, frame = 0
 840              		@ frame_needed = 0, uses_anonymous_args = 0
 841              		@ link register save eliminated.
 842              		.loc 1 217 0
 843 0000 40F20002 		movw	r2, #:lower16:shell_terminated
 844 0004 C0F20002 		movt	r2, #:upper16:shell_terminated
 845 0008 40F20003 		movw	r3, #:lower16:shell_terminated
 846 000c C0F20003 		movt	r3, #:upper16:shell_terminated
 847 0010 1A60     		str	r2, [r3, #0]
 848              		.loc 1 218 0
 849 0012 7047     		bx	lr
 850              		.cfi_endproc
 851              	.LFE69:
 852              		.size	shellInit, .-shellInit
 853 0014 AFF30080 		.section	.text.shellCreateStatic,"ax",%progbits
 853      AFF30080 
 853      AFF30080 
 854              		.align	2
 855              		.p2align 4,,15
 856              		.global	shellCreateStatic
 857              		.thumb
 858              		.thumb_func
 859              		.type	shellCreateStatic, %function
 860              	shellCreateStatic:
 861              	.LFB70:
 862              		.loc 1 247 0
 863              		.cfi_startproc
 864              		@ args = 0, pretend = 0, frame = 16
 865              		@ frame_needed = 0, uses_anonymous_args = 0
 866 0000 00B5     		push	{lr}
 867              	.LCFI14:
 868              		.cfi_def_cfa_offset 4
 869 0002 87B0     		sub	sp, sp, #28
 870              	.LCFI15:
 871              		.cfi_def_cfa_offset 32
 872 0004 0590     		str	r0, [sp, #20]
 873 0006 0491     		str	r1, [sp, #16]
 874 0008 0392     		str	r2, [sp, #12]
 875 000a 0293     		str	r3, [sp, #8]
 876              		.loc 1 249 0
 877 000c 059B     		ldr	r3, [sp, #20]
 878 000e 0093     		str	r3, [sp, #0]
 879 0010 0498     		ldr	r0, [sp, #16]
ARM GAS  C:\Users\z80\AppData\Local\Temp\ccfOmD6n.s 			page 18


 880 0012 0399     		ldr	r1, [sp, #12]
 881 0014 029A     		ldr	r2, [sp, #8]
 882 0016 40F20003 		movw	r3, #:lower16:shell_thread
 883 001a C0F20003 		movt	r3, #:upper16:shell_thread
 884              		.cfi_offset 14, -4
 885 001e FFF7FEFF 		bl	chThdCreateStatic
 886 0022 0346     		mov	r3, r0
 887              		.loc 1 250 0
 888 0024 1846     		mov	r0, r3
 889 0026 07B0     		add	sp, sp, #28
 890 0028 00BD     		pop	{pc}
 891              		.cfi_endproc
 892              	.LFE70:
 893              		.size	shellCreateStatic, .-shellCreateStatic
 894 002a 00BFAFF3 		.section	.rodata
 894      0080
 895 01e5 000000   		.align	2
 896              	.LC35:
 897 01e8 5E4400   		.ascii	"^D\000"
 898 01eb 00       		.section	.text.shellGetLine,"ax",%progbits
 899              		.align	2
 900              		.p2align 4,,15
 901              		.global	shellGetLine
 902              		.thumb
 903              		.thumb_func
 904              		.type	shellGetLine, %function
 905              	shellGetLine:
 906              	.LFB71:
 907              		.loc 1 262 0
 908              		.cfi_startproc
 909              		@ args = 0, pretend = 0, frame = 24
 910              		@ frame_needed = 0, uses_anonymous_args = 0
 911 0000 00B5     		push	{lr}
 912              	.LCFI16:
 913              		.cfi_def_cfa_offset 4
 914 0002 87B0     		sub	sp, sp, #28
 915              	.LCFI17:
 916              		.cfi_def_cfa_offset 32
 917 0004 0390     		str	r0, [sp, #12]
 918 0006 0291     		str	r1, [sp, #8]
 919 0008 0192     		str	r2, [sp, #4]
 920              		.loc 1 263 0
 921 000a 029B     		ldr	r3, [sp, #8]
 922 000c 0593     		str	r3, [sp, #20]
 923 000e 00E0     		b	.L53
 924              		.cfi_offset 14, -4
 925              	.L54:
 926              		.loc 1 293 0
 927 0010 00BF     		nop
 928              	.L53:
 929              	.LBB3:
 930              		.loc 1 266 0
 931 0012 039B     		ldr	r3, [sp, #12]
 932 0014 1B68     		ldr	r3, [r3, #0]
 933 0016 5B69     		ldr	r3, [r3, #20]
 934 0018 0398     		ldr	r0, [sp, #12]
 935 001a 4FF0FF31 		mov	r1, #-1
ARM GAS  C:\Users\z80\AppData\Local\Temp\ccfOmD6n.s 			page 19


 936 001e 9847     		blx	r3
 937 0020 0346     		mov	r3, r0
 938 0022 ADF81230 		strh	r3, [sp, #18]	@ movhi
 939              		.loc 1 267 0
 940 0026 BDF91230 		ldrsh	r3, [sp, #18]
 941 002a 002B     		cmp	r3, #0
 942 002c 02DA     		bge	.L45
 943              		.loc 1 268 0
 944 002e 4FF00103 		mov	r3, #1
 945 0032 6EE0     		b	.L46
 946              	.L45:
 947              		.loc 1 269 0
 948 0034 BDF91230 		ldrsh	r3, [sp, #18]
 949 0038 042B     		cmp	r3, #4
 950 003a 09D1     		bne	.L47
 951              		.loc 1 270 0
 952 003c 0398     		ldr	r0, [sp, #12]
 953 003e 40F20001 		movw	r1, #:lower16:.LC35
 954 0042 C0F20001 		movt	r1, #:upper16:.LC35
 955 0046 FFF7FEFF 		bl	chprintf
 956              		.loc 1 271 0
 957 004a 4FF00103 		mov	r3, #1
 958 004e 60E0     		b	.L46
 959              	.L47:
 960              		.loc 1 273 0
 961 0050 BDF91230 		ldrsh	r3, [sp, #18]
 962 0054 082B     		cmp	r3, #8
 963 0056 27D1     		bne	.L48
 964              		.loc 1 274 0
 965 0058 059A     		ldr	r2, [sp, #20]
 966 005a 029B     		ldr	r3, [sp, #8]
 967 005c 9A42     		cmp	r2, r3
 968 005e 22D0     		beq	.L49
 969              		.loc 1 275 0
 970 0060 039B     		ldr	r3, [sp, #12]
 971 0062 1B68     		ldr	r3, [r3, #0]
 972 0064 1B69     		ldr	r3, [r3, #16]
 973 0066 BDF81220 		ldrh	r2, [sp, #18]	@ movhi
 974 006a D2B2     		uxtb	r2, r2
 975 006c 0398     		ldr	r0, [sp, #12]
 976 006e 1146     		mov	r1, r2
 977 0070 4FF0FF32 		mov	r2, #-1
 978 0074 9847     		blx	r3
 979              		.loc 1 276 0
 980 0076 039B     		ldr	r3, [sp, #12]
 981 0078 1B68     		ldr	r3, [r3, #0]
 982 007a 1B69     		ldr	r3, [r3, #16]
 983 007c 0398     		ldr	r0, [sp, #12]
 984 007e 4FF02001 		mov	r1, #32
 985 0082 4FF0FF32 		mov	r2, #-1
 986 0086 9847     		blx	r3
 987              		.loc 1 277 0
 988 0088 039B     		ldr	r3, [sp, #12]
 989 008a 1B68     		ldr	r3, [r3, #0]
 990 008c 1B69     		ldr	r3, [r3, #16]
 991 008e BDF81220 		ldrh	r2, [sp, #18]	@ movhi
 992 0092 D2B2     		uxtb	r2, r2
ARM GAS  C:\Users\z80\AppData\Local\Temp\ccfOmD6n.s 			page 20


 993 0094 0398     		ldr	r0, [sp, #12]
 994 0096 1146     		mov	r1, r2
 995 0098 4FF0FF32 		mov	r2, #-1
 996 009c 9847     		blx	r3
 997              		.loc 1 278 0
 998 009e 059B     		ldr	r3, [sp, #20]
 999 00a0 03F1FF33 		add	r3, r3, #-1
 1000 00a4 0593     		str	r3, [sp, #20]
 1001              	.L49:
 1002              		.loc 1 280 0
 1003 00a6 33E0     		b	.L50
 1004              	.L48:
 1005              		.loc 1 282 0
 1006 00a8 BDF91230 		ldrsh	r3, [sp, #18]
 1007 00ac 0D2B     		cmp	r3, #13
 1008 00ae 0DD1     		bne	.L51
 1009              		.loc 1 283 0
 1010 00b0 0398     		ldr	r0, [sp, #12]
 1011 00b2 40F20001 		movw	r1, #:lower16:.LC32
 1012 00b6 C0F20001 		movt	r1, #:upper16:.LC32
 1013 00ba FFF7FEFF 		bl	chprintf
 1014              		.loc 1 284 0
 1015 00be 059B     		ldr	r3, [sp, #20]
 1016 00c0 4FF00002 		mov	r2, #0
 1017 00c4 1A70     		strb	r2, [r3, #0]
 1018              		.loc 1 285 0
 1019 00c6 4FF00003 		mov	r3, #0
 1020 00ca 22E0     		b	.L46
 1021              	.L51:
 1022              		.loc 1 287 0
 1023 00cc BDF91230 		ldrsh	r3, [sp, #18]
 1024 00d0 1F2B     		cmp	r3, #31
 1025 00d2 00DC     		bgt	.L52
 1026              		.loc 1 288 0
 1027 00d4 1CE0     		b	.L50
 1028              	.L52:
 1029              		.loc 1 289 0
 1030 00d6 019B     		ldr	r3, [sp, #4]
 1031 00d8 03F1FF33 		add	r3, r3, #-1
 1032 00dc 029A     		ldr	r2, [sp, #8]
 1033 00de 1A44     		add	r2, r2, r3
 1034 00e0 059B     		ldr	r3, [sp, #20]
 1035 00e2 9A42     		cmp	r2, r3
 1036 00e4 94D9     		bls	.L54
 1037              		.loc 1 290 0
 1038 00e6 039B     		ldr	r3, [sp, #12]
 1039 00e8 1B68     		ldr	r3, [r3, #0]
 1040 00ea 1B69     		ldr	r3, [r3, #16]
 1041 00ec BDF81220 		ldrh	r2, [sp, #18]	@ movhi
 1042 00f0 D2B2     		uxtb	r2, r2
 1043 00f2 0398     		ldr	r0, [sp, #12]
 1044 00f4 1146     		mov	r1, r2
 1045 00f6 4FF0FF32 		mov	r2, #-1
 1046 00fa 9847     		blx	r3
 1047              		.loc 1 291 0
 1048 00fc BDF81230 		ldrh	r3, [sp, #18]	@ movhi
 1049 0100 DAB2     		uxtb	r2, r3
ARM GAS  C:\Users\z80\AppData\Local\Temp\ccfOmD6n.s 			page 21


 1050 0102 059B     		ldr	r3, [sp, #20]
 1051 0104 1A70     		strb	r2, [r3, #0]
 1052 0106 059B     		ldr	r3, [sp, #20]
 1053 0108 03F10103 		add	r3, r3, #1
 1054 010c 0593     		str	r3, [sp, #20]
 1055              	.LBE3:
 1056              		.loc 1 293 0
 1057 010e 80E7     		b	.L53
 1058              	.L50:
 1059 0110 7FE7     		b	.L53
 1060              	.L46:
 1061              		.loc 1 294 0
 1062 0112 1846     		mov	r0, r3
 1063 0114 07B0     		add	sp, sp, #28
 1064 0116 00BD     		pop	{pc}
 1065              		.cfi_endproc
 1066              	.LFE71:
 1067              		.size	shellGetLine, .-shellGetLine
 1068 0118 AFF30080 		.text
 1068      AFF30080 
 1069              	.Letext0: