ARM GAS  C:\Users\z80\AppData\Local\Temp\ccf8qS4d.s 			page 1


   1              		.syntax unified
   2              		.cpu cortex-m3
   3              		.fpu softvfp
   4              		.eabi_attribute 20, 1
   5              		.eabi_attribute 21, 1
   6              		.eabi_attribute 23, 3
   7              		.eabi_attribute 24, 1
   8              		.eabi_attribute 25, 1
   9              		.eabi_attribute 26, 1
  10              		.eabi_attribute 30, 2
  11              		.eabi_attribute 18, 4
  12              		.thumb
  13              		.file	"stm32_dma.c"
  20 0000 8C020000 		.text
  20      02002A01 
  20      00000201 
  20      FB0E0D00 
  20      01010101 
  21              	.Ltext0:
  22              		.cfi_sections	.debug_frame
  23              		.section	.text.Vector6C,"ax",%progbits
  24              		.align	2
  25              		.p2align 4,,15
  26              		.global	Vector6C
  27              		.thumb
  28              		.thumb_func
  29              		.type	Vector6C, %function
  30              	Vector6C:
  31              	.LFB62:
  32              		.file 1 "../chibios_2.4.x/os/hal/platforms/STM32F1xx/stm32_dma.c"
  33              		.loc 1 137 0
  34              		.cfi_startproc
  35              		@ args = 0, pretend = 0, frame = 0
  36              		@ frame_needed = 0, uses_anonymous_args = 0
  37 0000 08B5     		push	{r3, lr}
  38              	.LCFI0:
  39              		.cfi_def_cfa_offset 8
  40              		.loc 1 140 0
  41              		.cfi_offset 14, -4
  42              		.cfi_offset 3, -8
  43 0002 FFF7FEFF 		bl	dbg_check_enter_isr
  44              		.loc 1 144 0
  45 0006 0A48     		ldr	r0, .L4
  46              		.loc 1 142 0
  47 0008 0022     		movs	r2, #0
  48              		.loc 1 144 0
  49 000a 0368     		ldr	r3, [r0, #0]
  50              		.loc 1 142 0
  51 000c C4F20202 		movt	r2, 16386
  52              		.loc 1 143 0
  53 0010 4FF00F0C 		mov	ip, #15
ARM GAS  C:\Users\z80\AppData\Local\Temp\ccf8qS4d.s 			page 2


  54              		.loc 1 142 0
  55 0014 1168     		ldr	r1, [r2, #0]
  56              	.LVL0:
  57              		.loc 1 143 0
  58 0016 C2F804C0 		str	ip, [r2, #4]
  59              		.loc 1 144 0
  60 001a 1BB1     		cbz	r3, .L2
  61              		.loc 1 145 0
  62 001c 4068     		ldr	r0, [r0, #4]
  63              		.loc 1 142 0
  64 001e 01EA0C01 		and	r1, r1, ip
  65              	.LVL1:
  66              		.loc 1 145 0
  67 0022 9847     		blx	r3
  68              	.LVL2:
  69              	.L2:
  70              		.loc 1 147 0
  71 0024 FFF7FEFF 		bl	dbg_check_leave_isr
  72 0028 FFF7FEFF 		bl	_port_irq_epilogue
  73              		.loc 1 148 0
  74 002c 08BD     		pop	{r3, pc}
  75              	.L5:
  76 002e 00BF     		.align	2
  77              	.L4:
  78 0030 00000000 		.word	.LANCHOR0
  79              		.cfi_endproc
  80              	.LFE62:
  81              		.size	Vector6C, .-Vector6C
  82 0034 AFF30080 		.section	.text.Vector70,"ax",%progbits
  82      AFF30080 
  82      AFF30080 
  83              		.align	2
  84              		.p2align 4,,15
  85              		.global	Vector70
  86              		.thumb
  87              		.thumb_func
  88              		.type	Vector70, %function
  89              	Vector70:
  90              	.LFB63:
  91              		.loc 1 155 0
  92              		.cfi_startproc
  93              		@ args = 0, pretend = 0, frame = 0
  94              		@ frame_needed = 0, uses_anonymous_args = 0
  95 0000 08B5     		push	{r3, lr}
  96              	.LCFI1:
  97              		.cfi_def_cfa_offset 8
  98              		.loc 1 158 0
  99              		.cfi_offset 14, -4
 100              		.cfi_offset 3, -8
 101 0002 FFF7FEFF 		bl	dbg_check_enter_isr
 102              		.loc 1 162 0
 103 0006 0A48     		ldr	r0, .L8
 104              		.loc 1 160 0
 105 0008 0022     		movs	r2, #0
 106              		.loc 1 162 0
 107 000a 8368     		ldr	r3, [r0, #8]
 108              		.loc 1 160 0
ARM GAS  C:\Users\z80\AppData\Local\Temp\ccf8qS4d.s 			page 3


 109 000c C4F20202 		movt	r2, 16386
 110              		.loc 1 161 0
 111 0010 4FF0F00C 		mov	ip, #240
 112              		.loc 1 160 0
 113 0014 1168     		ldr	r1, [r2, #0]
 114              	.LVL3:
 115              		.loc 1 161 0
 116 0016 C2F804C0 		str	ip, [r2, #4]
 117              		.loc 1 162 0
 118 001a 1BB1     		cbz	r3, .L7
 119              		.loc 1 163 0
 120 001c C068     		ldr	r0, [r0, #12]
 121              		.loc 1 160 0
 122 001e C1F30311 		ubfx	r1, r1, #4, #4
 123              	.LVL4:
 124              		.loc 1 163 0
 125 0022 9847     		blx	r3
 126              	.L7:
 127              		.loc 1 165 0
 128 0024 FFF7FEFF 		bl	dbg_check_leave_isr
 129 0028 FFF7FEFF 		bl	_port_irq_epilogue
 130              		.loc 1 166 0
 131 002c 08BD     		pop	{r3, pc}
 132              	.L9:
 133 002e 00BF     		.align	2
 134              	.L8:
 135 0030 00000000 		.word	.LANCHOR0
 136              		.cfi_endproc
 137              	.LFE63:
 138              		.size	Vector70, .-Vector70
 139 0034 AFF30080 		.section	.text.Vector74,"ax",%progbits
 139      AFF30080 
 139      AFF30080 
 140              		.align	2
 141              		.p2align 4,,15
 142              		.global	Vector74
 143              		.thumb
 144              		.thumb_func
 145              		.type	Vector74, %function
 146              	Vector74:
 147              	.LFB64:
 148              		.loc 1 173 0
 149              		.cfi_startproc
 150              		@ args = 0, pretend = 0, frame = 0
 151              		@ frame_needed = 0, uses_anonymous_args = 0
 152 0000 08B5     		push	{r3, lr}
 153              	.LCFI2:
 154              		.cfi_def_cfa_offset 8
 155              		.loc 1 176 0
 156              		.cfi_offset 14, -4
 157              		.cfi_offset 3, -8
 158 0002 FFF7FEFF 		bl	dbg_check_enter_isr
 159              		.loc 1 180 0
 160 0006 0A48     		ldr	r0, .L12
 161              		.loc 1 178 0
 162 0008 0022     		movs	r2, #0
 163              		.loc 1 180 0
ARM GAS  C:\Users\z80\AppData\Local\Temp\ccf8qS4d.s 			page 4


 164 000a 0369     		ldr	r3, [r0, #16]
 165              		.loc 1 178 0
 166 000c C4F20202 		movt	r2, 16386
 167              		.loc 1 179 0
 168 0010 4FF4706C 		mov	ip, #3840
 169              		.loc 1 178 0
 170 0014 1168     		ldr	r1, [r2, #0]
 171              	.LVL5:
 172              		.loc 1 179 0
 173 0016 C2F804C0 		str	ip, [r2, #4]
 174              		.loc 1 180 0
 175 001a 1BB1     		cbz	r3, .L11
 176              		.loc 1 181 0
 177 001c 4069     		ldr	r0, [r0, #20]
 178              		.loc 1 178 0
 179 001e C1F30321 		ubfx	r1, r1, #8, #4
 180              	.LVL6:
 181              		.loc 1 181 0
 182 0022 9847     		blx	r3
 183              	.L11:
 184              		.loc 1 183 0
 185 0024 FFF7FEFF 		bl	dbg_check_leave_isr
 186 0028 FFF7FEFF 		bl	_port_irq_epilogue
 187              		.loc 1 184 0
 188 002c 08BD     		pop	{r3, pc}
 189              	.L13:
 190 002e 00BF     		.align	2
 191              	.L12:
 192 0030 00000000 		.word	.LANCHOR0
 193              		.cfi_endproc
 194              	.LFE64:
 195              		.size	Vector74, .-Vector74
 196 0034 AFF30080 		.section	.text.Vector78,"ax",%progbits
 196      AFF30080 
 196      AFF30080 
 197              		.align	2
 198              		.p2align 4,,15
 199              		.global	Vector78
 200              		.thumb
 201              		.thumb_func
 202              		.type	Vector78, %function
 203              	Vector78:
 204              	.LFB65:
 205              		.loc 1 191 0
 206              		.cfi_startproc
 207              		@ args = 0, pretend = 0, frame = 0
 208              		@ frame_needed = 0, uses_anonymous_args = 0
 209 0000 08B5     		push	{r3, lr}
 210              	.LCFI3:
 211              		.cfi_def_cfa_offset 8
 212              		.loc 1 194 0
 213              		.cfi_offset 14, -4
 214              		.cfi_offset 3, -8
 215 0002 FFF7FEFF 		bl	dbg_check_enter_isr
 216              		.loc 1 198 0
 217 0006 0A48     		ldr	r0, .L16
 218              		.loc 1 196 0
ARM GAS  C:\Users\z80\AppData\Local\Temp\ccf8qS4d.s 			page 5


 219 0008 0022     		movs	r2, #0
 220              		.loc 1 198 0
 221 000a 8369     		ldr	r3, [r0, #24]
 222              		.loc 1 196 0
 223 000c C4F20202 		movt	r2, 16386
 224              		.loc 1 197 0
 225 0010 4FF4704C 		mov	ip, #61440
 226              		.loc 1 196 0
 227 0014 1168     		ldr	r1, [r2, #0]
 228              	.LVL7:
 229              		.loc 1 197 0
 230 0016 C2F804C0 		str	ip, [r2, #4]
 231              		.loc 1 198 0
 232 001a 1BB1     		cbz	r3, .L15
 233              		.loc 1 199 0
 234 001c C069     		ldr	r0, [r0, #28]
 235              		.loc 1 196 0
 236 001e C1F30331 		ubfx	r1, r1, #12, #4
 237              	.LVL8:
 238              		.loc 1 199 0
 239 0022 9847     		blx	r3
 240              	.L15:
 241              		.loc 1 201 0
 242 0024 FFF7FEFF 		bl	dbg_check_leave_isr
 243 0028 FFF7FEFF 		bl	_port_irq_epilogue
 244              		.loc 1 202 0
 245 002c 08BD     		pop	{r3, pc}
 246              	.L17:
 247 002e 00BF     		.align	2
 248              	.L16:
 249 0030 00000000 		.word	.LANCHOR0
 250              		.cfi_endproc
 251              	.LFE65:
 252              		.size	Vector78, .-Vector78
 253 0034 AFF30080 		.section	.text.Vector7C,"ax",%progbits
 253      AFF30080 
 253      AFF30080 
 254              		.align	2
 255              		.p2align 4,,15
 256              		.global	Vector7C
 257              		.thumb
 258              		.thumb_func
 259              		.type	Vector7C, %function
 260              	Vector7C:
 261              	.LFB66:
 262              		.loc 1 209 0
 263              		.cfi_startproc
 264              		@ args = 0, pretend = 0, frame = 0
 265              		@ frame_needed = 0, uses_anonymous_args = 0
 266 0000 08B5     		push	{r3, lr}
 267              	.LCFI4:
 268              		.cfi_def_cfa_offset 8
 269              		.loc 1 212 0
 270              		.cfi_offset 14, -4
 271              		.cfi_offset 3, -8
 272 0002 FFF7FEFF 		bl	dbg_check_enter_isr
 273              		.loc 1 216 0
ARM GAS  C:\Users\z80\AppData\Local\Temp\ccf8qS4d.s 			page 6


 274 0006 0A48     		ldr	r0, .L20
 275              		.loc 1 214 0
 276 0008 0022     		movs	r2, #0
 277              		.loc 1 216 0
 278 000a 036A     		ldr	r3, [r0, #32]
 279              		.loc 1 214 0
 280 000c C4F20202 		movt	r2, 16386
 281              		.loc 1 215 0
 282 0010 4FF4702C 		mov	ip, #983040
 283              		.loc 1 214 0
 284 0014 1168     		ldr	r1, [r2, #0]
 285              	.LVL9:
 286              		.loc 1 215 0
 287 0016 C2F804C0 		str	ip, [r2, #4]
 288              		.loc 1 216 0
 289 001a 1BB1     		cbz	r3, .L19
 290              		.loc 1 217 0
 291 001c 406A     		ldr	r0, [r0, #36]
 292              		.loc 1 214 0
 293 001e C1F30341 		ubfx	r1, r1, #16, #4
 294              	.LVL10:
 295              		.loc 1 217 0
 296 0022 9847     		blx	r3
 297              	.L19:
 298              		.loc 1 219 0
 299 0024 FFF7FEFF 		bl	dbg_check_leave_isr
 300 0028 FFF7FEFF 		bl	_port_irq_epilogue
 301              		.loc 1 220 0
 302 002c 08BD     		pop	{r3, pc}
 303              	.L21:
 304 002e 00BF     		.align	2
 305              	.L20:
 306 0030 00000000 		.word	.LANCHOR0
 307              		.cfi_endproc
 308              	.LFE66:
 309              		.size	Vector7C, .-Vector7C
 310 0034 AFF30080 		.section	.text.Vector80,"ax",%progbits
 310      AFF30080 
 310      AFF30080 
 311              		.align	2
 312              		.p2align 4,,15
 313              		.global	Vector80
 314              		.thumb
 315              		.thumb_func
 316              		.type	Vector80, %function
 317              	Vector80:
 318              	.LFB67:
 319              		.loc 1 227 0
 320              		.cfi_startproc
 321              		@ args = 0, pretend = 0, frame = 0
 322              		@ frame_needed = 0, uses_anonymous_args = 0
 323 0000 08B5     		push	{r3, lr}
 324              	.LCFI5:
 325              		.cfi_def_cfa_offset 8
 326              		.loc 1 230 0
 327              		.cfi_offset 14, -4
 328              		.cfi_offset 3, -8
ARM GAS  C:\Users\z80\AppData\Local\Temp\ccf8qS4d.s 			page 7


 329 0002 FFF7FEFF 		bl	dbg_check_enter_isr
 330              		.loc 1 234 0
 331 0006 0A48     		ldr	r0, .L24
 332              		.loc 1 232 0
 333 0008 0022     		movs	r2, #0
 334              		.loc 1 234 0
 335 000a 836A     		ldr	r3, [r0, #40]
 336              		.loc 1 232 0
 337 000c C4F20202 		movt	r2, 16386
 338              		.loc 1 233 0
 339 0010 4FF4700C 		mov	ip, #15728640
 340              		.loc 1 232 0
 341 0014 1168     		ldr	r1, [r2, #0]
 342              	.LVL11:
 343              		.loc 1 233 0
 344 0016 C2F804C0 		str	ip, [r2, #4]
 345              		.loc 1 234 0
 346 001a 1BB1     		cbz	r3, .L23
 347              		.loc 1 235 0
 348 001c C06A     		ldr	r0, [r0, #44]
 349              		.loc 1 232 0
 350 001e C1F30351 		ubfx	r1, r1, #20, #4
 351              	.LVL12:
 352              		.loc 1 235 0
 353 0022 9847     		blx	r3
 354              	.L23:
 355              		.loc 1 237 0
 356 0024 FFF7FEFF 		bl	dbg_check_leave_isr
 357 0028 FFF7FEFF 		bl	_port_irq_epilogue
 358              		.loc 1 238 0
 359 002c 08BD     		pop	{r3, pc}
 360              	.L25:
 361 002e 00BF     		.align	2
 362              	.L24:
 363 0030 00000000 		.word	.LANCHOR0
 364              		.cfi_endproc
 365              	.LFE67:
 366              		.size	Vector80, .-Vector80
 367 0034 AFF30080 		.section	.text.Vector84,"ax",%progbits
 367      AFF30080 
 367      AFF30080 
 368              		.align	2
 369              		.p2align 4,,15
 370              		.global	Vector84
 371              		.thumb
 372              		.thumb_func
 373              		.type	Vector84, %function
 374              	Vector84:
 375              	.LFB68:
 376              		.loc 1 245 0
 377              		.cfi_startproc
 378              		@ args = 0, pretend = 0, frame = 0
 379              		@ frame_needed = 0, uses_anonymous_args = 0
 380 0000 08B5     		push	{r3, lr}
 381              	.LCFI6:
 382              		.cfi_def_cfa_offset 8
 383              		.loc 1 248 0
ARM GAS  C:\Users\z80\AppData\Local\Temp\ccf8qS4d.s 			page 8


 384              		.cfi_offset 14, -4
 385              		.cfi_offset 3, -8
 386 0002 FFF7FEFF 		bl	dbg_check_enter_isr
 387              		.loc 1 252 0
 388 0006 0A48     		ldr	r0, .L28
 389              		.loc 1 250 0
 390 0008 0022     		movs	r2, #0
 391              		.loc 1 252 0
 392 000a 036B     		ldr	r3, [r0, #48]
 393              		.loc 1 250 0
 394 000c C4F20202 		movt	r2, 16386
 395              		.loc 1 251 0
 396 0010 4FF0706C 		mov	ip, #251658240
 397              		.loc 1 250 0
 398 0014 1168     		ldr	r1, [r2, #0]
 399              	.LVL13:
 400              		.loc 1 251 0
 401 0016 C2F804C0 		str	ip, [r2, #4]
 402              		.loc 1 252 0
 403 001a 1BB1     		cbz	r3, .L27
 404              		.loc 1 253 0
 405 001c 406B     		ldr	r0, [r0, #52]
 406              		.loc 1 250 0
 407 001e C1F30361 		ubfx	r1, r1, #24, #4
 408              	.LVL14:
 409              		.loc 1 253 0
 410 0022 9847     		blx	r3
 411              	.L27:
 412              		.loc 1 255 0
 413 0024 FFF7FEFF 		bl	dbg_check_leave_isr
 414 0028 FFF7FEFF 		bl	_port_irq_epilogue
 415              		.loc 1 256 0
 416 002c 08BD     		pop	{r3, pc}
 417              	.L29:
 418 002e 00BF     		.align	2
 419              	.L28:
 420 0030 00000000 		.word	.LANCHOR0
 421              		.cfi_endproc
 422              	.LFE68:
 423              		.size	Vector84, .-Vector84
 424 0034 AFF30080 		.section	.text.dmaInit,"ax",%progbits
 424      AFF30080 
 424      AFF30080 
 425              		.align	2
 426              		.p2align 4,,15
 427              		.global	dmaInit
 428              		.thumb
 429              		.thumb_func
 430              		.type	dmaInit, %function
 431              	dmaInit:
 432              	.LFB69:
 433              		.loc 1 392 0
 434              		.cfi_startproc
 435              		@ args = 0, pretend = 0, frame = 0
 436              		@ frame_needed = 0, uses_anonymous_args = 0
 437              		@ link register save eliminated.
 438              		.loc 1 395 0
ARM GAS  C:\Users\z80\AppData\Local\Temp\ccf8qS4d.s 			page 9


 439 0000 0C49     		ldr	r1, .L33
 440 0002 0023     		movs	r3, #0
 441              		.loc 1 392 0
 442 0004 10B4     		push	{r4}
 443              	.LCFI7:
 444              		.cfi_def_cfa_offset 4
 445 0006 DFF830C0 		ldr	ip, .L33+4
 446 000a 0C4C     		ldr	r4, .L33+8
 447              		.cfi_offset 4, -4
 448              		.loc 1 395 0
 449 000c 0B60     		str	r3, [r1, #0]
 450              	.LVL15:
 451 000e 1A46     		mov	r2, r3
 452              		.loc 1 397 0
 453 0010 1946     		mov	r1, r3
 454              	.LVL16:
 455              	.L31:
 456              		.loc 1 397 0 is_stmt 0 discriminator 2
 457 0012 E058     		ldr	r0, [r4, r3]
 458              		.loc 1 398 0 is_stmt 1 discriminator 2
 459 0014 0C33     		adds	r3, r3, #12
 460              		.loc 1 397 0 discriminator 2
 461 0016 0160     		str	r1, [r0, #0]
 462              		.loc 1 398 0 discriminator 2
 463 0018 4CF80210 		str	r1, [ip, r2]
 464 001c 0832     		adds	r2, r2, #8
 465              		.loc 1 396 0 discriminator 2
 466 001e 542B     		cmp	r3, #84
 467 0020 F7D1     		bne	.L31
 468              		.loc 1 400 0
 469 0022 0023     		movs	r3, #0
 470 0024 C4F20203 		movt	r3, 16386
 471 0028 4FF0FF32 		mov	r2, #-1
 472 002c 5A60     		str	r2, [r3, #4]
 473              		.loc 1 404 0
 474 002e 10BC     		pop	{r4}
 475 0030 7047     		bx	lr
 476              	.L34:
 477 0032 00BF     		.align	2
 478              	.L33:
 479 0034 00000000 		.word	.LANCHOR1
 480 0038 00000000 		.word	.LANCHOR0
 481 003c 00000000 		.word	.LANCHOR2
 482              		.cfi_endproc
 483              	.LFE69:
 484              		.size	dmaInit, .-dmaInit
 485              		.section	.text.dmaStreamAllocate,"ax",%progbits
 486              		.align	2
 487              		.p2align 4,,15
 488              		.global	dmaStreamAllocate
 489              		.thumb
 490              		.thumb_func
 491              		.type	dmaStreamAllocate, %function
 492              	dmaStreamAllocate:
 493              	.LFB70:
 494              		.loc 1 433 0
 495              		.cfi_startproc
ARM GAS  C:\Users\z80\AppData\Local\Temp\ccf8qS4d.s 			page 10


 496              		@ args = 0, pretend = 0, frame = 16
 497              		@ frame_needed = 0, uses_anonymous_args = 0
 498              	.LVL17:
 499 0000 2DE9F041 		push	{r4, r5, r6, r7, r8, lr}
 500              	.LCFI8:
 501              		.cfi_def_cfa_offset 24
 502 0004 0446     		mov	r4, r0
 503              		.cfi_offset 14, -4
 504              		.cfi_offset 8, -8
 505              		.cfi_offset 7, -12
 506              		.cfi_offset 6, -16
 507              		.cfi_offset 5, -20
 508              		.cfi_offset 4, -24
 509 0006 84B0     		sub	sp, sp, #16
 510              	.LCFI9:
 511              		.cfi_def_cfa_offset 40
 512              		.loc 1 435 0
 513 0008 0028     		cmp	r0, #0
 514 000a 3BD0     		beq	.L41
 515              	.LVL18:
 516              	.L36:
 517              		.loc 1 438 0
 518 000c 94F809C0 		ldrb	ip, [r4, #9]	@ zero_extendqisi2
 519 0010 0125     		movs	r5, #1
 520 0012 05FA0CF8 		lsl	r8, r5, ip
 521 0016 204E     		ldr	r6, .L42
 522 0018 3768     		ldr	r7, [r6, #0]
 523 001a 18EA070F 		tst	r8, r7
 524              		.loc 1 439 0
 525 001e 18BF     		it	ne
 526 0020 2846     		movne	r0, r5
 527              		.loc 1 438 0
 528 0022 2CD1     		bne	.L37
 529              		.loc 1 442 0
 530 0024 1D48     		ldr	r0, .L42+4
 531              		.loc 1 444 0
 532 0026 48EA0707 		orr	r7, r8, r7
 533              		.loc 1 443 0
 534 002a 00EBCC05 		add	r5, r0, ip, lsl #3
 535              		.loc 1 447 0
 536 002e 17F07F0F 		tst	r7, #127
 537              		.loc 1 443 0
 538 0032 6B60     		str	r3, [r5, #4]
 539              		.loc 1 448 0
 540 0034 18BF     		it	ne
 541 0036 4FF48053 		movne	r3, #4096
 542              		.loc 1 444 0
 543 003a 3760     		str	r7, [r6, #0]
 544              		.loc 1 448 0
 545 003c 18BF     		it	ne
 546 003e C4F20203 		movtne	r3, 16386
 547              		.loc 1 442 0
 548 0042 40F83C20 		str	r2, [r0, ip, lsl #3]
 549              		.loc 1 448 0
 550 0046 18BF     		it	ne
 551 0048 5869     		ldrne	r0, [r3, #20]
 552              		.loc 1 455 0
ARM GAS  C:\Users\z80\AppData\Local\Temp\ccf8qS4d.s 			page 11


 553 004a 4FF00F0C 		mov	ip, #15
 554              		.loc 1 448 0
 555 004e 1CBF     		itt	ne
 556 0050 40F00100 		orrne	r0, r0, #1
 557 0054 5861     		strne	r0, [r3, #20]
 558              		.loc 1 455 0
 559 0056 237A     		ldrb	r3, [r4, #8]	@ zero_extendqisi2
 560 0058 6068     		ldr	r0, [r4, #4]
 561 005a 0CFA03FC 		lsl	ip, ip, r3
 562 005e 2368     		ldr	r3, [r4, #0]
 563              		.loc 1 456 0
 564 0060 0025     		movs	r5, #0
 565              		.loc 1 455 0
 566 0062 1E68     		ldr	r6, [r3, #0]
 567 0064 26F00106 		bic	r6, r6, #1
 568 0068 1E60     		str	r6, [r3, #0]
 569 006a C0F800C0 		str	ip, [r0, #0]
 570              		.loc 1 456 0
 571 006e 1D60     		str	r5, [r3, #0]
 572              		.loc 1 462 0
 573 0070 1046     		mov	r0, r2
 574              		.loc 1 459 0
 575 0072 22B1     		cbz	r2, .L37
 576              		.loc 1 460 0
 577 0074 A07A     		ldrb	r0, [r4, #10]	@ zero_extendqisi2
 578 0076 0901     		lsls	r1, r1, #4
 579 0078 FFF7FEFF 		bl	nvicEnableVector
 580              		.loc 1 462 0
 581 007c 2846     		mov	r0, r5
 582              	.L37:
 583              		.loc 1 463 0
 584 007e 04B0     		add	sp, sp, #16
 585 0080 BDE8F081 		pop	{r4, r5, r6, r7, r8, pc}
 586              	.LVL19:
 587              	.L41:
 588              		.loc 1 435 0 discriminator 1
 589 0084 0648     		ldr	r0, .L42+8
 590 0086 0391     		str	r1, [sp, #12]
 591 0088 0292     		str	r2, [sp, #8]
 592 008a 0193     		str	r3, [sp, #4]
 593 008c FFF7FEFF 		bl	chDbgPanic
 594              	.LVL20:
 595 0090 019B     		ldr	r3, [sp, #4]
 596 0092 029A     		ldr	r2, [sp, #8]
 597 0094 0399     		ldr	r1, [sp, #12]
 598 0096 B9E7     		b	.L36
 599              	.L43:
 600              		.align	2
 601              	.L42:
 602 0098 00000000 		.word	.LANCHOR1
 603 009c 00000000 		.word	.LANCHOR0
 604 00a0 00000000 		.word	.LC0
 605              		.cfi_endproc
 606              	.LFE70:
 607              		.size	dmaStreamAllocate, .-dmaStreamAllocate
 608 00a4 AFF30080 		.section	.text.dmaStreamRelease,"ax",%progbits
 608      AFF30080 
ARM GAS  C:\Users\z80\AppData\Local\Temp\ccf8qS4d.s 			page 12


 608      AFF30080 
 609              		.align	2
 610              		.p2align 4,,15
 611              		.global	dmaStreamRelease
 612              		.thumb
 613              		.thumb_func
 614              		.type	dmaStreamRelease, %function
 615              	dmaStreamRelease:
 616              	.LFB71:
 617              		.loc 1 478 0
 618              		.cfi_startproc
 619              		@ args = 0, pretend = 0, frame = 0
 620              		@ frame_needed = 0, uses_anonymous_args = 0
 621              	.LVL21:
 622 0000 38B5     		push	{r3, r4, r5, lr}
 623              	.LCFI10:
 624              		.cfi_def_cfa_offset 16
 625              		.loc 1 478 0
 626 0002 0446     		mov	r4, r0
 627              		.cfi_offset 14, -4
 628              		.cfi_offset 5, -8
 629              		.cfi_offset 4, -12
 630              		.cfi_offset 3, -16
 631              		.loc 1 480 0
 632 0004 0028     		cmp	r0, #0
 633 0006 22D0     		beq	.L48
 634              	.LVL22:
 635              	.L45:
 636              		.loc 1 483 0
 637 0008 637A     		ldrb	r3, [r4, #9]	@ zero_extendqisi2
 638 000a 0122     		movs	r2, #1
 639 000c 9A40     		lsls	r2, r2, r3
 640 000e 124D     		ldr	r5, .L50
 641 0010 2B68     		ldr	r3, [r5, #0]
 642 0012 1A42     		tst	r2, r3
 643 0014 17D0     		beq	.L49
 644              	.L46:
 645              		.loc 1 487 0
 646 0016 A07A     		ldrb	r0, [r4, #10]	@ zero_extendqisi2
 647 0018 FFF7FEFF 		bl	nvicDisableVector
 648              		.loc 1 490 0
 649 001c 637A     		ldrb	r3, [r4, #9]	@ zero_extendqisi2
 650 001e 0122     		movs	r2, #1
 651 0020 12FA03F3 		lsls	r3, r2, r3
 652 0024 2A68     		ldr	r2, [r5, #0]
 653 0026 22EA0303 		bic	r3, r2, r3
 654              		.loc 1 493 0
 655 002a 13F07F0F 		tst	r3, #127
 656              		.loc 1 490 0
 657 002e 2B60     		str	r3, [r5, #0]
 658              		.loc 1 494 0
 659 0030 01BF     		itttt	eq
 660 0032 4FF48053 		moveq	r3, #4096
 661 0036 C4F20203 		movteq	r3, 16386
 662 003a 5A69     		ldreq	r2, [r3, #20]
 663 003c 22F00102 		biceq	r2, r2, #1
 664 0040 08BF     		it	eq
ARM GAS  C:\Users\z80\AppData\Local\Temp\ccf8qS4d.s 			page 13


 665 0042 5A61     		streq	r2, [r3, #20]
 666              		.loc 1 499 0
 667 0044 38BD     		pop	{r3, r4, r5, pc}
 668              	.L49:
 669              		.loc 1 483 0 discriminator 1
 670 0046 0548     		ldr	r0, .L50+4
 671 0048 FFF7FEFF 		bl	chDbgPanic
 672 004c E3E7     		b	.L46
 673              	.L48:
 674              		.loc 1 480 0 discriminator 1
 675 004e 0448     		ldr	r0, .L50+8
 676 0050 FFF7FEFF 		bl	chDbgPanic
 677 0054 D8E7     		b	.L45
 678              	.L51:
 679 0056 00BF     		.align	2
 680              	.L50:
 681 0058 00000000 		.word	.LANCHOR1
 682 005c 20000000 		.word	.LC2
 683 0060 10000000 		.word	.LC1
 684              		.cfi_endproc
 685              	.LFE71:
 686              		.size	dmaStreamRelease, .-dmaStreamRelease
 687              		.global	_stm32_dma_streams
 688 0064 AFF30080 		.section	.rodata.str1.4,"aMS",%progbits,1
 688      AFF30080 
 688      AFF30080 
 689              		.align	2
 690              	.LC0:
 691 0000 22646D61 		.ascii	"\"dmaAllocate\"()\000"
 691      416C6C6F 
 691      63617465 
 691      22282900 
 692              	.LC1:
 693 0010 22646D61 		.ascii	"\"dmaRelease\"()\000"
 693      52656C65 
 693      61736522 
 693      282900
 694 001f 00       		.space	1
 695              	.LC2:
 696 0020 646D6152 		.ascii	"dmaRelease(), #1\000"
 696      656C6561 
 696      73652829 
 696      2C202331 
 696      00
 697 0031 000000   		.section	.bss.dma_isr_redir,"aw",%nobits
 698              		.align	2
 699              		.set	.LANCHOR0,. + 0
 700              		.type	dma_isr_redir, %object
 701              		.size	dma_isr_redir, 56
 702              	dma_isr_redir:
 703 0000 00000000 		.space	56
 703      00000000 
 703      00000000 
 703      00000000 
 703      00000000 
 704              		.section	.rodata._stm32_dma_streams,"a",%progbits
 705              		.align	2
ARM GAS  C:\Users\z80\AppData\Local\Temp\ccf8qS4d.s 			page 14


 706              		.set	.LANCHOR2,. + 0
 707              		.type	_stm32_dma_streams, %object
 708              		.size	_stm32_dma_streams, 84
 709              	_stm32_dma_streams:
 710 0000 08000240 		.word	1073872904
 711 0004 04000240 		.word	1073872900
 712 0008 00       		.byte	0
 713 0009 00       		.byte	0
 714 000a 0B       		.byte	11
 715 000b 00       		.space	1
 716 000c 1C000240 		.word	1073872924
 717 0010 04000240 		.word	1073872900
 718 0014 04       		.byte	4
 719 0015 01       		.byte	1
 720 0016 0C       		.byte	12
 721 0017 00       		.space	1
 722 0018 30000240 		.word	1073872944
 723 001c 04000240 		.word	1073872900
 724 0020 08       		.byte	8
 725 0021 02       		.byte	2
 726 0022 0D       		.byte	13
 727 0023 00       		.space	1
 728 0024 44000240 		.word	1073872964
 729 0028 04000240 		.word	1073872900
 730 002c 0C       		.byte	12
 731 002d 03       		.byte	3
 732 002e 0E       		.byte	14
 733 002f 00       		.space	1
 734 0030 58000240 		.word	1073872984
 735 0034 04000240 		.word	1073872900
 736 0038 10       		.byte	16
 737 0039 04       		.byte	4
 738 003a 0F       		.byte	15
 739 003b 00       		.space	1
 740 003c 6C000240 		.word	1073873004
 741 0040 04000240 		.word	1073872900
 742 0044 14       		.byte	20
 743 0045 05       		.byte	5
 744 0046 10       		.byte	16
 745 0047 00       		.space	1
 746 0048 80000240 		.word	1073873024
 747 004c 04000240 		.word	1073872900
 748 0050 18       		.byte	24
 749 0051 06       		.byte	6
 750 0052 11       		.byte	17
 751 0053 00       		.space	1
 752              		.section	.bss.dma_streams_mask,"aw",%nobits
 753              		.align	2
 754              		.set	.LANCHOR1,. + 0
 755              		.type	dma_streams_mask, %object
 756              		.size	dma_streams_mask, 4
 757              	dma_streams_mask:
 758 0000 00000000 		.space	4
 759              		.text
 760              	.Letext0: