ARM GAS  C:\Users\z80\AppData\Local\Temp\ccI3iGp9.s 			page 1


   1              		.syntax unified
   2              		.cpu cortex-m3
   3              		.fpu softvfp
   4              		.eabi_attribute 20, 1
   5              		.eabi_attribute 21, 1
   6              		.eabi_attribute 23, 3
   7              		.eabi_attribute 24, 1
   8              		.eabi_attribute 25, 1
   9              		.eabi_attribute 26, 1
  10              		.eabi_attribute 30, 2
  11              		.eabi_attribute 18, 4
  12              		.thumb
  13              		.file	"testdyn.c"
  20 0000 E5020000 		.text
  20      02009601 
  20      00000201 
  20      FB0E0D00 
  20      01010101 
  21              	.Ltext0:
  22              		.cfi_sections	.debug_frame
  23              		.section	.text.regfind,"ax",%progbits
  24              		.align	2
  25              		.p2align 4,,15
  26              		.thumb
  27              		.thumb_func
  28              		.type	regfind, %function
  29              	regfind:
  30              	.LFB12:
  31              		.file 1 "../chibios_2.4.x/test/testdyn.c"
  32              		.loc 1 202 0
  33              		.cfi_startproc
  34              		@ args = 0, pretend = 0, frame = 0
  35              		@ frame_needed = 0, uses_anonymous_args = 0
  36              	.LVL0:
  37 0000 38B5     		push	{r3, r4, r5, lr}
  38              	.LCFI0:
  39              		.cfi_def_cfa_offset 16
  40              		.loc 1 202 0
  41 0002 0546     		mov	r5, r0
  42              		.cfi_offset 14, -4
  43              		.cfi_offset 5, -8
  44              		.cfi_offset 4, -12
  45              		.cfi_offset 3, -16
  46              		.loc 1 206 0
  47 0004 FFF7FEFF 		bl	chRegFirstThread
  48              	.LVL1:
  49              		.loc 1 204 0
  50 0008 0024     		movs	r4, #0
  51              		.loc 1 206 0
  52 000a 0346     		mov	r3, r0
  53              	.LVL2:
ARM GAS  C:\Users\z80\AppData\Local\Temp\ccI3iGp9.s 			page 2


  54              	.L2:
  55              		.loc 1 209 0 discriminator 1
  56 000c 1846     		mov	r0, r3
  57              	.LVL3:
  58              		.loc 1 208 0 discriminator 1
  59 000e AB42     		cmp	r3, r5
  60 0010 08BF     		it	eq
  61 0012 44F00104 		orreq	r4, r4, #1
  62              	.LVL4:
  63              		.loc 1 209 0 discriminator 1
  64 0016 FFF7FEFF 		bl	chRegNextThread
  65              	.LVL5:
  66 001a 0346     		mov	r3, r0
  67              	.LVL6:
  68              		.loc 1 210 0 discriminator 1
  69 001c 0028     		cmp	r0, #0
  70 001e F5D1     		bne	.L2
  71              		.loc 1 212 0
  72 0020 2046     		mov	r0, r4
  73              	.LVL7:
  74 0022 38BD     		pop	{r3, r4, r5, pc}
  75              		.cfi_endproc
  76              	.LFE12:
  77              		.size	regfind, .-regfind
  78 0024 AFF30080 		.section	.text.dyn3_execute,"ax",%progbits
  78      AFF30080 
  78      AFF30080 
  79              		.align	2
  80              		.p2align 4,,15
  81              		.thumb
  82              		.thumb_func
  83              		.type	dyn3_execute, %function
  84              	dyn3_execute:
  85              	.LFB14:
  86              		.loc 1 219 0
  87              		.cfi_startproc
  88              		@ args = 0, pretend = 0, frame = 0
  89              		@ frame_needed = 0, uses_anonymous_args = 0
  90              	.LVL8:
  91              		.loc 1 221 0
  92 0000 4B4B     		ldr	r3, .L8
  93              		.loc 1 219 0
  94 0002 10B5     		push	{r4, lr}
  95              	.LCFI1:
  96              		.cfi_def_cfa_offset 8
  97              		.loc 1 221 0
  98 0004 DB69     		ldr	r3, [r3, #28]
  99              		.loc 1 224 0
 100 0006 DFF82CC1 		ldr	ip, .L8+4
 101 000a 9A68     		ldr	r2, [r3, #8]
 102              		.loc 1 219 0
 103 000c 82B0     		sub	sp, sp, #8
 104              	.LCFI2:
 105              		.cfi_def_cfa_offset 16
 106              		.loc 1 224 0
 107 000e 4FF49871 		mov	r1, #304
 108 0012 494B     		ldr	r3, .L8+8
ARM GAS  C:\Users\z80\AppData\Local\Temp\ccI3iGp9.s 			page 3


 109 0014 013A     		subs	r2, r2, #1
 110 0016 4948     		ldr	r0, .L8+12
 111 0018 CDF800C0 		str	ip, [sp, #0]
 112              		.cfi_offset 14, -4
 113              		.cfi_offset 4, -8
 114 001c FFF7FEFF 		bl	chThdCreateFromHeap
 115              	.LVL9:
 116              		.loc 1 225 0
 117 0020 90F82210 		ldrb	r1, [r0, #34]	@ zero_extendqisi2
 118              		.loc 1 224 0
 119 0024 0446     		mov	r4, r0
 120              	.LVL10:
 121              		.loc 1 225 0
 122 0026 0120     		movs	r0, #1
 123              	.LVL11:
 124 0028 8142     		cmp	r1, r0
 125 002a 14BF     		ite	ne
 126 002c 0021     		movne	r1, #0
 127 002e 0121     		moveq	r1, #1
 128 0030 FFF7FEFF 		bl	_test_assert
 129 0034 08B1     		cbz	r0, .L7
 130              	.L5:
 131              		.loc 1 247 0
 132 0036 02B0     		add	sp, sp, #8
 133 0038 10BD     		pop	{r4, pc}
 134              	.L7:
 135              		.loc 1 226 0
 136 003a 2046     		mov	r0, r4
 137 003c FFF7FEFF 		bl	chThdAddRef
 138              		.loc 1 227 0
 139 0040 94F82210 		ldrb	r1, [r4, #34]	@ zero_extendqisi2
 140 0044 0220     		movs	r0, #2
 141 0046 8142     		cmp	r1, r0
 142 0048 14BF     		ite	ne
 143 004a 0021     		movne	r1, #0
 144 004c 0121     		moveq	r1, #1
 145 004e FFF7FEFF 		bl	_test_assert
 146 0052 0028     		cmp	r0, #0
 147 0054 EFD1     		bne	.L5
 148              		.loc 1 228 0
 149 0056 2046     		mov	r0, r4
 150 0058 FFF7FEFF 		bl	chThdRelease
 151              		.loc 1 229 0
 152 005c 94F82210 		ldrb	r1, [r4, #34]	@ zero_extendqisi2
 153 0060 0320     		movs	r0, #3
 154 0062 0129     		cmp	r1, #1
 155 0064 14BF     		ite	ne
 156 0066 0021     		movne	r1, #0
 157 0068 0121     		moveq	r1, #1
 158 006a FFF7FEFF 		bl	_test_assert
 159 006e 0028     		cmp	r0, #0
 160 0070 E1D1     		bne	.L5
 161              		.loc 1 232 0
 162 0072 2046     		mov	r0, r4
 163 0074 FFF7FEFF 		bl	regfind
 164 0078 0146     		mov	r1, r0
 165 007a 0420     		movs	r0, #4
ARM GAS  C:\Users\z80\AppData\Local\Temp\ccI3iGp9.s 			page 4


 166 007c FFF7FEFF 		bl	_test_assert
 167 0080 0028     		cmp	r0, #0
 168 0082 D8D1     		bne	.L5
 169              		.loc 1 233 0
 170 0084 2046     		mov	r0, r4
 171 0086 FFF7FEFF 		bl	regfind
 172 008a 0146     		mov	r1, r0
 173 008c 0520     		movs	r0, #5
 174 008e FFF7FEFF 		bl	_test_assert
 175 0092 0028     		cmp	r0, #0
 176 0094 CFD1     		bne	.L5
 177              		.loc 1 236 0
 178 0096 2046     		mov	r0, r4
 179 0098 FFF7FEFF 		bl	chThdRelease
 180              		.loc 1 237 0
 181 009c 94F82210 		ldrb	r1, [r4, #34]	@ zero_extendqisi2
 182 00a0 0620     		movs	r0, #6
 183 00a2 D1F10101 		rsbs	r1, r1, #1
 184 00a6 38BF     		it	cc
 185 00a8 0021     		movcc	r1, #0
 186 00aa FFF7FEFF 		bl	_test_assert
 187 00ae 0028     		cmp	r0, #0
 188 00b0 C1D1     		bne	.L5
 189              		.loc 1 238 0
 190 00b2 94F82010 		ldrb	r1, [r4, #32]	@ zero_extendqisi2
 191 00b6 0720     		movs	r0, #7
 192 00b8 D1F10101 		rsbs	r1, r1, #1
 193 00bc 38BF     		it	cc
 194 00be 0021     		movcc	r1, #0
 195 00c0 FFF7FEFF 		bl	_test_assert
 196 00c4 0028     		cmp	r0, #0
 197 00c6 B6D1     		bne	.L5
 198              		.loc 1 239 0
 199 00c8 2046     		mov	r0, r4
 200 00ca FFF7FEFF 		bl	regfind
 201 00ce 0146     		mov	r1, r0
 202 00d0 0820     		movs	r0, #8
 203 00d2 FFF7FEFF 		bl	_test_assert
 204 00d6 0028     		cmp	r0, #0
 205 00d8 ADD1     		bne	.L5
 206              		.loc 1 240 0
 207 00da 2046     		mov	r0, r4
 208 00dc FFF7FEFF 		bl	regfind
 209 00e0 0146     		mov	r1, r0
 210 00e2 0920     		movs	r0, #9
 211 00e4 FFF7FEFF 		bl	_test_assert
 212 00e8 0028     		cmp	r0, #0
 213 00ea A4D1     		bne	.L5
 214              		.loc 1 241 0
 215 00ec 1930     		adds	r0, r0, #25
 216 00ee FFF7FEFF 		bl	chThdSleep
 217              		.loc 1 242 0
 218 00f2 94F82010 		ldrb	r1, [r4, #32]	@ zero_extendqisi2
 219 00f6 0A20     		movs	r0, #10
 220 00f8 0E29     		cmp	r1, #14
 221 00fa 14BF     		ite	ne
 222 00fc 0021     		movne	r1, #0
ARM GAS  C:\Users\z80\AppData\Local\Temp\ccI3iGp9.s 			page 5


 223 00fe 0121     		moveq	r1, #1
 224 0100 FFF7FEFF 		bl	_test_assert
 225 0104 0028     		cmp	r0, #0
 226 0106 96D1     		bne	.L5
 227              		.loc 1 245 0
 228 0108 2046     		mov	r0, r4
 229 010a FFF7FEFF 		bl	regfind
 230 010e 0146     		mov	r1, r0
 231 0110 0B20     		movs	r0, #11
 232 0112 FFF7FEFF 		bl	_test_assert
 233 0116 0028     		cmp	r0, #0
 234 0118 8DD1     		bne	.L5
 235              		.loc 1 246 0
 236 011a 2046     		mov	r0, r4
 237 011c FFF7FEFF 		bl	regfind
 238 0120 D0F10101 		rsbs	r1, r0, #1
 239 0124 38BF     		it	cc
 240 0126 0021     		movcc	r1, #0
 241 0128 0C20     		movs	r0, #12
 242 012a FFF7FEFF 		bl	_test_assert
 243 012e 82E7     		b	.L5
 244              	.L9:
 245              		.align	2
 246              	.L8:
 247 0130 00000000 		.word	rlist
 248 0134 00000000 		.word	.LC0
 249 0138 00000000 		.word	thread
 250 013c 00000000 		.word	.LANCHOR0
 251              		.cfi_endproc
 252              	.LFE14:
 253              		.size	dyn3_execute, .-dyn3_execute
 254              		.section	.text.thread,"ax",%progbits
 255              		.align	2
 256              		.p2align 4,,15
 257              		.thumb
 258              		.thumb_func
 259              		.type	thread, %function
 260              	thread:
 261              	.LFB7:
 262              		.loc 1 82 0
 263              		.cfi_startproc
 264              		@ args = 0, pretend = 0, frame = 0
 265              		@ frame_needed = 0, uses_anonymous_args = 0
 266              	.LVL12:
 267 0000 08B5     		push	{r3, lr}
 268              	.LCFI3:
 269              		.cfi_def_cfa_offset 8
 270              		.loc 1 84 0
 271 0002 0078     		ldrb	r0, [r0, #0]	@ zero_extendqisi2
 272              	.LVL13:
 273              		.cfi_offset 14, -4
 274              		.cfi_offset 3, -8
 275 0004 FFF7FEFF 		bl	test_emit_token
 276              		.loc 1 86 0
 277 0008 0020     		movs	r0, #0
 278 000a 08BD     		pop	{r3, pc}
 279              		.cfi_endproc
ARM GAS  C:\Users\z80\AppData\Local\Temp\ccI3iGp9.s 			page 6


 280              	.LFE7:
 281              		.size	thread, .-thread
 282 000c AFF30080 		.section	.text.dyn3_setup,"ax",%progbits
 283              		.align	2
 284              		.p2align 4,,15
 285              		.thumb
 286              		.thumb_func
 287              		.type	dyn3_setup, %function
 288              	dyn3_setup:
 289              	.LFB13:
 290              		.loc 1 214 0
 291              		.cfi_startproc
 292              		@ args = 0, pretend = 0, frame = 0
 293              		@ frame_needed = 0, uses_anonymous_args = 0
 294              		.loc 1 216 0
 295 0000 40F20000 		movw	r0, #:lower16:.LANCHOR0
 296 0004 40F20001 		movw	r1, #:lower16:test
 297              		.loc 1 214 0
 298 0008 08B5     		push	{r3, lr}
 299              	.LCFI4:
 300              		.cfi_def_cfa_offset 8
 301              		.loc 1 216 0
 302 000a C0F20001 		movt	r1, #:upper16:test
 303 000e C0F20000 		movt	r0, #:upper16:.LANCHOR0
 304 0012 4FF4BE62 		mov	r2, #1520
 305              		.cfi_offset 14, -4
 306              		.cfi_offset 3, -8
 307 0016 FFF7FEFF 		bl	chHeapInit
 308              		.loc 1 217 0
 309 001a 08BD     		pop	{r3, pc}
 310              		.cfi_endproc
 311              	.LFE13:
 312              		.size	dyn3_setup, .-dyn3_setup
 313 001c AFF30080 		.section	.text.dyn1_setup,"ax",%progbits
 314              		.align	2
 315              		.p2align 4,,15
 316              		.thumb
 317              		.thumb_func
 318              		.type	dyn1_setup, %function
 319              	dyn1_setup:
 320              	.LFB8:
 321              		.loc 1 89 0
 322              		.cfi_startproc
 323              		@ args = 0, pretend = 0, frame = 0
 324              		@ frame_needed = 0, uses_anonymous_args = 0
 325              		.loc 1 91 0
 326 0000 40F20000 		movw	r0, #:lower16:.LANCHOR0
 327 0004 40F20001 		movw	r1, #:lower16:test
 328              		.loc 1 89 0
 329 0008 08B5     		push	{r3, lr}
 330              	.LCFI5:
 331              		.cfi_def_cfa_offset 8
 332              		.loc 1 91 0
 333 000a C0F20001 		movt	r1, #:upper16:test
 334 000e C0F20000 		movt	r0, #:upper16:.LANCHOR0
 335 0012 4FF4BE62 		mov	r2, #1520
 336              		.cfi_offset 14, -4
ARM GAS  C:\Users\z80\AppData\Local\Temp\ccI3iGp9.s 			page 7


 337              		.cfi_offset 3, -8
 338 0016 FFF7FEFF 		bl	chHeapInit
 339              		.loc 1 92 0
 340 001a 08BD     		pop	{r3, pc}
 341              		.cfi_endproc
 342              	.LFE8:
 343              		.size	dyn1_setup, .-dyn1_setup
 344 001c AFF30080 		.section	.text.dyn2_execute,"ax",%progbits
 345              		.align	2
 346              		.p2align 4,,15
 347              		.thumb
 348              		.thumb_func
 349              		.type	dyn2_execute, %function
 350              	dyn2_execute:
 351              	.LFB11:
 352              		.loc 1 152 0
 353              		.cfi_startproc
 354              		@ args = 0, pretend = 0, frame = 0
 355              		@ frame_needed = 0, uses_anonymous_args = 0
 356              		.loc 1 154 0
 357 0000 364B     		ldr	r3, .L25
 358              		.loc 1 152 0
 359 0002 70B5     		push	{r4, r5, r6, lr}
 360              	.LCFI6:
 361              		.cfi_def_cfa_offset 16
 362              		.loc 1 154 0
 363 0004 DB69     		ldr	r3, [r3, #28]
 364 0006 364C     		ldr	r4, .L25+4
 365              		.cfi_offset 14, -4
 366              		.cfi_offset 6, -8
 367              		.cfi_offset 5, -12
 368              		.cfi_offset 4, -16
 369 0008 9D68     		ldr	r5, [r3, #8]
 370              		.loc 1 152 0
 371 000a 04F11006 		add	r6, r4, #16
 372              	.LVL14:
 373              	.L14:
 374              		.loc 1 158 0 discriminator 2
 375 000e 54F8041B 		ldr	r1, [r4], #4
 376 0012 3448     		ldr	r0, .L25+8
 377 0014 FFF7FEFF 		bl	chPoolFree
 378              		.loc 1 157 0 discriminator 2
 379 0018 B442     		cmp	r4, r6
 380 001a F8D1     		bne	.L14
 381              		.loc 1 161 0
 382 001c 691E     		subs	r1, r5, #1
 383 001e 324A     		ldr	r2, .L25+12
 384 0020 324B     		ldr	r3, .L25+16
 385 0022 3048     		ldr	r0, .L25+8
 386 0024 FFF7FEFF 		bl	chThdCreateFromMemoryPool
 387 0028 314C     		ldr	r4, .L25+20
 388 002a 8446     		mov	ip, r0
 389              		.loc 1 162 0
 390 002c A91E     		subs	r1, r5, #2
 391 002e 2E4A     		ldr	r2, .L25+12
 392 0030 304B     		ldr	r3, .L25+24
 393              		.loc 1 161 0
ARM GAS  C:\Users\z80\AppData\Local\Temp\ccI3iGp9.s 			page 8


 394 0032 C4F800C0 		str	ip, [r4, #0]
 395              		.loc 1 162 0
 396 0036 2B48     		ldr	r0, .L25+8
 397 0038 FFF7FEFF 		bl	chThdCreateFromMemoryPool
 398 003c 8446     		mov	ip, r0
 399              		.loc 1 163 0
 400 003e E91E     		subs	r1, r5, #3
 401 0040 294A     		ldr	r2, .L25+12
 402 0042 2D4B     		ldr	r3, .L25+28
 403              		.loc 1 162 0
 404 0044 C4F804C0 		str	ip, [r4, #4]
 405              		.loc 1 163 0
 406 0048 2648     		ldr	r0, .L25+8
 407 004a FFF7FEFF 		bl	chThdCreateFromMemoryPool
 408 004e 8446     		mov	ip, r0
 409              		.loc 1 164 0
 410 0050 291F     		subs	r1, r5, #4
 411 0052 254A     		ldr	r2, .L25+12
 412 0054 294B     		ldr	r3, .L25+32
 413              		.loc 1 163 0
 414 0056 C4F808C0 		str	ip, [r4, #8]
 415              		.loc 1 164 0
 416 005a 2248     		ldr	r0, .L25+8
 417 005c FFF7FEFF 		bl	chThdCreateFromMemoryPool
 418 0060 8446     		mov	ip, r0
 419              		.loc 1 165 0
 420 0062 691F     		subs	r1, r5, #5
 421 0064 1F48     		ldr	r0, .L25+8
 422 0066 204A     		ldr	r2, .L25+12
 423 0068 254B     		ldr	r3, .L25+36
 424              		.loc 1 164 0
 425 006a C4F80CC0 		str	ip, [r4, #12]
 426              		.loc 1 165 0
 427 006e FFF7FEFF 		bl	chThdCreateFromMemoryPool
 428              		.loc 1 167 0
 429 0072 2168     		ldr	r1, [r4, #0]
 430              		.loc 1 165 0
 431 0074 2061     		str	r0, [r4, #16]
 432              		.loc 1 167 0
 433 0076 49B1     		cbz	r1, .L15
 434              		.loc 1 167 0 is_stmt 0 discriminator 1
 435 0078 6168     		ldr	r1, [r4, #4]
 436 007a 39B1     		cbz	r1, .L15
 437              		.loc 1 167 0 discriminator 3
 438 007c A168     		ldr	r1, [r4, #8]
 439 007e 29B1     		cbz	r1, .L15
 440              		.loc 1 167 0 discriminator 4
 441 0080 E168     		ldr	r1, [r4, #12]
 442 0082 19B1     		cbz	r1, .L15
 443              		.loc 1 152 0 is_stmt 1 discriminator 5
 444 0084 D0F10101 		rsbs	r1, r0, #1
 445 0088 38BF     		it	cc
 446 008a 0021     		movcc	r1, #0
 447              	.L15:
 448              		.loc 1 167 0 discriminator 7
 449 008c 0120     		movs	r0, #1
 450 008e FFF7FEFF 		bl	_test_assert
ARM GAS  C:\Users\z80\AppData\Local\Temp\ccI3iGp9.s 			page 9


 451 0092 00B1     		cbz	r0, .L24
 452              	.L13:
 453              		.loc 1 182 0
 454 0094 70BD     		pop	{r4, r5, r6, pc}
 455              	.L24:
 456              		.loc 1 175 0
 457 0096 FFF7FEFF 		bl	test_wait_threads
 458              		.loc 1 176 0
 459 009a 0220     		movs	r0, #2
 460 009c 1949     		ldr	r1, .L25+40
 461 009e FFF7FEFF 		bl	_test_assert_sequence
 462 00a2 0028     		cmp	r0, #0
 463 00a4 F6D1     		bne	.L13
 464 00a6 0424     		movs	r4, #4
 465              	.L17:
 466              		.loc 1 180 0
 467 00a8 0E48     		ldr	r0, .L25+8
 468 00aa FFF7FEFF 		bl	chPoolAlloc
 469 00ae 011E     		subs	r1, r0, #0
 470 00b0 18BF     		it	ne
 471 00b2 0121     		movne	r1, #1
 472 00b4 0320     		movs	r0, #3
 473 00b6 FFF7FEFF 		bl	_test_assert
 474 00ba 0028     		cmp	r0, #0
 475 00bc EAD1     		bne	.L13
 476              		.loc 1 179 0
 477 00be 14F1FF34 		adds	r4, r4, #-1
 478 00c2 F1D1     		bne	.L17
 479              		.loc 1 181 0
 480 00c4 0748     		ldr	r0, .L25+8
 481 00c6 FFF7FEFF 		bl	chPoolAlloc
 482 00ca D0F10101 		rsbs	r1, r0, #1
 483 00ce 38BF     		it	cc
 484 00d0 0021     		movcc	r1, #0
 485 00d2 0420     		movs	r0, #4
 486 00d4 FFF7FEFF 		bl	_test_assert
 487 00d8 DCE7     		b	.L13
 488              	.L26:
 489 00da 00BF     		.align	2
 490              	.L25:
 491 00dc 00000000 		.word	rlist
 492 00e0 00000000 		.word	wa
 493 00e4 00000000 		.word	.LANCHOR1
 494 00e8 00000000 		.word	thread
 495 00ec 00000000 		.word	.LC0
 496 00f0 00000000 		.word	threads
 497 00f4 04000000 		.word	.LC1
 498 00f8 08000000 		.word	.LC2
 499 00fc 0C000000 		.word	.LC3
 500 0100 10000000 		.word	.LC4
 501 0104 14000000 		.word	.LC5
 502              		.cfi_endproc
 503              	.LFE11:
 504              		.size	dyn2_execute, .-dyn2_execute
 505 0108 AFF30080 		.section	.text.dyn2_setup,"ax",%progbits
 505      AFF30080 
 506              		.align	2
ARM GAS  C:\Users\z80\AppData\Local\Temp\ccI3iGp9.s 			page 10


 507              		.p2align 4,,15
 508              		.thumb
 509              		.thumb_func
 510              		.type	dyn2_setup, %function
 511              	dyn2_setup:
 512              	.LFB10:
 513              		.loc 1 147 0
 514              		.cfi_startproc
 515              		@ args = 0, pretend = 0, frame = 0
 516              		@ frame_needed = 0, uses_anonymous_args = 0
 517              		.loc 1 149 0
 518 0000 40F20000 		movw	r0, #:lower16:.LANCHOR1
 519              		.loc 1 147 0
 520 0004 08B5     		push	{r3, lr}
 521              	.LCFI7:
 522              		.cfi_def_cfa_offset 8
 523              		.loc 1 149 0
 524 0006 C0F20000 		movt	r0, #:upper16:.LANCHOR1
 525 000a 4FF49871 		mov	r1, #304
 526 000e 0022     		movs	r2, #0
 527              		.cfi_offset 14, -4
 528              		.cfi_offset 3, -8
 529 0010 FFF7FEFF 		bl	chPoolInit
 530              		.loc 1 150 0
 531 0014 08BD     		pop	{r3, pc}
 532              		.cfi_endproc
 533              	.LFE10:
 534              		.size	dyn2_setup, .-dyn2_setup
 535 0016 00BFAFF3 		.section	.text.dyn1_execute,"ax",%progbits
 535      0080AFF3 
 535      0080
 536              		.align	2
 537              		.p2align 4,,15
 538              		.thumb
 539              		.thumb_func
 540              		.type	dyn1_execute, %function
 541              	dyn1_execute:
 542              	.LFB9:
 543              		.loc 1 94 0
 544              		.cfi_startproc
 545              		@ args = 0, pretend = 0, frame = 8
 546              		@ frame_needed = 0, uses_anonymous_args = 0
 547 0000 F0B5     		push	{r4, r5, r6, r7, lr}
 548              	.LCFI8:
 549              		.cfi_def_cfa_offset 20
 550              		.loc 1 97 0
 551 0002 3A4B     		ldr	r3, .L37
 552              		.loc 1 94 0
 553 0004 85B0     		sub	sp, sp, #20
 554              	.LCFI9:
 555              		.cfi_def_cfa_offset 40
 556              		.loc 1 97 0
 557 0006 DB69     		ldr	r3, [r3, #28]
 558              		.loc 1 99 0
 559 0008 02A9     		add	r1, sp, #8
 560              		.loc 1 97 0
 561 000a 9D68     		ldr	r5, [r3, #8]
ARM GAS  C:\Users\z80\AppData\Local\Temp\ccI3iGp9.s 			page 11


 562              		.cfi_offset 14, -4
 563              		.cfi_offset 7, -8
 564              		.cfi_offset 6, -12
 565              		.cfi_offset 5, -16
 566              		.cfi_offset 4, -20
 567              	.LVL15:
 568              		.loc 1 99 0
 569 000c 3848     		ldr	r0, .L37+4
 570 000e FFF7FEFF 		bl	chHeapStatus
 571              		.loc 1 101 0
 572 0012 DFF8E0C0 		ldr	ip, .L37+8
 573 0016 6A1E     		subs	r2, r5, #1
 574 0018 4FF49871 		mov	r1, #304
 575 001c 364B     		ldr	r3, .L37+12
 576 001e 3448     		ldr	r0, .L37+4
 577 0020 CDF800C0 		str	ip, [sp, #0]
 578 0024 FFF7FEFF 		bl	chThdCreateFromHeap
 579 0028 344C     		ldr	r4, .L37+16
 580 002a 8446     		mov	ip, r0
 581 002c C4F800C0 		str	ip, [r4, #0]
 582              		.loc 1 103 0
 583 0030 DFF8CCC0 		ldr	ip, .L37+20
 584 0034 AA1E     		subs	r2, r5, #2
 585 0036 304B     		ldr	r3, .L37+12
 586 0038 4FF49871 		mov	r1, #304
 587 003c 2C48     		ldr	r0, .L37+4
 588 003e CDF800C0 		str	ip, [sp, #0]
 589 0042 FFF7FEFF 		bl	chThdCreateFromHeap
 590              		.loc 1 106 0
 591 0046 03AE     		add	r6, sp, #12
 592              		.loc 1 103 0
 593 0048 0346     		mov	r3, r0
 594              		.loc 1 106 0
 595 004a 3146     		mov	r1, r6
 596 004c 2848     		ldr	r0, .L37+4
 597              		.loc 1 103 0
 598 004e 6360     		str	r3, [r4, #4]
 599              		.loc 1 106 0
 600 0050 FFF7FEFF 		bl	chHeapStatus
 601              	.LVL16:
 602              		.loc 1 107 0
 603 0054 0399     		ldr	r1, [sp, #12]
 604 0056 2648     		ldr	r0, .L37+4
 605 0058 FFF7FEFF 		bl	chHeapAlloc
 606              		.loc 1 108 0
 607 005c DFF8A4C0 		ldr	ip, .L37+24
 608 0060 4FF49871 		mov	r1, #304
 609              		.loc 1 107 0
 610 0064 0746     		mov	r7, r0
 611              	.LVL17:
 612              		.loc 1 108 0
 613 0066 EA1E     		subs	r2, r5, #3
 614 0068 234B     		ldr	r3, .L37+12
 615 006a 2148     		ldr	r0, .L37+4
 616              	.LVL18:
 617 006c CDF800C0 		str	ip, [sp, #0]
 618 0070 FFF7FEFF 		bl	chThdCreateFromHeap
ARM GAS  C:\Users\z80\AppData\Local\Temp\ccI3iGp9.s 			page 12


 619 0074 0346     		mov	r3, r0
 620              		.loc 1 110 0
 621 0076 3846     		mov	r0, r7
 622              		.loc 1 108 0
 623 0078 A360     		str	r3, [r4, #8]
 624              		.loc 1 110 0
 625 007a FFF7FEFF 		bl	chHeapFree
 626              		.loc 1 112 0
 627 007e 2168     		ldr	r1, [r4, #0]
 628 0080 29B1     		cbz	r1, .L29
 629              		.loc 1 112 0 is_stmt 0 discriminator 1
 630 0082 6168     		ldr	r1, [r4, #4]
 631 0084 19B1     		cbz	r1, .L29
 632              		.loc 1 112 0 discriminator 3
 633 0086 A168     		ldr	r1, [r4, #8]
 634 0088 0029     		cmp	r1, #0
 635 008a 25D0     		beq	.L35
 636              		.loc 1 112 0
 637 008c 0021     		movs	r1, #0
 638              	.L29:
 639              		.loc 1 112 0 discriminator 7
 640 008e 0120     		movs	r0, #1
 641 0090 FFF7FEFF 		bl	_test_assert
 642 0094 08B1     		cbz	r0, .L36
 643              	.LVL19:
 644              	.L28:
 645              		.loc 1 126 0 is_stmt 1
 646 0096 05B0     		add	sp, sp, #20
 647 0098 F0BD     		pop	{r4, r5, r6, r7, pc}
 648              	.LVL20:
 649              	.L36:
 650              		.loc 1 120 0
 651 009a FFF7FEFF 		bl	test_wait_threads
 652              		.loc 1 121 0
 653 009e 0220     		movs	r0, #2
 654 00a0 1949     		ldr	r1, .L37+28
 655 00a2 FFF7FEFF 		bl	_test_assert_sequence
 656 00a6 0028     		cmp	r0, #0
 657 00a8 F5D1     		bne	.L28
 658              		.loc 1 124 0
 659 00aa 3146     		mov	r1, r6
 660 00ac 1048     		ldr	r0, .L37+4
 661 00ae FFF7FEFF 		bl	chHeapStatus
 662 00b2 0128     		cmp	r0, #1
 663 00b4 14BF     		ite	ne
 664 00b6 0021     		movne	r1, #0
 665 00b8 0121     		moveq	r1, #1
 666 00ba 0320     		movs	r0, #3
 667 00bc FFF7FEFF 		bl	_test_assert
 668 00c0 0028     		cmp	r0, #0
 669 00c2 E8D1     		bne	.L28
 670              	.LVL21:
 671              		.loc 1 125 0
 672 00c4 029B     		ldr	r3, [sp, #8]
 673 00c6 0399     		ldr	r1, [sp, #12]
 674 00c8 0420     		movs	r0, #4
 675 00ca 9942     		cmp	r1, r3
ARM GAS  C:\Users\z80\AppData\Local\Temp\ccI3iGp9.s 			page 13


 676 00cc 14BF     		ite	ne
 677 00ce 0021     		movne	r1, #0
 678 00d0 0121     		moveq	r1, #1
 679 00d2 FFF7FEFF 		bl	_test_assert
 680 00d6 DEE7     		b	.L28
 681              	.LVL22:
 682              	.L35:
 683              		.loc 1 112 0 discriminator 4
 684 00d8 E368     		ldr	r3, [r4, #12]
 685 00da 002B     		cmp	r3, #0
 686 00dc D7D1     		bne	.L29
 687              		.loc 1 94 0 discriminator 5
 688 00de 2169     		ldr	r1, [r4, #16]
 689 00e0 D1F10101 		rsbs	r1, r1, #1
 690 00e4 38BF     		it	cc
 691 00e6 0021     		movcc	r1, #0
 692 00e8 D1E7     		b	.L29
 693              	.L38:
 694 00ea 00BF     		.align	2
 695              	.L37:
 696 00ec 00000000 		.word	rlist
 697 00f0 00000000 		.word	.LANCHOR0
 698 00f4 00000000 		.word	.LC0
 699 00f8 00000000 		.word	thread
 700 00fc 00000000 		.word	threads
 701 0100 04000000 		.word	.LC1
 702 0104 08000000 		.word	.LC2
 703 0108 1C000000 		.word	.LC6
 704              		.cfi_endproc
 705              	.LFE9:
 706              		.size	dyn1_execute, .-dyn1_execute
 707              		.global	testdyn1
 708              		.global	testdyn2
 709              		.global	testdyn3
 710              		.global	patterndyn
 711 010c AFF30080 		.section	.rodata.testdyn1,"a",%progbits
 712              		.align	2
 713              		.type	testdyn1, %object
 714              		.size	testdyn1, 16
 715              	testdyn1:
 716 0000 20000000 		.word	.LC7
 717 0004 00000000 		.word	dyn1_setup
 718 0008 00000000 		.word	0
 719 000c 00000000 		.word	dyn1_execute
 720              		.section	.rodata.testdyn2,"a",%progbits
 721              		.align	2
 722              		.type	testdyn2, %object
 723              		.size	testdyn2, 16
 724              	testdyn2:
 725 0000 4C000000 		.word	.LC8
 726 0004 00000000 		.word	dyn2_setup
 727 0008 00000000 		.word	0
 728 000c 00000000 		.word	dyn2_execute
 729              		.section	.rodata.testdyn3,"a",%progbits
 730              		.align	2
 731              		.type	testdyn3, %object
 732              		.size	testdyn3, 16
ARM GAS  C:\Users\z80\AppData\Local\Temp\ccI3iGp9.s 			page 14


 733              	testdyn3:
 734 0000 7C000000 		.word	.LC9
 735 0004 00000000 		.word	dyn3_setup
 736 0008 00000000 		.word	0
 737 000c 00000000 		.word	dyn3_execute
 738              		.section	.bss.mp1,"aw",%nobits
 739              		.align	2
 740              		.set	.LANCHOR1,. + 0
 741              		.type	mp1, %object
 742              		.size	mp1, 12
 743              	mp1:
 744 0000 00000000 		.space	12
 744      00000000 
 744      00000000 
 745              		.section	.rodata.str1.4,"aMS",%progbits,1
 746              		.align	2
 747              	.LC0:
 748 0000 4100     		.ascii	"A\000"
 749 0002 0000     		.space	2
 750              	.LC1:
 751 0004 4200     		.ascii	"B\000"
 752 0006 0000     		.space	2
 753              	.LC2:
 754 0008 4300     		.ascii	"C\000"
 755 000a 0000     		.space	2
 756              	.LC3:
 757 000c 4400     		.ascii	"D\000"
 758 000e 0000     		.space	2
 759              	.LC4:
 760 0010 4500     		.ascii	"E\000"
 761 0012 0000     		.space	2
 762              	.LC5:
 763 0014 41424344 		.ascii	"ABCD\000"
 763      00
 764 0019 000000   		.space	3
 765              	.LC6:
 766 001c 414200   		.ascii	"AB\000"
 767 001f 00       		.space	1
 768              	.LC7:
 769 0020 44796E61 		.ascii	"Dynamic APIs, threads creation from heap\000"
 769      6D696320 
 769      41504973 
 769      2C207468 
 769      72656164 
 770 0049 000000   		.space	3
 771              	.LC8:
 772 004c 44796E61 		.ascii	"Dynamic APIs, threads creation from memory pool\000"
 772      6D696320 
 772      41504973 
 772      2C207468 
 772      72656164 
 773              	.LC9:
 774 007c 44796E61 		.ascii	"Dynamic APIs, registry and references\000"
 774      6D696320 
 774      41504973 
 774      2C207265 
 774      67697374 
ARM GAS  C:\Users\z80\AppData\Local\Temp\ccI3iGp9.s 			page 15


 775 00a2 0000     		.section	.rodata.patterndyn,"a",%progbits
 776              		.align	2
 777              		.type	patterndyn, %object
 778              		.size	patterndyn, 16
 779              	patterndyn:
 780 0000 00000000 		.word	testdyn1
 781 0004 00000000 		.word	testdyn2
 782 0008 00000000 		.word	testdyn3
 783 000c 00000000 		.word	0
 784              		.section	.bss.heap1,"aw",%nobits
 785              		.align	3
 786              		.set	.LANCHOR0,. + 0
 787              		.type	heap1, %object
 788              		.size	heap1, 32
 789              	heap1:
 790 0000 00000000 		.space	32
 790      00000000 
 790      00000000 
 790      00000000 
 790      00000000 
 791              		.text
 792              	.Letext0: