ARM GAS  C:\Users\z80\AppData\Local\Temp\cc6Nwez1.s 			page 1


   1              		.syntax unified
   2              		.cpu cortex-m3
   3              		.fpu softvfp
   4              		.eabi_attribute 20, 1
   5              		.eabi_attribute 21, 1
   6              		.eabi_attribute 23, 3
   7              		.eabi_attribute 24, 1
   8              		.eabi_attribute 25, 1
   9              		.eabi_attribute 26, 1
  10              		.eabi_attribute 30, 2
  11              		.eabi_attribute 18, 4
  12              		.thumb
  13              		.file	"testpools.c"
  20 0000 1F010000 		.text
  20      0200CF00 
  20      00000201 
  20      FB0E0D00 
  20      01010101 
  21              	.Ltext0:
  22              		.cfi_sections	.debug_frame
  23              		.section	.text.null_provider,"ax",%progbits
  24              		.align	2
  25              		.p2align 4,,15
  26              		.thumb
  27              		.thumb_func
  28              		.type	null_provider, %function
  29              	null_provider:
  30              	.LFB7:
  31              		.file 1 "../chibios_2.4.x/test/testpools.c"
  32              		.loc 1 71 0
  33              		.cfi_startproc
  34              		@ args = 0, pretend = 0, frame = 0
  35              		@ frame_needed = 0, uses_anonymous_args = 0
  36              		@ link register save eliminated.
  37              	.LVL0:
  38              		.loc 1 75 0
  39 0000 0020     		movs	r0, #0
  40              	.LVL1:
  41 0002 7047     		bx	lr
  42              		.cfi_endproc
  43              	.LFE7:
  44              		.size	null_provider, .-null_provider
  45 0004 AFF30080 		.section	.text.pools1_execute,"ax",%progbits
  45      AFF30080 
  45      AFF30080 
  46              		.align	2
  47              		.p2align 4,,15
  48              		.thumb
  49              		.thumb_func
  50              		.type	pools1_execute, %function
  51              	pools1_execute:
ARM GAS  C:\Users\z80\AppData\Local\Temp\cc6Nwez1.s 			page 2


  52              	.LFB9:
  53              		.loc 1 82 0
  54              		.cfi_startproc
  55              		@ args = 0, pretend = 0, frame = 0
  56              		@ frame_needed = 0, uses_anonymous_args = 0
  57              	.LVL2:
  58 0000 38B5     		push	{r3, r4, r5, lr}
  59              	.LCFI0:
  60              		.cfi_def_cfa_offset 16
  61              		.loc 1 86 0
  62 0002 1A4C     		ldr	r4, .L10
  63              		.cfi_offset 14, -4
  64              		.cfi_offset 5, -8
  65              		.cfi_offset 4, -12
  66              		.cfi_offset 3, -16
  67              		.loc 1 82 0
  68 0004 04F11405 		add	r5, r4, #20
  69              	.LVL3:
  70              	.L3:
  71              		.loc 1 87 0 discriminator 2
  72 0008 54F8041B 		ldr	r1, [r4], #4
  73 000c 1848     		ldr	r0, .L10+4
  74 000e FFF7FEFF 		bl	chPoolFree
  75              		.loc 1 86 0 discriminator 2
  76 0012 AC42     		cmp	r4, r5
  77 0014 F8D1     		bne	.L3
  78              		.loc 1 86 0 is_stmt 0
  79 0016 0524     		movs	r4, #5
  80              	.L5:
  81              		.loc 1 91 0 is_stmt 1
  82 0018 1548     		ldr	r0, .L10+4
  83 001a FFF7FEFF 		bl	chPoolAlloc
  84 001e 011E     		subs	r1, r0, #0
  85 0020 18BF     		it	ne
  86 0022 0121     		movne	r1, #1
  87 0024 0120     		movs	r0, #1
  88 0026 FFF7FEFF 		bl	_test_assert
  89 002a 68B9     		cbnz	r0, .L2
  90              		.loc 1 90 0
  91 002c 14F1FF34 		adds	r4, r4, #-1
  92 0030 F2D1     		bne	.L5
  93              		.loc 1 94 0
  94 0032 0F48     		ldr	r0, .L10+4
  95 0034 FFF7FEFF 		bl	chPoolAlloc
  96 0038 D0F10101 		rsbs	r1, r0, #1
  97 003c 38BF     		it	cc
  98 003e 0021     		movcc	r1, #0
  99 0040 0220     		movs	r0, #2
 100 0042 FFF7FEFF 		bl	_test_assert
 101 0046 00B1     		cbz	r0, .L9
 102              	.L2:
 103              		.loc 1 99 0
 104 0048 38BD     		pop	{r3, r4, r5, pc}
 105              	.L9:
 106              		.loc 1 97 0
 107 004a 1021     		movs	r1, #16
 108 004c 094A     		ldr	r2, .L10+8
ARM GAS  C:\Users\z80\AppData\Local\Temp\cc6Nwez1.s 			page 3


 109 004e 0848     		ldr	r0, .L10+4
 110 0050 FFF7FEFF 		bl	chPoolInit
 111              		.loc 1 98 0
 112 0054 0648     		ldr	r0, .L10+4
 113 0056 FFF7FEFF 		bl	chPoolAlloc
 114 005a D0F10101 		rsbs	r1, r0, #1
 115 005e 38BF     		it	cc
 116 0060 0021     		movcc	r1, #0
 117 0062 0320     		movs	r0, #3
 118 0064 FFF7FEFF 		bl	_test_assert
 119 0068 EEE7     		b	.L2
 120              	.L11:
 121 006a 00BF     		.align	2
 122              	.L10:
 123 006c 00000000 		.word	wa
 124 0070 00000000 		.word	.LANCHOR0
 125 0074 00000000 		.word	null_provider
 126              		.cfi_endproc
 127              	.LFE9:
 128              		.size	pools1_execute, .-pools1_execute
 129 0078 AFF30080 		.section	.text.pools1_setup,"ax",%progbits
 129      AFF30080 
 130              		.align	2
 131              		.p2align 4,,15
 132              		.thumb
 133              		.thumb_func
 134              		.type	pools1_setup, %function
 135              	pools1_setup:
 136              	.LFB8:
 137              		.loc 1 77 0
 138              		.cfi_startproc
 139              		@ args = 0, pretend = 0, frame = 0
 140              		@ frame_needed = 0, uses_anonymous_args = 0
 141              		.loc 1 79 0
 142 0000 40F20000 		movw	r0, #:lower16:.LANCHOR0
 143              		.loc 1 77 0
 144 0004 08B5     		push	{r3, lr}
 145              	.LCFI1:
 146              		.cfi_def_cfa_offset 8
 147              		.loc 1 79 0
 148 0006 C0F20000 		movt	r0, #:upper16:.LANCHOR0
 149 000a 4FF49871 		mov	r1, #304
 150 000e 0022     		movs	r2, #0
 151              		.cfi_offset 14, -4
 152              		.cfi_offset 3, -8
 153 0010 FFF7FEFF 		bl	chPoolInit
 154              		.loc 1 80 0
 155 0014 08BD     		pop	{r3, pc}
 156              		.cfi_endproc
 157              	.LFE8:
 158              		.size	pools1_setup, .-pools1_setup
 159              		.global	testpools1
 160              		.global	patternpools
 161 0016 00BFAFF3 		.section	.rodata.str1.4,"aMS",%progbits,1
 161      0080AFF3 
 161      0080
 162              		.align	2
ARM GAS  C:\Users\z80\AppData\Local\Temp\cc6Nwez1.s 			page 4


 163              	.LC0:
 164 0000 4D656D6F 		.ascii	"Memory Pools, queue/dequeue\000"
 164      72792050 
 164      6F6F6C73 
 164      2C207175 
 164      6575652F 
 165              		.section	.rodata.patternpools,"a",%progbits
 166              		.align	2
 167              		.type	patternpools, %object
 168              		.size	patternpools, 8
 169              	patternpools:
 170 0000 00000000 		.word	testpools1
 171 0004 00000000 		.word	0
 172              		.section	.data.mp1,"aw",%progbits
 173              		.align	2
 174              		.set	.LANCHOR0,. + 0
 175              		.type	mp1, %object
 176              		.size	mp1, 12
 177              	mp1:
 178 0000 00000000 		.word	0
 179 0004 30010000 		.word	304
 180 0008 00000000 		.word	0
 181              		.section	.rodata.testpools1,"a",%progbits
 182              		.align	2
 183              		.type	testpools1, %object
 184              		.size	testpools1, 16
 185              	testpools1:
 186 0000 00000000 		.word	.LC0
 187 0004 00000000 		.word	pools1_setup
 188 0008 00000000 		.word	0
 189 000c 00000000 		.word	pools1_execute
 190              		.text
 191              	.Letext0: