ARM GAS  /tmp/ccW6g9xV.s 			page 1


   1              		.syntax unified
   2              		.cpu cortex-m3
   3              		.fpu softvfp
   4              		.eabi_attribute 20, 1
   5              		.eabi_attribute 21, 1
   6              		.eabi_attribute 23, 3
   7              		.eabi_attribute 24, 1
   8              		.eabi_attribute 25, 1
   9              		.eabi_attribute 26, 1
  10              		.eabi_attribute 30, 6
  11              		.eabi_attribute 18, 4
  12              		.thumb
  13              		.file	"testsem.c"
  20 0000 C7020000 		.text
  20      02007601 
  20      00000201 
  20      FB0E0D00 
  20      01010101 
  21              	.Ltext0:
  22              		.cfi_sections	.debug_frame
  23              		.section	.data.sem1,"aw",%progbits
  24              		.align	2
  25              		.type	sem1, %object
  26              		.size	sem1, 12
  27              	sem1:
  28 0000 00000000 		.word	sem1
  29 0004 00000000 		.word	sem1
  30 0008 00000000 		.word	0
  31              		.section	.text.sem1_setup,"ax",%progbits
  32              		.align	2
  33              		.p2align 4,,15
  34              		.thumb
  35              		.thumb_func
  36              		.type	sem1_setup, %function
  37              	sem1_setup:
  38              	.LFB7:
  39              		.file 1 "../chibios_2.4.x/test/testsem.c"
  40              		.loc 1 83 0
  41              		.cfi_startproc
  42              		@ args = 0, pretend = 0, frame = 0
  43              		@ frame_needed = 0, uses_anonymous_args = 0
  44 0000 08B5     		push	{r3, lr}
  45              	.LCFI0:
  46              		.cfi_def_cfa_offset 8
  47              		.loc 1 85 0
  48 0002 0348     		ldr	r0, .L2
  49 0004 4FF00001 		mov	r1, #0
  50              		.cfi_offset 14, -4
  51              		.cfi_offset 3, -8
  52 0008 FFF7FEFF 		bl	chSemInit
  53              		.loc 1 86 0
ARM GAS  /tmp/ccW6g9xV.s 			page 2


  54 000c 08BD     		pop	{r3, pc}
  55              	.L3:
  56 000e 00BF     		.align	2
  57              	.L2:
  58 0010 00000000 		.word	sem1
  59              		.cfi_endproc
  60              	.LFE7:
  61              		.size	sem1_setup, .-sem1_setup
  62 0014 AFF30080 		.section	.text.thread1,"ax",%progbits
  62      AFF30080 
  62      AFF30080 
  63              		.align	2
  64              		.p2align 4,,15
  65              		.thumb
  66              		.thumb_func
  67              		.type	thread1, %function
  68              	thread1:
  69              	.LFB8:
  70              		.loc 1 88 0
  71              		.cfi_startproc
  72              		@ args = 0, pretend = 0, frame = 8
  73              		@ frame_needed = 0, uses_anonymous_args = 0
  74 0000 00B5     		push	{lr}
  75              	.LCFI1:
  76              		.cfi_def_cfa_offset 4
  77 0002 83B0     		sub	sp, sp, #12
  78              	.LCFI2:
  79              		.cfi_def_cfa_offset 16
  80 0004 0190     		str	r0, [sp, #4]
  81              		.loc 1 90 0
  82 0006 0648     		ldr	r0, .L5
  83              		.cfi_offset 14, -4
  84 0008 FFF7FEFF 		bl	chSemWait
  85              		.loc 1 91 0
  86 000c 019B     		ldr	r3, [sp, #4]
  87 000e 1B78     		ldrb	r3, [r3, #0]	@ zero_extendqisi2
  88 0010 1846     		mov	r0, r3
  89 0012 FFF7FEFF 		bl	test_emit_token
  90              		.loc 1 92 0
  91 0016 4FF00003 		mov	r3, #0
  92              		.loc 1 93 0
  93 001a 1846     		mov	r0, r3
  94 001c 03B0     		add	sp, sp, #12
  95 001e 00BD     		pop	{pc}
  96              	.L6:
  97              		.align	2
  98              	.L5:
  99 0020 00000000 		.word	sem1
 100              		.cfi_endproc
 101              	.LFE8:
 102              		.size	thread1, .-thread1
 103 0024 AFF30080 		.section	.rodata
 103      AFF30080 
 103      AFF30080 
 104              		.align	2
 105              	.LC0:
 106 0000 4100     		.ascii	"A\000"
ARM GAS  /tmp/ccW6g9xV.s 			page 3


 107 0002 0000     		.align	2
 108              	.LC1:
 109 0004 4200     		.ascii	"B\000"
 110 0006 0000     		.align	2
 111              	.LC2:
 112 0008 4300     		.ascii	"C\000"
 113 000a 0000     		.align	2
 114              	.LC3:
 115 000c 4400     		.ascii	"D\000"
 116 000e 0000     		.align	2
 117              	.LC4:
 118 0010 4500     		.ascii	"E\000"
 119 0012 0000     		.align	2
 120              	.LC5:
 121 0014 41424344 		.ascii	"ABCDE\000"
 121      4500
 122              		.section	.text.sem1_execute,"ax",%progbits
 123              		.align	2
 124              		.p2align 4,,15
 125              		.thumb
 126              		.thumb_func
 127              		.type	sem1_execute, %function
 128              	sem1_execute:
 129              	.LFB9:
 130              		.loc 1 95 0
 131              		.cfi_startproc
 132              		@ args = 0, pretend = 0, frame = 0
 133              		@ frame_needed = 0, uses_anonymous_args = 0
 134 0000 00B5     		push	{lr}
 135              	.LCFI3:
 136              		.cfi_def_cfa_offset 4
 137 0002 83B0     		sub	sp, sp, #12
 138              	.LCFI4:
 139              		.cfi_def_cfa_offset 16
 140              		.loc 1 97 0
 141 0004 564B     		ldr	r3, .L10
 142 0006 1A68     		ldr	r2, [r3, #0]
 143 0008 564B     		ldr	r3, .L10+4
 144 000a DB69     		ldr	r3, [r3, #28]
 145 000c 9B68     		ldr	r3, [r3, #8]
 146 000e 03F10503 		add	r3, r3, #5
 147 0012 5549     		ldr	r1, .L10+8
 148 0014 0091     		str	r1, [sp, #0]
 149 0016 1046     		mov	r0, r2
 150 0018 4FF49871 		mov	r1, #304
 151 001c 1A46     		mov	r2, r3
 152 001e 534B     		ldr	r3, .L10+12
 153              		.cfi_offset 14, -4
 154 0020 FFF7FEFF 		bl	chThdCreateStatic
 155 0024 0246     		mov	r2, r0
 156 0026 524B     		ldr	r3, .L10+16
 157 0028 1A60     		str	r2, [r3, #0]
 158              		.loc 1 98 0
 159 002a 4D4B     		ldr	r3, .L10
 160 002c 5A68     		ldr	r2, [r3, #4]
 161 002e 4D4B     		ldr	r3, .L10+4
 162 0030 DB69     		ldr	r3, [r3, #28]
ARM GAS  /tmp/ccW6g9xV.s 			page 4


 163 0032 9B68     		ldr	r3, [r3, #8]
 164 0034 03F10103 		add	r3, r3, #1
 165 0038 4E49     		ldr	r1, .L10+20
 166 003a 0091     		str	r1, [sp, #0]
 167 003c 1046     		mov	r0, r2
 168 003e 4FF49871 		mov	r1, #304
 169 0042 1A46     		mov	r2, r3
 170 0044 494B     		ldr	r3, .L10+12
 171 0046 FFF7FEFF 		bl	chThdCreateStatic
 172 004a 0246     		mov	r2, r0
 173 004c 484B     		ldr	r3, .L10+16
 174 004e 5A60     		str	r2, [r3, #4]
 175              		.loc 1 99 0
 176 0050 434B     		ldr	r3, .L10
 177 0052 9A68     		ldr	r2, [r3, #8]
 178 0054 434B     		ldr	r3, .L10+4
 179 0056 DB69     		ldr	r3, [r3, #28]
 180 0058 9B68     		ldr	r3, [r3, #8]
 181 005a 03F10303 		add	r3, r3, #3
 182 005e 4649     		ldr	r1, .L10+24
 183 0060 0091     		str	r1, [sp, #0]
 184 0062 1046     		mov	r0, r2
 185 0064 4FF49871 		mov	r1, #304
 186 0068 1A46     		mov	r2, r3
 187 006a 404B     		ldr	r3, .L10+12
 188 006c FFF7FEFF 		bl	chThdCreateStatic
 189 0070 0246     		mov	r2, r0
 190 0072 3F4B     		ldr	r3, .L10+16
 191 0074 9A60     		str	r2, [r3, #8]
 192              		.loc 1 100 0
 193 0076 3A4B     		ldr	r3, .L10
 194 0078 DA68     		ldr	r2, [r3, #12]
 195 007a 3A4B     		ldr	r3, .L10+4
 196 007c DB69     		ldr	r3, [r3, #28]
 197 007e 9B68     		ldr	r3, [r3, #8]
 198 0080 03F10403 		add	r3, r3, #4
 199 0084 3D49     		ldr	r1, .L10+28
 200 0086 0091     		str	r1, [sp, #0]
 201 0088 1046     		mov	r0, r2
 202 008a 4FF49871 		mov	r1, #304
 203 008e 1A46     		mov	r2, r3
 204 0090 364B     		ldr	r3, .L10+12
 205 0092 FFF7FEFF 		bl	chThdCreateStatic
 206 0096 0246     		mov	r2, r0
 207 0098 354B     		ldr	r3, .L10+16
 208 009a DA60     		str	r2, [r3, #12]
 209              		.loc 1 101 0
 210 009c 304B     		ldr	r3, .L10
 211 009e 1A69     		ldr	r2, [r3, #16]
 212 00a0 304B     		ldr	r3, .L10+4
 213 00a2 DB69     		ldr	r3, [r3, #28]
 214 00a4 9B68     		ldr	r3, [r3, #8]
 215 00a6 03F10203 		add	r3, r3, #2
 216 00aa 3549     		ldr	r1, .L10+32
 217 00ac 0091     		str	r1, [sp, #0]
 218 00ae 1046     		mov	r0, r2
 219 00b0 4FF49871 		mov	r1, #304
ARM GAS  /tmp/ccW6g9xV.s 			page 5


 220 00b4 1A46     		mov	r2, r3
 221 00b6 2D4B     		ldr	r3, .L10+12
 222 00b8 FFF7FEFF 		bl	chThdCreateStatic
 223 00bc 0246     		mov	r2, r0
 224 00be 2C4B     		ldr	r3, .L10+16
 225 00c0 1A61     		str	r2, [r3, #16]
 226              		.loc 1 102 0
 227 00c2 3048     		ldr	r0, .L10+36
 228 00c4 FFF7FEFF 		bl	chSemSignal
 229              		.loc 1 103 0
 230 00c8 2E48     		ldr	r0, .L10+36
 231 00ca FFF7FEFF 		bl	chSemSignal
 232              		.loc 1 104 0
 233 00ce 2D48     		ldr	r0, .L10+36
 234 00d0 FFF7FEFF 		bl	chSemSignal
 235              		.loc 1 105 0
 236 00d4 2B48     		ldr	r0, .L10+36
 237 00d6 FFF7FEFF 		bl	chSemSignal
 238              		.loc 1 106 0
 239 00da 2A48     		ldr	r0, .L10+36
 240 00dc FFF7FEFF 		bl	chSemSignal
 241              		.loc 1 107 0
 242 00e0 FFF7FEFF 		bl	test_wait_threads
 243              		.loc 1 111 0
 244 00e4 4FF00100 		mov	r0, #1
 245 00e8 2749     		ldr	r1, .L10+40
 246 00ea FFF7FEFF 		bl	_test_assert_sequence
 247 00ee 0346     		mov	r3, r0
 248 00f0 002B     		cmp	r3, #0
 249 00f2 32D1     		bne	.L7
 250              	.L8:
 251              		.loc 1 113 0
 252 00f4 1A4B     		ldr	r3, .L10
 253 00f6 1A68     		ldr	r2, [r3, #0]
 254 00f8 1A4B     		ldr	r3, .L10+4
 255 00fa DB69     		ldr	r3, [r3, #28]
 256 00fc 9B68     		ldr	r3, [r3, #8]
 257 00fe 03F10503 		add	r3, r3, #5
 258 0102 1949     		ldr	r1, .L10+8
 259 0104 0091     		str	r1, [sp, #0]
 260 0106 1046     		mov	r0, r2
 261 0108 4FF49871 		mov	r1, #304
 262 010c 1A46     		mov	r2, r3
 263 010e 174B     		ldr	r3, .L10+12
 264 0110 FFF7FEFF 		bl	chThdCreateStatic
 265 0114 0246     		mov	r2, r0
 266 0116 164B     		ldr	r3, .L10+16
 267 0118 1A60     		str	r2, [r3, #0]
 268              	.LBB2:
 269              		.loc 1 114 0
 270 011a 4FF02003 		mov	r3, #32
 271              	@ 114 "../chibios_2.4.x/test/testsem.c" 1
 272 011e 83F31188 		msr     BASEPRI, r3
 273              	@ 0 "" 2
 274              		.thumb
 275              	.LBE2:
 276 0122 FFF7FEFF 		bl	dbg_check_lock
ARM GAS  /tmp/ccW6g9xV.s 			page 6


 277              		.loc 1 115 0
 278 0126 1748     		ldr	r0, .L10+36
 279 0128 4FF00201 		mov	r1, #2
 280 012c FFF7FEFF 		bl	chSemAddCounterI
 281              		.loc 1 116 0
 282 0130 FFF7FEFF 		bl	dbg_check_unlock
 283              	.LBB3:
 284 0134 4FF00003 		mov	r3, #0
 285              	@ 116 "../chibios_2.4.x/test/testsem.c" 1
 286 0138 83F31188 		msr     BASEPRI, r3
 287              	@ 0 "" 2
 288              		.thumb
 289              	.LBE3:
 290              		.loc 1 117 0
 291 013c FFF7FEFF 		bl	test_wait_threads
 292              		.loc 1 118 0
 293 0140 104B     		ldr	r3, .L10+36
 294 0142 9B68     		ldr	r3, [r3, #8]
 295 0144 012B     		cmp	r3, #1
 296 0146 14BF     		ite	ne
 297 0148 0023     		movne	r3, #0
 298 014a 0123     		moveq	r3, #1
 299 014c 4FF00200 		mov	r0, #2
 300 0150 1946     		mov	r1, r3
 301 0152 FFF7FEFF 		bl	_test_assert
 302 0156 0346     		mov	r3, r0
 303 0158 002B     		cmp	r3, #0
 304              	.L7:
 305              		.loc 1 119 0
 306 015a 03B0     		add	sp, sp, #12
 307 015c 00BD     		pop	{pc}
 308              	.L11:
 309 015e 00BF     		.align	2
 310              	.L10:
 311 0160 00000000 		.word	wa
 312 0164 00000000 		.word	rlist
 313 0168 00000000 		.word	.LC0
 314 016c 00000000 		.word	thread1
 315 0170 00000000 		.word	threads
 316 0174 04000000 		.word	.LC1
 317 0178 08000000 		.word	.LC2
 318 017c 0C000000 		.word	.LC3
 319 0180 10000000 		.word	.LC4
 320 0184 00000000 		.word	sem1
 321 0188 14000000 		.word	.LC5
 322              		.cfi_endproc
 323              	.LFE9:
 324              		.size	sem1_execute, .-sem1_execute
 325              		.global	testsem1
 326 018c AFF30080 		.section	.rodata
 327 001a 0000     		.align	2
 328              	.LC6:
 329 001c 53656D61 		.ascii	"Semaphores, enqueuing\000"
 329      70686F72 
 329      65732C20 
 329      656E7175 
 329      6575696E 
ARM GAS  /tmp/ccW6g9xV.s 			page 7


 330              		.section	.rodata.testsem1,"a",%progbits
 331              		.align	2
 332              		.type	testsem1, %object
 333              		.size	testsem1, 16
 334              	testsem1:
 335 0000 1C000000 		.word	.LC6
 336 0004 00000000 		.word	sem1_setup
 337 0008 00000000 		.word	0
 338 000c 00000000 		.word	sem1_execute
 339              		.section	.text.sem2_setup,"ax",%progbits
 340              		.align	2
 341              		.p2align 4,,15
 342              		.thumb
 343              		.thumb_func
 344              		.type	sem2_setup, %function
 345              	sem2_setup:
 346              	.LFB10:
 347              		.loc 1 139 0
 348              		.cfi_startproc
 349              		@ args = 0, pretend = 0, frame = 0
 350              		@ frame_needed = 0, uses_anonymous_args = 0
 351 0000 08B5     		push	{r3, lr}
 352              	.LCFI5:
 353              		.cfi_def_cfa_offset 8
 354              		.loc 1 141 0
 355 0002 0348     		ldr	r0, .L13
 356 0004 4FF00001 		mov	r1, #0
 357              		.cfi_offset 14, -4
 358              		.cfi_offset 3, -8
 359 0008 FFF7FEFF 		bl	chSemInit
 360              		.loc 1 142 0
 361 000c 08BD     		pop	{r3, pc}
 362              	.L14:
 363 000e 00BF     		.align	2
 364              	.L13:
 365 0010 00000000 		.word	sem1
 366              		.cfi_endproc
 367              	.LFE10:
 368              		.size	sem2_setup, .-sem2_setup
 369 0014 AFF30080 		.section	.text.thread2,"ax",%progbits
 369      AFF30080 
 369      AFF30080 
 370              		.align	2
 371              		.p2align 4,,15
 372              		.thumb
 373              		.thumb_func
 374              		.type	thread2, %function
 375              	thread2:
 376              	.LFB11:
 377              		.loc 1 144 0
 378              		.cfi_startproc
 379              		@ args = 0, pretend = 0, frame = 8
 380              		@ frame_needed = 0, uses_anonymous_args = 0
 381 0000 00B5     		push	{lr}
 382              	.LCFI6:
 383              		.cfi_def_cfa_offset 4
 384 0002 83B0     		sub	sp, sp, #12
ARM GAS  /tmp/ccW6g9xV.s 			page 8


 385              	.LCFI7:
 386              		.cfi_def_cfa_offset 16
 387 0004 0190     		str	r0, [sp, #4]
 388              		.loc 1 147 0
 389 0006 4FF01900 		mov	r0, #25
 390              		.cfi_offset 14, -4
 391 000a FFF7FEFF 		bl	chThdSleep
 392              	.LBB4:
 393              		.loc 1 148 0
 394 000e 4FF02003 		mov	r3, #32
 395              	@ 148 "../chibios_2.4.x/test/testsem.c" 1
 396 0012 83F31188 		msr     BASEPRI, r3
 397              	@ 0 "" 2
 398              		.thumb
 399              	.LBE4:
 400 0016 FFF7FEFF 		bl	dbg_check_lock
 401              		.loc 1 149 0
 402 001a 0848     		ldr	r0, .L16
 403 001c FFF7FEFF 		bl	chSemSignalI
 404              		.loc 1 150 0
 405 0020 FFF7FEFF 		bl	chSchRescheduleS
 406              		.loc 1 151 0
 407 0024 FFF7FEFF 		bl	dbg_check_unlock
 408              	.LBB5:
 409 0028 4FF00003 		mov	r3, #0
 410              	@ 151 "../chibios_2.4.x/test/testsem.c" 1
 411 002c 83F31188 		msr     BASEPRI, r3
 412              	@ 0 "" 2
 413              		.thumb
 414              	.LBE5:
 415              		.loc 1 152 0
 416 0030 4FF00003 		mov	r3, #0
 417              		.loc 1 153 0
 418 0034 1846     		mov	r0, r3
 419 0036 03B0     		add	sp, sp, #12
 420 0038 00BD     		pop	{pc}
 421              	.L17:
 422 003a 00BF     		.align	2
 423              	.L16:
 424 003c 00000000 		.word	sem1
 425              		.cfi_endproc
 426              	.LFE11:
 427              		.size	thread2, .-thread2
 428              		.section	.text.sem2_execute,"ax",%progbits
 429              		.align	2
 430              		.p2align 4,,15
 431              		.thumb
 432              		.thumb_func
 433              		.type	sem2_execute, %function
 434              	sem2_execute:
 435              	.LFB12:
 436              		.loc 1 155 0
 437              		.cfi_startproc
 438              		@ args = 0, pretend = 0, frame = 16
 439              		@ frame_needed = 0, uses_anonymous_args = 0
 440 0000 00B5     		push	{lr}
 441              	.LCFI8:
ARM GAS  /tmp/ccW6g9xV.s 			page 9


 442              		.cfi_def_cfa_offset 4
 443 0002 87B0     		sub	sp, sp, #28
 444              	.LCFI9:
 445              		.cfi_def_cfa_offset 32
 446              		.loc 1 163 0
 447 0004 6D48     		ldr	r0, .L32
 448 0006 4FF00001 		mov	r1, #0
 449              		.cfi_offset 14, -4
 450 000a FFF7FEFF 		bl	chSemWaitTimeout
 451 000e 0490     		str	r0, [sp, #16]
 452              		.loc 1 164 0
 453 0010 049B     		ldr	r3, [sp, #16]
 454 0012 B3F1FF3F 		cmp	r3, #-1
 455 0016 14BF     		ite	ne
 456 0018 0023     		movne	r3, #0
 457 001a 0123     		moveq	r3, #1
 458 001c 4FF00100 		mov	r0, #1
 459 0020 1946     		mov	r1, r3
 460 0022 FFF7FEFF 		bl	_test_assert
 461 0026 0346     		mov	r3, r0
 462 0028 002B     		cmp	r3, #0
 463 002a 40F0C580 		bne	.L18
 464              	.L19:
 465              		.loc 1 165 0
 466 002e 634B     		ldr	r3, .L32
 467 0030 1A68     		ldr	r2, [r3, #0]
 468 0032 624B     		ldr	r3, .L32
 469 0034 9A42     		cmp	r2, r3
 470 0036 14BF     		ite	ne
 471 0038 0023     		movne	r3, #0
 472 003a 0123     		moveq	r3, #1
 473 003c 4FF00200 		mov	r0, #2
 474 0040 1946     		mov	r1, r3
 475 0042 FFF7FEFF 		bl	_test_assert
 476 0046 0346     		mov	r3, r0
 477 0048 002B     		cmp	r3, #0
 478 004a 40F0B580 		bne	.L18
 479              	.L21:
 480              		.loc 1 166 0
 481 004e 5B4B     		ldr	r3, .L32
 482 0050 9B68     		ldr	r3, [r3, #8]
 483 0052 002B     		cmp	r3, #0
 484 0054 14BF     		ite	ne
 485 0056 0023     		movne	r3, #0
 486 0058 0123     		moveq	r3, #1
 487 005a 4FF00300 		mov	r0, #3
 488 005e 1946     		mov	r1, r3
 489 0060 FFF7FEFF 		bl	_test_assert
 490 0064 0346     		mov	r3, r0
 491 0066 002B     		cmp	r3, #0
 492 0068 40F0A680 		bne	.L18
 493              	.L22:
 494              		.loc 1 171 0
 495 006c 544B     		ldr	r3, .L32+4
 496 006e 1A68     		ldr	r2, [r3, #0]
 497 0070 544B     		ldr	r3, .L32+8
 498 0072 DB69     		ldr	r3, [r3, #28]
ARM GAS  /tmp/ccW6g9xV.s 			page 10


 499 0074 9B68     		ldr	r3, [r3, #8]
 500 0076 03F1FF33 		add	r3, r3, #-1
 501 007a 4FF00001 		mov	r1, #0
 502 007e 0091     		str	r1, [sp, #0]
 503 0080 1046     		mov	r0, r2
 504 0082 4FF49871 		mov	r1, #304
 505 0086 1A46     		mov	r2, r3
 506 0088 4F4B     		ldr	r3, .L32+12
 507 008a FFF7FEFF 		bl	chThdCreateStatic
 508 008e 0246     		mov	r2, r0
 509 0090 4E4B     		ldr	r3, .L32+16
 510 0092 1A60     		str	r2, [r3, #0]
 511              		.loc 1 173 0
 512 0094 4948     		ldr	r0, .L32
 513 0096 4FF0FA01 		mov	r1, #250
 514 009a FFF7FEFF 		bl	chSemWaitTimeout
 515 009e 0490     		str	r0, [sp, #16]
 516              		.loc 1 174 0
 517 00a0 FFF7FEFF 		bl	test_wait_threads
 518              		.loc 1 175 0
 519 00a4 049B     		ldr	r3, [sp, #16]
 520 00a6 002B     		cmp	r3, #0
 521 00a8 14BF     		ite	ne
 522 00aa 0023     		movne	r3, #0
 523 00ac 0123     		moveq	r3, #1
 524 00ae 4FF00400 		mov	r0, #4
 525 00b2 1946     		mov	r1, r3
 526 00b4 FFF7FEFF 		bl	_test_assert
 527 00b8 0346     		mov	r3, r0
 528 00ba 002B     		cmp	r3, #0
 529 00bc 7CD1     		bne	.L18
 530              	.L23:
 531              		.loc 1 176 0
 532 00be 3F4B     		ldr	r3, .L32
 533 00c0 1A68     		ldr	r2, [r3, #0]
 534 00c2 3E4B     		ldr	r3, .L32
 535 00c4 9A42     		cmp	r2, r3
 536 00c6 14BF     		ite	ne
 537 00c8 0023     		movne	r3, #0
 538 00ca 0123     		moveq	r3, #1
 539 00cc 4FF00500 		mov	r0, #5
 540 00d0 1946     		mov	r1, r3
 541 00d2 FFF7FEFF 		bl	_test_assert
 542 00d6 0346     		mov	r3, r0
 543 00d8 002B     		cmp	r3, #0
 544 00da 6DD1     		bne	.L18
 545              	.L24:
 546              		.loc 1 177 0
 547 00dc 374B     		ldr	r3, .L32
 548 00de 9B68     		ldr	r3, [r3, #8]
 549 00e0 002B     		cmp	r3, #0
 550 00e2 14BF     		ite	ne
 551 00e4 0023     		movne	r3, #0
 552 00e6 0123     		moveq	r3, #1
 553 00e8 4FF00600 		mov	r0, #6
 554 00ec 1946     		mov	r1, r3
 555 00ee FFF7FEFF 		bl	_test_assert
ARM GAS  /tmp/ccW6g9xV.s 			page 11


 556 00f2 0346     		mov	r3, r0
 557 00f4 002B     		cmp	r3, #0
 558 00f6 5FD1     		bne	.L18
 559              	.L25:
 560              		.loc 1 182 0
 561 00f8 FFF7FEFF 		bl	test_wait_tick
 562              		.loc 1 183 0
 563 00fc 344B     		ldr	r3, .L32+20
 564 00fe DB68     		ldr	r3, [r3, #12]
 565 0100 03F59C63 		add	r3, r3, #1248
 566 0104 03F10203 		add	r3, r3, #2
 567 0108 0393     		str	r3, [sp, #12]
 568              		.loc 1 184 0
 569 010a 4FF00003 		mov	r3, #0
 570 010e 0593     		str	r3, [sp, #20]
 571 0110 3CE0     		b	.L26
 572              	.L30:
 573              		.loc 1 185 0
 574 0112 059B     		ldr	r3, [sp, #20]
 575 0114 DBB2     		uxtb	r3, r3
 576 0116 03F14103 		add	r3, r3, #65
 577 011a DBB2     		uxtb	r3, r3
 578 011c 1846     		mov	r0, r3
 579 011e FFF7FEFF 		bl	test_emit_token
 580              		.loc 1 186 0
 581 0122 2648     		ldr	r0, .L32
 582 0124 4FF0FA01 		mov	r1, #250
 583 0128 FFF7FEFF 		bl	chSemWaitTimeout
 584 012c 0490     		str	r0, [sp, #16]
 585              		.loc 1 187 0
 586 012e 049B     		ldr	r3, [sp, #16]
 587 0130 B3F1FF3F 		cmp	r3, #-1
 588 0134 14BF     		ite	ne
 589 0136 0023     		movne	r3, #0
 590 0138 0123     		moveq	r3, #1
 591 013a 4FF00700 		mov	r0, #7
 592 013e 1946     		mov	r1, r3
 593 0140 FFF7FEFF 		bl	_test_assert
 594 0144 0346     		mov	r3, r0
 595 0146 002B     		cmp	r3, #0
 596 0148 36D1     		bne	.L18
 597              	.L27:
 598              		.loc 1 188 0
 599 014a 1C4B     		ldr	r3, .L32
 600 014c 1A68     		ldr	r2, [r3, #0]
 601 014e 1B4B     		ldr	r3, .L32
 602 0150 9A42     		cmp	r2, r3
 603 0152 14BF     		ite	ne
 604 0154 0023     		movne	r3, #0
 605 0156 0123     		moveq	r3, #1
 606 0158 4FF00800 		mov	r0, #8
 607 015c 1946     		mov	r1, r3
 608 015e FFF7FEFF 		bl	_test_assert
 609 0162 0346     		mov	r3, r0
 610 0164 002B     		cmp	r3, #0
 611 0166 27D1     		bne	.L18
 612              	.L28:
ARM GAS  /tmp/ccW6g9xV.s 			page 12


 613              		.loc 1 189 0
 614 0168 144B     		ldr	r3, .L32
 615 016a 9B68     		ldr	r3, [r3, #8]
 616 016c 002B     		cmp	r3, #0
 617 016e 14BF     		ite	ne
 618 0170 0023     		movne	r3, #0
 619 0172 0123     		moveq	r3, #1
 620 0174 4FF00900 		mov	r0, #9
 621 0178 1946     		mov	r1, r3
 622 017a FFF7FEFF 		bl	_test_assert
 623 017e 0346     		mov	r3, r0
 624 0180 002B     		cmp	r3, #0
 625 0182 19D1     		bne	.L18
 626              	.L29:
 627              		.loc 1 184 0
 628 0184 059B     		ldr	r3, [sp, #20]
 629 0186 03F10103 		add	r3, r3, #1
 630 018a 0593     		str	r3, [sp, #20]
 631              	.L26:
 632              		.loc 1 184 0 is_stmt 0 discriminator 1
 633 018c 059B     		ldr	r3, [sp, #20]
 634 018e 042B     		cmp	r3, #4
 635 0190 BFDD     		ble	.L30
 636              		.loc 1 191 0 is_stmt 1
 637 0192 4FF00A00 		mov	r0, #10
 638 0196 0F49     		ldr	r1, .L32+24
 639 0198 FFF7FEFF 		bl	_test_assert_sequence
 640 019c 0346     		mov	r3, r0
 641 019e 002B     		cmp	r3, #0
 642 01a0 0AD1     		bne	.L18
 643              	.L31:
 644              		.loc 1 192 0
 645 01a2 039B     		ldr	r3, [sp, #12]
 646 01a4 03F10303 		add	r3, r3, #3
 647 01a8 4FF00B00 		mov	r0, #11
 648 01ac 0399     		ldr	r1, [sp, #12]
 649 01ae 1A46     		mov	r2, r3
 650 01b0 FFF7FEFF 		bl	_test_assert_time_window
 651 01b4 0346     		mov	r3, r0
 652 01b6 002B     		cmp	r3, #0
 653              	.L18:
 654              		.loc 1 193 0
 655 01b8 07B0     		add	sp, sp, #28
 656 01ba 00BD     		pop	{pc}
 657              	.L33:
 658              		.align	2
 659              	.L32:
 660 01bc 00000000 		.word	sem1
 661 01c0 00000000 		.word	wa
 662 01c4 00000000 		.word	rlist
 663 01c8 00000000 		.word	thread2
 664 01cc 00000000 		.word	threads
 665 01d0 00000000 		.word	vtlist
 666 01d4 14000000 		.word	.LC5
 667              		.cfi_endproc
 668              	.LFE12:
 669              		.size	sem2_execute, .-sem2_execute
ARM GAS  /tmp/ccW6g9xV.s 			page 13


 670              		.global	testsem2
 671 01d8 AFF30080 		.section	.rodata
 671      AFF30080 
 672 0032 0000     		.align	2
 673              	.LC7:
 674 0034 53656D61 		.ascii	"Semaphores, timeout\000"
 674      70686F72 
 674      65732C20 
 674      74696D65 
 674      6F757400 
 675              		.section	.rodata.testsem2,"a",%progbits
 676              		.align	2
 677              		.type	testsem2, %object
 678              		.size	testsem2, 16
 679              	testsem2:
 680 0000 34000000 		.word	.LC7
 681 0004 00000000 		.word	sem2_setup
 682 0008 00000000 		.word	0
 683 000c 00000000 		.word	sem2_execute
 684              		.section	.text.sem3_setup,"ax",%progbits
 685              		.align	2
 686              		.p2align 4,,15
 687              		.thumb
 688              		.thumb_func
 689              		.type	sem3_setup, %function
 690              	sem3_setup:
 691              	.LFB13:
 692              		.loc 1 215 0
 693              		.cfi_startproc
 694              		@ args = 0, pretend = 0, frame = 0
 695              		@ frame_needed = 0, uses_anonymous_args = 0
 696 0000 08B5     		push	{r3, lr}
 697              	.LCFI10:
 698              		.cfi_def_cfa_offset 8
 699              		.loc 1 217 0
 700 0002 0348     		ldr	r0, .L35
 701 0004 4FF00001 		mov	r1, #0
 702              		.cfi_offset 14, -4
 703              		.cfi_offset 3, -8
 704 0008 FFF7FEFF 		bl	chSemInit
 705              		.loc 1 218 0
 706 000c 08BD     		pop	{r3, pc}
 707              	.L36:
 708 000e 00BF     		.align	2
 709              	.L35:
 710 0010 00000000 		.word	sem1
 711              		.cfi_endproc
 712              	.LFE13:
 713              		.size	sem3_setup, .-sem3_setup
 714 0014 AFF30080 		.section	.text.thread3,"ax",%progbits
 714      AFF30080 
 714      AFF30080 
 715              		.align	2
 716              		.p2align 4,,15
 717              		.thumb
 718              		.thumb_func
 719              		.type	thread3, %function
ARM GAS  /tmp/ccW6g9xV.s 			page 14


 720              	thread3:
 721              	.LFB14:
 722              		.loc 1 220 0
 723              		.cfi_startproc
 724              		@ args = 0, pretend = 0, frame = 8
 725              		@ frame_needed = 0, uses_anonymous_args = 0
 726 0000 00B5     		push	{lr}
 727              	.LCFI11:
 728              		.cfi_def_cfa_offset 4
 729 0002 83B0     		sub	sp, sp, #12
 730              	.LCFI12:
 731              		.cfi_def_cfa_offset 16
 732 0004 0190     		str	r0, [sp, #4]
 733              		.loc 1 223 0
 734 0006 0548     		ldr	r0, .L38
 735              		.cfi_offset 14, -4
 736 0008 FFF7FEFF 		bl	chSemWait
 737              		.loc 1 224 0
 738 000c 0348     		ldr	r0, .L38
 739 000e FFF7FEFF 		bl	chSemSignal
 740              		.loc 1 225 0
 741 0012 4FF00003 		mov	r3, #0
 742              		.loc 1 226 0
 743 0016 1846     		mov	r0, r3
 744 0018 03B0     		add	sp, sp, #12
 745 001a 00BD     		pop	{pc}
 746              	.L39:
 747              		.align	2
 748              	.L38:
 749 001c 00000000 		.word	sem1
 750              		.cfi_endproc
 751              	.LFE14:
 752              		.size	thread3, .-thread3
 753              		.section	.text.sem3_execute,"ax",%progbits
 754              		.align	2
 755              		.p2align 4,,15
 756              		.thumb
 757              		.thumb_func
 758              		.type	sem3_execute, %function
 759              	sem3_execute:
 760              	.LFB15:
 761              		.loc 1 228 0
 762              		.cfi_startproc
 763              		@ args = 0, pretend = 0, frame = 0
 764              		@ frame_needed = 0, uses_anonymous_args = 0
 765 0000 00B5     		push	{lr}
 766              	.LCFI13:
 767              		.cfi_def_cfa_offset 4
 768 0002 83B0     		sub	sp, sp, #12
 769              	.LCFI14:
 770              		.cfi_def_cfa_offset 16
 771              		.loc 1 230 0
 772 0004 2B4B     		ldr	r3, .L45
 773 0006 1A68     		ldr	r2, [r3, #0]
 774 0008 2B4B     		ldr	r3, .L45+4
 775 000a DB69     		ldr	r3, [r3, #28]
 776 000c 9B68     		ldr	r3, [r3, #8]
ARM GAS  /tmp/ccW6g9xV.s 			page 15


 777 000e 03F10103 		add	r3, r3, #1
 778 0012 4FF00001 		mov	r1, #0
 779 0016 0091     		str	r1, [sp, #0]
 780 0018 1046     		mov	r0, r2
 781 001a 4FF49871 		mov	r1, #304
 782 001e 1A46     		mov	r2, r3
 783 0020 264B     		ldr	r3, .L45+8
 784              		.cfi_offset 14, -4
 785 0022 FFF7FEFF 		bl	chThdCreateStatic
 786 0026 0246     		mov	r2, r0
 787 0028 254B     		ldr	r3, .L45+12
 788 002a 1A60     		str	r2, [r3, #0]
 789              		.loc 1 231 0
 790 002c 2548     		ldr	r0, .L45+16
 791 002e 2549     		ldr	r1, .L45+16
 792 0030 FFF7FEFF 		bl	chSemSignalWait
 793              		.loc 1 232 0
 794 0034 234B     		ldr	r3, .L45+16
 795 0036 1A68     		ldr	r2, [r3, #0]
 796 0038 224B     		ldr	r3, .L45+16
 797 003a 9A42     		cmp	r2, r3
 798 003c 14BF     		ite	ne
 799 003e 0023     		movne	r3, #0
 800 0040 0123     		moveq	r3, #1
 801 0042 4FF00100 		mov	r0, #1
 802 0046 1946     		mov	r1, r3
 803 0048 FFF7FEFF 		bl	_test_assert
 804 004c 0346     		mov	r3, r0
 805 004e 002B     		cmp	r3, #0
 806 0050 2DD1     		bne	.L40
 807              	.L41:
 808              		.loc 1 233 0
 809 0052 1C4B     		ldr	r3, .L45+16
 810 0054 9B68     		ldr	r3, [r3, #8]
 811 0056 002B     		cmp	r3, #0
 812 0058 14BF     		ite	ne
 813 005a 0023     		movne	r3, #0
 814 005c 0123     		moveq	r3, #1
 815 005e 4FF00200 		mov	r0, #2
 816 0062 1946     		mov	r1, r3
 817 0064 FFF7FEFF 		bl	_test_assert
 818 0068 0346     		mov	r3, r0
 819 006a 002B     		cmp	r3, #0
 820 006c 1FD1     		bne	.L40
 821              	.L43:
 822              		.loc 1 235 0
 823 006e 1548     		ldr	r0, .L45+16
 824 0070 1449     		ldr	r1, .L45+16
 825 0072 FFF7FEFF 		bl	chSemSignalWait
 826              		.loc 1 236 0
 827 0076 134B     		ldr	r3, .L45+16
 828 0078 1A68     		ldr	r2, [r3, #0]
 829 007a 124B     		ldr	r3, .L45+16
 830 007c 9A42     		cmp	r2, r3
 831 007e 14BF     		ite	ne
 832 0080 0023     		movne	r3, #0
 833 0082 0123     		moveq	r3, #1
ARM GAS  /tmp/ccW6g9xV.s 			page 16


 834 0084 4FF00300 		mov	r0, #3
 835 0088 1946     		mov	r1, r3
 836 008a FFF7FEFF 		bl	_test_assert
 837 008e 0346     		mov	r3, r0
 838 0090 002B     		cmp	r3, #0
 839 0092 0CD1     		bne	.L40
 840              	.L44:
 841              		.loc 1 237 0
 842 0094 0B4B     		ldr	r3, .L45+16
 843 0096 9B68     		ldr	r3, [r3, #8]
 844 0098 002B     		cmp	r3, #0
 845 009a 14BF     		ite	ne
 846 009c 0023     		movne	r3, #0
 847 009e 0123     		moveq	r3, #1
 848 00a0 4FF00400 		mov	r0, #4
 849 00a4 1946     		mov	r1, r3
 850 00a6 FFF7FEFF 		bl	_test_assert
 851 00aa 0346     		mov	r3, r0
 852 00ac 002B     		cmp	r3, #0
 853              	.L40:
 854              		.loc 1 238 0
 855 00ae 03B0     		add	sp, sp, #12
 856 00b0 00BD     		pop	{pc}
 857              	.L46:
 858 00b2 00BF     		.align	2
 859              	.L45:
 860 00b4 00000000 		.word	wa
 861 00b8 00000000 		.word	rlist
 862 00bc 00000000 		.word	thread3
 863 00c0 00000000 		.word	threads
 864 00c4 00000000 		.word	sem1
 865              		.cfi_endproc
 866              	.LFE15:
 867              		.size	sem3_execute, .-sem3_execute
 868              		.global	testsem3
 869 00c8 AFF30080 		.section	.rodata
 869      AFF30080 
 870              		.align	2
 871              	.LC8:
 872 0048 53656D61 		.ascii	"Semaphores, atomic signal-wait\000"
 872      70686F72 
 872      65732C20 
 872      61746F6D 
 872      69632073 
 873              		.section	.rodata.testsem3,"a",%progbits
 874              		.align	2
 875              		.type	testsem3, %object
 876              		.size	testsem3, 16
 877              	testsem3:
 878 0000 48000000 		.word	.LC8
 879 0004 00000000 		.word	sem3_setup
 880 0008 00000000 		.word	0
 881 000c 00000000 		.word	sem3_execute
 882              		.section	.text.thread4,"ax",%progbits
 883              		.align	2
 884              		.p2align 4,,15
 885              		.thumb
ARM GAS  /tmp/ccW6g9xV.s 			page 17


 886              		.thumb_func
 887              		.type	thread4, %function
 888              	thread4:
 889              	.LFB16:
 890              		.loc 1 256 0
 891              		.cfi_startproc
 892              		@ args = 0, pretend = 0, frame = 8
 893              		@ frame_needed = 0, uses_anonymous_args = 0
 894 0000 00B5     		push	{lr}
 895              	.LCFI15:
 896              		.cfi_def_cfa_offset 4
 897 0002 83B0     		sub	sp, sp, #12
 898              	.LCFI16:
 899              		.cfi_def_cfa_offset 16
 900 0004 0190     		str	r0, [sp, #4]
 901              	.LBB6:
 902              		.loc 1 258 0
 903 0006 4FF02003 		mov	r3, #32
 904              	@ 258 "../chibios_2.4.x/test/testsem.c" 1
 905 000a 83F31188 		msr     BASEPRI, r3
 906              	@ 0 "" 2
 907              		.thumb
 908              	.LBE6:
 909              		.cfi_offset 14, -4
 910 000e FFF7FEFF 		bl	dbg_check_lock
 911 0012 019B     		ldr	r3, [sp, #4]
 912 0014 9B68     		ldr	r3, [r3, #8]
 913 0016 002B     		cmp	r3, #0
 914 0018 03DC     		bgt	.L48
 915              		.loc 1 258 0 is_stmt 0 discriminator 1
 916 001a 019B     		ldr	r3, [sp, #4]
 917 001c 1846     		mov	r0, r3
 918 001e FFF7FEFF 		bl	chSemSignalI
 919              	.L48:
 920              		.loc 1 258 0 discriminator 2
 921 0022 FFF7FEFF 		bl	chSchRescheduleS
 922 0026 FFF7FEFF 		bl	dbg_check_unlock
 923              	.LBB7:
 924 002a 4FF00003 		mov	r3, #0
 925              	@ 258 "../chibios_2.4.x/test/testsem.c" 1
 926 002e 83F31188 		msr     BASEPRI, r3
 927              	@ 0 "" 2
 928              		.thumb
 929              	.LBE7:
 930              		.loc 1 259 0 is_stmt 1 discriminator 2
 931 0032 4FF00003 		mov	r3, #0
 932              		.loc 1 260 0 discriminator 2
 933 0036 1846     		mov	r0, r3
 934 0038 03B0     		add	sp, sp, #12
 935 003a 00BD     		pop	{pc}
 936              		.cfi_endproc
 937              	.LFE16:
 938              		.size	thread4, .-thread4
 939 003c AFF30080 		.section	.text.sem4_execute,"ax",%progbits
 940              		.align	2
 941              		.p2align 4,,15
 942              		.thumb
ARM GAS  /tmp/ccW6g9xV.s 			page 18


 943              		.thumb_func
 944              		.type	sem4_execute, %function
 945              	sem4_execute:
 946              	.LFB17:
 947              		.loc 1 262 0
 948              		.cfi_startproc
 949              		@ args = 0, pretend = 0, frame = 16
 950              		@ frame_needed = 0, uses_anonymous_args = 0
 951 0000 00B5     		push	{lr}
 952              	.LCFI17:
 953              		.cfi_def_cfa_offset 4
 954 0002 87B0     		sub	sp, sp, #28
 955              	.LCFI18:
 956              		.cfi_def_cfa_offset 32
 957              		.loc 1 266 0
 958 0004 03AB     		add	r3, sp, #12
 959 0006 1846     		mov	r0, r3
 960 0008 4FF00001 		mov	r1, #0
 961              		.cfi_offset 14, -4
 962 000c FFF7FEFF 		bl	chSemInit
 963              		.loc 1 267 0
 964 0010 03AB     		add	r3, sp, #12
 965 0012 1846     		mov	r0, r3
 966 0014 4FF00001 		mov	r1, #0
 967 0018 FFF7FEFF 		bl	chSemReset
 968              		.loc 1 268 0
 969 001c 059B     		ldr	r3, [sp, #20]
 970 001e 002B     		cmp	r3, #0
 971 0020 CCBF     		ite	gt
 972 0022 0023     		movgt	r3, #0
 973 0024 0123     		movle	r3, #1
 974 0026 4FF00100 		mov	r0, #1
 975 002a 1946     		mov	r1, r3
 976 002c FFF7FEFF 		bl	_test_assert
 977 0030 0346     		mov	r3, r0
 978 0032 002B     		cmp	r3, #0
 979 0034 40F08180 		bne	.L49
 980              	.L50:
 981              		.loc 1 271 0
 982 0038 414B     		ldr	r3, .L58
 983 003a 1A68     		ldr	r2, [r3, #0]
 984              		.loc 1 272 0
 985 003c 414B     		ldr	r3, .L58+4
 986 003e DB69     		ldr	r3, [r3, #28]
 987 0040 9B68     		ldr	r3, [r3, #8]
 988              		.loc 1 271 0
 989 0042 03F1FF33 		add	r3, r3, #-1
 990 0046 03A9     		add	r1, sp, #12
 991 0048 0091     		str	r1, [sp, #0]
 992 004a 1046     		mov	r0, r2
 993 004c 4FF49871 		mov	r1, #304
 994 0050 1A46     		mov	r2, r3
 995 0052 3D4B     		ldr	r3, .L58+8
 996 0054 FFF7FEFF 		bl	chThdCreateStatic
 997 0058 0246     		mov	r2, r0
 998 005a 3C4B     		ldr	r3, .L58+12
 999 005c 1A60     		str	r2, [r3, #0]
ARM GAS  /tmp/ccW6g9xV.s 			page 19


 1000              		.loc 1 275 0
 1001 005e 03AB     		add	r3, sp, #12
 1002 0060 1846     		mov	r0, r3
 1003 0062 FFF7FEFF 		bl	chSemWait
 1004              		.loc 1 278 0
 1005 0066 059B     		ldr	r3, [sp, #20]
 1006 0068 002B     		cmp	r3, #0
 1007 006a CCBF     		ite	gt
 1008 006c 0023     		movgt	r3, #0
 1009 006e 0123     		movle	r3, #1
 1010 0070 4FF00200 		mov	r0, #2
 1011 0074 1946     		mov	r1, r3
 1012 0076 FFF7FEFF 		bl	_test_assert
 1013 007a 0346     		mov	r3, r0
 1014 007c 002B     		cmp	r3, #0
 1015 007e 5CD1     		bne	.L49
 1016              	.L52:
 1017              	.LBB8:
 1018              		.loc 1 282 0
 1019 0080 4FF02003 		mov	r3, #32
 1020              	@ 282 "../chibios_2.4.x/test/testsem.c" 1
 1021 0084 83F31188 		msr     BASEPRI, r3
 1022              	@ 0 "" 2
 1023              		.thumb
 1024              	.LBE8:
 1025 0088 FFF7FEFF 		bl	dbg_check_lock
 1026 008c 059B     		ldr	r3, [sp, #20]
 1027 008e 002B     		cmp	r3, #0
 1028 0090 03DC     		bgt	.L53
 1029              		.loc 1 282 0 is_stmt 0 discriminator 1
 1030 0092 03AB     		add	r3, sp, #12
 1031 0094 1846     		mov	r0, r3
 1032 0096 FFF7FEFF 		bl	chSemSignalI
 1033              	.L53:
 1034              		.loc 1 282 0 discriminator 2
 1035 009a FFF7FEFF 		bl	chSchRescheduleS
 1036 009e FFF7FEFF 		bl	dbg_check_unlock
 1037              	.LBB9:
 1038 00a2 4FF00003 		mov	r3, #0
 1039              	@ 282 "../chibios_2.4.x/test/testsem.c" 1
 1040 00a6 83F31188 		msr     BASEPRI, r3
 1041              	@ 0 "" 2
 1042              		.thumb
 1043              	.LBE9:
 1044              		.loc 1 283 0 is_stmt 1 discriminator 2
 1045 00aa 059B     		ldr	r3, [sp, #20]
 1046 00ac 002B     		cmp	r3, #0
 1047 00ae D4BF     		ite	le
 1048 00b0 0023     		movle	r3, #0
 1049 00b2 0123     		movgt	r3, #1
 1050 00b4 4FF00300 		mov	r0, #3
 1051 00b8 1946     		mov	r1, r3
 1052 00ba FFF7FEFF 		bl	_test_assert
 1053 00be 0346     		mov	r3, r0
 1054 00c0 002B     		cmp	r3, #0
 1055 00c2 3AD1     		bne	.L49
 1056              	.L54:
ARM GAS  /tmp/ccW6g9xV.s 			page 20


 1057              		.loc 1 284 0
 1058 00c4 059B     		ldr	r3, [sp, #20]
 1059 00c6 012B     		cmp	r3, #1
 1060 00c8 14BF     		ite	ne
 1061 00ca 0023     		movne	r3, #0
 1062 00cc 0123     		moveq	r3, #1
 1063 00ce 4FF00400 		mov	r0, #4
 1064 00d2 1946     		mov	r1, r3
 1065 00d4 FFF7FEFF 		bl	_test_assert
 1066 00d8 0346     		mov	r3, r0
 1067 00da 002B     		cmp	r3, #0
 1068 00dc 2DD1     		bne	.L49
 1069              	.L55:
 1070              	.LBB10:
 1071              		.loc 1 287 0
 1072 00de 4FF02003 		mov	r3, #32
 1073              	@ 287 "../chibios_2.4.x/test/testsem.c" 1
 1074 00e2 83F31188 		msr     BASEPRI, r3
 1075              	@ 0 "" 2
 1076              		.thumb
 1077              	.LBE10:
 1078 00e6 FFF7FEFF 		bl	dbg_check_lock
 1079 00ea 059B     		ldr	r3, [sp, #20]
 1080 00ec 002B     		cmp	r3, #0
 1081 00ee 03DC     		bgt	.L56
 1082              		.loc 1 287 0 is_stmt 0 discriminator 1
 1083 00f0 03AB     		add	r3, sp, #12
 1084 00f2 1846     		mov	r0, r3
 1085 00f4 FFF7FEFF 		bl	chSemSignalI
 1086              	.L56:
 1087              		.loc 1 287 0 discriminator 2
 1088 00f8 FFF7FEFF 		bl	chSchRescheduleS
 1089 00fc FFF7FEFF 		bl	dbg_check_unlock
 1090              	.LBB11:
 1091 0100 4FF00003 		mov	r3, #0
 1092              	@ 287 "../chibios_2.4.x/test/testsem.c" 1
 1093 0104 83F31188 		msr     BASEPRI, r3
 1094              	@ 0 "" 2
 1095              		.thumb
 1096              	.LBE11:
 1097              		.loc 1 288 0 is_stmt 1 discriminator 2
 1098 0108 059B     		ldr	r3, [sp, #20]
 1099 010a 002B     		cmp	r3, #0
 1100 010c D4BF     		ite	le
 1101 010e 0023     		movle	r3, #0
 1102 0110 0123     		movgt	r3, #1
 1103 0112 4FF00300 		mov	r0, #3
 1104 0116 1946     		mov	r1, r3
 1105 0118 FFF7FEFF 		bl	_test_assert
 1106 011c 0346     		mov	r3, r0
 1107 011e 002B     		cmp	r3, #0
 1108 0120 0BD1     		bne	.L49
 1109              	.L57:
 1110              		.loc 1 289 0
 1111 0122 059B     		ldr	r3, [sp, #20]
 1112 0124 012B     		cmp	r3, #1
 1113 0126 14BF     		ite	ne
ARM GAS  /tmp/ccW6g9xV.s 			page 21


 1114 0128 0023     		movne	r3, #0
 1115 012a 0123     		moveq	r3, #1
 1116 012c 4FF00500 		mov	r0, #5
 1117 0130 1946     		mov	r1, r3
 1118 0132 FFF7FEFF 		bl	_test_assert
 1119 0136 0346     		mov	r3, r0
 1120 0138 002B     		cmp	r3, #0
 1121              	.L49:
 1122              		.loc 1 290 0
 1123 013a 07B0     		add	sp, sp, #28
 1124 013c 00BD     		pop	{pc}
 1125              	.L59:
 1126 013e 00BF     		.align	2
 1127              	.L58:
 1128 0140 00000000 		.word	wa
 1129 0144 00000000 		.word	rlist
 1130 0148 00000000 		.word	thread4
 1131 014c 00000000 		.word	threads
 1132              		.cfi_endproc
 1133              	.LFE17:
 1134              		.size	sem4_execute, .-sem4_execute
 1135              		.global	testsem4
 1136              		.section	.rodata
 1137 0067 00       		.align	2
 1138              	.LC9:
 1139 0068 42696E61 		.ascii	"Binary Semaphores, functionality\000"
 1139      72792053 
 1139      656D6170 
 1139      686F7265 
 1139      732C2066 
 1140 0089 000000   		.section	.rodata.testsem4,"a",%progbits
 1141              		.align	2
 1142              		.type	testsem4, %object
 1143              		.size	testsem4, 16
 1144              	testsem4:
 1145 0000 68000000 		.word	.LC9
 1146 0004 00000000 		.word	0
 1147 0008 00000000 		.word	0
 1148 000c 00000000 		.word	sem4_execute
 1149              		.global	patternsem
 1150              		.section	.rodata.patternsem,"a",%progbits
 1151              		.align	2
 1152              		.type	patternsem, %object
 1153              		.size	patternsem, 20
 1154              	patternsem:
 1155 0000 00000000 		.word	testsem1
 1156 0004 00000000 		.word	testsem2
 1157 0008 00000000 		.word	testsem3
 1158 000c 00000000 		.word	testsem4
 1159 0010 00000000 		.word	0
 1160              		.text
 1161              	.Letext0: