ARM GAS  /tmp/ccnXntFd.s 			page 1


   1              		.syntax unified
   2              		.cpu cortex-m3
   3              		.fpu softvfp
   4              		.eabi_attribute 20, 1
   5              		.eabi_attribute 21, 1
   6              		.eabi_attribute 23, 3
   7              		.eabi_attribute 24, 1
   8              		.eabi_attribute 25, 1
   9              		.eabi_attribute 26, 1
  10              		.eabi_attribute 30, 6
  11              		.eabi_attribute 18, 4
  12              		.thumb
  13              		.file	"testevt.c"
  20 0000 82020000 		.text
  20      02006D01 
  20      00000201 
  20      FB0E0D00 
  20      01010101 
  21              	.Ltext0:
  22              		.cfi_sections	.debug_frame
  23              		.section	.data.es1,"aw",%progbits
  24              		.align	2
  25              		.type	es1, %object
  26              		.size	es1, 4
  27              	es1:
  28 0000 00000000 		.word	es1
  29              		.section	.data.es2,"aw",%progbits
  30              		.align	2
  31              		.type	es2, %object
  32              		.size	es2, 4
  33              	es2:
  34 0000 00000000 		.word	es2
  35              		.section	.text.evt1_setup,"ax",%progbits
  36              		.align	2
  37              		.p2align 4,,15
  38              		.thumb
  39              		.thumb_func
  40              		.type	evt1_setup, %function
  41              	evt1_setup:
  42              	.LFB7:
  43              		.file 1 "../chibios_2.4.x/test/testevt.c"
  44              		.loc 1 86 0
  45              		.cfi_startproc
  46              		@ args = 0, pretend = 0, frame = 0
  47              		@ frame_needed = 0, uses_anonymous_args = 0
  48 0000 08B5     		push	{r3, lr}
  49              	.LCFI0:
  50              		.cfi_def_cfa_offset 8
  51              		.loc 1 88 0
  52 0002 4FF0FF30 		mov	r0, #-1
  53              		.cfi_offset 14, -4
ARM GAS  /tmp/ccnXntFd.s 			page 2


  54              		.cfi_offset 3, -8
  55 0006 FFF7FEFF 		bl	chEvtClearFlags
  56              		.loc 1 89 0
  57 000a 08BD     		pop	{r3, pc}
  58              		.cfi_endproc
  59              	.LFE7:
  60              		.size	evt1_setup, .-evt1_setup
  61 000c AFF30080 		.section	.text.h1,"ax",%progbits
  62              		.align	2
  63              		.p2align 4,,15
  64              		.thumb
  65              		.thumb_func
  66              		.type	h1, %function
  67              	h1:
  68              	.LFB8:
  69              		.loc 1 91 0
  70              		.cfi_startproc
  71              		@ args = 0, pretend = 0, frame = 8
  72              		@ frame_needed = 0, uses_anonymous_args = 0
  73 0000 00B5     		push	{lr}
  74              	.LCFI1:
  75              		.cfi_def_cfa_offset 4
  76 0002 83B0     		sub	sp, sp, #12
  77              	.LCFI2:
  78              		.cfi_def_cfa_offset 16
  79 0004 0190     		str	r0, [sp, #4]
  80              		.loc 1 91 0
  81 0006 4FF04100 		mov	r0, #65
  82              		.cfi_offset 14, -4
  83 000a FFF7FEFF 		bl	test_emit_token
  84 000e 03B0     		add	sp, sp, #12
  85 0010 00BD     		pop	{pc}
  86              		.cfi_endproc
  87              	.LFE8:
  88              		.size	h1, .-h1
  89 0012 00BFAFF3 		.section	.text.h2,"ax",%progbits
  89      0080AFF3 
  89      0080AFF3 
  89      0080
  90              		.align	2
  91              		.p2align 4,,15
  92              		.thumb
  93              		.thumb_func
  94              		.type	h2, %function
  95              	h2:
  96              	.LFB9:
  97              		.loc 1 92 0
  98              		.cfi_startproc
  99              		@ args = 0, pretend = 0, frame = 8
 100              		@ frame_needed = 0, uses_anonymous_args = 0
 101 0000 00B5     		push	{lr}
 102              	.LCFI3:
 103              		.cfi_def_cfa_offset 4
 104 0002 83B0     		sub	sp, sp, #12
 105              	.LCFI4:
 106              		.cfi_def_cfa_offset 16
 107 0004 0190     		str	r0, [sp, #4]
ARM GAS  /tmp/ccnXntFd.s 			page 3


 108              		.loc 1 92 0
 109 0006 4FF04200 		mov	r0, #66
 110              		.cfi_offset 14, -4
 111 000a FFF7FEFF 		bl	test_emit_token
 112 000e 03B0     		add	sp, sp, #12
 113 0010 00BD     		pop	{pc}
 114              		.cfi_endproc
 115              	.LFE9:
 116              		.size	h2, .-h2
 117 0012 00BFAFF3 		.section	.text.h3,"ax",%progbits
 117      0080AFF3 
 117      0080AFF3 
 117      0080
 118              		.align	2
 119              		.p2align 4,,15
 120              		.thumb
 121              		.thumb_func
 122              		.type	h3, %function
 123              	h3:
 124              	.LFB10:
 125              		.loc 1 93 0
 126              		.cfi_startproc
 127              		@ args = 0, pretend = 0, frame = 8
 128              		@ frame_needed = 0, uses_anonymous_args = 0
 129 0000 00B5     		push	{lr}
 130              	.LCFI5:
 131              		.cfi_def_cfa_offset 4
 132 0002 83B0     		sub	sp, sp, #12
 133              	.LCFI6:
 134              		.cfi_def_cfa_offset 16
 135 0004 0190     		str	r0, [sp, #4]
 136              		.loc 1 93 0
 137 0006 4FF04300 		mov	r0, #67
 138              		.cfi_offset 14, -4
 139 000a FFF7FEFF 		bl	test_emit_token
 140 000e 03B0     		add	sp, sp, #12
 141 0010 00BD     		pop	{pc}
 142              		.cfi_endproc
 143              	.LFE10:
 144              		.size	h3, .-h3
 145 0012 00BFAFF3 		.section	.rodata.evhndl,"a",%progbits
 145      0080AFF3 
 145      0080AFF3 
 145      0080
 146              		.align	2
 147              		.type	evhndl, %object
 148              		.size	evhndl, 12
 149              	evhndl:
 150 0000 00000000 		.word	h1
 151 0004 00000000 		.word	h2
 152 0008 00000000 		.word	h3
 153              		.section	.rodata
 154              		.align	2
 155              	.LC0:
 156 0000 41424300 		.ascii	"ABC\000"
 157              		.section	.text.evt1_execute,"ax",%progbits
 158              		.align	2
ARM GAS  /tmp/ccnXntFd.s 			page 4


 159              		.p2align 4,,15
 160              		.thumb
 161              		.thumb_func
 162              		.type	evt1_execute, %function
 163              	evt1_execute:
 164              	.LFB11:
 165              		.loc 1 96 0
 166              		.cfi_startproc
 167              		@ args = 0, pretend = 0, frame = 24
 168              		@ frame_needed = 0, uses_anonymous_args = 0
 169 0000 00B5     		push	{lr}
 170              	.LCFI7:
 171              		.cfi_def_cfa_offset 4
 172 0002 87B0     		sub	sp, sp, #28
 173              	.LCFI8:
 174              		.cfi_def_cfa_offset 32
 175              		.loc 1 102 0
 176 0004 2A4A     		ldr	r2, .L10
 177 0006 2A4B     		ldr	r3, .L10
 178 0008 1A60     		str	r2, [r3, #0]
 179              		.loc 1 103 0
 180 000a 03AB     		add	r3, sp, #12
 181 000c 2848     		ldr	r0, .L10
 182 000e 1946     		mov	r1, r3
 183 0010 4FF00102 		mov	r2, #1
 184              		.cfi_offset 14, -4
 185 0014 FFF7FEFF 		bl	chEvtRegisterMask
 186              		.loc 1 104 0
 187 0018 6B46     		mov	r3, sp
 188 001a 2548     		ldr	r0, .L10
 189 001c 1946     		mov	r1, r3
 190 001e 4FF00202 		mov	r2, #2
 191 0022 FFF7FEFF 		bl	chEvtRegisterMask
 192              		.loc 1 105 0
 193 0026 224B     		ldr	r3, .L10
 194 0028 1A68     		ldr	r2, [r3, #0]
 195 002a 214B     		ldr	r3, .L10
 196 002c 9A42     		cmp	r2, r3
 197 002e 0CBF     		ite	eq
 198 0030 0023     		moveq	r3, #0
 199 0032 0123     		movne	r3, #1
 200 0034 4FF00100 		mov	r0, #1
 201 0038 1946     		mov	r1, r3
 202 003a FFF7FEFF 		bl	_test_assert
 203 003e 0346     		mov	r3, r0
 204 0040 002B     		cmp	r3, #0
 205 0042 33D1     		bne	.L5
 206              	.L6:
 207              		.loc 1 106 0
 208 0044 03AB     		add	r3, sp, #12
 209 0046 1A48     		ldr	r0, .L10
 210 0048 1946     		mov	r1, r3
 211 004a FFF7FEFF 		bl	chEvtUnregister
 212              		.loc 1 107 0
 213 004e 184B     		ldr	r3, .L10
 214 0050 1A68     		ldr	r2, [r3, #0]
 215 0052 174B     		ldr	r3, .L10
ARM GAS  /tmp/ccnXntFd.s 			page 5


 216 0054 9A42     		cmp	r2, r3
 217 0056 0CBF     		ite	eq
 218 0058 0023     		moveq	r3, #0
 219 005a 0123     		movne	r3, #1
 220 005c 4FF00200 		mov	r0, #2
 221 0060 1946     		mov	r1, r3
 222 0062 FFF7FEFF 		bl	_test_assert
 223 0066 0346     		mov	r3, r0
 224 0068 002B     		cmp	r3, #0
 225 006a 1FD1     		bne	.L5
 226              	.L8:
 227              		.loc 1 108 0
 228 006c 6B46     		mov	r3, sp
 229 006e 1048     		ldr	r0, .L10
 230 0070 1946     		mov	r1, r3
 231 0072 FFF7FEFF 		bl	chEvtUnregister
 232              		.loc 1 109 0
 233 0076 0E4B     		ldr	r3, .L10
 234 0078 1A68     		ldr	r2, [r3, #0]
 235 007a 0D4B     		ldr	r3, .L10
 236 007c 9A42     		cmp	r2, r3
 237 007e 14BF     		ite	ne
 238 0080 0023     		movne	r3, #0
 239 0082 0123     		moveq	r3, #1
 240 0084 4FF00300 		mov	r0, #3
 241 0088 1946     		mov	r1, r3
 242 008a FFF7FEFF 		bl	_test_assert
 243 008e 0346     		mov	r3, r0
 244 0090 002B     		cmp	r3, #0
 245 0092 0BD1     		bne	.L5
 246              	.L9:
 247              		.loc 1 114 0
 248 0094 0748     		ldr	r0, .L10+4
 249 0096 4FF00701 		mov	r1, #7
 250 009a FFF7FEFF 		bl	chEvtDispatch
 251              		.loc 1 115 0
 252 009e 4FF00400 		mov	r0, #4
 253 00a2 0549     		ldr	r1, .L10+8
 254 00a4 FFF7FEFF 		bl	_test_assert_sequence
 255 00a8 0346     		mov	r3, r0
 256 00aa 002B     		cmp	r3, #0
 257              	.L5:
 258              		.loc 1 116 0
 259 00ac 07B0     		add	sp, sp, #28
 260 00ae 00BD     		pop	{pc}
 261              	.L11:
 262              		.align	2
 263              	.L10:
 264 00b0 00000000 		.word	es1
 265 00b4 00000000 		.word	evhndl
 266 00b8 00000000 		.word	.LC0
 267              		.cfi_endproc
 268              	.LFE11:
 269              		.size	evt1_execute, .-evt1_execute
 270              		.global	testevt1
 271 00bc AFF30080 		.section	.rodata
 272              		.align	2
ARM GAS  /tmp/ccnXntFd.s 			page 6


 273              	.LC1:
 274 0004 4576656E 		.ascii	"Events, registration and dispatch\000"
 274      74732C20 
 274      72656769 
 274      73747261 
 274      74696F6E 
 275              		.section	.rodata.testevt1,"a",%progbits
 276              		.align	2
 277              		.type	testevt1, %object
 278              		.size	testevt1, 16
 279              	testevt1:
 280 0000 04000000 		.word	.LC1
 281 0004 00000000 		.word	evt1_setup
 282 0008 00000000 		.word	0
 283 000c 00000000 		.word	evt1_execute
 284              		.section	.text.evt2_setup,"ax",%progbits
 285              		.align	2
 286              		.p2align 4,,15
 287              		.thumb
 288              		.thumb_func
 289              		.type	evt2_setup, %function
 290              	evt2_setup:
 291              	.LFB12:
 292              		.loc 1 139 0
 293              		.cfi_startproc
 294              		@ args = 0, pretend = 0, frame = 0
 295              		@ frame_needed = 0, uses_anonymous_args = 0
 296 0000 08B5     		push	{r3, lr}
 297              	.LCFI9:
 298              		.cfi_def_cfa_offset 8
 299              		.loc 1 141 0
 300 0002 4FF0FF30 		mov	r0, #-1
 301              		.cfi_offset 14, -4
 302              		.cfi_offset 3, -8
 303 0006 FFF7FEFF 		bl	chEvtClearFlags
 304              		.loc 1 142 0
 305 000a 08BD     		pop	{r3, pc}
 306              		.cfi_endproc
 307              	.LFE12:
 308              		.size	evt2_setup, .-evt2_setup
 309 000c AFF30080 		.section	.text.thread1,"ax",%progbits
 310              		.align	2
 311              		.p2align 4,,15
 312              		.thumb
 313              		.thumb_func
 314              		.type	thread1, %function
 315              	thread1:
 316              	.LFB13:
 317              		.loc 1 144 0
 318              		.cfi_startproc
 319              		@ args = 0, pretend = 0, frame = 8
 320              		@ frame_needed = 0, uses_anonymous_args = 0
 321 0000 00B5     		push	{lr}
 322              	.LCFI10:
 323              		.cfi_def_cfa_offset 4
 324 0002 83B0     		sub	sp, sp, #12
 325              	.LCFI11:
ARM GAS  /tmp/ccnXntFd.s 			page 7


 326              		.cfi_def_cfa_offset 16
 327 0004 0190     		str	r0, [sp, #4]
 328              		.loc 1 146 0
 329 0006 4FF01900 		mov	r0, #25
 330              		.cfi_offset 14, -4
 331 000a FFF7FEFF 		bl	chThdSleep
 332              		.loc 1 147 0
 333 000e 019B     		ldr	r3, [sp, #4]
 334 0010 1846     		mov	r0, r3
 335 0012 4FF00101 		mov	r1, #1
 336 0016 FFF7FEFF 		bl	chEvtSignalFlags
 337              		.loc 1 148 0
 338 001a 4FF00003 		mov	r3, #0
 339              		.loc 1 149 0
 340 001e 1846     		mov	r0, r3
 341 0020 03B0     		add	sp, sp, #12
 342 0022 00BD     		pop	{pc}
 343              		.cfi_endproc
 344              	.LFE13:
 345              		.size	thread1, .-thread1
 346 0024 AFF30080 		.section	.text.thread2,"ax",%progbits
 346      AFF30080 
 346      AFF30080 
 347              		.align	2
 348              		.p2align 4,,15
 349              		.thumb
 350              		.thumb_func
 351              		.type	thread2, %function
 352              	thread2:
 353              	.LFB14:
 354              		.loc 1 151 0
 355              		.cfi_startproc
 356              		@ args = 0, pretend = 0, frame = 8
 357              		@ frame_needed = 0, uses_anonymous_args = 0
 358 0000 00B5     		push	{lr}
 359              	.LCFI12:
 360              		.cfi_def_cfa_offset 4
 361 0002 83B0     		sub	sp, sp, #12
 362              	.LCFI13:
 363              		.cfi_def_cfa_offset 16
 364 0004 0190     		str	r0, [sp, #4]
 365              		.loc 1 154 0
 366 0006 0948     		ldr	r0, .L15
 367 0008 4FF00001 		mov	r1, #0
 368              		.cfi_offset 14, -4
 369 000c FFF7FEFF 		bl	chEvtBroadcastFlags
 370              		.loc 1 155 0
 371 0010 4FF01900 		mov	r0, #25
 372 0014 FFF7FEFF 		bl	chThdSleep
 373              		.loc 1 156 0
 374 0018 0548     		ldr	r0, .L15+4
 375 001a 4FF00001 		mov	r1, #0
 376 001e FFF7FEFF 		bl	chEvtBroadcastFlags
 377              		.loc 1 157 0
 378 0022 4FF00003 		mov	r3, #0
 379              		.loc 1 158 0
 380 0026 1846     		mov	r0, r3
ARM GAS  /tmp/ccnXntFd.s 			page 8


 381 0028 03B0     		add	sp, sp, #12
 382 002a 00BD     		pop	{pc}
 383              	.L16:
 384              		.align	2
 385              	.L15:
 386 002c 00000000 		.word	es1
 387 0030 00000000 		.word	es2
 388              		.cfi_endproc
 389              	.LFE14:
 390              		.size	thread2, .-thread2
 391 0034 AFF30080 		.section	.rodata
 391      AFF30080 
 391      AFF30080 
 392 0026 0000     		.align	2
 393              	.LC2:
 394 0028 4100     		.ascii	"A\000"
 395              		.section	.text.evt2_execute,"ax",%progbits
 396              		.align	2
 397              		.p2align 4,,15
 398              		.thumb
 399              		.thumb_func
 400              		.type	evt2_execute, %function
 401              	evt2_execute:
 402              	.LFB15:
 403              		.loc 1 160 0
 404              		.cfi_startproc
 405              		@ args = 0, pretend = 0, frame = 32
 406              		@ frame_needed = 0, uses_anonymous_args = 0
 407 0000 00B5     		push	{lr}
 408              	.LCFI14:
 409              		.cfi_def_cfa_offset 4
 410 0002 8BB0     		sub	sp, sp, #44
 411              	.LCFI15:
 412              		.cfi_def_cfa_offset 48
 413              		.loc 1 168 0
 414 0004 4FF00500 		mov	r0, #5
 415              		.cfi_offset 14, -4
 416 0008 FFF7FEFF 		bl	chEvtAddFlags
 417              		.loc 1 169 0
 418 000c 4FF0FF30 		mov	r0, #-1
 419 0010 FFF7FEFF 		bl	chEvtWaitOne
 420 0014 0990     		str	r0, [sp, #36]
 421              		.loc 1 170 0
 422 0016 099B     		ldr	r3, [sp, #36]
 423 0018 012B     		cmp	r3, #1
 424 001a 14BF     		ite	ne
 425 001c 0023     		movne	r3, #0
 426 001e 0123     		moveq	r3, #1
 427 0020 4FF00100 		mov	r0, #1
 428 0024 1946     		mov	r1, r3
 429 0026 FFF7FEFF 		bl	_test_assert
 430 002a 0346     		mov	r3, r0
 431 002c 002B     		cmp	r3, #0
 432 002e 40F07D81 		bne	.L17
 433              	.L18:
 434              		.loc 1 171 0
 435 0032 4FF0FF30 		mov	r0, #-1
ARM GAS  /tmp/ccnXntFd.s 			page 9


 436 0036 FFF7FEFF 		bl	chEvtWaitOne
 437 003a 0990     		str	r0, [sp, #36]
 438              		.loc 1 172 0
 439 003c 099B     		ldr	r3, [sp, #36]
 440 003e 042B     		cmp	r3, #4
 441 0040 14BF     		ite	ne
 442 0042 0023     		movne	r3, #0
 443 0044 0123     		moveq	r3, #1
 444 0046 4FF00200 		mov	r0, #2
 445 004a 1946     		mov	r1, r3
 446 004c FFF7FEFF 		bl	_test_assert
 447 0050 0346     		mov	r3, r0
 448 0052 002B     		cmp	r3, #0
 449 0054 40F06A81 		bne	.L17
 450              	.L20:
 451              		.loc 1 173 0
 452 0058 4FF0FF30 		mov	r0, #-1
 453 005c FFF7FEFF 		bl	chEvtClearFlags
 454 0060 0990     		str	r0, [sp, #36]
 455              		.loc 1 174 0
 456 0062 099B     		ldr	r3, [sp, #36]
 457 0064 002B     		cmp	r3, #0
 458 0066 14BF     		ite	ne
 459 0068 0023     		movne	r3, #0
 460 006a 0123     		moveq	r3, #1
 461 006c 4FF00300 		mov	r0, #3
 462 0070 1946     		mov	r1, r3
 463 0072 FFF7FEFF 		bl	_test_assert
 464 0076 0346     		mov	r3, r0
 465 0078 002B     		cmp	r3, #0
 466 007a 40F05781 		bne	.L17
 467              	.L21:
 468              		.loc 1 179 0
 469 007e FFF7FEFF 		bl	test_wait_tick
 470              		.loc 1 180 0
 471 0082 A14B     		ldr	r3, .L33
 472 0084 DB68     		ldr	r3, [r3, #12]
 473 0086 03F11903 		add	r3, r3, #25
 474 008a 0893     		str	r3, [sp, #32]
 475              		.loc 1 181 0
 476 008c 9F4B     		ldr	r3, .L33+4
 477 008e 1A68     		ldr	r2, [r3, #0]
 478 0090 9F4B     		ldr	r3, .L33+8
 479 0092 DB69     		ldr	r3, [r3, #28]
 480 0094 9B68     		ldr	r3, [r3, #8]
 481 0096 03F1FF33 		add	r3, r3, #-1
 482              		.loc 1 182 0
 483 009a 9D49     		ldr	r1, .L33+8
 484 009c C969     		ldr	r1, [r1, #28]
 485              		.loc 1 181 0
 486 009e 0091     		str	r1, [sp, #0]
 487 00a0 1046     		mov	r0, r2
 488 00a2 4FF49871 		mov	r1, #304
 489 00a6 1A46     		mov	r2, r3
 490 00a8 9A4B     		ldr	r3, .L33+12
 491 00aa FFF7FEFF 		bl	chThdCreateStatic
 492 00ae 0246     		mov	r2, r0
ARM GAS  /tmp/ccnXntFd.s 			page 10


 493 00b0 994B     		ldr	r3, .L33+16
 494 00b2 1A60     		str	r2, [r3, #0]
 495              		.loc 1 183 0
 496 00b4 4FF0FF30 		mov	r0, #-1
 497 00b8 FFF7FEFF 		bl	chEvtWaitOne
 498 00bc 0990     		str	r0, [sp, #36]
 499              		.loc 1 184 0
 500 00be 089B     		ldr	r3, [sp, #32]
 501 00c0 03F10303 		add	r3, r3, #3
 502 00c4 4FF00400 		mov	r0, #4
 503 00c8 0899     		ldr	r1, [sp, #32]
 504 00ca 1A46     		mov	r2, r3
 505 00cc FFF7FEFF 		bl	_test_assert_time_window
 506 00d0 0346     		mov	r3, r0
 507 00d2 002B     		cmp	r3, #0
 508 00d4 40F02A81 		bne	.L17
 509              	.L22:
 510              		.loc 1 185 0
 511 00d8 099B     		ldr	r3, [sp, #36]
 512 00da 012B     		cmp	r3, #1
 513 00dc 14BF     		ite	ne
 514 00de 0023     		movne	r3, #0
 515 00e0 0123     		moveq	r3, #1
 516 00e2 4FF00500 		mov	r0, #5
 517 00e6 1946     		mov	r1, r3
 518 00e8 FFF7FEFF 		bl	_test_assert
 519 00ec 0346     		mov	r3, r0
 520 00ee 002B     		cmp	r3, #0
 521 00f0 40F01C81 		bne	.L17
 522              	.L23:
 523              		.loc 1 186 0
 524 00f4 4FF0FF30 		mov	r0, #-1
 525 00f8 FFF7FEFF 		bl	chEvtClearFlags
 526 00fc 0990     		str	r0, [sp, #36]
 527              		.loc 1 187 0
 528 00fe 099B     		ldr	r3, [sp, #36]
 529 0100 002B     		cmp	r3, #0
 530 0102 14BF     		ite	ne
 531 0104 0023     		movne	r3, #0
 532 0106 0123     		moveq	r3, #1
 533 0108 4FF00600 		mov	r0, #6
 534 010c 1946     		mov	r1, r3
 535 010e FFF7FEFF 		bl	_test_assert
 536 0112 0346     		mov	r3, r0
 537 0114 002B     		cmp	r3, #0
 538 0116 40F00981 		bne	.L17
 539              	.L24:
 540              		.loc 1 188 0
 541 011a FFF7FEFF 		bl	test_wait_threads
 542              		.loc 1 193 0
 543 011e 4FF00500 		mov	r0, #5
 544 0122 FFF7FEFF 		bl	chEvtAddFlags
 545              		.loc 1 194 0
 546 0126 4FF0FF30 		mov	r0, #-1
 547 012a FFF7FEFF 		bl	chEvtWaitAny
 548 012e 0990     		str	r0, [sp, #36]
 549              		.loc 1 195 0
ARM GAS  /tmp/ccnXntFd.s 			page 11


 550 0130 099B     		ldr	r3, [sp, #36]
 551 0132 052B     		cmp	r3, #5
 552 0134 14BF     		ite	ne
 553 0136 0023     		movne	r3, #0
 554 0138 0123     		moveq	r3, #1
 555 013a 4FF00700 		mov	r0, #7
 556 013e 1946     		mov	r1, r3
 557 0140 FFF7FEFF 		bl	_test_assert
 558 0144 0346     		mov	r3, r0
 559 0146 002B     		cmp	r3, #0
 560 0148 40F0F080 		bne	.L17
 561              	.L25:
 562              		.loc 1 196 0
 563 014c 4FF0FF30 		mov	r0, #-1
 564 0150 FFF7FEFF 		bl	chEvtClearFlags
 565 0154 0990     		str	r0, [sp, #36]
 566              		.loc 1 197 0
 567 0156 099B     		ldr	r3, [sp, #36]
 568 0158 002B     		cmp	r3, #0
 569 015a 14BF     		ite	ne
 570 015c 0023     		movne	r3, #0
 571 015e 0123     		moveq	r3, #1
 572 0160 4FF00800 		mov	r0, #8
 573 0164 1946     		mov	r1, r3
 574 0166 FFF7FEFF 		bl	_test_assert
 575 016a 0346     		mov	r3, r0
 576 016c 002B     		cmp	r3, #0
 577 016e 40F0DD80 		bne	.L17
 578              	.L26:
 579              		.loc 1 202 0
 580 0172 FFF7FEFF 		bl	test_wait_tick
 581              		.loc 1 203 0
 582 0176 644B     		ldr	r3, .L33
 583 0178 DB68     		ldr	r3, [r3, #12]
 584 017a 03F11903 		add	r3, r3, #25
 585 017e 0893     		str	r3, [sp, #32]
 586              		.loc 1 204 0
 587 0180 624B     		ldr	r3, .L33+4
 588 0182 1A68     		ldr	r2, [r3, #0]
 589 0184 624B     		ldr	r3, .L33+8
 590 0186 DB69     		ldr	r3, [r3, #28]
 591 0188 9B68     		ldr	r3, [r3, #8]
 592 018a 03F1FF33 		add	r3, r3, #-1
 593              		.loc 1 205 0
 594 018e 6049     		ldr	r1, .L33+8
 595 0190 C969     		ldr	r1, [r1, #28]
 596              		.loc 1 204 0
 597 0192 0091     		str	r1, [sp, #0]
 598 0194 1046     		mov	r0, r2
 599 0196 4FF49871 		mov	r1, #304
 600 019a 1A46     		mov	r2, r3
 601 019c 5D4B     		ldr	r3, .L33+12
 602 019e FFF7FEFF 		bl	chThdCreateStatic
 603 01a2 0246     		mov	r2, r0
 604 01a4 5C4B     		ldr	r3, .L33+16
 605 01a6 1A60     		str	r2, [r3, #0]
 606              		.loc 1 206 0
ARM GAS  /tmp/ccnXntFd.s 			page 12


 607 01a8 4FF0FF30 		mov	r0, #-1
 608 01ac FFF7FEFF 		bl	chEvtWaitAny
 609 01b0 0990     		str	r0, [sp, #36]
 610              		.loc 1 207 0
 611 01b2 089B     		ldr	r3, [sp, #32]
 612 01b4 03F10303 		add	r3, r3, #3
 613 01b8 4FF00900 		mov	r0, #9
 614 01bc 0899     		ldr	r1, [sp, #32]
 615 01be 1A46     		mov	r2, r3
 616 01c0 FFF7FEFF 		bl	_test_assert_time_window
 617 01c4 0346     		mov	r3, r0
 618 01c6 002B     		cmp	r3, #0
 619 01c8 40F0B080 		bne	.L17
 620              	.L27:
 621              		.loc 1 208 0
 622 01cc 099B     		ldr	r3, [sp, #36]
 623 01ce 012B     		cmp	r3, #1
 624 01d0 14BF     		ite	ne
 625 01d2 0023     		movne	r3, #0
 626 01d4 0123     		moveq	r3, #1
 627 01d6 4FF00A00 		mov	r0, #10
 628 01da 1946     		mov	r1, r3
 629 01dc FFF7FEFF 		bl	_test_assert
 630 01e0 0346     		mov	r3, r0
 631 01e2 002B     		cmp	r3, #0
 632 01e4 40F0A280 		bne	.L17
 633              	.L28:
 634              		.loc 1 209 0
 635 01e8 4FF0FF30 		mov	r0, #-1
 636 01ec FFF7FEFF 		bl	chEvtClearFlags
 637 01f0 0990     		str	r0, [sp, #36]
 638              		.loc 1 210 0
 639 01f2 099B     		ldr	r3, [sp, #36]
 640 01f4 002B     		cmp	r3, #0
 641 01f6 14BF     		ite	ne
 642 01f8 0023     		movne	r3, #0
 643 01fa 0123     		moveq	r3, #1
 644 01fc 4FF00B00 		mov	r0, #11
 645 0200 1946     		mov	r1, r3
 646 0202 FFF7FEFF 		bl	_test_assert
 647 0206 0346     		mov	r3, r0
 648 0208 002B     		cmp	r3, #0
 649 020a 40F08F80 		bne	.L17
 650              	.L29:
 651              		.loc 1 211 0
 652 020e FFF7FEFF 		bl	test_wait_threads
 653              		.loc 1 216 0
 654 0212 424A     		ldr	r2, .L33+20
 655 0214 414B     		ldr	r3, .L33+20
 656 0216 1A60     		str	r2, [r3, #0]
 657              		.loc 1 217 0
 658 0218 414A     		ldr	r2, .L33+24
 659 021a 414B     		ldr	r3, .L33+24
 660 021c 1A60     		str	r2, [r3, #0]
 661              		.loc 1 218 0
 662 021e 05AB     		add	r3, sp, #20
 663 0220 3E48     		ldr	r0, .L33+20
ARM GAS  /tmp/ccnXntFd.s 			page 13


 664 0222 1946     		mov	r1, r3
 665 0224 4FF00102 		mov	r2, #1
 666 0228 FFF7FEFF 		bl	chEvtRegisterMask
 667              		.loc 1 219 0
 668 022c 02AB     		add	r3, sp, #8
 669 022e 3C48     		ldr	r0, .L33+24
 670 0230 1946     		mov	r1, r3
 671 0232 4FF00402 		mov	r2, #4
 672 0236 FFF7FEFF 		bl	chEvtRegisterMask
 673              		.loc 1 220 0
 674 023a FFF7FEFF 		bl	test_wait_tick
 675              		.loc 1 221 0
 676 023e 324B     		ldr	r3, .L33
 677 0240 DB68     		ldr	r3, [r3, #12]
 678 0242 03F11903 		add	r3, r3, #25
 679 0246 0893     		str	r3, [sp, #32]
 680              		.loc 1 222 0
 681 0248 304B     		ldr	r3, .L33+4
 682 024a 1A68     		ldr	r2, [r3, #0]
 683 024c 304B     		ldr	r3, .L33+8
 684 024e DB69     		ldr	r3, [r3, #28]
 685 0250 9B68     		ldr	r3, [r3, #8]
 686 0252 03F1FF33 		add	r3, r3, #-1
 687 0256 3349     		ldr	r1, .L33+28
 688 0258 0091     		str	r1, [sp, #0]
 689 025a 1046     		mov	r0, r2
 690 025c 4FF49871 		mov	r1, #304
 691 0260 1A46     		mov	r2, r3
 692 0262 314B     		ldr	r3, .L33+32
 693 0264 FFF7FEFF 		bl	chThdCreateStatic
 694 0268 0246     		mov	r2, r0
 695 026a 2B4B     		ldr	r3, .L33+16
 696 026c 1A60     		str	r2, [r3, #0]
 697              		.loc 1 224 0
 698 026e 4FF00500 		mov	r0, #5
 699 0272 FFF7FEFF 		bl	chEvtWaitAll
 700 0276 0990     		str	r0, [sp, #36]
 701              		.loc 1 225 0
 702 0278 089B     		ldr	r3, [sp, #32]
 703 027a 03F10303 		add	r3, r3, #3
 704 027e 4FF00C00 		mov	r0, #12
 705 0282 0899     		ldr	r1, [sp, #32]
 706 0284 1A46     		mov	r2, r3
 707 0286 FFF7FEFF 		bl	_test_assert_time_window
 708 028a 0346     		mov	r3, r0
 709 028c 002B     		cmp	r3, #0
 710 028e 4DD1     		bne	.L17
 711              	.L30:
 712              		.loc 1 226 0
 713 0290 4FF0FF30 		mov	r0, #-1
 714 0294 FFF7FEFF 		bl	chEvtClearFlags
 715 0298 0990     		str	r0, [sp, #36]
 716              		.loc 1 227 0
 717 029a 099B     		ldr	r3, [sp, #36]
 718 029c 002B     		cmp	r3, #0
 719 029e 14BF     		ite	ne
 720 02a0 0023     		movne	r3, #0
ARM GAS  /tmp/ccnXntFd.s 			page 14


 721 02a2 0123     		moveq	r3, #1
 722 02a4 4FF00D00 		mov	r0, #13
 723 02a8 1946     		mov	r1, r3
 724 02aa FFF7FEFF 		bl	_test_assert
 725 02ae 0346     		mov	r3, r0
 726 02b0 002B     		cmp	r3, #0
 727 02b2 3BD1     		bne	.L17
 728              	.L31:
 729              		.loc 1 228 0
 730 02b4 FFF7FEFF 		bl	test_wait_threads
 731              		.loc 1 229 0
 732 02b8 05AB     		add	r3, sp, #20
 733 02ba 1848     		ldr	r0, .L33+20
 734 02bc 1946     		mov	r1, r3
 735 02be FFF7FEFF 		bl	chEvtUnregister
 736              		.loc 1 230 0
 737 02c2 02AB     		add	r3, sp, #8
 738 02c4 1648     		ldr	r0, .L33+24
 739 02c6 1946     		mov	r1, r3
 740 02c8 FFF7FEFF 		bl	chEvtUnregister
 741              		.loc 1 231 0
 742 02cc 134B     		ldr	r3, .L33+20
 743 02ce 1A68     		ldr	r2, [r3, #0]
 744 02d0 124B     		ldr	r3, .L33+20
 745 02d2 9A42     		cmp	r2, r3
 746 02d4 14BF     		ite	ne
 747 02d6 0023     		movne	r3, #0
 748 02d8 0123     		moveq	r3, #1
 749 02da 4FF00E00 		mov	r0, #14
 750 02de 1946     		mov	r1, r3
 751 02e0 FFF7FEFF 		bl	_test_assert
 752 02e4 0346     		mov	r3, r0
 753 02e6 002B     		cmp	r3, #0
 754 02e8 20D1     		bne	.L17
 755              	.L32:
 756              		.loc 1 232 0
 757 02ea 0D4B     		ldr	r3, .L33+24
 758 02ec 1A68     		ldr	r2, [r3, #0]
 759 02ee 0C4B     		ldr	r3, .L33+24
 760 02f0 9A42     		cmp	r2, r3
 761 02f2 14BF     		ite	ne
 762 02f4 0023     		movne	r3, #0
 763 02f6 0123     		moveq	r3, #1
 764 02f8 4FF00F00 		mov	r0, #15
 765 02fc 1946     		mov	r1, r3
 766 02fe FFF7FEFF 		bl	_test_assert
 767 0302 0346     		mov	r3, r0
 768 0304 002B     		cmp	r3, #0
 769 0306 11E0     		b	.L34
 770              	.L35:
 771              		.align	2
 772              	.L33:
 773 0308 00000000 		.word	vtlist
 774 030c 00000000 		.word	wa
 775 0310 00000000 		.word	rlist
 776 0314 00000000 		.word	thread1
 777 0318 00000000 		.word	threads
ARM GAS  /tmp/ccnXntFd.s 			page 15


 778 031c 00000000 		.word	es1
 779 0320 00000000 		.word	es2
 780 0324 28000000 		.word	.LC2
 781 0328 00000000 		.word	thread2
 782              	.L34:
 783              	.L17:
 784              		.loc 1 233 0
 785 032c 0BB0     		add	sp, sp, #44
 786 032e 00BD     		pop	{pc}
 787              		.cfi_endproc
 788              	.LFE15:
 789              		.size	evt2_execute, .-evt2_execute
 790              		.global	testevt2
 791              		.section	.rodata
 792 002a 0000     		.align	2
 793              	.LC3:
 794 002c 4576656E 		.ascii	"Events, wait and broadcast\000"
 794      74732C20 
 794      77616974 
 794      20616E64 
 794      2062726F 
 795              		.section	.rodata.testevt2,"a",%progbits
 796              		.align	2
 797              		.type	testevt2, %object
 798              		.size	testevt2, 16
 799              	testevt2:
 800 0000 2C000000 		.word	.LC3
 801 0004 00000000 		.word	evt2_setup
 802 0008 00000000 		.word	0
 803 000c 00000000 		.word	evt2_execute
 804              		.section	.text.evt3_setup,"ax",%progbits
 805              		.align	2
 806              		.p2align 4,,15
 807              		.thumb
 808              		.thumb_func
 809              		.type	evt3_setup, %function
 810              	evt3_setup:
 811              	.LFB16:
 812              		.loc 1 258 0
 813              		.cfi_startproc
 814              		@ args = 0, pretend = 0, frame = 0
 815              		@ frame_needed = 0, uses_anonymous_args = 0
 816 0000 08B5     		push	{r3, lr}
 817              	.LCFI16:
 818              		.cfi_def_cfa_offset 8
 819              		.loc 1 260 0
 820 0002 4FF0FF30 		mov	r0, #-1
 821              		.cfi_offset 14, -4
 822              		.cfi_offset 3, -8
 823 0006 FFF7FEFF 		bl	chEvtClearFlags
 824              		.loc 1 261 0
 825 000a 08BD     		pop	{r3, pc}
 826              		.cfi_endproc
 827              	.LFE16:
 828              		.size	evt3_setup, .-evt3_setup
 829 000c AFF30080 		.section	.text.evt3_execute,"ax",%progbits
 830              		.align	2
ARM GAS  /tmp/ccnXntFd.s 			page 16


 831              		.p2align 4,,15
 832              		.thumb
 833              		.thumb_func
 834              		.type	evt3_execute, %function
 835              	evt3_execute:
 836              	.LFB17:
 837              		.loc 1 263 0
 838              		.cfi_startproc
 839              		@ args = 0, pretend = 0, frame = 8
 840              		@ frame_needed = 0, uses_anonymous_args = 0
 841 0000 00B5     		push	{lr}
 842              	.LCFI17:
 843              		.cfi_def_cfa_offset 4
 844 0002 83B0     		sub	sp, sp, #12
 845              	.LCFI18:
 846              		.cfi_def_cfa_offset 16
 847              		.loc 1 269 0
 848 0004 4FF0FF30 		mov	r0, #-1
 849 0008 4FF00001 		mov	r1, #0
 850              		.cfi_offset 14, -4
 851 000c FFF7FEFF 		bl	chEvtWaitOneTimeout
 852 0010 0190     		str	r0, [sp, #4]
 853              		.loc 1 270 0
 854 0012 019B     		ldr	r3, [sp, #4]
 855 0014 002B     		cmp	r3, #0
 856 0016 14BF     		ite	ne
 857 0018 0023     		movne	r3, #0
 858 001a 0123     		moveq	r3, #1
 859 001c 4FF00100 		mov	r0, #1
 860 0020 1946     		mov	r1, r3
 861 0022 FFF7FEFF 		bl	_test_assert
 862 0026 0346     		mov	r3, r0
 863 0028 002B     		cmp	r3, #0
 864 002a 62D1     		bne	.L37
 865              	.L38:
 866              		.loc 1 271 0
 867 002c 4FF0FF30 		mov	r0, #-1
 868 0030 4FF00001 		mov	r1, #0
 869 0034 FFF7FEFF 		bl	chEvtWaitAnyTimeout
 870 0038 0190     		str	r0, [sp, #4]
 871              		.loc 1 272 0
 872 003a 019B     		ldr	r3, [sp, #4]
 873 003c 002B     		cmp	r3, #0
 874 003e 14BF     		ite	ne
 875 0040 0023     		movne	r3, #0
 876 0042 0123     		moveq	r3, #1
 877 0044 4FF00200 		mov	r0, #2
 878 0048 1946     		mov	r1, r3
 879 004a FFF7FEFF 		bl	_test_assert
 880 004e 0346     		mov	r3, r0
 881 0050 002B     		cmp	r3, #0
 882 0052 4ED1     		bne	.L37
 883              	.L40:
 884              		.loc 1 273 0
 885 0054 4FF0FF30 		mov	r0, #-1
 886 0058 4FF00001 		mov	r1, #0
 887 005c FFF7FEFF 		bl	chEvtWaitAllTimeout
ARM GAS  /tmp/ccnXntFd.s 			page 17


 888 0060 0190     		str	r0, [sp, #4]
 889              		.loc 1 274 0
 890 0062 019B     		ldr	r3, [sp, #4]
 891 0064 002B     		cmp	r3, #0
 892 0066 14BF     		ite	ne
 893 0068 0023     		movne	r3, #0
 894 006a 0123     		moveq	r3, #1
 895 006c 4FF00300 		mov	r0, #3
 896 0070 1946     		mov	r1, r3
 897 0072 FFF7FEFF 		bl	_test_assert
 898 0076 0346     		mov	r3, r0
 899 0078 002B     		cmp	r3, #0
 900 007a 3AD1     		bne	.L37
 901              	.L41:
 902              		.loc 1 275 0
 903 007c 4FF0FF30 		mov	r0, #-1
 904 0080 4FF00A01 		mov	r1, #10
 905 0084 FFF7FEFF 		bl	chEvtWaitOneTimeout
 906 0088 0190     		str	r0, [sp, #4]
 907              		.loc 1 276 0
 908 008a 019B     		ldr	r3, [sp, #4]
 909 008c 002B     		cmp	r3, #0
 910 008e 14BF     		ite	ne
 911 0090 0023     		movne	r3, #0
 912 0092 0123     		moveq	r3, #1
 913 0094 4FF00400 		mov	r0, #4
 914 0098 1946     		mov	r1, r3
 915 009a FFF7FEFF 		bl	_test_assert
 916 009e 0346     		mov	r3, r0
 917 00a0 002B     		cmp	r3, #0
 918 00a2 26D1     		bne	.L37
 919              	.L42:
 920              		.loc 1 277 0
 921 00a4 4FF0FF30 		mov	r0, #-1
 922 00a8 4FF00A01 		mov	r1, #10
 923 00ac FFF7FEFF 		bl	chEvtWaitAnyTimeout
 924 00b0 0190     		str	r0, [sp, #4]
 925              		.loc 1 278 0
 926 00b2 019B     		ldr	r3, [sp, #4]
 927 00b4 002B     		cmp	r3, #0
 928 00b6 14BF     		ite	ne
 929 00b8 0023     		movne	r3, #0
 930 00ba 0123     		moveq	r3, #1
 931 00bc 4FF00500 		mov	r0, #5
 932 00c0 1946     		mov	r1, r3
 933 00c2 FFF7FEFF 		bl	_test_assert
 934 00c6 0346     		mov	r3, r0
 935 00c8 002B     		cmp	r3, #0
 936 00ca 12D1     		bne	.L37
 937              	.L43:
 938              		.loc 1 279 0
 939 00cc 4FF0FF30 		mov	r0, #-1
 940 00d0 4FF00A01 		mov	r1, #10
 941 00d4 FFF7FEFF 		bl	chEvtWaitAllTimeout
 942 00d8 0190     		str	r0, [sp, #4]
 943              		.loc 1 280 0
 944 00da 019B     		ldr	r3, [sp, #4]
ARM GAS  /tmp/ccnXntFd.s 			page 18


 945 00dc 002B     		cmp	r3, #0
 946 00de 14BF     		ite	ne
 947 00e0 0023     		movne	r3, #0
 948 00e2 0123     		moveq	r3, #1
 949 00e4 4FF00600 		mov	r0, #6
 950 00e8 1946     		mov	r1, r3
 951 00ea FFF7FEFF 		bl	_test_assert
 952 00ee 0346     		mov	r3, r0
 953 00f0 002B     		cmp	r3, #0
 954              	.L37:
 955              		.loc 1 281 0
 956 00f2 03B0     		add	sp, sp, #12
 957 00f4 00BD     		pop	{pc}
 958              		.cfi_endproc
 959              	.LFE17:
 960              		.size	evt3_execute, .-evt3_execute
 961              		.global	testevt3
 962 00f6 00BFAFF3 		.section	.rodata
 962      0080AFF3 
 962      0080
 963 0047 00       		.align	2
 964              	.LC4:
 965 0048 4576656E 		.ascii	"Events, timeouts\000"
 965      74732C20 
 965      74696D65 
 965      6F757473 
 965      00
 966 0059 000000   		.section	.rodata.testevt3,"a",%progbits
 967              		.align	2
 968              		.type	testevt3, %object
 969              		.size	testevt3, 16
 970              	testevt3:
 971 0000 48000000 		.word	.LC4
 972 0004 00000000 		.word	evt3_setup
 973 0008 00000000 		.word	0
 974 000c 00000000 		.word	evt3_execute
 975              		.global	patternevt
 976              		.section	.rodata.patternevt,"a",%progbits
 977              		.align	2
 978              		.type	patternevt, %object
 979              		.size	patternevt, 16
 980              	patternevt:
 981 0000 00000000 		.word	testevt1
 982 0004 00000000 		.word	testevt2
 983 0008 00000000 		.word	testevt3
 984 000c 00000000 		.word	0
 985              		.text
 986              	.Letext0: