ARM GAS  C:\Users\z80\AppData\Local\Temp\ccpOzNDI.s 			page 1


   1              		.syntax unified
   2              		.cpu cortex-m3
   3              		.fpu softvfp
   4              		.eabi_attribute 20, 1
   5              		.eabi_attribute 21, 1
   6              		.eabi_attribute 23, 3
   7              		.eabi_attribute 24, 1
   8              		.eabi_attribute 25, 1
   9              		.eabi_attribute 26, 1
  10              		.eabi_attribute 30, 2
  11              		.eabi_attribute 18, 4
  12              		.thumb
  13              		.file	"testbmk.c"
  20 0000 C0050000 		.text
  20      02008E01 
  20      00000201 
  20      FB0E0D00 
  20      01010101 
  21              	.Ltext0:
  22              		.cfi_sections	.debug_frame
  23              		.section	.text.thread2,"ax",%progbits
  24              		.align	2
  25              		.p2align 4,,15
  26              		.thumb
  27              		.thumb_func
  28              		.type	thread2, %function
  29              	thread2:
  30              	.LFB11:
  31              		.file 1 "../chibios_2.4.x/test/testbmk.c"
  32              		.loc 1 165 0
  33              		.cfi_startproc
  34              		@ args = 0, pretend = 0, frame = 0
  35              		@ frame_needed = 0, uses_anonymous_args = 0
  36              		@ link register save eliminated.
  37              	.LVL0:
  38              		.loc 1 168 0
  39 0000 7047     		bx	lr
  40              		.cfi_endproc
  41              	.LFE11:
  42              		.size	thread2, .-thread2
  43 0002 00BFAFF3 		.section	.text.tmo,"ax",%progbits
  43      0080AFF3 
  43      0080AFF3 
  43      0080
  44              		.align	2
  45              		.p2align 4,,15
  46              		.thumb
  47              		.thumb_func
  48              		.type	tmo, %function
  49              	tmo:
  50              	.LFB23:
ARM GAS  C:\Users\z80\AppData\Local\Temp\ccpOzNDI.s 			page 2


  51              		.loc 1 511 0
  52              		.cfi_startproc
  53              		@ args = 0, pretend = 0, frame = 0
  54              		@ frame_needed = 0, uses_anonymous_args = 0
  55              		@ link register save eliminated.
  56              	.LVL1:
  57              		.loc 1 511 0
  58 0000 7047     		bx	lr
  59              		.cfi_endproc
  60              	.LFE23:
  61              		.size	tmo, .-tmo
  62 0002 00BFAFF3 		.section	.text.bmk13_execute,"ax",%progbits
  62      0080AFF3 
  62      0080AFF3 
  62      0080
  63              		.align	2
  64              		.p2align 4,,15
  65              		.thumb
  66              		.thumb_func
  67              		.type	bmk13_execute, %function
  68              	bmk13_execute:
  69              	.LFB29:
  70              		.loc 1 644 0
  71              		.cfi_startproc
  72              		@ args = 0, pretend = 0, frame = 0
  73              		@ frame_needed = 0, uses_anonymous_args = 0
  74              		.loc 1 646 0
  75 0000 40F20000 		movw	r0, #:lower16:.LC0
  76              		.loc 1 644 0
  77 0004 10B5     		push	{r4, lr}
  78              	.LCFI0:
  79              		.cfi_def_cfa_offset 8
  80              		.loc 1 646 0
  81 0006 C0F20000 		movt	r0, #:upper16:.LC0
  82              		.loc 1 652 0
  83 000a 40F20004 		movw	r4, #:lower16:.LC1
  84              		.cfi_offset 14, -4
  85              		.cfi_offset 4, -8
  86 000e C0F20004 		movt	r4, #:upper16:.LC1
  87              		.loc 1 646 0
  88 0012 FFF7FEFF 		bl	test_print
  89              		.loc 1 647 0
  90 0016 4FF4D070 		mov	r0, #416
  91 001a FFF7FEFF 		bl	test_printn
  92              		.loc 1 652 0
  93 001e 2046     		mov	r0, r4
  94 0020 FFF7FEFF 		bl	test_println
  95              		.loc 1 653 0
  96 0024 40F20000 		movw	r0, #:lower16:.LC2
  97 0028 C0F20000 		movt	r0, #:upper16:.LC2
  98 002c FFF7FEFF 		bl	test_print
  99              		.loc 1 654 0
 100 0030 4C20     		movs	r0, #76
 101 0032 FFF7FEFF 		bl	test_printn
 102              		.loc 1 655 0
 103 0036 2046     		mov	r0, r4
 104 0038 FFF7FEFF 		bl	test_println
ARM GAS  C:\Users\z80\AppData\Local\Temp\ccpOzNDI.s 			page 3


 105              		.loc 1 656 0
 106 003c 40F20000 		movw	r0, #:lower16:.LC3
 107 0040 C0F20000 		movt	r0, #:upper16:.LC3
 108 0044 FFF7FEFF 		bl	test_print
 109              		.loc 1 657 0
 110 0048 1420     		movs	r0, #20
 111 004a FFF7FEFF 		bl	test_printn
 112              		.loc 1 658 0
 113 004e 2046     		mov	r0, r4
 114 0050 FFF7FEFF 		bl	test_println
 115              		.loc 1 659 0
 116 0054 40F20000 		movw	r0, #:lower16:.LC4
 117 0058 C0F20000 		movt	r0, #:upper16:.LC4
 118 005c FFF7FEFF 		bl	test_print
 119              		.loc 1 660 0
 120 0060 0C20     		movs	r0, #12
 121 0062 FFF7FEFF 		bl	test_printn
 122              		.loc 1 661 0
 123 0066 2046     		mov	r0, r4
 124 0068 FFF7FEFF 		bl	test_println
 125              		.loc 1 663 0
 126 006c 40F20000 		movw	r0, #:lower16:.LC5
 127 0070 C0F20000 		movt	r0, #:upper16:.LC5
 128 0074 FFF7FEFF 		bl	test_print
 129              		.loc 1 664 0
 130 0078 0420     		movs	r0, #4
 131 007a FFF7FEFF 		bl	test_printn
 132              		.loc 1 665 0
 133 007e 2046     		mov	r0, r4
 134 0080 FFF7FEFF 		bl	test_println
 135              		.loc 1 666 0
 136 0084 40F20000 		movw	r0, #:lower16:.LC6
 137 0088 C0F20000 		movt	r0, #:upper16:.LC6
 138 008c FFF7FEFF 		bl	test_print
 139              		.loc 1 667 0
 140 0090 0C20     		movs	r0, #12
 141 0092 FFF7FEFF 		bl	test_printn
 142              		.loc 1 668 0
 143 0096 2046     		mov	r0, r4
 144 0098 FFF7FEFF 		bl	test_println
 145              		.loc 1 671 0
 146 009c 40F20000 		movw	r0, #:lower16:.LC7
 147 00a0 C0F20000 		movt	r0, #:upper16:.LC7
 148 00a4 FFF7FEFF 		bl	test_print
 149              		.loc 1 672 0
 150 00a8 1020     		movs	r0, #16
 151 00aa FFF7FEFF 		bl	test_printn
 152              		.loc 1 673 0
 153 00ae 2046     		mov	r0, r4
 154 00b0 FFF7FEFF 		bl	test_println
 155              		.loc 1 676 0
 156 00b4 40F20000 		movw	r0, #:lower16:.LC8
 157 00b8 C0F20000 		movt	r0, #:upper16:.LC8
 158 00bc FFF7FEFF 		bl	test_print
 159              		.loc 1 677 0
 160 00c0 0820     		movs	r0, #8
 161 00c2 FFF7FEFF 		bl	test_printn
ARM GAS  C:\Users\z80\AppData\Local\Temp\ccpOzNDI.s 			page 4


 162              		.loc 1 678 0
 163 00c6 2046     		mov	r0, r4
 164 00c8 FFF7FEFF 		bl	test_println
 165              		.loc 1 681 0
 166 00cc 40F20000 		movw	r0, #:lower16:.LC9
 167 00d0 C0F20000 		movt	r0, #:upper16:.LC9
 168 00d4 FFF7FEFF 		bl	test_print
 169              		.loc 1 682 0
 170 00d8 2020     		movs	r0, #32
 171 00da FFF7FEFF 		bl	test_printn
 172              		.loc 1 683 0
 173 00de 2046     		mov	r0, r4
 174 00e0 FFF7FEFF 		bl	test_println
 175              		.loc 1 686 0
 176 00e4 40F20000 		movw	r0, #:lower16:.LC10
 177 00e8 C0F20000 		movt	r0, #:upper16:.LC10
 178 00ec FFF7FEFF 		bl	test_print
 179              		.loc 1 687 0
 180 00f0 2820     		movs	r0, #40
 181 00f2 FFF7FEFF 		bl	test_printn
 182              		.loc 1 688 0
 183 00f6 2046     		mov	r0, r4
 184 00f8 FFF7FEFF 		bl	test_println
 185              		.loc 1 690 0
 186 00fc 10BD     		pop	{r4, pc}
 187              		.cfi_endproc
 188              	.LFE29:
 189              		.size	bmk13_execute, .-bmk13_execute
 190 00fe 00BF     		.section	.text.bmk12_execute,"ax",%progbits
 191              		.align	2
 192              		.p2align 4,,15
 193              		.thumb
 194              		.thumb_func
 195              		.type	bmk12_execute, %function
 196              	bmk12_execute:
 197              	.LFB28:
 198              		.loc 1 605 0
 199              		.cfi_startproc
 200              		@ args = 0, pretend = 0, frame = 0
 201              		@ frame_needed = 0, uses_anonymous_args = 0
 202              	.LVL2:
 203 0000 38B5     		push	{r3, r4, r5, lr}
 204              	.LCFI1:
 205              		.cfi_def_cfa_offset 16
 206              		.loc 1 608 0
 207              		.cfi_offset 14, -4
 208              		.cfi_offset 5, -8
 209              		.cfi_offset 4, -12
 210              		.cfi_offset 3, -16
 211 0002 FFF7FEFF 		bl	test_wait_tick
 212              		.loc 1 609 0
 213 0006 4FF47A70 		mov	r0, #1000
 214 000a FFF7FEFF 		bl	test_start_timer
 215 000e 124D     		ldr	r5, .L8
 216              		.loc 1 606 0
 217 0010 0024     		movs	r4, #0
 218              	.LVL3:
ARM GAS  C:\Users\z80\AppData\Local\Temp\ccpOzNDI.s 			page 5


 219              	.L5:
 220              		.loc 1 611 0 discriminator 1
 221 0012 1248     		ldr	r0, .L8+4
 222 0014 FFF7FEFF 		bl	chMtxLock
 223              		.loc 1 612 0 discriminator 1
 224 0018 FFF7FEFF 		bl	chMtxUnlock
 225              		.loc 1 613 0 discriminator 1
 226 001c 0F48     		ldr	r0, .L8+4
 227 001e FFF7FEFF 		bl	chMtxLock
 228              		.loc 1 614 0 discriminator 1
 229 0022 FFF7FEFF 		bl	chMtxUnlock
 230              		.loc 1 615 0 discriminator 1
 231 0026 0D48     		ldr	r0, .L8+4
 232 0028 FFF7FEFF 		bl	chMtxLock
 233              		.loc 1 616 0 discriminator 1
 234 002c FFF7FEFF 		bl	chMtxUnlock
 235              		.loc 1 617 0 discriminator 1
 236 0030 0A48     		ldr	r0, .L8+4
 237 0032 FFF7FEFF 		bl	chMtxLock
 238              		.loc 1 618 0 discriminator 1
 239 0036 FFF7FEFF 		bl	chMtxUnlock
 240              		.loc 1 623 0 discriminator 1
 241 003a 2B68     		ldr	r3, [r5, #0]
 242              		.loc 1 619 0 discriminator 1
 243 003c 0134     		adds	r4, r4, #1
 244              	.LVL4:
 245              		.loc 1 623 0 discriminator 1
 246 003e 002B     		cmp	r3, #0
 247 0040 E7D0     		beq	.L5
 248              		.loc 1 624 0
 249 0042 0748     		ldr	r0, .L8+8
 250 0044 FFF7FEFF 		bl	test_print
 251              		.loc 1 625 0
 252 0048 A000     		lsls	r0, r4, #2
 253 004a FFF7FEFF 		bl	test_printn
 254              		.loc 1 626 0
 255 004e 0548     		ldr	r0, .L8+12
 256 0050 FFF7FEFF 		bl	test_println
 257              		.loc 1 627 0
 258 0054 38BD     		pop	{r3, r4, r5, pc}
 259              	.L9:
 260 0056 00BF     		.align	2
 261              	.L8:
 262 0058 00000000 		.word	test_timer_done
 263 005c 00000000 		.word	.LANCHOR0
 264 0060 A8000000 		.word	.LC11
 265 0064 B8000000 		.word	.LC12
 266              		.cfi_endproc
 267              	.LFE28:
 268              		.size	bmk12_execute, .-bmk12_execute
 269 0068 AFF30080 		.section	.text.bmk12_setup,"ax",%progbits
 269      AFF30080 
 270              		.align	2
 271              		.p2align 4,,15
 272              		.thumb
 273              		.thumb_func
 274              		.type	bmk12_setup, %function
ARM GAS  C:\Users\z80\AppData\Local\Temp\ccpOzNDI.s 			page 6


 275              	bmk12_setup:
 276              	.LFB27:
 277              		.loc 1 600 0
 278              		.cfi_startproc
 279              		@ args = 0, pretend = 0, frame = 0
 280              		@ frame_needed = 0, uses_anonymous_args = 0
 281              		.loc 1 602 0
 282 0000 40F20000 		movw	r0, #:lower16:.LANCHOR0
 283              		.loc 1 600 0
 284 0004 08B5     		push	{r3, lr}
 285              	.LCFI2:
 286              		.cfi_def_cfa_offset 8
 287              		.loc 1 602 0
 288 0006 C0F20000 		movt	r0, #:upper16:.LANCHOR0
 289              		.cfi_offset 14, -4
 290              		.cfi_offset 3, -8
 291 000a FFF7FEFF 		bl	chMtxInit
 292              		.loc 1 603 0
 293 000e 08BD     		pop	{r3, pc}
 294              		.cfi_endproc
 295              	.LFE27:
 296              		.size	bmk12_setup, .-bmk12_setup
 297              		.section	.text.thread3,"ax",%progbits
 298              		.align	2
 299              		.p2align 4,,15
 300              		.thumb
 301              		.thumb_func
 302              		.type	thread3, %function
 303              	thread3:
 304              	.LFB17:
 305              		.loc 1 352 0
 306              		.cfi_startproc
 307              		@ args = 0, pretend = 0, frame = 0
 308              		@ frame_needed = 0, uses_anonymous_args = 0
 309              	.LVL5:
 310 0000 10B5     		push	{r4, lr}
 311              	.LCFI3:
 312              		.cfi_def_cfa_offset 8
 313              		.loc 1 355 0
 314 0002 094C     		ldr	r4, .L16
 315              		.cfi_offset 14, -4
 316              		.cfi_offset 4, -8
 317 0004 E369     		ldr	r3, [r4, #28]
 318 0006 93F82130 		ldrb	r3, [r3, #33]	@ zero_extendqisi2
 319 000a 13F0040F 		tst	r3, #4
 320 000e 08D1     		bne	.L12
 321              	.LVL6:
 322              	.L14:
 323              		.loc 1 356 0
 324 0010 0648     		ldr	r0, .L16+4
 325 0012 FFF7FEFF 		bl	chSemWait
 326              		.loc 1 355 0
 327 0016 E369     		ldr	r3, [r4, #28]
 328 0018 93F82130 		ldrb	r3, [r3, #33]	@ zero_extendqisi2
 329 001c 13F0040F 		tst	r3, #4
 330 0020 F6D0     		beq	.L14
 331              	.L12:
ARM GAS  C:\Users\z80\AppData\Local\Temp\ccpOzNDI.s 			page 7


 332              		.loc 1 358 0
 333 0022 0020     		movs	r0, #0
 334 0024 10BD     		pop	{r4, pc}
 335              	.L17:
 336 0026 00BF     		.align	2
 337              	.L16:
 338 0028 00000000 		.word	rlist
 339 002c 00000000 		.word	.LANCHOR1
 340              		.cfi_endproc
 341              	.LFE17:
 342              		.size	thread3, .-thread3
 343              		.section	.text.bmk11_execute,"ax",%progbits
 344              		.align	2
 345              		.p2align 4,,15
 346              		.thumb
 347              		.thumb_func
 348              		.type	bmk11_execute, %function
 349              	bmk11_execute:
 350              	.LFB26:
 351              		.loc 1 558 0
 352              		.cfi_startproc
 353              		@ args = 0, pretend = 0, frame = 0
 354              		@ frame_needed = 0, uses_anonymous_args = 0
 355              	.LVL7:
 356 0000 38B5     		push	{r3, r4, r5, lr}
 357              	.LCFI4:
 358              		.cfi_def_cfa_offset 16
 359              		.loc 1 561 0
 360              		.cfi_offset 14, -4
 361              		.cfi_offset 5, -8
 362              		.cfi_offset 4, -12
 363              		.cfi_offset 3, -16
 364 0002 FFF7FEFF 		bl	test_wait_tick
 365              		.loc 1 562 0
 366 0006 4FF47A70 		mov	r0, #1000
 367 000a FFF7FEFF 		bl	test_start_timer
 368 000e 144D     		ldr	r5, .L21
 369              		.loc 1 559 0
 370 0010 0024     		movs	r4, #0
 371              	.LVL8:
 372              	.L19:
 373              		.loc 1 564 0 discriminator 1
 374 0012 1448     		ldr	r0, .L21+4
 375 0014 FFF7FEFF 		bl	chSemWait
 376              		.loc 1 565 0 discriminator 1
 377 0018 1248     		ldr	r0, .L21+4
 378 001a FFF7FEFF 		bl	chSemSignal
 379              		.loc 1 566 0 discriminator 1
 380 001e 1148     		ldr	r0, .L21+4
 381 0020 FFF7FEFF 		bl	chSemWait
 382              		.loc 1 567 0 discriminator 1
 383 0024 0F48     		ldr	r0, .L21+4
 384 0026 FFF7FEFF 		bl	chSemSignal
 385              		.loc 1 568 0 discriminator 1
 386 002a 0E48     		ldr	r0, .L21+4
 387 002c FFF7FEFF 		bl	chSemWait
 388              		.loc 1 569 0 discriminator 1
ARM GAS  C:\Users\z80\AppData\Local\Temp\ccpOzNDI.s 			page 8


 389 0030 0C48     		ldr	r0, .L21+4
 390 0032 FFF7FEFF 		bl	chSemSignal
 391              		.loc 1 570 0 discriminator 1
 392 0036 0B48     		ldr	r0, .L21+4
 393 0038 FFF7FEFF 		bl	chSemWait
 394              		.loc 1 571 0 discriminator 1
 395 003c 0948     		ldr	r0, .L21+4
 396 003e FFF7FEFF 		bl	chSemSignal
 397              		.loc 1 576 0 discriminator 1
 398 0042 2B68     		ldr	r3, [r5, #0]
 399              		.loc 1 572 0 discriminator 1
 400 0044 0134     		adds	r4, r4, #1
 401              	.LVL9:
 402              		.loc 1 576 0 discriminator 1
 403 0046 002B     		cmp	r3, #0
 404 0048 E3D0     		beq	.L19
 405              		.loc 1 577 0
 406 004a 0748     		ldr	r0, .L21+8
 407 004c FFF7FEFF 		bl	test_print
 408              		.loc 1 578 0
 409 0050 A000     		lsls	r0, r4, #2
 410 0052 FFF7FEFF 		bl	test_printn
 411              		.loc 1 579 0
 412 0056 0548     		ldr	r0, .L21+12
 413 0058 FFF7FEFF 		bl	test_println
 414              		.loc 1 580 0
 415 005c 38BD     		pop	{r3, r4, r5, pc}
 416              	.L22:
 417 005e 00BF     		.align	2
 418              	.L21:
 419 0060 00000000 		.word	test_timer_done
 420 0064 00000000 		.word	.LANCHOR1
 421 0068 A8000000 		.word	.LC11
 422 006c C8000000 		.word	.LC13
 423              		.cfi_endproc
 424              	.LFE26:
 425              		.size	bmk11_execute, .-bmk11_execute
 426              		.section	.text.bmk11_setup,"ax",%progbits
 427              		.align	2
 428              		.p2align 4,,15
 429              		.thumb
 430              		.thumb_func
 431              		.type	bmk11_setup, %function
 432              	bmk11_setup:
 433              	.LFB25:
 434              		.loc 1 553 0
 435              		.cfi_startproc
 436              		@ args = 0, pretend = 0, frame = 0
 437              		@ frame_needed = 0, uses_anonymous_args = 0
 438              		.loc 1 555 0
 439 0000 40F20000 		movw	r0, #:lower16:.LANCHOR1
 440              		.loc 1 553 0
 441 0004 08B5     		push	{r3, lr}
 442              	.LCFI5:
 443              		.cfi_def_cfa_offset 8
 444              		.loc 1 555 0
 445 0006 C0F20000 		movt	r0, #:upper16:.LANCHOR1
ARM GAS  C:\Users\z80\AppData\Local\Temp\ccpOzNDI.s 			page 9


 446 000a 0121     		movs	r1, #1
 447              		.cfi_offset 14, -4
 448              		.cfi_offset 3, -8
 449 000c FFF7FEFF 		bl	chSemInit
 450              		.loc 1 556 0
 451 0010 08BD     		pop	{r3, pc}
 452              		.cfi_endproc
 453              	.LFE25:
 454              		.size	bmk11_setup, .-bmk11_setup
 455 0012 00BFAFF3 		.section	.text.bmk7_setup,"ax",%progbits
 455      0080AFF3 
 455      0080AFF3 
 455      0080
 456              		.align	2
 457              		.p2align 4,,15
 458              		.thumb
 459              		.thumb_func
 460              		.type	bmk7_setup, %function
 461              	bmk7_setup:
 462              	.LFB18:
 463              		.loc 1 360 0
 464              		.cfi_startproc
 465              		@ args = 0, pretend = 0, frame = 0
 466              		@ frame_needed = 0, uses_anonymous_args = 0
 467              		.loc 1 362 0
 468 0000 40F20000 		movw	r0, #:lower16:.LANCHOR1
 469              		.loc 1 360 0
 470 0004 08B5     		push	{r3, lr}
 471              	.LCFI6:
 472              		.cfi_def_cfa_offset 8
 473              		.loc 1 362 0
 474 0006 C0F20000 		movt	r0, #:upper16:.LANCHOR1
 475 000a 0021     		movs	r1, #0
 476              		.cfi_offset 14, -4
 477              		.cfi_offset 3, -8
 478 000c FFF7FEFF 		bl	chSemInit
 479              		.loc 1 363 0
 480 0010 08BD     		pop	{r3, pc}
 481              		.cfi_endproc
 482              	.LFE18:
 483              		.size	bmk7_setup, .-bmk7_setup
 484 0012 00BFAFF3 		.section	.text.bmk10_execute,"ax",%progbits
 484      0080AFF3 
 484      0080AFF3 
 484      0080
 485              		.align	2
 486              		.p2align 4,,15
 487              		.thumb
 488              		.thumb_func
 489              		.type	bmk10_execute, %function
 490              	bmk10_execute:
 491              	.LFB24:
 492              		.loc 1 513 0
 493              		.cfi_startproc
 494              		@ args = 0, pretend = 0, frame = 0
 495              		@ frame_needed = 0, uses_anonymous_args = 0
 496              	.LVL10:
ARM GAS  C:\Users\z80\AppData\Local\Temp\ccpOzNDI.s 			page 10


 497 0000 38B5     		push	{r3, r4, r5, lr}
 498              	.LCFI7:
 499              		.cfi_def_cfa_offset 16
 500              		.loc 1 517 0
 501              		.cfi_offset 14, -4
 502              		.cfi_offset 5, -8
 503              		.cfi_offset 4, -12
 504              		.cfi_offset 3, -16
 505 0002 FFF7FEFF 		bl	test_wait_tick
 506              		.loc 1 518 0
 507 0006 4FF47A70 		mov	r0, #1000
 508 000a FFF7FEFF 		bl	test_start_timer
 509 000e 164D     		ldr	r5, .L28
 510              		.loc 1 515 0
 511 0010 0024     		movs	r4, #0
 512              	.LVL11:
 513              	.L26:
 514              	.LBB2:
 515              		.loc 1 520 0 discriminator 1
 516 0012 2023     		movs	r3, #32
 517              	.LVL12:
 518              	@ 520 "../chibios_2.4.x/test/testbmk.c" 1
 519 0014 83F31188 		msr     BASEPRI, r3
 520              	@ 0 "" 2
 521              	.LVL13:
 522              		.thumb
 523              	.LBE2:
 524 0018 FFF7FEFF 		bl	dbg_check_lock
 525              	.LVL14:
 526              		.loc 1 521 0 discriminator 1
 527 001c 0121     		movs	r1, #1
 528 001e 0023     		movs	r3, #0
 529 0020 1248     		ldr	r0, .L28+4
 530 0022 134A     		ldr	r2, .L28+8
 531 0024 FFF7FEFF 		bl	chVTSetI
 532              		.loc 1 522 0 discriminator 1
 533 0028 0023     		movs	r3, #0
 534 002a 42F21071 		movw	r1, #10000
 535 002e 104A     		ldr	r2, .L28+8
 536 0030 1048     		ldr	r0, .L28+12
 537 0032 FFF7FEFF 		bl	chVTSetI
 538              		.loc 1 523 0 discriminator 1
 539 0036 0D48     		ldr	r0, .L28+4
 540 0038 FFF7FEFF 		bl	chVTResetI
 541              		.loc 1 524 0 discriminator 1
 542 003c 0D48     		ldr	r0, .L28+12
 543 003e FFF7FEFF 		bl	chVTResetI
 544              		.loc 1 525 0 discriminator 1
 545 0042 FFF7FEFF 		bl	dbg_check_unlock
 546              	.LBB3:
 547 0046 0023     		movs	r3, #0
 548              	.LVL15:
 549              	@ 525 "../chibios_2.4.x/test/testbmk.c" 1
 550 0048 83F31188 		msr     BASEPRI, r3
 551              	@ 0 "" 2
 552              	.LVL16:
 553              		.thumb
ARM GAS  C:\Users\z80\AppData\Local\Temp\ccpOzNDI.s 			page 11


 554              	.LBE3:
 555              		.loc 1 530 0 discriminator 1
 556 004c 2B68     		ldr	r3, [r5, #0]
 557              	.LVL17:
 558              		.loc 1 526 0 discriminator 1
 559 004e 0134     		adds	r4, r4, #1
 560              	.LVL18:
 561              		.loc 1 530 0 discriminator 1
 562 0050 002B     		cmp	r3, #0
 563 0052 DED0     		beq	.L26
 564              		.loc 1 531 0
 565 0054 0848     		ldr	r0, .L28+16
 566 0056 FFF7FEFF 		bl	test_print
 567              		.loc 1 532 0
 568 005a 6000     		lsls	r0, r4, #1
 569 005c FFF7FEFF 		bl	test_printn
 570              		.loc 1 533 0
 571 0060 0648     		ldr	r0, .L28+20
 572 0062 FFF7FEFF 		bl	test_println
 573              		.loc 1 534 0
 574 0066 38BD     		pop	{r3, r4, r5, pc}
 575              	.L29:
 576              		.align	2
 577              	.L28:
 578 0068 00000000 		.word	test_timer_done
 579 006c 00000000 		.word	.LANCHOR2
 580 0070 00000000 		.word	tmo
 581 0074 00000000 		.word	.LANCHOR3
 582 0078 A8000000 		.word	.LC11
 583 007c D8000000 		.word	.LC14
 584              		.cfi_endproc
 585              	.LFE24:
 586              		.size	bmk10_execute, .-bmk10_execute
 587              		.section	.text.bmk9_execute,"ax",%progbits
 588              		.align	2
 589              		.p2align 4,,15
 590              		.thumb
 591              		.thumb_func
 592              		.type	bmk9_execute, %function
 593              	bmk9_execute:
 594              	.LFB22:
 595              		.loc 1 465 0
 596              		.cfi_startproc
 597              		@ args = 0, pretend = 0, frame = 0
 598              		@ frame_needed = 0, uses_anonymous_args = 0
 599 0000 38B5     		push	{r3, r4, r5, lr}
 600              	.LCFI8:
 601              		.cfi_def_cfa_offset 16
 602              		.loc 1 470 0
 603 0002 2549     		ldr	r1, .L33
 604 0004 1022     		movs	r2, #16
 605 0006 0023     		movs	r3, #0
 606              		.cfi_offset 14, -4
 607              		.cfi_offset 5, -8
 608              		.cfi_offset 4, -12
 609              		.cfi_offset 3, -16
 610 0008 2448     		ldr	r0, .L33+4
ARM GAS  C:\Users\z80\AppData\Local\Temp\ccpOzNDI.s 			page 12


 611 000a FFF7FEFF 		bl	chIQInit
 612              	.LVL19:
 613              		.loc 1 472 0
 614 000e FFF7FEFF 		bl	test_wait_tick
 615              		.loc 1 473 0
 616 0012 4FF47A70 		mov	r0, #1000
 617 0016 FFF7FEFF 		bl	test_start_timer
 618 001a 214D     		ldr	r5, .L33+8
 619              		.loc 1 471 0
 620 001c 0024     		movs	r4, #0
 621              	.LVL20:
 622              	.L31:
 623              	.LBB4:
 624              		.loc 1 475 0 discriminator 1
 625 001e 2023     		movs	r3, #32
 626              	.LVL21:
 627              	@ 475 "../chibios_2.4.x/test/testbmk.c" 1
 628 0020 83F31188 		msr     BASEPRI, r3
 629              	@ 0 "" 2
 630              	.LVL22:
 631              		.thumb
 632              	.LBE4:
 633 0024 FFF7FEFF 		bl	dbg_check_lock
 634              	.LVL23:
 635              		.loc 1 476 0 discriminator 1
 636 0028 0021     		movs	r1, #0
 637 002a 1C48     		ldr	r0, .L33+4
 638 002c FFF7FEFF 		bl	chIQPutI
 639              		.loc 1 477 0 discriminator 1
 640 0030 0121     		movs	r1, #1
 641 0032 1A48     		ldr	r0, .L33+4
 642 0034 FFF7FEFF 		bl	chIQPutI
 643              		.loc 1 478 0 discriminator 1
 644 0038 0221     		movs	r1, #2
 645 003a 1848     		ldr	r0, .L33+4
 646 003c FFF7FEFF 		bl	chIQPutI
 647              		.loc 1 479 0 discriminator 1
 648 0040 0321     		movs	r1, #3
 649 0042 1648     		ldr	r0, .L33+4
 650 0044 FFF7FEFF 		bl	chIQPutI
 651              		.loc 1 480 0 discriminator 1
 652 0048 FFF7FEFF 		bl	dbg_check_unlock
 653              	.LBB5:
 654 004c 0023     		movs	r3, #0
 655              	.LVL24:
 656              	@ 480 "../chibios_2.4.x/test/testbmk.c" 1
 657 004e 83F31188 		msr     BASEPRI, r3
 658              	@ 0 "" 2
 659              	.LVL25:
 660              		.thumb
 661              	.LBE5:
 662              		.loc 1 481 0 discriminator 1
 663 0052 4FF0FF31 		mov	r1, #-1
 664 0056 1148     		ldr	r0, .L33+4
 665 0058 FFF7FEFF 		bl	chIQGetTimeout
 666              	.LVL26:
 667              		.loc 1 482 0 discriminator 1
ARM GAS  C:\Users\z80\AppData\Local\Temp\ccpOzNDI.s 			page 13


 668 005c 4FF0FF31 		mov	r1, #-1
 669 0060 0E48     		ldr	r0, .L33+4
 670 0062 FFF7FEFF 		bl	chIQGetTimeout
 671              		.loc 1 483 0 discriminator 1
 672 0066 4FF0FF31 		mov	r1, #-1
 673 006a 0C48     		ldr	r0, .L33+4
 674 006c FFF7FEFF 		bl	chIQGetTimeout
 675              		.loc 1 484 0 discriminator 1
 676 0070 0A48     		ldr	r0, .L33+4
 677 0072 4FF0FF31 		mov	r1, #-1
 678 0076 FFF7FEFF 		bl	chIQGetTimeout
 679              		.loc 1 489 0 discriminator 1
 680 007a 2B68     		ldr	r3, [r5, #0]
 681              		.loc 1 485 0 discriminator 1
 682 007c 0134     		adds	r4, r4, #1
 683              	.LVL27:
 684              		.loc 1 489 0 discriminator 1
 685 007e 002B     		cmp	r3, #0
 686 0080 CDD0     		beq	.L31
 687              		.loc 1 490 0
 688 0082 0848     		ldr	r0, .L33+12
 689 0084 FFF7FEFF 		bl	test_print
 690              		.loc 1 491 0
 691 0088 A000     		lsls	r0, r4, #2
 692 008a FFF7FEFF 		bl	test_printn
 693              		.loc 1 492 0
 694 008e 0648     		ldr	r0, .L33+16
 695 0090 FFF7FEFF 		bl	test_println
 696              		.loc 1 493 0
 697 0094 38BD     		pop	{r3, r4, r5, pc}
 698              	.L34:
 699 0096 00BF     		.align	2
 700              	.L33:
 701 0098 00000000 		.word	.LANCHOR5
 702 009c 00000000 		.word	.LANCHOR4
 703 00a0 00000000 		.word	test_timer_done
 704 00a4 A8000000 		.word	.LC11
 705 00a8 E4000000 		.word	.LC15
 706              		.cfi_endproc
 707              	.LFE22:
 708              		.size	bmk9_execute, .-bmk9_execute
 709 00ac AFF30080 		.section	.text.bmk6_execute,"ax",%progbits
 710              		.align	2
 711              		.p2align 4,,15
 712              		.thumb
 713              		.thumb_func
 714              		.type	bmk6_execute, %function
 715              	bmk6_execute:
 716              	.LFB16:
 717              		.loc 1 315 0
 718              		.cfi_startproc
 719              		@ args = 0, pretend = 0, frame = 0
 720              		@ frame_needed = 0, uses_anonymous_args = 0
 721              	.LVL28:
 722 0000 2DE9F041 		push	{r4, r5, r6, r7, r8, lr}
 723              	.LCFI9:
 724              		.cfi_def_cfa_offset 24
ARM GAS  C:\Users\z80\AppData\Local\Temp\ccpOzNDI.s 			page 14


 725              		.loc 1 319 0
 726 0004 144B     		ldr	r3, .L38
 727              		.loc 1 318 0
 728 0006 154A     		ldr	r2, .L38+4
 729              		.loc 1 319 0
 730 0008 DB69     		ldr	r3, [r3, #28]
 731              		.loc 1 315 0
 732 000a 82B0     		sub	sp, sp, #8
 733              	.LCFI10:
 734              		.cfi_def_cfa_offset 32
 735              		.loc 1 319 0
 736 000c 9F68     		ldr	r7, [r3, #8]
 737              		.cfi_offset 14, -4
 738              		.cfi_offset 8, -8
 739              		.cfi_offset 7, -12
 740              		.cfi_offset 6, -16
 741              		.cfi_offset 5, -20
 742              		.cfi_offset 4, -24
 743              		.loc 1 318 0
 744 000e D2F80080 		ldr	r8, [r2, #0]
 745              	.LVL29:
 746              		.loc 1 320 0
 747 0012 FFF7FEFF 		bl	test_wait_tick
 748              	.LVL30:
 749              		.loc 1 321 0
 750 0016 4FF47A70 		mov	r0, #1000
 751 001a FFF7FEFF 		bl	test_start_timer
 752              		.loc 1 317 0
 753 001e 0024     		movs	r4, #0
 754 0020 0F4E     		ldr	r6, .L38+8
 755              		.loc 1 319 0
 756 0022 0137     		adds	r7, r7, #1
 757              	.LVL31:
 758              		.loc 1 323 0
 759 0024 2546     		mov	r5, r4
 760              	.LVL32:
 761              	.L36:
 762              		.loc 1 323 0 is_stmt 0 discriminator 1
 763 0026 0F4B     		ldr	r3, .L38+12
 764 0028 4046     		mov	r0, r8
 765 002a 4FF49871 		mov	r1, #304
 766 002e 3A46     		mov	r2, r7
 767 0030 0095     		str	r5, [sp, #0]
 768 0032 FFF7FEFF 		bl	chThdCreateStatic
 769              		.loc 1 328 0 is_stmt 1 discriminator 1
 770 0036 3368     		ldr	r3, [r6, #0]
 771              		.loc 1 324 0 discriminator 1
 772 0038 0134     		adds	r4, r4, #1
 773              	.LVL33:
 774              		.loc 1 328 0 discriminator 1
 775 003a 002B     		cmp	r3, #0
 776 003c F3D0     		beq	.L36
 777              		.loc 1 329 0
 778 003e 0A48     		ldr	r0, .L38+16
 779 0040 FFF7FEFF 		bl	test_print
 780              		.loc 1 330 0
 781 0044 2046     		mov	r0, r4
ARM GAS  C:\Users\z80\AppData\Local\Temp\ccpOzNDI.s 			page 15


 782 0046 FFF7FEFF 		bl	test_printn
 783              		.loc 1 331 0
 784 004a 0848     		ldr	r0, .L38+20
 785 004c FFF7FEFF 		bl	test_println
 786              		.loc 1 332 0
 787 0050 02B0     		add	sp, sp, #8
 788 0052 BDE8F081 		pop	{r4, r5, r6, r7, r8, pc}
 789              	.L39:
 790 0056 00BF     		.align	2
 791              	.L38:
 792 0058 00000000 		.word	rlist
 793 005c 00000000 		.word	wa
 794 0060 00000000 		.word	test_timer_done
 795 0064 00000000 		.word	thread2
 796 0068 A8000000 		.word	.LC11
 797 006c F0000000 		.word	.LC16
 798              		.cfi_endproc
 799              	.LFE16:
 800              		.size	bmk6_execute, .-bmk6_execute
 801              		.section	.text.bmk8_execute,"ax",%progbits
 802              		.align	2
 803              		.p2align 4,,15
 804              		.thumb
 805              		.thumb_func
 806              		.type	bmk8_execute, %function
 807              	bmk8_execute:
 808              	.LFB21:
 809              		.loc 1 427 0
 810              		.cfi_startproc
 811              		@ args = 0, pretend = 0, frame = 8
 812              		@ frame_needed = 0, uses_anonymous_args = 0
 813 0000 2DE9F041 		push	{r4, r5, r6, r7, r8, lr}
 814              	.LCFI11:
 815              		.cfi_def_cfa_offset 24
 816              		.loc 1 433 0
 817 0004 40F20007 		movw	r7, #:lower16:rlist
 818              		.cfi_offset 14, -4
 819              		.cfi_offset 8, -8
 820              		.cfi_offset 7, -12
 821              		.cfi_offset 6, -16
 822              		.cfi_offset 5, -20
 823              		.cfi_offset 4, -24
 824              		.loc 1 427 0
 825 0008 84B0     		sub	sp, sp, #16
 826              	.LCFI12:
 827              		.cfi_def_cfa_offset 40
 828              		.loc 1 430 0
 829 000a 04AC     		add	r4, sp, #16
 830              		.loc 1 433 0
 831 000c C0F20007 		movt	r7, #:upper16:rlist
 832              		.loc 1 430 0
 833 0010 0023     		movs	r3, #0
 834 0012 44F8043D 		str	r3, [r4, #-4]!
 835              	.LVL34:
 836              		.loc 1 431 0
 837 0016 FFF7FEFF 		bl	test_wait_tick
 838              		.loc 1 433 0
ARM GAS  C:\Users\z80\AppData\Local\Temp\ccpOzNDI.s 			page 16


 839 001a FB69     		ldr	r3, [r7, #28]
 840 001c 40F20006 		movw	r6, #:lower16:wa
 841 0020 9A68     		ldr	r2, [r3, #8]
 842 0022 40F20005 		movw	r5, #:lower16:thread8
 843 0026 C0F20006 		movt	r6, #:upper16:wa
 844 002a C0F20005 		movt	r5, #:upper16:thread8
 845 002e 013A     		subs	r2, r2, #1
 846 0030 2B46     		mov	r3, r5
 847 0032 3068     		ldr	r0, [r6, #0]
 848 0034 4FF49871 		mov	r1, #304
 849 0038 0094     		str	r4, [sp, #0]
 850 003a FFF7FEFF 		bl	chThdCreateStatic
 851              		.loc 1 434 0
 852 003e FB69     		ldr	r3, [r7, #28]
 853              		.loc 1 433 0
 854 0040 40F20008 		movw	r8, #:lower16:threads
 855              		.loc 1 434 0
 856 0044 9A68     		ldr	r2, [r3, #8]
 857              		.loc 1 433 0
 858 0046 C0F20008 		movt	r8, #:upper16:threads
 859 004a 8446     		mov	ip, r0
 860              		.loc 1 434 0
 861 004c 013A     		subs	r2, r2, #1
 862 004e 2B46     		mov	r3, r5
 863 0050 7068     		ldr	r0, [r6, #4]
 864 0052 4FF49871 		mov	r1, #304
 865              		.loc 1 433 0
 866 0056 C8F800C0 		str	ip, [r8, #0]
 867              		.loc 1 434 0
 868 005a 0094     		str	r4, [sp, #0]
 869 005c FFF7FEFF 		bl	chThdCreateStatic
 870              		.loc 1 435 0
 871 0060 FB69     		ldr	r3, [r7, #28]
 872              		.loc 1 434 0
 873 0062 8446     		mov	ip, r0
 874              		.loc 1 435 0
 875 0064 9A68     		ldr	r2, [r3, #8]
 876 0066 B068     		ldr	r0, [r6, #8]
 877 0068 013A     		subs	r2, r2, #1
 878 006a 2B46     		mov	r3, r5
 879 006c 4FF49871 		mov	r1, #304
 880              		.loc 1 434 0
 881 0070 C8F804C0 		str	ip, [r8, #4]
 882              		.loc 1 435 0
 883 0074 0094     		str	r4, [sp, #0]
 884 0076 FFF7FEFF 		bl	chThdCreateStatic
 885              		.loc 1 436 0
 886 007a FB69     		ldr	r3, [r7, #28]
 887              		.loc 1 435 0
 888 007c 8446     		mov	ip, r0
 889              		.loc 1 436 0
 890 007e 9A68     		ldr	r2, [r3, #8]
 891 0080 F068     		ldr	r0, [r6, #12]
 892 0082 013A     		subs	r2, r2, #1
 893 0084 2B46     		mov	r3, r5
 894 0086 4FF49871 		mov	r1, #304
 895              		.loc 1 435 0
ARM GAS  C:\Users\z80\AppData\Local\Temp\ccpOzNDI.s 			page 17


 896 008a C8F808C0 		str	ip, [r8, #8]
 897              		.loc 1 436 0
 898 008e 0094     		str	r4, [sp, #0]
 899 0090 FFF7FEFF 		bl	chThdCreateStatic
 900              		.loc 1 437 0
 901 0094 FB69     		ldr	r3, [r7, #28]
 902              		.loc 1 436 0
 903 0096 8446     		mov	ip, r0
 904              		.loc 1 437 0
 905 0098 9A68     		ldr	r2, [r3, #8]
 906 009a 4FF49871 		mov	r1, #304
 907 009e 013A     		subs	r2, r2, #1
 908 00a0 2B46     		mov	r3, r5
 909 00a2 3069     		ldr	r0, [r6, #16]
 910              		.loc 1 436 0
 911 00a4 C8F80CC0 		str	ip, [r8, #12]
 912              		.loc 1 437 0
 913 00a8 0094     		str	r4, [sp, #0]
 914 00aa FFF7FEFF 		bl	chThdCreateStatic
 915 00ae 0346     		mov	r3, r0
 916              		.loc 1 439 0
 917 00b0 4FF4FA70 		mov	r0, #500
 918              		.loc 1 437 0
 919 00b4 C8F81030 		str	r3, [r8, #16]
 920              		.loc 1 439 0
 921 00b8 FFF7FEFF 		bl	chThdSleep
 922              		.loc 1 440 0
 923 00bc FFF7FEFF 		bl	test_terminate_threads
 924              		.loc 1 441 0
 925 00c0 FFF7FEFF 		bl	test_wait_threads
 926              		.loc 1 443 0
 927 00c4 40F20000 		movw	r0, #:lower16:.LC11
 928 00c8 C0F20000 		movt	r0, #:upper16:.LC11
 929 00cc FFF7FEFF 		bl	test_print
 930              		.loc 1 444 0
 931 00d0 0398     		ldr	r0, [sp, #12]
 932 00d2 FFF7FEFF 		bl	test_printn
 933              		.loc 1 445 0
 934 00d6 40F20000 		movw	r0, #:lower16:.LC17
 935 00da C0F20000 		movt	r0, #:upper16:.LC17
 936 00de FFF7FEFF 		bl	test_println
 937              		.loc 1 446 0
 938 00e2 04B0     		add	sp, sp, #16
 939 00e4 BDE8F081 		pop	{r4, r5, r6, r7, r8, pc}
 940              		.cfi_endproc
 941              	.LFE21:
 942              		.size	bmk8_execute, .-bmk8_execute
 943 00e8 AFF30080 		.section	.text.thread8,"ax",%progbits
 943      AFF30080 
 944              		.align	2
 945              		.p2align 4,,15
 946              		.thumb
 947              		.thumb_func
 948              		.type	thread8, %function
 949              	thread8:
 950              	.LFB20:
 951              		.loc 1 412 0
ARM GAS  C:\Users\z80\AppData\Local\Temp\ccpOzNDI.s 			page 18


 952              		.cfi_startproc
 953              		@ args = 0, pretend = 0, frame = 0
 954              		@ frame_needed = 0, uses_anonymous_args = 0
 955              	.LVL35:
 956 0000 38B5     		push	{r3, r4, r5, lr}
 957              	.LCFI13:
 958              		.cfi_def_cfa_offset 16
 959 0002 0A4C     		ldr	r4, .L44
 960              		.cfi_offset 14, -4
 961              		.cfi_offset 5, -8
 962              		.cfi_offset 4, -12
 963              		.cfi_offset 3, -16
 964              		.loc 1 412 0
 965 0004 0546     		mov	r5, r0
 966              	.LVL36:
 967              	.L42:
 968              		.loc 1 415 0 discriminator 1
 969 0006 FFF7FEFF 		bl	chThdYield
 970              		.loc 1 416 0 discriminator 1
 971 000a FFF7FEFF 		bl	chThdYield
 972              		.loc 1 417 0 discriminator 1
 973 000e FFF7FEFF 		bl	chThdYield
 974              		.loc 1 418 0 discriminator 1
 975 0012 FFF7FEFF 		bl	chThdYield
 976              		.loc 1 419 0 discriminator 1
 977 0016 2A68     		ldr	r2, [r5, #0]
 978              		.loc 1 423 0 discriminator 1
 979 0018 E369     		ldr	r3, [r4, #28]
 980              		.loc 1 419 0 discriminator 1
 981 001a 0432     		adds	r2, r2, #4
 982 001c 2A60     		str	r2, [r5, #0]
 983              		.loc 1 423 0 discriminator 1
 984 001e 93F82130 		ldrb	r3, [r3, #33]	@ zero_extendqisi2
 985 0022 13F0040F 		tst	r3, #4
 986 0026 EED0     		beq	.L42
 987              		.loc 1 425 0
 988 0028 0020     		movs	r0, #0
 989 002a 38BD     		pop	{r3, r4, r5, pc}
 990              	.L45:
 991              		.align	2
 992              	.L44:
 993 002c 00000000 		.word	rlist
 994              		.cfi_endproc
 995              	.LFE20:
 996              		.size	thread8, .-thread8
 997              		.section	.text.bmk7_execute,"ax",%progbits
 998              		.align	2
 999              		.p2align 4,,15
 1000              		.thumb
 1001              		.thumb_func
 1002              		.type	bmk7_execute, %function
 1003              	bmk7_execute:
 1004              	.LFB19:
 1005              		.loc 1 365 0
 1006              		.cfi_startproc
 1007              		@ args = 0, pretend = 0, frame = 0
 1008              		@ frame_needed = 0, uses_anonymous_args = 0
ARM GAS  C:\Users\z80\AppData\Local\Temp\ccpOzNDI.s 			page 19


 1009 0000 F0B5     		push	{r4, r5, r6, r7, lr}
 1010              	.LCFI14:
 1011              		.cfi_def_cfa_offset 20
 1012              		.loc 1 368 0
 1013 0002 374F     		ldr	r7, .L49
 1014              		.cfi_offset 14, -4
 1015              		.cfi_offset 7, -8
 1016              		.cfi_offset 6, -12
 1017              		.cfi_offset 5, -16
 1018              		.cfi_offset 4, -20
 1019 0004 374E     		ldr	r6, .L49+4
 1020 0006 FB69     		ldr	r3, [r7, #28]
 1021              		.loc 1 365 0
 1022 0008 83B0     		sub	sp, sp, #12
 1023              	.LCFI15:
 1024              		.cfi_def_cfa_offset 32
 1025              		.loc 1 368 0
 1026 000a 9A68     		ldr	r2, [r3, #8]
 1027 000c 0024     		movs	r4, #0
 1028 000e 0532     		adds	r2, r2, #5
 1029 0010 4FF49871 		mov	r1, #304
 1030 0014 344B     		ldr	r3, .L49+8
 1031 0016 3068     		ldr	r0, [r6, #0]
 1032 0018 0094     		str	r4, [sp, #0]
 1033 001a FFF7FEFF 		bl	chThdCreateStatic
 1034              		.loc 1 369 0
 1035 001e FB69     		ldr	r3, [r7, #28]
 1036              		.loc 1 368 0
 1037 0020 324D     		ldr	r5, .L49+12
 1038              		.loc 1 369 0
 1039 0022 9A68     		ldr	r2, [r3, #8]
 1040              		.loc 1 368 0
 1041 0024 8446     		mov	ip, r0
 1042 0026 C5F800C0 		str	ip, [r5, #0]
 1043              		.loc 1 369 0
 1044 002a 0432     		adds	r2, r2, #4
 1045 002c 4FF49871 		mov	r1, #304
 1046 0030 2D4B     		ldr	r3, .L49+8
 1047 0032 7068     		ldr	r0, [r6, #4]
 1048 0034 0094     		str	r4, [sp, #0]
 1049 0036 FFF7FEFF 		bl	chThdCreateStatic
 1050              		.loc 1 370 0
 1051 003a FB69     		ldr	r3, [r7, #28]
 1052              		.loc 1 369 0
 1053 003c 8446     		mov	ip, r0
 1054              		.loc 1 370 0
 1055 003e 9A68     		ldr	r2, [r3, #8]
 1056 0040 4FF49871 		mov	r1, #304
 1057              		.loc 1 369 0
 1058 0044 C5F804C0 		str	ip, [r5, #4]
 1059              		.loc 1 370 0
 1060 0048 0332     		adds	r2, r2, #3
 1061 004a 274B     		ldr	r3, .L49+8
 1062 004c B068     		ldr	r0, [r6, #8]
 1063 004e 0094     		str	r4, [sp, #0]
 1064 0050 FFF7FEFF 		bl	chThdCreateStatic
 1065              		.loc 1 371 0
ARM GAS  C:\Users\z80\AppData\Local\Temp\ccpOzNDI.s 			page 20


 1066 0054 FB69     		ldr	r3, [r7, #28]
 1067              		.loc 1 370 0
 1068 0056 8446     		mov	ip, r0
 1069              		.loc 1 371 0
 1070 0058 9A68     		ldr	r2, [r3, #8]
 1071 005a 4FF49871 		mov	r1, #304
 1072              		.loc 1 370 0
 1073 005e C5F808C0 		str	ip, [r5, #8]
 1074              		.loc 1 371 0
 1075 0062 0232     		adds	r2, r2, #2
 1076 0064 204B     		ldr	r3, .L49+8
 1077 0066 F068     		ldr	r0, [r6, #12]
 1078 0068 0094     		str	r4, [sp, #0]
 1079 006a FFF7FEFF 		bl	chThdCreateStatic
 1080              		.loc 1 372 0
 1081 006e FB69     		ldr	r3, [r7, #28]
 1082              		.loc 1 371 0
 1083 0070 8446     		mov	ip, r0
 1084              		.loc 1 372 0
 1085 0072 9A68     		ldr	r2, [r3, #8]
 1086 0074 4FF49871 		mov	r1, #304
 1087              		.loc 1 371 0
 1088 0078 C5F80CC0 		str	ip, [r5, #12]
 1089              		.loc 1 372 0
 1090 007c 0132     		adds	r2, r2, #1
 1091 007e 1A4B     		ldr	r3, .L49+8
 1092 0080 3069     		ldr	r0, [r6, #16]
 1093 0082 0094     		str	r4, [sp, #0]
 1094 0084 FFF7FEFF 		bl	chThdCreateStatic
 1095 0088 2861     		str	r0, [r5, #16]
 1096              	.LVL37:
 1097              		.loc 1 375 0
 1098 008a FFF7FEFF 		bl	test_wait_tick
 1099              		.loc 1 376 0
 1100 008e 4FF47A70 		mov	r0, #1000
 1101 0092 FFF7FEFF 		bl	test_start_timer
 1102 0096 164D     		ldr	r5, .L49+16
 1103              	.LVL38:
 1104              	.L47:
 1105              		.loc 1 378 0 discriminator 1
 1106 0098 1648     		ldr	r0, .L49+20
 1107 009a 0021     		movs	r1, #0
 1108 009c FFF7FEFF 		bl	chSemReset
 1109              		.loc 1 383 0 discriminator 1
 1110 00a0 2B68     		ldr	r3, [r5, #0]
 1111              		.loc 1 379 0 discriminator 1
 1112 00a2 0134     		adds	r4, r4, #1
 1113              	.LVL39:
 1114              		.loc 1 383 0 discriminator 1
 1115 00a4 002B     		cmp	r3, #0
 1116 00a6 F7D0     		beq	.L47
 1117              		.loc 1 384 0
 1118 00a8 FFF7FEFF 		bl	test_terminate_threads
 1119              		.loc 1 385 0
 1120 00ac 0021     		movs	r1, #0
 1121 00ae 1148     		ldr	r0, .L49+20
 1122 00b0 FFF7FEFF 		bl	chSemReset
ARM GAS  C:\Users\z80\AppData\Local\Temp\ccpOzNDI.s 			page 21


 1123              		.loc 1 386 0
 1124 00b4 FFF7FEFF 		bl	test_wait_threads
 1125              		.loc 1 388 0
 1126 00b8 0F48     		ldr	r0, .L49+24
 1127 00ba FFF7FEFF 		bl	test_print
 1128              		.loc 1 389 0
 1129 00be 2046     		mov	r0, r4
 1130 00c0 FFF7FEFF 		bl	test_printn
 1131              		.loc 1 391 0
 1132 00c4 04EB4404 		add	r4, r4, r4, lsl #1
 1133              	.LVL40:
 1134              		.loc 1 390 0
 1135 00c8 0C48     		ldr	r0, .L49+28
 1136 00ca FFF7FEFF 		bl	test_print
 1137              		.loc 1 391 0
 1138 00ce 6000     		lsls	r0, r4, #1
 1139 00d0 FFF7FEFF 		bl	test_printn
 1140              		.loc 1 392 0
 1141 00d4 0A48     		ldr	r0, .L49+32
 1142 00d6 FFF7FEFF 		bl	test_println
 1143              		.loc 1 393 0
 1144 00da 03B0     		add	sp, sp, #12
 1145 00dc F0BD     		pop	{r4, r5, r6, r7, pc}
 1146              	.L50:
 1147 00de 00BF     		.align	2
 1148              	.L49:
 1149 00e0 00000000 		.word	rlist
 1150 00e4 00000000 		.word	wa
 1151 00e8 00000000 		.word	thread3
 1152 00ec 00000000 		.word	threads
 1153 00f0 00000000 		.word	test_timer_done
 1154 00f4 00000000 		.word	.LANCHOR1
 1155 00f8 A8000000 		.word	.LC11
 1156 00fc 08010000 		.word	.LC18
 1157 0100 FC000000 		.word	.LC17
 1158              		.cfi_endproc
 1159              	.LFE19:
 1160              		.size	bmk7_execute, .-bmk7_execute
 1161 0104 AFF30080 		.section	.text.bmk5_execute,"ax",%progbits
 1161      AFF30080 
 1161      AFF30080 
 1162              		.align	2
 1163              		.p2align 4,,15
 1164              		.thumb
 1165              		.thumb_func
 1166              		.type	bmk5_execute, %function
 1167              	bmk5_execute:
 1168              	.LFB15:
 1169              		.loc 1 276 0
 1170              		.cfi_startproc
 1171              		@ args = 0, pretend = 0, frame = 0
 1172              		@ frame_needed = 0, uses_anonymous_args = 0
 1173              	.LVL41:
 1174 0000 2DE9F041 		push	{r4, r5, r6, r7, r8, lr}
 1175              	.LCFI16:
 1176              		.cfi_def_cfa_offset 24
 1177              		.loc 1 280 0
ARM GAS  C:\Users\z80\AppData\Local\Temp\ccpOzNDI.s 			page 22


 1178 0004 154B     		ldr	r3, .L54
 1179              		.loc 1 279 0
 1180 0006 164A     		ldr	r2, .L54+4
 1181              		.loc 1 280 0
 1182 0008 DB69     		ldr	r3, [r3, #28]
 1183              		.loc 1 276 0
 1184 000a 82B0     		sub	sp, sp, #8
 1185              	.LCFI17:
 1186              		.cfi_def_cfa_offset 32
 1187              		.loc 1 280 0
 1188 000c 9F68     		ldr	r7, [r3, #8]
 1189              		.cfi_offset 14, -4
 1190              		.cfi_offset 8, -8
 1191              		.cfi_offset 7, -12
 1192              		.cfi_offset 6, -16
 1193              		.cfi_offset 5, -20
 1194              		.cfi_offset 4, -24
 1195              		.loc 1 279 0
 1196 000e D2F80080 		ldr	r8, [r2, #0]
 1197              	.LVL42:
 1198              		.loc 1 281 0
 1199 0012 FFF7FEFF 		bl	test_wait_tick
 1200              	.LVL43:
 1201              		.loc 1 282 0
 1202 0016 4FF47A70 		mov	r0, #1000
 1203 001a FFF7FEFF 		bl	test_start_timer
 1204              		.loc 1 278 0
 1205 001e 0024     		movs	r4, #0
 1206 0020 104E     		ldr	r6, .L54+8
 1207              		.loc 1 280 0
 1208 0022 013F     		subs	r7, r7, #1
 1209              	.LVL44:
 1210              		.loc 1 284 0
 1211 0024 2546     		mov	r5, r4
 1212              	.LVL45:
 1213              	.L52:
 1214              		.loc 1 284 0 is_stmt 0 discriminator 1
 1215 0026 104B     		ldr	r3, .L54+12
 1216 0028 4FF49871 		mov	r1, #304
 1217 002c 3A46     		mov	r2, r7
 1218 002e 4046     		mov	r0, r8
 1219 0030 0095     		str	r5, [sp, #0]
 1220 0032 FFF7FEFF 		bl	chThdCreateStatic
 1221 0036 FFF7FEFF 		bl	chThdWait
 1222              		.loc 1 289 0 is_stmt 1 discriminator 1
 1223 003a 3368     		ldr	r3, [r6, #0]
 1224              		.loc 1 285 0 discriminator 1
 1225 003c 0134     		adds	r4, r4, #1
 1226              	.LVL46:
 1227              		.loc 1 289 0 discriminator 1
 1228 003e 002B     		cmp	r3, #0
 1229 0040 F1D0     		beq	.L52
 1230              		.loc 1 290 0
 1231 0042 0A48     		ldr	r0, .L54+16
 1232 0044 FFF7FEFF 		bl	test_print
 1233              		.loc 1 291 0
 1234 0048 2046     		mov	r0, r4
ARM GAS  C:\Users\z80\AppData\Local\Temp\ccpOzNDI.s 			page 23


 1235 004a FFF7FEFF 		bl	test_printn
 1236              		.loc 1 292 0
 1237 004e 0848     		ldr	r0, .L54+20
 1238 0050 FFF7FEFF 		bl	test_println
 1239              		.loc 1 293 0
 1240 0054 02B0     		add	sp, sp, #8
 1241 0056 BDE8F081 		pop	{r4, r5, r6, r7, r8, pc}
 1242              	.L55:
 1243 005a 00BF     		.align	2
 1244              	.L54:
 1245 005c 00000000 		.word	rlist
 1246 0060 00000000 		.word	wa
 1247 0064 00000000 		.word	test_timer_done
 1248 0068 00000000 		.word	thread2
 1249 006c A8000000 		.word	.LC11
 1250 0070 F0000000 		.word	.LC16
 1251              		.cfi_endproc
 1252              	.LFE15:
 1253              		.size	bmk5_execute, .-bmk5_execute
 1254 0074 AFF30080 		.section	.text.bmk4_execute,"ax",%progbits
 1254      AFF30080 
 1254      AFF30080 
 1255              		.align	2
 1256              		.p2align 4,,15
 1257              		.thumb
 1258              		.thumb_func
 1259              		.type	bmk4_execute, %function
 1260              	bmk4_execute:
 1261              	.LFB14:
 1262              		.loc 1 228 0
 1263              		.cfi_startproc
 1264              		@ args = 0, pretend = 0, frame = 0
 1265              		@ frame_needed = 0, uses_anonymous_args = 0
 1266              		.loc 1 232 0
 1267 0000 294B     		ldr	r3, .L59
 1268              		.loc 1 228 0
 1269 0002 70B5     		push	{r4, r5, r6, lr}
 1270              	.LCFI18:
 1271              		.cfi_def_cfa_offset 16
 1272              		.loc 1 232 0
 1273 0004 DB69     		ldr	r3, [r3, #28]
 1274 0006 2948     		ldr	r0, .L59+4
 1275 0008 9A68     		ldr	r2, [r3, #8]
 1276              		.loc 1 228 0
 1277 000a 82B0     		sub	sp, sp, #8
 1278              	.LCFI19:
 1279              		.cfi_def_cfa_offset 24
 1280              		.loc 1 232 0
 1281 000c 4FF49871 		mov	r1, #304
 1282 0010 0132     		adds	r2, r2, #1
 1283 0012 274B     		ldr	r3, .L59+8
 1284 0014 0024     		movs	r4, #0
 1285              		.cfi_offset 14, -4
 1286              		.cfi_offset 6, -8
 1287              		.cfi_offset 5, -12
 1288              		.cfi_offset 4, -16
 1289 0016 0068     		ldr	r0, [r0, #0]
ARM GAS  C:\Users\z80\AppData\Local\Temp\ccpOzNDI.s 			page 24


 1290 0018 0094     		str	r4, [sp, #0]
 1291 001a FFF7FEFF 		bl	chThdCreateStatic
 1292 001e 254B     		ldr	r3, .L59+12
 1293 0020 0546     		mov	r5, r0
 1294 0022 1860     		str	r0, [r3, #0]
 1295              	.LVL47:
 1296              		.loc 1 234 0
 1297 0024 FFF7FEFF 		bl	test_wait_tick
 1298              	.LVL48:
 1299              		.loc 1 235 0
 1300 0028 4FF47A70 		mov	r0, #1000
 1301 002c 224E     		ldr	r6, .L59+16
 1302 002e FFF7FEFF 		bl	test_start_timer
 1303              	.LVL49:
 1304              	.L57:
 1305              	.LBB6:
 1306              		.loc 1 237 0 discriminator 1
 1307 0032 2023     		movs	r3, #32
 1308              	.LVL50:
 1309              	@ 237 "../chibios_2.4.x/test/testbmk.c" 1
 1310 0034 83F31188 		msr     BASEPRI, r3
 1311              	@ 0 "" 2
 1312              	.LVL51:
 1313              		.thumb
 1314              	.LBE6:
 1315 0038 FFF7FEFF 		bl	dbg_check_lock
 1316              	.LVL52:
 1317              		.loc 1 238 0 discriminator 1
 1318 003c 2846     		mov	r0, r5
 1319 003e 0021     		movs	r1, #0
 1320 0040 FFF7FEFF 		bl	chSchWakeupS
 1321              		.loc 1 239 0 discriminator 1
 1322 0044 2846     		mov	r0, r5
 1323 0046 0021     		movs	r1, #0
 1324 0048 FFF7FEFF 		bl	chSchWakeupS
 1325              		.loc 1 240 0 discriminator 1
 1326 004c 2846     		mov	r0, r5
 1327 004e 0021     		movs	r1, #0
 1328 0050 FFF7FEFF 		bl	chSchWakeupS
 1329              		.loc 1 241 0 discriminator 1
 1330 0054 2846     		mov	r0, r5
 1331 0056 0021     		movs	r1, #0
 1332 0058 FFF7FEFF 		bl	chSchWakeupS
 1333              		.loc 1 242 0 discriminator 1
 1334 005c FFF7FEFF 		bl	dbg_check_unlock
 1335              	.LBB7:
 1336 0060 0023     		movs	r3, #0
 1337              	.LVL53:
 1338              	@ 242 "../chibios_2.4.x/test/testbmk.c" 1
 1339 0062 83F31188 		msr     BASEPRI, r3
 1340              	@ 0 "" 2
 1341              	.LVL54:
 1342              		.thumb
 1343              	.LBE7:
 1344              		.loc 1 247 0 discriminator 1
 1345 0066 3368     		ldr	r3, [r6, #0]
 1346              	.LVL55:
ARM GAS  C:\Users\z80\AppData\Local\Temp\ccpOzNDI.s 			page 25


 1347              		.loc 1 243 0 discriminator 1
 1348 0068 0434     		adds	r4, r4, #4
 1349              	.LVL56:
 1350              		.loc 1 247 0 discriminator 1
 1351 006a 002B     		cmp	r3, #0
 1352 006c E1D0     		beq	.L57
 1353              	.LBB8:
 1354              		.loc 1 248 0
 1355 006e 2023     		movs	r3, #32
 1356              	.LVL57:
 1357              	@ 248 "../chibios_2.4.x/test/testbmk.c" 1
 1358 0070 83F31188 		msr     BASEPRI, r3
 1359              	@ 0 "" 2
 1360              	.LVL58:
 1361              		.thumb
 1362              	.LBE8:
 1363 0074 FFF7FEFF 		bl	dbg_check_lock
 1364              	.LVL59:
 1365              		.loc 1 249 0
 1366 0078 2846     		mov	r0, r5
 1367 007a 4FF0FF31 		mov	r1, #-1
 1368 007e FFF7FEFF 		bl	chSchWakeupS
 1369              		.loc 1 250 0
 1370 0082 FFF7FEFF 		bl	dbg_check_unlock
 1371              	.LBB9:
 1372 0086 0023     		movs	r3, #0
 1373              	.LVL60:
 1374              	@ 250 "../chibios_2.4.x/test/testbmk.c" 1
 1375 0088 83F31188 		msr     BASEPRI, r3
 1376              	@ 0 "" 2
 1377              	.LVL61:
 1378              		.thumb
 1379              	.LBE9:
 1380              		.loc 1 252 0
 1381 008c FFF7FEFF 		bl	test_wait_threads
 1382              	.LVL62:
 1383              		.loc 1 253 0
 1384 0090 0A48     		ldr	r0, .L59+20
 1385 0092 FFF7FEFF 		bl	test_print
 1386              		.loc 1 254 0
 1387 0096 6000     		lsls	r0, r4, #1
 1388 0098 FFF7FEFF 		bl	test_printn
 1389              		.loc 1 255 0
 1390 009c 0848     		ldr	r0, .L59+24
 1391 009e FFF7FEFF 		bl	test_println
 1392              		.loc 1 256 0
 1393 00a2 02B0     		add	sp, sp, #8
 1394 00a4 70BD     		pop	{r4, r5, r6, pc}
 1395              	.L60:
 1396 00a6 00BF     		.align	2
 1397              	.L59:
 1398 00a8 00000000 		.word	rlist
 1399 00ac 00000000 		.word	wa
 1400 00b0 00000000 		.word	thread4
 1401 00b4 00000000 		.word	threads
 1402 00b8 00000000 		.word	test_timer_done
 1403 00bc A8000000 		.word	.LC11
ARM GAS  C:\Users\z80\AppData\Local\Temp\ccpOzNDI.s 			page 26


 1404 00c0 FC000000 		.word	.LC17
 1405              		.cfi_endproc
 1406              	.LFE14:
 1407              		.size	bmk4_execute, .-bmk4_execute
 1408 00c4 AFF30080 		.section	.text.msg_loop_test,"ax",%progbits
 1408      AFF30080 
 1408      AFF30080 
 1409              		.align	2
 1410              		.p2align 4,,15
 1411              		.thumb
 1412              		.thumb_func
 1413              		.type	msg_loop_test, %function
 1414              	msg_loop_test:
 1415              	.LFB8:
 1416              		.loc 1 91 0
 1417              		.cfi_startproc
 1418              		@ args = 0, pretend = 0, frame = 0
 1419              		@ frame_needed = 0, uses_anonymous_args = 0
 1420              	.LVL63:
 1421 0000 70B5     		push	{r4, r5, r6, lr}
 1422              	.LCFI20:
 1423              		.cfi_def_cfa_offset 16
 1424              		.loc 1 91 0
 1425 0002 0546     		mov	r5, r0
 1426              		.cfi_offset 14, -4
 1427              		.cfi_offset 6, -8
 1428              		.cfi_offset 5, -12
 1429              		.cfi_offset 4, -16
 1430              		.loc 1 94 0
 1431 0004 FFF7FEFF 		bl	test_wait_tick
 1432              	.LVL64:
 1433              		.loc 1 95 0
 1434 0008 4FF47A70 		mov	r0, #1000
 1435 000c FFF7FEFF 		bl	test_start_timer
 1436 0010 074E     		ldr	r6, .L64
 1437              		.loc 1 93 0
 1438 0012 0024     		movs	r4, #0
 1439              	.LVL65:
 1440              	.L62:
 1441              		.loc 1 97 0 discriminator 1
 1442 0014 2846     		mov	r0, r5
 1443 0016 0121     		movs	r1, #1
 1444 0018 FFF7FEFF 		bl	chMsgSend
 1445              		.loc 1 102 0 discriminator 1
 1446 001c 3368     		ldr	r3, [r6, #0]
 1447              		.loc 1 98 0 discriminator 1
 1448 001e 0134     		adds	r4, r4, #1
 1449              	.LVL66:
 1450              		.loc 1 102 0 discriminator 1
 1451 0020 002B     		cmp	r3, #0
 1452 0022 F7D0     		beq	.L62
 1453              		.loc 1 103 0
 1454 0024 2846     		mov	r0, r5
 1455 0026 0021     		movs	r1, #0
 1456 0028 FFF7FEFF 		bl	chMsgSend
 1457              		.loc 1 105 0
 1458 002c 2046     		mov	r0, r4
ARM GAS  C:\Users\z80\AppData\Local\Temp\ccpOzNDI.s 			page 27


 1459 002e 70BD     		pop	{r4, r5, r6, pc}
 1460              	.L65:
 1461              		.align	2
 1462              	.L64:
 1463 0030 00000000 		.word	test_timer_done
 1464              		.cfi_endproc
 1465              	.LFE8:
 1466              		.size	msg_loop_test, .-msg_loop_test
 1467 0034 AFF30080 		.section	.text.bmk3_execute,"ax",%progbits
 1467      AFF30080 
 1467      AFF30080 
 1468              		.align	2
 1469              		.p2align 4,,15
 1470              		.thumb
 1471              		.thumb_func
 1472              		.type	bmk3_execute, %function
 1473              	bmk3_execute:
 1474              	.LFB12:
 1475              		.loc 1 180 0
 1476              		.cfi_startproc
 1477              		@ args = 0, pretend = 0, frame = 0
 1478              		@ frame_needed = 0, uses_anonymous_args = 0
 1479 0000 2DE9F041 		push	{r4, r5, r6, r7, r8, lr}
 1480              	.LCFI21:
 1481              		.cfi_def_cfa_offset 24
 1482              		.loc 1 183 0
 1483 0004 40F20006 		movw	r6, #:lower16:rlist
 1484              		.cfi_offset 14, -4
 1485              		.cfi_offset 8, -8
 1486              		.cfi_offset 7, -12
 1487              		.cfi_offset 6, -16
 1488              		.cfi_offset 5, -20
 1489              		.cfi_offset 4, -24
 1490 0008 C0F20006 		movt	r6, #:upper16:rlist
 1491 000c F369     		ldr	r3, [r6, #28]
 1492 000e 40F20005 		movw	r5, #:lower16:wa
 1493 0012 9A68     		ldr	r2, [r3, #8]
 1494 0014 C0F20005 		movt	r5, #:upper16:wa
 1495 0018 40F20003 		movw	r3, #:lower16:thread1
 1496              		.loc 1 180 0
 1497 001c 82B0     		sub	sp, sp, #8
 1498              	.LCFI22:
 1499              		.cfi_def_cfa_offset 32
 1500              		.loc 1 183 0
 1501 001e 4FF00008 		mov	r8, #0
 1502 0022 0132     		adds	r2, r2, #1
 1503 0024 2868     		ldr	r0, [r5, #0]
 1504 0026 C0F20003 		movt	r3, #:upper16:thread1
 1505 002a 4FF49871 		mov	r1, #304
 1506 002e CDF80080 		str	r8, [sp, #0]
 1507 0032 FFF7FEFF 		bl	chThdCreateStatic
 1508              		.loc 1 184 0
 1509 0036 F369     		ldr	r3, [r6, #28]
 1510 0038 40F20007 		movw	r7, #:lower16:thread2
 1511 003c 9A68     		ldr	r2, [r3, #8]
 1512              		.loc 1 183 0
 1513 003e 40F20004 		movw	r4, #:lower16:threads
ARM GAS  C:\Users\z80\AppData\Local\Temp\ccpOzNDI.s 			page 28


 1514 0042 C0F20004 		movt	r4, #:upper16:threads
 1515              		.loc 1 184 0
 1516 0046 C0F20007 		movt	r7, #:upper16:thread2
 1517              		.loc 1 183 0
 1518 004a 8446     		mov	ip, r0
 1519 004c C4F800C0 		str	ip, [r4, #0]
 1520              		.loc 1 184 0
 1521 0050 023A     		subs	r2, r2, #2
 1522 0052 3B46     		mov	r3, r7
 1523 0054 6868     		ldr	r0, [r5, #4]
 1524 0056 4FF49871 		mov	r1, #304
 1525 005a CDF80080 		str	r8, [sp, #0]
 1526 005e FFF7FEFF 		bl	chThdCreateStatic
 1527              		.loc 1 185 0
 1528 0062 F369     		ldr	r3, [r6, #28]
 1529              		.loc 1 184 0
 1530 0064 8446     		mov	ip, r0
 1531              		.loc 1 185 0
 1532 0066 9A68     		ldr	r2, [r3, #8]
 1533 0068 A868     		ldr	r0, [r5, #8]
 1534              		.loc 1 184 0
 1535 006a C4F804C0 		str	ip, [r4, #4]
 1536              		.loc 1 185 0
 1537 006e 033A     		subs	r2, r2, #3
 1538 0070 3B46     		mov	r3, r7
 1539 0072 4FF49871 		mov	r1, #304
 1540 0076 CDF80080 		str	r8, [sp, #0]
 1541 007a FFF7FEFF 		bl	chThdCreateStatic
 1542              		.loc 1 186 0
 1543 007e F369     		ldr	r3, [r6, #28]
 1544              		.loc 1 185 0
 1545 0080 8446     		mov	ip, r0
 1546              		.loc 1 186 0
 1547 0082 9A68     		ldr	r2, [r3, #8]
 1548 0084 E868     		ldr	r0, [r5, #12]
 1549              		.loc 1 185 0
 1550 0086 C4F808C0 		str	ip, [r4, #8]
 1551              		.loc 1 186 0
 1552 008a 043A     		subs	r2, r2, #4
 1553 008c 3B46     		mov	r3, r7
 1554 008e 4FF49871 		mov	r1, #304
 1555 0092 CDF80080 		str	r8, [sp, #0]
 1556 0096 FFF7FEFF 		bl	chThdCreateStatic
 1557              		.loc 1 187 0
 1558 009a F369     		ldr	r3, [r6, #28]
 1559              		.loc 1 186 0
 1560 009c 8446     		mov	ip, r0
 1561              		.loc 1 187 0
 1562 009e 9A68     		ldr	r2, [r3, #8]
 1563 00a0 4FF49871 		mov	r1, #304
 1564              		.loc 1 186 0
 1565 00a4 C4F80CC0 		str	ip, [r4, #12]
 1566              		.loc 1 187 0
 1567 00a8 053A     		subs	r2, r2, #5
 1568 00aa 3B46     		mov	r3, r7
 1569 00ac 2869     		ldr	r0, [r5, #16]
 1570 00ae CDF80080 		str	r8, [sp, #0]
ARM GAS  C:\Users\z80\AppData\Local\Temp\ccpOzNDI.s 			page 29


 1571 00b2 FFF7FEFF 		bl	chThdCreateStatic
 1572              		.loc 1 188 0
 1573 00b6 2368     		ldr	r3, [r4, #0]
 1574              		.loc 1 187 0
 1575 00b8 2061     		str	r0, [r4, #16]
 1576              		.loc 1 188 0
 1577 00ba 1846     		mov	r0, r3
 1578 00bc FFF7FEFF 		bl	msg_loop_test
 1579 00c0 0446     		mov	r4, r0
 1580              	.LVL67:
 1581              		.loc 1 189 0
 1582 00c2 FFF7FEFF 		bl	test_wait_threads
 1583              	.LVL68:
 1584              		.loc 1 190 0
 1585 00c6 40F20000 		movw	r0, #:lower16:.LC11
 1586 00ca C0F20000 		movt	r0, #:upper16:.LC11
 1587 00ce FFF7FEFF 		bl	test_print
 1588              		.loc 1 191 0
 1589 00d2 2046     		mov	r0, r4
 1590 00d4 FFF7FEFF 		bl	test_printn
 1591              		.loc 1 192 0
 1592 00d8 40F20000 		movw	r0, #:lower16:.LC19
 1593 00dc C0F20000 		movt	r0, #:upper16:.LC19
 1594 00e0 FFF7FEFF 		bl	test_print
 1595              		.loc 1 193 0
 1596 00e4 6000     		lsls	r0, r4, #1
 1597 00e6 FFF7FEFF 		bl	test_printn
 1598              		.loc 1 194 0
 1599 00ea 40F20000 		movw	r0, #:lower16:.LC17
 1600 00ee C0F20000 		movt	r0, #:upper16:.LC17
 1601 00f2 FFF7FEFF 		bl	test_println
 1602              		.loc 1 195 0
 1603 00f6 02B0     		add	sp, sp, #8
 1604 00f8 BDE8F081 		pop	{r4, r5, r6, r7, r8, pc}
 1605              		.cfi_endproc
 1606              	.LFE12:
 1607              		.size	bmk3_execute, .-bmk3_execute
 1608 00fc AFF30080 		.section	.text.bmk2_execute,"ax",%progbits
 1609              		.align	2
 1610              		.p2align 4,,15
 1611              		.thumb
 1612              		.thumb_func
 1613              		.type	bmk2_execute, %function
 1614              	bmk2_execute:
 1615              	.LFB10:
 1616              		.loc 1 145 0
 1617              		.cfi_startproc
 1618              		@ args = 0, pretend = 0, frame = 0
 1619              		@ frame_needed = 0, uses_anonymous_args = 0
 1620              		.loc 1 148 0
 1621 0000 40F20003 		movw	r3, #:lower16:rlist
 1622              		.loc 1 145 0
 1623 0004 10B5     		push	{r4, lr}
 1624              	.LCFI23:
 1625              		.cfi_def_cfa_offset 8
 1626              		.loc 1 148 0
 1627 0006 C0F20003 		movt	r3, #:upper16:rlist
ARM GAS  C:\Users\z80\AppData\Local\Temp\ccpOzNDI.s 			page 30


 1628 000a DA69     		ldr	r2, [r3, #28]
 1629 000c 40F20003 		movw	r3, #:lower16:wa
 1630 0010 9268     		ldr	r2, [r2, #8]
 1631 0012 C0F20003 		movt	r3, #:upper16:wa
 1632 0016 1868     		ldr	r0, [r3, #0]
 1633 0018 40F20003 		movw	r3, #:lower16:thread1
 1634              		.loc 1 145 0
 1635 001c 82B0     		sub	sp, sp, #8
 1636              	.LCFI24:
 1637              		.cfi_def_cfa_offset 16
 1638              		.loc 1 148 0
 1639 001e 4FF0000C 		mov	ip, #0
 1640 0022 4FF49871 		mov	r1, #304
 1641 0026 0132     		adds	r2, r2, #1
 1642 0028 C0F20003 		movt	r3, #:upper16:thread1
 1643 002c CDF800C0 		str	ip, [sp, #0]
 1644              		.cfi_offset 14, -4
 1645              		.cfi_offset 4, -8
 1646 0030 FFF7FEFF 		bl	chThdCreateStatic
 1647 0034 40F20003 		movw	r3, #:lower16:threads
 1648 0038 0246     		mov	r2, r0
 1649 003a C0F20003 		movt	r3, #:upper16:threads
 1650 003e 1A60     		str	r2, [r3, #0]
 1651              		.loc 1 149 0
 1652 0040 FFF7FEFF 		bl	msg_loop_test
 1653 0044 0446     		mov	r4, r0
 1654              	.LVL69:
 1655              		.loc 1 150 0
 1656 0046 FFF7FEFF 		bl	test_wait_threads
 1657              	.LVL70:
 1658              		.loc 1 151 0
 1659 004a 40F20000 		movw	r0, #:lower16:.LC11
 1660 004e C0F20000 		movt	r0, #:upper16:.LC11
 1661 0052 FFF7FEFF 		bl	test_print
 1662              		.loc 1 152 0
 1663 0056 2046     		mov	r0, r4
 1664 0058 FFF7FEFF 		bl	test_printn
 1665              		.loc 1 153 0
 1666 005c 40F20000 		movw	r0, #:lower16:.LC19
 1667 0060 C0F20000 		movt	r0, #:upper16:.LC19
 1668 0064 FFF7FEFF 		bl	test_print
 1669              		.loc 1 154 0
 1670 0068 6000     		lsls	r0, r4, #1
 1671 006a FFF7FEFF 		bl	test_printn
 1672              		.loc 1 155 0
 1673 006e 40F20000 		movw	r0, #:lower16:.LC17
 1674 0072 C0F20000 		movt	r0, #:upper16:.LC17
 1675 0076 FFF7FEFF 		bl	test_println
 1676              		.loc 1 156 0
 1677 007a 02B0     		add	sp, sp, #8
 1678 007c 10BD     		pop	{r4, pc}
 1679              		.cfi_endproc
 1680              	.LFE10:
 1681              		.size	bmk2_execute, .-bmk2_execute
 1682 007e 00BF     		.section	.text.bmk1_execute,"ax",%progbits
 1683              		.align	2
 1684              		.p2align 4,,15
ARM GAS  C:\Users\z80\AppData\Local\Temp\ccpOzNDI.s 			page 31


 1685              		.thumb
 1686              		.thumb_func
 1687              		.type	bmk1_execute, %function
 1688              	bmk1_execute:
 1689              	.LFB9:
 1690              		.loc 1 116 0
 1691              		.cfi_startproc
 1692              		@ args = 0, pretend = 0, frame = 0
 1693              		@ frame_needed = 0, uses_anonymous_args = 0
 1694              		.loc 1 119 0
 1695 0000 40F20003 		movw	r3, #:lower16:rlist
 1696              		.loc 1 116 0
 1697 0004 10B5     		push	{r4, lr}
 1698              	.LCFI25:
 1699              		.cfi_def_cfa_offset 8
 1700              		.loc 1 119 0
 1701 0006 C0F20003 		movt	r3, #:upper16:rlist
 1702 000a DA69     		ldr	r2, [r3, #28]
 1703 000c 40F20003 		movw	r3, #:lower16:wa
 1704 0010 9268     		ldr	r2, [r2, #8]
 1705 0012 C0F20003 		movt	r3, #:upper16:wa
 1706 0016 1868     		ldr	r0, [r3, #0]
 1707 0018 40F20003 		movw	r3, #:lower16:thread1
 1708              		.loc 1 116 0
 1709 001c 82B0     		sub	sp, sp, #8
 1710              	.LCFI26:
 1711              		.cfi_def_cfa_offset 16
 1712              		.loc 1 119 0
 1713 001e 4FF0000C 		mov	ip, #0
 1714 0022 4FF49871 		mov	r1, #304
 1715 0026 013A     		subs	r2, r2, #1
 1716 0028 C0F20003 		movt	r3, #:upper16:thread1
 1717 002c CDF800C0 		str	ip, [sp, #0]
 1718              		.cfi_offset 14, -4
 1719              		.cfi_offset 4, -8
 1720 0030 FFF7FEFF 		bl	chThdCreateStatic
 1721 0034 40F20003 		movw	r3, #:lower16:threads
 1722 0038 0246     		mov	r2, r0
 1723 003a C0F20003 		movt	r3, #:upper16:threads
 1724 003e 1A60     		str	r2, [r3, #0]
 1725              		.loc 1 120 0
 1726 0040 FFF7FEFF 		bl	msg_loop_test
 1727 0044 0446     		mov	r4, r0
 1728              	.LVL71:
 1729              		.loc 1 121 0
 1730 0046 FFF7FEFF 		bl	test_wait_threads
 1731              	.LVL72:
 1732              		.loc 1 122 0
 1733 004a 40F20000 		movw	r0, #:lower16:.LC11
 1734 004e C0F20000 		movt	r0, #:upper16:.LC11
 1735 0052 FFF7FEFF 		bl	test_print
 1736              		.loc 1 123 0
 1737 0056 2046     		mov	r0, r4
 1738 0058 FFF7FEFF 		bl	test_printn
 1739              		.loc 1 124 0
 1740 005c 40F20000 		movw	r0, #:lower16:.LC19
 1741 0060 C0F20000 		movt	r0, #:upper16:.LC19
ARM GAS  C:\Users\z80\AppData\Local\Temp\ccpOzNDI.s 			page 32


 1742 0064 FFF7FEFF 		bl	test_print
 1743              		.loc 1 125 0
 1744 0068 6000     		lsls	r0, r4, #1
 1745 006a FFF7FEFF 		bl	test_printn
 1746              		.loc 1 126 0
 1747 006e 40F20000 		movw	r0, #:lower16:.LC17
 1748 0072 C0F20000 		movt	r0, #:upper16:.LC17
 1749 0076 FFF7FEFF 		bl	test_println
 1750              		.loc 1 127 0
 1751 007a 02B0     		add	sp, sp, #8
 1752 007c 10BD     		pop	{r4, pc}
 1753              		.cfi_endproc
 1754              	.LFE9:
 1755              		.size	bmk1_execute, .-bmk1_execute
 1756 007e 00BF     		.section	.text.thread1,"ax",%progbits
 1757              		.align	2
 1758              		.p2align 4,,15
 1759              		.thumb
 1760              		.thumb_func
 1761              		.type	thread1, %function
 1762              	thread1:
 1763              	.LFB7:
 1764              		.loc 1 75 0
 1765              		.cfi_startproc
 1766              		@ args = 0, pretend = 0, frame = 0
 1767              		@ frame_needed = 0, uses_anonymous_args = 0
 1768              	.LVL73:
 1769 0000 10B5     		push	{r4, lr}
 1770              	.LCFI27:
 1771              		.cfi_def_cfa_offset 8
 1772              	.LVL74:
 1773              	.L70:
 1774              		.loc 1 81 0 discriminator 1
 1775              		.cfi_offset 14, -4
 1776              		.cfi_offset 4, -8
 1777 0002 FFF7FEFF 		bl	chMsgWait
 1778              	.LVL75:
 1779              		.loc 1 82 0 discriminator 1
 1780 0006 846B     		ldr	r4, [r0, #56]
 1781              	.LVL76:
 1782              		.loc 1 83 0 discriminator 1
 1783 0008 2146     		mov	r1, r4
 1784 000a FFF7FEFF 		bl	chMsgRelease
 1785              	.LVL77:
 1786              		.loc 1 84 0 discriminator 1
 1787 000e 002C     		cmp	r4, #0
 1788 0010 F7D1     		bne	.L70
 1789              		.loc 1 86 0
 1790 0012 2046     		mov	r0, r4
 1791 0014 10BD     		pop	{r4, pc}
 1792              		.cfi_endproc
 1793              	.LFE7:
 1794              		.size	thread1, .-thread1
 1795 0016 00BFAFF3 		.section	.text.thread4,"ax",%progbits
 1795      0080AFF3 
 1795      0080
 1796              		.align	2
ARM GAS  C:\Users\z80\AppData\Local\Temp\ccpOzNDI.s 			page 33


 1797              		.p2align 4,,15
 1798              		.global	thread4
 1799              		.thumb
 1800              		.thumb_func
 1801              		.type	thread4, %function
 1802              	thread4:
 1803              	.LFB13:
 1804              		.loc 1 214 0
 1805              		.cfi_startproc
 1806              		@ args = 0, pretend = 0, frame = 0
 1807              		@ frame_needed = 0, uses_anonymous_args = 0
 1808              	.LVL78:
 1809              		.loc 1 216 0
 1810 0000 0A4A     		ldr	r2, .L75
 1811              		.loc 1 214 0
 1812 0002 10B5     		push	{r4, lr}
 1813              	.LCFI28:
 1814              		.cfi_def_cfa_offset 8
 1815              	.LBB10:
 1816              		.loc 1 219 0
 1817 0004 2023     		movs	r3, #32
 1818              	.LVL79:
 1819              	.LBE10:
 1820              		.loc 1 216 0
 1821 0006 D469     		ldr	r4, [r2, #28]
 1822              		.cfi_offset 14, -4
 1823              		.cfi_offset 4, -8
 1824              	.LVL80:
 1825              	.LBB11:
 1826              		.loc 1 219 0
 1827              	@ 219 "../chibios_2.4.x/test/testbmk.c" 1
 1828 0008 83F31188 		msr     BASEPRI, r3
 1829              	@ 0 "" 2
 1830              	.LVL81:
 1831              		.thumb
 1832              	.LBE11:
 1833 000c FFF7FEFF 		bl	dbg_check_lock
 1834              	.LVL82:
 1835              	.L73:
 1836              		.loc 1 221 0 discriminator 1
 1837 0010 0220     		movs	r0, #2
 1838 0012 FFF7FEFF 		bl	chSchGoSleepS
 1839              	.LVL83:
 1840              		.loc 1 223 0 discriminator 1
 1841 0016 A36A     		ldr	r3, [r4, #40]
 1842 0018 002B     		cmp	r3, #0
 1843 001a F9D0     		beq	.L73
 1844              		.loc 1 224 0
 1845 001c FFF7FEFF 		bl	dbg_check_unlock
 1846              	.LVL84:
 1847              	.LBB12:
 1848 0020 0023     		movs	r3, #0
 1849              	.LVL85:
 1850              	@ 224 "../chibios_2.4.x/test/testbmk.c" 1
 1851 0022 83F31188 		msr     BASEPRI, r3
 1852              	@ 0 "" 2
 1853              	.LVL86:
ARM GAS  C:\Users\z80\AppData\Local\Temp\ccpOzNDI.s 			page 34


 1854              		.thumb
 1855              	.LBE12:
 1856              		.loc 1 226 0
 1857 0026 1846     		mov	r0, r3
 1858 0028 10BD     		pop	{r4, pc}
 1859              	.L76:
 1860 002a 00BF     		.align	2
 1861              	.L75:
 1862 002c 00000000 		.word	rlist
 1863              		.cfi_endproc
 1864              	.LFE13:
 1865              		.size	thread4, .-thread4
 1866              		.global	testbmk1
 1867              		.global	testbmk2
 1868              		.global	testbmk3
 1869              		.global	testbmk4
 1870              		.global	testbmk5
 1871              		.global	testbmk6
 1872              		.global	testbmk7
 1873              		.global	testbmk8
 1874              		.global	testbmk9
 1875              		.global	testbmk10
 1876              		.global	testbmk11
 1877              		.global	testbmk12
 1878              		.global	testbmk13
 1879              		.global	patternbmk
 1880              		.section	.rodata.testbmk8,"a",%progbits
 1881              		.align	2
 1882              		.type	testbmk8, %object
 1883              		.size	testbmk8, 16
 1884              	testbmk8:
 1885 0000 F4010000 		.word	.LC27
 1886 0004 00000000 		.word	0
 1887 0008 00000000 		.word	0
 1888 000c 00000000 		.word	bmk8_execute
 1889              		.section	.rodata.testbmk9,"a",%progbits
 1890              		.align	2
 1891              		.type	testbmk9, %object
 1892              		.size	testbmk9, 16
 1893              	testbmk9:
 1894 0000 20020000 		.word	.LC28
 1895 0004 00000000 		.word	0
 1896 0008 00000000 		.word	0
 1897 000c 00000000 		.word	bmk9_execute
 1898              		.section	.bss.iq.2200,"aw",%nobits
 1899              		.align	2
 1900              		.set	.LANCHOR4,. + 0
 1901              		.type	iq.2200, %object
 1902              		.size	iq.2200, 32
 1903              	iq.2200:
 1904 0000 00000000 		.space	32
 1904      00000000 
 1904      00000000 
 1904      00000000 
 1904      00000000 
 1905              		.section	.rodata.testbmk10,"a",%progbits
 1906              		.align	2
ARM GAS  C:\Users\z80\AppData\Local\Temp\ccpOzNDI.s 			page 35


 1907              		.type	testbmk10, %object
 1908              		.size	testbmk10, 16
 1909              	testbmk10:
 1910 0000 44020000 		.word	.LC29
 1911 0004 00000000 		.word	0
 1912 0008 00000000 		.word	0
 1913 000c 00000000 		.word	bmk10_execute
 1914              		.section	.rodata.testbmk3,"a",%progbits
 1915              		.align	2
 1916              		.type	testbmk3, %object
 1917              		.size	testbmk3, 16
 1918              	testbmk3:
 1919 0000 58010000 		.word	.LC22
 1920 0004 00000000 		.word	0
 1921 0008 00000000 		.word	0
 1922 000c 00000000 		.word	bmk3_execute
 1923              		.section	.rodata.testbmk11,"a",%progbits
 1924              		.align	2
 1925              		.type	testbmk11, %object
 1926              		.size	testbmk11, 16
 1927              	testbmk11:
 1928 0000 68020000 		.word	.LC30
 1929 0004 00000000 		.word	bmk11_setup
 1930 0008 00000000 		.word	0
 1931 000c 00000000 		.word	bmk11_execute
 1932              		.section	.bss.vt2.2213,"aw",%nobits
 1933              		.align	2
 1934              		.set	.LANCHOR3,. + 0
 1935              		.type	vt2.2213, %object
 1936              		.size	vt2.2213, 20
 1937              	vt2.2213:
 1938 0000 00000000 		.space	20
 1938      00000000 
 1938      00000000 
 1938      00000000 
 1938      00000000 
 1939              		.section	.bss.mtx1,"aw",%nobits
 1940              		.align	2
 1941              		.set	.LANCHOR0,. + 0
 1942              		.type	mtx1, %object
 1943              		.size	mtx1, 16
 1944              	mtx1:
 1945 0000 00000000 		.space	16
 1945      00000000 
 1945      00000000 
 1945      00000000 
 1946              		.section	.rodata.testbmk12,"a",%progbits
 1947              		.align	2
 1948              		.type	testbmk12, %object
 1949              		.size	testbmk12, 16
 1950              	testbmk12:
 1951 0000 8C020000 		.word	.LC31
 1952 0004 00000000 		.word	bmk12_setup
 1953 0008 00000000 		.word	0
 1954 000c 00000000 		.word	bmk12_execute
 1955              		.section	.rodata.testbmk13,"a",%progbits
 1956              		.align	2
ARM GAS  C:\Users\z80\AppData\Local\Temp\ccpOzNDI.s 			page 36


 1957              		.type	testbmk13, %object
 1958              		.size	testbmk13, 16
 1959              	testbmk13:
 1960 0000 AC020000 		.word	.LC32
 1961 0004 00000000 		.word	0
 1962 0008 00000000 		.word	0
 1963 000c 00000000 		.word	bmk13_execute
 1964              		.section	.rodata.str1.4,"aMS",%progbits,1
 1965              		.align	2
 1966              	.LC0:
 1967 0000 2D2D2D20 		.ascii	"--- System: \000"
 1967      53797374 
 1967      656D3A20 
 1967      00
 1968 000d 000000   		.space	3
 1969              	.LC1:
 1970 0010 20627974 		.ascii	" bytes\000"
 1970      657300
 1971 0017 00       		.space	1
 1972              	.LC2:
 1973 0018 2D2D2D20 		.ascii	"--- Thread: \000"
 1973      54687265 
 1973      61643A20 
 1973      00
 1974 0025 000000   		.space	3
 1975              	.LC3:
 1976 0028 2D2D2D20 		.ascii	"--- Timer : \000"
 1976      54696D65 
 1976      72203A20 
 1976      00
 1977 0035 000000   		.space	3
 1978              	.LC4:
 1979 0038 2D2D2D20 		.ascii	"--- Semaph: \000"
 1979      53656D61 
 1979      70683A20 
 1979      00
 1980 0045 000000   		.space	3
 1981              	.LC5:
 1982 0048 2D2D2D20 		.ascii	"--- EventS: \000"
 1982      4576656E 
 1982      74533A20 
 1982      00
 1983 0055 000000   		.space	3
 1984              	.LC6:
 1985 0058 2D2D2D20 		.ascii	"--- EventL: \000"
 1985      4576656E 
 1985      744C3A20 
 1985      00
 1986 0065 000000   		.space	3
 1987              	.LC7:
 1988 0068 2D2D2D20 		.ascii	"--- Mutex : \000"
 1988      4D757465 
 1988      78203A20 
 1988      00
 1989 0075 000000   		.space	3
 1990              	.LC8:
 1991 0078 2D2D2D20 		.ascii	"--- CondV.: \000"
ARM GAS  C:\Users\z80\AppData\Local\Temp\ccpOzNDI.s 			page 37


 1991      436F6E64 
 1991      562E3A20 
 1991      00
 1992 0085 000000   		.space	3
 1993              	.LC9:
 1994 0088 2D2D2D20 		.ascii	"--- Queue : \000"
 1994      51756575 
 1994      65203A20 
 1994      00
 1995 0095 000000   		.space	3
 1996              	.LC10:
 1997 0098 2D2D2D20 		.ascii	"--- MailB.: \000"
 1997      4D61696C 
 1997      422E3A20 
 1997      00
 1998 00a5 000000   		.space	3
 1999              	.LC11:
 2000 00a8 2D2D2D20 		.ascii	"--- Score : \000"
 2000      53636F72 
 2000      65203A20 
 2000      00
 2001 00b5 000000   		.space	3
 2002              	.LC12:
 2003 00b8 206C6F63 		.ascii	" lock+unlock/S\000"
 2003      6B2B756E 
 2003      6C6F636B 
 2003      2F5300
 2004 00c7 00       		.space	1
 2005              	.LC13:
 2006 00c8 20776169 		.ascii	" wait+signal/S\000"
 2006      742B7369 
 2006      676E616C 
 2006      2F5300
 2007 00d7 00       		.space	1
 2008              	.LC14:
 2009 00d8 2074696D 		.ascii	" timers/S\000"
 2009      6572732F 
 2009      5300
 2010 00e2 0000     		.space	2
 2011              	.LC15:
 2012 00e4 20627974 		.ascii	" bytes/S\000"
 2012      65732F53 
 2012      00
 2013 00ed 000000   		.space	3
 2014              	.LC16:
 2015 00f0 20746872 		.ascii	" threads/S\000"
 2015      65616473 
 2015      2F5300
 2016 00fb 00       		.space	1
 2017              	.LC17:
 2018 00fc 20637478 		.ascii	" ctxswc/S\000"
 2018      7377632F 
 2018      5300
 2019 0106 0000     		.space	2
 2020              	.LC18:
 2021 0108 20726573 		.ascii	" reschedules/S, \000"
 2021      63686564 
ARM GAS  C:\Users\z80\AppData\Local\Temp\ccpOzNDI.s 			page 38


 2021      756C6573 
 2021      2F532C20 
 2021      00
 2022 0119 000000   		.space	3
 2023              	.LC19:
 2024 011c 206D7367 		.ascii	" msgs/S, \000"
 2024      732F532C 
 2024      2000
 2025 0126 0000     		.space	2
 2026              	.LC20:
 2027 0128 42656E63 		.ascii	"Benchmark, messages #1\000"
 2027      686D6172 
 2027      6B2C206D 
 2027      65737361 
 2027      67657320 
 2028 013f 00       		.space	1
 2029              	.LC21:
 2030 0140 42656E63 		.ascii	"Benchmark, messages #2\000"
 2030      686D6172 
 2030      6B2C206D 
 2030      65737361 
 2030      67657320 
 2031 0157 00       		.space	1
 2032              	.LC22:
 2033 0158 42656E63 		.ascii	"Benchmark, messages #3\000"
 2033      686D6172 
 2033      6B2C206D 
 2033      65737361 
 2033      67657320 
 2034 016f 00       		.space	1
 2035              	.LC23:
 2036 0170 42656E63 		.ascii	"Benchmark, context switch\000"
 2036      686D6172 
 2036      6B2C2063 
 2036      6F6E7465 
 2036      78742073 
 2037 018a 0000     		.space	2
 2038              	.LC24:
 2039 018c 42656E63 		.ascii	"Benchmark, threads, full cycle\000"
 2039      686D6172 
 2039      6B2C2074 
 2039      68726561 
 2039      64732C20 
 2040 01ab 00       		.space	1
 2041              	.LC25:
 2042 01ac 42656E63 		.ascii	"Benchmark, threads, create only\000"
 2042      686D6172 
 2042      6B2C2074 
 2042      68726561 
 2042      64732C20 
 2043              	.LC26:
 2044 01cc 42656E63 		.ascii	"Benchmark, mass reschedule, 5 threads\000"
 2044      686D6172 
 2044      6B2C206D 
 2044      61737320 
 2044      72657363 
 2045 01f2 0000     		.space	2
ARM GAS  C:\Users\z80\AppData\Local\Temp\ccpOzNDI.s 			page 39


 2046              	.LC27:
 2047 01f4 42656E63 		.ascii	"Benchmark, round robin context switching\000"
 2047      686D6172 
 2047      6B2C2072 
 2047      6F756E64 
 2047      20726F62 
 2048 021d 000000   		.space	3
 2049              	.LC28:
 2050 0220 42656E63 		.ascii	"Benchmark, I/O Queues throughput\000"
 2050      686D6172 
 2050      6B2C2049 
 2050      2F4F2051 
 2050      75657565 
 2051 0241 000000   		.space	3
 2052              	.LC29:
 2053 0244 42656E63 		.ascii	"Benchmark, virtual timers set/reset\000"
 2053      686D6172 
 2053      6B2C2076 
 2053      69727475 
 2053      616C2074 
 2054              	.LC30:
 2055 0268 42656E63 		.ascii	"Benchmark, semaphores wait/signal\000"
 2055      686D6172 
 2055      6B2C2073 
 2055      656D6170 
 2055      686F7265 
 2056 028a 0000     		.space	2
 2057              	.LC31:
 2058 028c 42656E63 		.ascii	"Benchmark, mutexes lock/unlock\000"
 2058      686D6172 
 2058      6B2C206D 
 2058      75746578 
 2058      6573206C 
 2059 02ab 00       		.space	1
 2060              	.LC32:
 2061 02ac 42656E63 		.ascii	"Benchmark, RAM footprint\000"
 2061      686D6172 
 2061      6B2C2052 
 2061      414D2066 
 2061      6F6F7470 
 2062 02c5 000000   		.section	.bss.ib.2199,"aw",%nobits
 2063              		.align	2
 2064              		.set	.LANCHOR5,. + 0
 2065              		.type	ib.2199, %object
 2066              		.size	ib.2199, 16
 2067              	ib.2199:
 2068 0000 00000000 		.space	16
 2068      00000000 
 2068      00000000 
 2068      00000000 
 2069              		.section	.bss.sem1,"aw",%nobits
 2070              		.align	2
 2071              		.set	.LANCHOR1,. + 0
 2072              		.type	sem1, %object
 2073              		.size	sem1, 12
 2074              	sem1:
 2075 0000 00000000 		.space	12
ARM GAS  C:\Users\z80\AppData\Local\Temp\ccpOzNDI.s 			page 40


 2075      00000000 
 2075      00000000 
 2076              		.section	.rodata.patternbmk,"a",%progbits
 2077              		.align	2
 2078              		.type	patternbmk, %object
 2079              		.size	patternbmk, 56
 2080              	patternbmk:
 2081 0000 00000000 		.word	testbmk1
 2082 0004 00000000 		.word	testbmk2
 2083 0008 00000000 		.word	testbmk3
 2084 000c 00000000 		.word	testbmk4
 2085 0010 00000000 		.word	testbmk5
 2086 0014 00000000 		.word	testbmk6
 2087 0018 00000000 		.word	testbmk7
 2088 001c 00000000 		.word	testbmk8
 2089 0020 00000000 		.word	testbmk9
 2090 0024 00000000 		.word	testbmk10
 2091 0028 00000000 		.word	testbmk11
 2092 002c 00000000 		.word	testbmk12
 2093 0030 00000000 		.word	testbmk13
 2094 0034 00000000 		.word	0
 2095              		.section	.rodata.testbmk1,"a",%progbits
 2096              		.align	2
 2097              		.type	testbmk1, %object
 2098              		.size	testbmk1, 16
 2099              	testbmk1:
 2100 0000 28010000 		.word	.LC20
 2101 0004 00000000 		.word	0
 2102 0008 00000000 		.word	0
 2103 000c 00000000 		.word	bmk1_execute
 2104              		.section	.rodata.testbmk2,"a",%progbits
 2105              		.align	2
 2106              		.type	testbmk2, %object
 2107              		.size	testbmk2, 16
 2108              	testbmk2:
 2109 0000 40010000 		.word	.LC21
 2110 0004 00000000 		.word	0
 2111 0008 00000000 		.word	0
 2112 000c 00000000 		.word	bmk2_execute
 2113              		.section	.bss.vt1.2212,"aw",%nobits
 2114              		.align	2
 2115              		.set	.LANCHOR2,. + 0
 2116              		.type	vt1.2212, %object
 2117              		.size	vt1.2212, 20
 2118              	vt1.2212:
 2119 0000 00000000 		.space	20
 2119      00000000 
 2119      00000000 
 2119      00000000 
 2119      00000000 
 2120              		.section	.rodata.testbmk4,"a",%progbits
 2121              		.align	2
 2122              		.type	testbmk4, %object
 2123              		.size	testbmk4, 16
 2124              	testbmk4:
 2125 0000 70010000 		.word	.LC23
 2126 0004 00000000 		.word	0
ARM GAS  C:\Users\z80\AppData\Local\Temp\ccpOzNDI.s 			page 41


 2127 0008 00000000 		.word	0
 2128 000c 00000000 		.word	bmk4_execute
 2129              		.section	.rodata.testbmk5,"a",%progbits
 2130              		.align	2
 2131              		.type	testbmk5, %object
 2132              		.size	testbmk5, 16
 2133              	testbmk5:
 2134 0000 8C010000 		.word	.LC24
 2135 0004 00000000 		.word	0
 2136 0008 00000000 		.word	0
 2137 000c 00000000 		.word	bmk5_execute
 2138              		.section	.rodata.testbmk6,"a",%progbits
 2139              		.align	2
 2140              		.type	testbmk6, %object
 2141              		.size	testbmk6, 16
 2142              	testbmk6:
 2143 0000 AC010000 		.word	.LC25
 2144 0004 00000000 		.word	0
 2145 0008 00000000 		.word	0
 2146 000c 00000000 		.word	bmk6_execute
 2147              		.section	.rodata.testbmk7,"a",%progbits
 2148              		.align	2
 2149              		.type	testbmk7, %object
 2150              		.size	testbmk7, 16
 2151              	testbmk7:
 2152 0000 CC010000 		.word	.LC26
 2153 0004 00000000 		.word	bmk7_setup
 2154 0008 00000000 		.word	0
 2155 000c 00000000 		.word	bmk7_execute
 2156              		.text
 2157              	.Letext0: