ARM GAS  C:\Users\z80\AppData\Local\Temp\ccq4Gerd.s 			page 1


   1              		.syntax unified
   2              		.cpu cortex-m3
   3              		.fpu softvfp
   4              		.eabi_attribute 20, 1
   5              		.eabi_attribute 21, 1
   6              		.eabi_attribute 23, 3
   7              		.eabi_attribute 24, 1
   8              		.eabi_attribute 25, 1
   9              		.eabi_attribute 26, 1
  10              		.eabi_attribute 30, 2
  11              		.eabi_attribute 18, 4
  12              		.thumb
  13              		.file	"test.c"
  20 0000 B0040000 		.text
  20      02005802 
  20      00000201 
  20      FB0E0D00 
  20      01010101 
  21              	.Ltext0:
  22              		.cfi_sections	.debug_frame
  23              		.section	.text.tmr,"ax",%progbits
  24              		.align	2
  25              		.p2align 4,,15
  26              		.thumb
  27              		.thumb_func
  28              		.type	tmr, %function
  29              	tmr:
  30              	.LFB76:
  31              		.file 1 "../chibios_2.4.x/test/test.c"
  32              		.loc 1 273 0
  33              		.cfi_startproc
  34              		@ args = 0, pretend = 0, frame = 0
  35              		@ frame_needed = 0, uses_anonymous_args = 0
  36              		@ link register save eliminated.
  37              	.LVL0:
  38              		.loc 1 276 0
  39 0000 40F20003 		movw	r3, #:lower16:.LANCHOR0
  40 0004 C0F20003 		movt	r3, #:upper16:.LANCHOR0
  41 0008 0122     		movs	r2, #1
  42 000a 1A60     		str	r2, [r3, #0]
  43              		.loc 1 277 0
  44 000c 7047     		bx	lr
  45              		.cfi_endproc
  46              	.LFE76:
  47              		.size	tmr, .-tmr
  48 000e 00BF     		.section	.text.print_line,"ax",%progbits
  49              		.align	2
  50              		.p2align 4,,15
  51              		.thumb
  52              		.thumb_func
  53              		.type	print_line, %function
ARM GAS  C:\Users\z80\AppData\Local\Temp\ccq4Gerd.s 			page 2


  54              	print_line:
  55              	.LFB79:
  56              		.loc 1 314 0
  57              		.cfi_startproc
  58              		@ args = 0, pretend = 0, frame = 0
  59              		@ frame_needed = 0, uses_anonymous_args = 0
  60              	.LVL1:
  61 0000 70B5     		push	{r4, r5, r6, lr}
  62              	.LCFI0:
  63              		.cfi_def_cfa_offset 16
  64 0002 0E4E     		ldr	r6, .L6
  65              		.cfi_offset 14, -4
  66              		.cfi_offset 6, -8
  67              		.cfi_offset 5, -12
  68              		.cfi_offset 4, -16
  69              		.loc 1 314 0
  70 0004 4C24     		movs	r4, #76
  71              	.LVL2:
  72              	.L3:
  73              		.loc 1 318 0 discriminator 2
  74 0006 3068     		ldr	r0, [r6, #0]
  75 0008 2D21     		movs	r1, #45
  76 000a 0368     		ldr	r3, [r0, #0]
  77 000c 4FF0FF32 		mov	r2, #-1
  78 0010 1B69     		ldr	r3, [r3, #16]
  79 0012 9847     		blx	r3
  80              		.loc 1 317 0 discriminator 2
  81 0014 14F1FF34 		adds	r4, r4, #-1
  82              		.loc 1 318 0 discriminator 2
  83 0018 084D     		ldr	r5, .L6
  84              		.loc 1 317 0 discriminator 2
  85 001a F4D1     		bne	.L3
  86              		.loc 1 319 0
  87 001c 2868     		ldr	r0, [r5, #0]
  88 001e 0D21     		movs	r1, #13
  89 0020 0368     		ldr	r3, [r0, #0]
  90 0022 4FF0FF32 		mov	r2, #-1
  91 0026 1B69     		ldr	r3, [r3, #16]
  92 0028 9847     		blx	r3
  93              		.loc 1 320 0
  94 002a 2868     		ldr	r0, [r5, #0]
  95 002c 0A21     		movs	r1, #10
  96 002e 0368     		ldr	r3, [r0, #0]
  97 0030 4FF0FF32 		mov	r2, #-1
  98 0034 1B69     		ldr	r3, [r3, #16]
  99 0036 9847     		blx	r3
 100              		.loc 1 321 0
 101 0038 70BD     		pop	{r4, r5, r6, pc}
 102              	.L7:
 103 003a 00BF     		.align	2
 104              	.L6:
 105 003c 00000000 		.word	.LANCHOR1
 106              		.cfi_endproc
 107              	.LFE79:
 108              		.size	print_line, .-print_line
 109              		.section	.text.test_printn,"ax",%progbits
 110              		.align	2
ARM GAS  C:\Users\z80\AppData\Local\Temp\ccq4Gerd.s 			page 3


 111              		.p2align 4,,15
 112              		.global	test_printn
 113              		.thumb
 114              		.thumb_func
 115              		.type	test_printn, %function
 116              	test_printn:
 117              	.LFB62:
 118              		.loc 1 102 0
 119              		.cfi_startproc
 120              		@ args = 0, pretend = 0, frame = 16
 121              		@ frame_needed = 0, uses_anonymous_args = 0
 122              	.LVL3:
 123 0000 70B5     		push	{r4, r5, r6, lr}
 124              	.LCFI1:
 125              		.cfi_def_cfa_offset 16
 126 0002 84B0     		sub	sp, sp, #16
 127              	.LCFI2:
 128              		.cfi_def_cfa_offset 32
 129              		.loc 1 105 0
 130 0004 0028     		cmp	r0, #0
 131 0006 22D0     		beq	.L15
 132              		.cfi_offset 14, -4
 133              		.cfi_offset 6, -8
 134              		.cfi_offset 5, -12
 135              		.cfi_offset 4, -16
 136              		.loc 1 110 0
 137 0008 4CF6CD41 		movw	r1, #52429
 138              		.loc 1 108 0
 139 000c 6D46     		mov	r5, sp
 140 000e 6C46     		mov	r4, sp
 141              		.loc 1 110 0
 142 0010 CCF6CC41 		movt	r1, 52428
 143              	.LVL4:
 144              	.L11:
 145 0014 A1FB0023 		umull	r2, r3, r1, r0
 146 0018 DB08     		lsrs	r3, r3, #3
 147 001a 03EB8302 		add	r2, r3, r3, lsl #2
 148 001e 5200     		lsls	r2, r2, #1
 149 0020 801A     		subs	r0, r0, r2
 150 0022 00F13002 		add	r2, r0, #48
 151 0026 04F8012B 		strb	r2, [r4], #1
 152              	.LVL5:
 153              		.loc 1 109 0
 154 002a 1846     		mov	r0, r3
 155 002c 002B     		cmp	r3, #0
 156 002e F1D1     		bne	.L11
 157              		.loc 1 111 0
 158 0030 AC42     		cmp	r4, r5
 159 0032 0AD9     		bls	.L8
 160 0034 0A4E     		ldr	r6, .L16
 161              	.LVL6:
 162              	.L12:
 163              		.loc 1 112 0
 164 0036 3068     		ldr	r0, [r6, #0]
 165 0038 14F8011D 		ldrb	r1, [r4, #-1]!	@ zero_extendqisi2
 166 003c 0368     		ldr	r3, [r0, #0]
 167 003e 4FF0FF32 		mov	r2, #-1
ARM GAS  C:\Users\z80\AppData\Local\Temp\ccq4Gerd.s 			page 4


 168 0042 1B69     		ldr	r3, [r3, #16]
 169 0044 9847     		blx	r3
 170              		.loc 1 111 0
 171 0046 A542     		cmp	r5, r4
 172 0048 F5D3     		bcc	.L12
 173              	.L8:
 174              		.loc 1 114 0
 175 004a 04B0     		add	sp, sp, #16
 176 004c 70BD     		pop	{r4, r5, r6, pc}
 177              	.LVL7:
 178              	.L15:
 179              		.loc 1 106 0
 180 004e 044B     		ldr	r3, .L16
 181 0050 3021     		movs	r1, #48
 182 0052 1868     		ldr	r0, [r3, #0]
 183              	.LVL8:
 184 0054 4FF0FF32 		mov	r2, #-1
 185 0058 0368     		ldr	r3, [r0, #0]
 186 005a 1B69     		ldr	r3, [r3, #16]
 187 005c 9847     		blx	r3
 188 005e F4E7     		b	.L8
 189              	.L17:
 190              		.align	2
 191              	.L16:
 192 0060 00000000 		.word	.LANCHOR1
 193              		.cfi_endproc
 194              	.LFE62:
 195              		.size	test_printn, .-test_printn
 196 0064 AFF30080 		.section	.text.test_print,"ax",%progbits
 196      AFF30080 
 196      AFF30080 
 197              		.align	2
 198              		.p2align 4,,15
 199              		.global	test_print
 200              		.thumb
 201              		.thumb_func
 202              		.type	test_print, %function
 203              	test_print:
 204              	.LFB63:
 205              		.loc 1 121 0
 206              		.cfi_startproc
 207              		@ args = 0, pretend = 0, frame = 0
 208              		@ frame_needed = 0, uses_anonymous_args = 0
 209              	.LVL9:
 210 0000 38B5     		push	{r3, r4, r5, lr}
 211              	.LCFI3:
 212              		.cfi_def_cfa_offset 16
 213              		.loc 1 123 0
 214 0002 0178     		ldrb	r1, [r0, #0]	@ zero_extendqisi2
 215 0004 59B1     		cbz	r1, .L18
 216              		.cfi_offset 14, -4
 217              		.cfi_offset 5, -8
 218              		.cfi_offset 4, -12
 219              		.cfi_offset 3, -16
 220 0006 064D     		ldr	r5, .L22
 221 0008 0446     		mov	r4, r0
 222              	.LVL10:
ARM GAS  C:\Users\z80\AppData\Local\Temp\ccq4Gerd.s 			page 5


 223              	.L20:
 224              		.loc 1 124 0
 225 000a 2868     		ldr	r0, [r5, #0]
 226 000c 4FF0FF32 		mov	r2, #-1
 227 0010 0368     		ldr	r3, [r0, #0]
 228 0012 1B69     		ldr	r3, [r3, #16]
 229 0014 9847     		blx	r3
 230              		.loc 1 123 0
 231 0016 14F8011F 		ldrb	r1, [r4, #1]!	@ zero_extendqisi2
 232 001a 0029     		cmp	r1, #0
 233 001c F5D1     		bne	.L20
 234              	.L18:
 235              		.loc 1 125 0
 236 001e 38BD     		pop	{r3, r4, r5, pc}
 237              	.L23:
 238              		.align	2
 239              	.L22:
 240 0020 00000000 		.word	.LANCHOR1
 241              		.cfi_endproc
 242              	.LFE63:
 243              		.size	test_print, .-test_print
 244 0024 AFF30080 		.section	.text.test_println,"ax",%progbits
 244      AFF30080 
 244      AFF30080 
 245              		.align	2
 246              		.p2align 4,,15
 247              		.global	test_println
 248              		.thumb
 249              		.thumb_func
 250              		.type	test_println, %function
 251              	test_println:
 252              	.LFB64:
 253              		.loc 1 132 0
 254              		.cfi_startproc
 255              		@ args = 0, pretend = 0, frame = 0
 256              		@ frame_needed = 0, uses_anonymous_args = 0
 257              	.LVL11:
 258 0000 10B5     		push	{r4, lr}
 259              	.LCFI4:
 260              		.cfi_def_cfa_offset 8
 261              		.loc 1 135 0
 262 0002 40F20004 		movw	r4, #:lower16:.LANCHOR1
 263              		.cfi_offset 14, -4
 264              		.cfi_offset 4, -8
 265 0006 C0F20004 		movt	r4, #:upper16:.LANCHOR1
 266              		.loc 1 134 0
 267 000a FFF7FEFF 		bl	test_print
 268              	.LVL12:
 269              		.loc 1 135 0
 270 000e 2068     		ldr	r0, [r4, #0]
 271 0010 0D21     		movs	r1, #13
 272 0012 0368     		ldr	r3, [r0, #0]
 273 0014 4FF0FF32 		mov	r2, #-1
 274 0018 1B69     		ldr	r3, [r3, #16]
 275 001a 9847     		blx	r3
 276              		.loc 1 136 0
 277 001c 2068     		ldr	r0, [r4, #0]
ARM GAS  C:\Users\z80\AppData\Local\Temp\ccq4Gerd.s 			page 6


 278 001e 0A21     		movs	r1, #10
 279 0020 0368     		ldr	r3, [r0, #0]
 280 0022 4FF0FF32 		mov	r2, #-1
 281 0026 1B69     		ldr	r3, [r3, #16]
 282 0028 9847     		blx	r3
 283              		.loc 1 137 0
 284 002a 10BD     		pop	{r4, pc}
 285              		.cfi_endproc
 286              	.LFE64:
 287              		.size	test_println, .-test_println
 288 002c AFF30080 		.section	.text.test_emit_token,"ax",%progbits
 289              		.align	2
 290              		.p2align 4,,15
 291              		.global	test_emit_token
 292              		.thumb
 293              		.thumb_func
 294              		.type	test_emit_token, %function
 295              	test_emit_token:
 296              	.LFB67:
 297              		.loc 1 159 0
 298              		.cfi_startproc
 299              		@ args = 0, pretend = 0, frame = 0
 300              		@ frame_needed = 0, uses_anonymous_args = 0
 301              	.LVL13:
 302 0000 10B5     		push	{r4, lr}
 303              	.LCFI5:
 304              		.cfi_def_cfa_offset 8
 305              	.LBB22:
 306              		.loc 1 161 0
 307 0002 2023     		movs	r3, #32
 308              	.LVL14:
 309              	.LBE22:
 310              		.loc 1 159 0
 311 0004 0446     		mov	r4, r0
 312              		.cfi_offset 14, -4
 313              		.cfi_offset 4, -8
 314              	.LBB23:
 315              		.loc 1 161 0
 316              	@ 161 "../chibios_2.4.x/test/test.c" 1
 317 0006 83F31188 		msr     BASEPRI, r3
 318              	@ 0 "" 2
 319              	.LVL15:
 320              		.thumb
 321              	.LBE23:
 322 000a FFF7FEFF 		bl	dbg_check_lock
 323              	.LVL16:
 324              		.loc 1 162 0
 325 000e 40F20003 		movw	r3, #:lower16:.LANCHOR2
 326 0012 C0F20003 		movt	r3, #:upper16:.LANCHOR2
 327 0016 1A68     		ldr	r2, [r3, #0]
 328 0018 02F8014B 		strb	r4, [r2], #1
 329 001c 1A60     		str	r2, [r3, #0]
 330              		.loc 1 163 0
 331 001e FFF7FEFF 		bl	dbg_check_unlock
 332              	.LBB24:
 333 0022 0023     		movs	r3, #0
 334              	.LVL17:
ARM GAS  C:\Users\z80\AppData\Local\Temp\ccq4Gerd.s 			page 7


 335              	@ 163 "../chibios_2.4.x/test/test.c" 1
 336 0024 83F31188 		msr     BASEPRI, r3
 337              	@ 0 "" 2
 338              	.LVL18:
 339              		.thumb
 340              	.LBE24:
 341              		.loc 1 164 0
 342 0028 10BD     		pop	{r4, pc}
 343              		.cfi_endproc
 344              	.LFE67:
 345              		.size	test_emit_token, .-test_emit_token
 346 002a 00BFAFF3 		.section	.text._test_fail,"ax",%progbits
 346      0080
 347              		.align	2
 348              		.p2align 4,,15
 349              		.global	_test_fail
 350              		.thumb
 351              		.thumb_func
 352              		.type	_test_fail, %function
 353              	_test_fail:
 354              	.LFB68:
 355              		.loc 1 169 0
 356              		.cfi_startproc
 357              		@ args = 0, pretend = 0, frame = 0
 358              		@ frame_needed = 0, uses_anonymous_args = 0
 359              		@ link register save eliminated.
 360              	.LVL19:
 361              		.loc 1 171 0
 362 0000 40F2000C 		movw	ip, #:lower16:.LANCHOR3
 363              		.loc 1 172 0
 364 0004 40F20001 		movw	r1, #:lower16:.LANCHOR4
 365              		.loc 1 173 0
 366 0008 40F20002 		movw	r2, #:lower16:.LANCHOR5
 367              		.loc 1 171 0
 368 000c 0123     		movs	r3, #1
 369 000e C0F2000C 		movt	ip, #:upper16:.LANCHOR3
 370              		.loc 1 172 0
 371 0012 C0F20001 		movt	r1, #:upper16:.LANCHOR4
 372              		.loc 1 173 0
 373 0016 C0F20002 		movt	r2, #:upper16:.LANCHOR5
 374 001a 1060     		str	r0, [r2, #0]
 375              		.loc 1 171 0
 376 001c CCF80030 		str	r3, [ip, #0]
 377              		.loc 1 172 0
 378 0020 0B60     		str	r3, [r1, #0]
 379              		.loc 1 175 0
 380 0022 1846     		mov	r0, r3
 381              	.LVL20:
 382 0024 7047     		bx	lr
 383              		.cfi_endproc
 384              	.LFE68:
 385              		.size	_test_fail, .-_test_fail
 386 0026 00BFAFF3 		.section	.text._test_assert,"ax",%progbits
 386      0080AFF3 
 386      0080
 387              		.align	2
 388              		.p2align 4,,15
ARM GAS  C:\Users\z80\AppData\Local\Temp\ccq4Gerd.s 			page 8


 389              		.global	_test_assert
 390              		.thumb
 391              		.thumb_func
 392              		.type	_test_assert, %function
 393              	_test_assert:
 394              	.LFB69:
 395              		.loc 1 177 0
 396              		.cfi_startproc
 397              		@ args = 0, pretend = 0, frame = 0
 398              		@ frame_needed = 0, uses_anonymous_args = 0
 399              		@ link register save eliminated.
 400              	.LVL21:
 401              		.loc 1 179 0
 402 0000 41B9     		cbnz	r1, .L29
 403              	.LVL22:
 404              	.LBB25:
 405              	.LBB26:
 406              		.loc 1 171 0
 407 0002 054A     		ldr	r2, .L30
 408 0004 0123     		movs	r3, #1
 409 0006 1360     		str	r3, [r2, #0]
 410              		.loc 1 172 0
 411 0008 044A     		ldr	r2, .L30+4
 412 000a 1360     		str	r3, [r2, #0]
 413              		.loc 1 173 0
 414 000c 044A     		ldr	r2, .L30+8
 415 000e 1060     		str	r0, [r2, #0]
 416              	.LBE26:
 417              	.LBE25:
 418              		.loc 1 180 0
 419 0010 1846     		mov	r0, r3
 420              	.LVL23:
 421              	.L28:
 422              		.loc 1 182 0
 423 0012 7047     		bx	lr
 424              	.LVL24:
 425              	.L29:
 426              		.loc 1 181 0
 427 0014 0020     		movs	r0, #0
 428              	.LVL25:
 429 0016 FCE7     		b	.L28
 430              	.L31:
 431              		.align	2
 432              	.L30:
 433 0018 00000000 		.word	.LANCHOR3
 434 001c 00000000 		.word	.LANCHOR4
 435 0020 00000000 		.word	.LANCHOR5
 436              		.cfi_endproc
 437              	.LFE69:
 438              		.size	_test_assert, .-_test_assert
 439 0024 AFF30080 		.section	.text._test_assert_sequence,"ax",%progbits
 439      AFF30080 
 439      AFF30080 
 440              		.align	2
 441              		.p2align 4,,15
 442              		.global	_test_assert_sequence
 443              		.thumb
ARM GAS  C:\Users\z80\AppData\Local\Temp\ccq4Gerd.s 			page 9


 444              		.thumb_func
 445              		.type	_test_assert_sequence, %function
 446              	_test_assert_sequence:
 447              	.LFB70:
 448              		.loc 1 184 0
 449              		.cfi_startproc
 450              		@ args = 0, pretend = 0, frame = 0
 451              		@ frame_needed = 0, uses_anonymous_args = 0
 452              		@ link register save eliminated.
 453              	.LVL26:
 454              		.loc 1 193 0
 455 0000 0E4B     		ldr	r3, .L39
 456              		.loc 1 185 0
 457 0002 0F4A     		ldr	r2, .L39+4
 458              		.loc 1 184 0
 459 0004 70B4     		push	{r4, r5, r6}
 460              	.LCFI6:
 461              		.cfi_def_cfa_offset 12
 462              		.loc 1 185 0
 463 0006 9446     		mov	ip, r2
 464              		.loc 1 193 0
 465 0008 1E68     		ldr	r6, [r3, #0]
 466              		.cfi_offset 6, -4
 467              		.cfi_offset 5, -8
 468              		.cfi_offset 4, -12
 469              		.loc 1 186 0
 470 000a 05E0     		b	.L33
 471              	.LVL27:
 472              	.L35:
 473              		.loc 1 187 0
 474 000c 1CF8015B 		ldrb	r5, [ip], #1	@ zero_extendqisi2
 475 0010 11F8014B 		ldrb	r4, [r1], #1	@ zero_extendqisi2
 476              	.LVL28:
 477 0014 A542     		cmp	r5, r4
 478 0016 06D1     		bne	.L38
 479              	.L33:
 480              	.LVL29:
 481              		.loc 1 186 0 discriminator 1
 482 0018 6645     		cmp	r6, ip
 483 001a F7D8     		bhi	.L35
 484              		.loc 1 190 0
 485 001c 0978     		ldrb	r1, [r1, #0]	@ zero_extendqisi2
 486              	.LVL30:
 487 001e 11B9     		cbnz	r1, .L38
 488              	.LBB27:
 489              	.LBB28:
 490              		.loc 1 144 0
 491 0020 1A60     		str	r2, [r3, #0]
 492              	.LBE28:
 493              	.LBE27:
 494              		.loc 1 193 0
 495 0022 0846     		mov	r0, r1
 496              	.LVL31:
 497 0024 07E0     		b	.L34
 498              	.LVL32:
 499              	.L38:
 500              	.LBB29:
ARM GAS  C:\Users\z80\AppData\Local\Temp\ccq4Gerd.s 			page 10


 501              	.LBB30:
 502              		.loc 1 171 0
 503 0026 074A     		ldr	r2, .L39+8
 504 0028 0123     		movs	r3, #1
 505 002a 1360     		str	r3, [r2, #0]
 506              		.loc 1 172 0
 507 002c 064A     		ldr	r2, .L39+12
 508 002e 1360     		str	r3, [r2, #0]
 509              		.loc 1 173 0
 510 0030 064A     		ldr	r2, .L39+16
 511 0032 1060     		str	r0, [r2, #0]
 512              	.LBE30:
 513              	.LBE29:
 514              		.loc 1 191 0
 515 0034 1846     		mov	r0, r3
 516              	.LVL33:
 517              	.L34:
 518              		.loc 1 194 0
 519 0036 70BC     		pop	{r4, r5, r6}
 520 0038 7047     		bx	lr
 521              	.L40:
 522 003a 00BF     		.align	2
 523              	.L39:
 524 003c 00000000 		.word	.LANCHOR2
 525 0040 00000000 		.word	.LANCHOR6
 526 0044 00000000 		.word	.LANCHOR3
 527 0048 00000000 		.word	.LANCHOR4
 528 004c 00000000 		.word	.LANCHOR5
 529              		.cfi_endproc
 530              	.LFE70:
 531              		.size	_test_assert_sequence, .-_test_assert_sequence
 532              		.section	.text._test_assert_time_window,"ax",%progbits
 533              		.align	2
 534              		.p2align 4,,15
 535              		.global	_test_assert_time_window
 536              		.thumb
 537              		.thumb_func
 538              		.type	_test_assert_time_window, %function
 539              	_test_assert_time_window:
 540              	.LFB71:
 541              		.loc 1 196 0
 542              		.cfi_startproc
 543              		@ args = 0, pretend = 0, frame = 0
 544              		@ frame_needed = 0, uses_anonymous_args = 0
 545              	.LVL34:
 546 0000 0B46     		mov	r3, r1
 547 0002 10B5     		push	{r4, lr}
 548              	.LCFI7:
 549              		.cfi_def_cfa_offset 8
 550              		.loc 1 198 0
 551 0004 1146     		mov	r1, r2
 552              	.LVL35:
 553              		.loc 1 196 0
 554 0006 0446     		mov	r4, r0
 555              		.cfi_offset 14, -4
 556              		.cfi_offset 4, -8
 557              		.loc 1 198 0
ARM GAS  C:\Users\z80\AppData\Local\Temp\ccq4Gerd.s 			page 11


 558 0008 1846     		mov	r0, r3
 559              	.LVL36:
 560 000a FFF7FEFF 		bl	chTimeIsWithin
 561              	.LVL37:
 562              	.LBB31:
 563              	.LBB32:
 564              		.loc 1 179 0
 565 000e 38B9     		cbnz	r0, .L43
 566              	.LVL38:
 567              	.LBB33:
 568              	.LBB34:
 569              		.loc 1 171 0
 570 0010 044B     		ldr	r3, .L44
 571 0012 0120     		movs	r0, #1
 572              	.LVL39:
 573 0014 1860     		str	r0, [r3, #0]
 574              		.loc 1 172 0
 575 0016 044B     		ldr	r3, .L44+4
 576 0018 1860     		str	r0, [r3, #0]
 577              		.loc 1 173 0
 578 001a 044B     		ldr	r3, .L44+8
 579 001c 1C60     		str	r4, [r3, #0]
 580              	.LVL40:
 581              	.L42:
 582              	.LBE34:
 583              	.LBE33:
 584              	.LBE32:
 585              	.LBE31:
 586              		.loc 1 199 0
 587 001e 10BD     		pop	{r4, pc}
 588              	.LVL41:
 589              	.L43:
 590              	.LBB36:
 591              	.LBB35:
 592              		.loc 1 181 0
 593 0020 0020     		movs	r0, #0
 594              	.LVL42:
 595 0022 FCE7     		b	.L42
 596              	.L45:
 597              		.align	2
 598              	.L44:
 599 0024 00000000 		.word	.LANCHOR3
 600 0028 00000000 		.word	.LANCHOR4
 601 002c 00000000 		.word	.LANCHOR5
 602              	.LBE35:
 603              	.LBE36:
 604              		.cfi_endproc
 605              	.LFE71:
 606              		.size	_test_assert_time_window, .-_test_assert_time_window
 607              		.section	.text.test_terminate_threads,"ax",%progbits
 608              		.align	2
 609              		.p2align 4,,15
 610              		.global	test_terminate_threads
 611              		.thumb
 612              		.thumb_func
 613              		.type	test_terminate_threads, %function
 614              	test_terminate_threads:
ARM GAS  C:\Users\z80\AppData\Local\Temp\ccq4Gerd.s 			page 12


 615              	.LFB72:
 616              		.loc 1 208 0
 617              		.cfi_startproc
 618              		@ args = 0, pretend = 0, frame = 0
 619              		@ frame_needed = 0, uses_anonymous_args = 0
 620              	.LVL43:
 621 0000 38B5     		push	{r3, r4, r5, lr}
 622              	.LCFI8:
 623              		.cfi_def_cfa_offset 16
 624              		.loc 1 208 0
 625 0002 054C     		ldr	r4, .L50
 626              		.cfi_offset 14, -4
 627              		.cfi_offset 5, -8
 628              		.cfi_offset 4, -12
 629              		.cfi_offset 3, -16
 630 0004 04F11405 		add	r5, r4, #20
 631              	.LVL44:
 632              	.L48:
 633              		.loc 1 212 0
 634 0008 54F8040F 		ldr	r0, [r4, #4]!
 635 000c 08B1     		cbz	r0, .L47
 636              		.loc 1 213 0
 637 000e FFF7FEFF 		bl	chThdTerminate
 638              	.L47:
 639              		.loc 1 211 0
 640 0012 AC42     		cmp	r4, r5
 641 0014 F8D1     		bne	.L48
 642              		.loc 1 214 0
 643 0016 38BD     		pop	{r3, r4, r5, pc}
 644              	.L51:
 645              		.align	2
 646              	.L50:
 647 0018 FCFFFFFF 		.word	.LANCHOR7-4
 648              		.cfi_endproc
 649              	.LFE72:
 650              		.size	test_terminate_threads, .-test_terminate_threads
 651 001c AFF30080 		.section	.text.test_wait_threads,"ax",%progbits
 652              		.align	2
 653              		.p2align 4,,15
 654              		.global	test_wait_threads
 655              		.thumb
 656              		.thumb_func
 657              		.type	test_wait_threads, %function
 658              	test_wait_threads:
 659              	.LFB73:
 660              		.loc 1 219 0
 661              		.cfi_startproc
 662              		@ args = 0, pretend = 0, frame = 0
 663              		@ frame_needed = 0, uses_anonymous_args = 0
 664              	.LVL45:
 665 0000 70B5     		push	{r4, r5, r6, lr}
 666              	.LCFI9:
 667              		.cfi_def_cfa_offset 16
 668              		.loc 1 219 0
 669 0002 074C     		ldr	r4, .L56
 670              		.cfi_offset 14, -4
 671              		.cfi_offset 6, -8
ARM GAS  C:\Users\z80\AppData\Local\Temp\ccq4Gerd.s 			page 13


 672              		.cfi_offset 5, -12
 673              		.cfi_offset 4, -16
 674              		.loc 1 225 0
 675 0004 0026     		movs	r6, #0
 676              		.loc 1 219 0
 677 0006 04F11405 		add	r5, r4, #20
 678              	.LVL46:
 679              	.L54:
 680              		.loc 1 223 0
 681 000a 54F8043B 		ldr	r3, [r4], #4
 682              		.loc 1 224 0
 683 000e 1846     		mov	r0, r3
 684              		.loc 1 223 0
 685 0010 1BB1     		cbz	r3, .L53
 686              		.loc 1 224 0
 687 0012 FFF7FEFF 		bl	chThdWait
 688              		.loc 1 225 0
 689 0016 44F8046C 		str	r6, [r4, #-4]
 690              	.L53:
 691              		.loc 1 222 0
 692 001a AC42     		cmp	r4, r5
 693 001c F5D1     		bne	.L54
 694              		.loc 1 227 0
 695 001e 70BD     		pop	{r4, r5, r6, pc}
 696              	.L57:
 697              		.align	2
 698              	.L56:
 699 0020 00000000 		.word	.LANCHOR7
 700              		.cfi_endproc
 701              	.LFE73:
 702              		.size	test_wait_threads, .-test_wait_threads
 703 0024 AFF30080 		.section	.text.test_cpu_pulse,"ax",%progbits
 703      AFF30080 
 703      AFF30080 
 704              		.align	2
 705              		.p2align 4,,15
 706              		.global	test_cpu_pulse
 707              		.thumb
 708              		.thumb_func
 709              		.type	test_cpu_pulse, %function
 710              	test_cpu_pulse:
 711              	.LFB74:
 712              		.loc 1 236 0
 713              		.cfi_startproc
 714              		@ args = 0, pretend = 0, frame = 0
 715              		@ frame_needed = 0, uses_anonymous_args = 0
 716              		@ link register save eliminated.
 717              	.LVL47:
 718              		.loc 1 240 0
 719 0000 4FF4FA71 		mov	r1, #500
 720 0004 01FB00F1 		mul	r1, r1, r0
 721              		.loc 1 239 0
 722 0008 154A     		ldr	r2, .L64
 723              		.loc 1 240 0
 724 000a 44F6D353 		movw	r3, #19923
 725              		.loc 1 239 0
 726 000e D2F81CC0 		ldr	ip, [r2, #28]
ARM GAS  C:\Users\z80\AppData\Local\Temp\ccq4Gerd.s 			page 14


 727              		.loc 1 240 0
 728 0012 A1F5FA71 		sub	r1, r1, #500
 729 0016 C1F26203 		movt	r3, 4194
 730 001a A3FB0121 		umull	r2, r1, r3, r1
 731              		.loc 1 239 0
 732 001e DCF82420 		ldr	r2, [ip, #36]
 733              	.LVL48:
 734              		.loc 1 240 0
 735 0022 501C     		adds	r0, r2, #1
 736              	.LVL49:
 737 0024 00EB9111 		add	r1, r0, r1, lsr #6
 738              	.LVL50:
 739              	.L61:
 740              		.loc 1 247 0
 741 0028 8A42     		cmp	r2, r1
 742              		.loc 1 242 0
 743 002a DCF82430 		ldr	r3, [ip, #36]
 744              	.LVL51:
 745              		.loc 1 247 0
 746 002e 0BD2     		bcs	.L59
 747              		.loc 1 247 0 is_stmt 0 discriminator 1
 748 0030 9342     		cmp	r3, r2
 749 0032 34BF     		ite	cc
 750 0034 0020     		movcc	r0, #0
 751 0036 0120     		movcs	r0, #1
 752 0038 8B42     		cmp	r3, r1
 753 003a 2CBF     		ite	cs
 754 003c 0023     		movcs	r3, #0
 755 003e 00F00103 		andcc	r3, r0, #1
 756              	.LVL52:
 757              		.loc 1 248 0 is_stmt 1 discriminator 1
 758 0042 002B     		cmp	r3, #0
 759 0044 F0D1     		bne	.L61
 760              	.L63:
 761              		.loc 1 249 0
 762 0046 7047     		bx	lr
 763              	.LVL53:
 764              	.L59:
 765              		.loc 1 248 0 discriminator 2
 766 0048 9342     		cmp	r3, r2
 767 004a 34BF     		ite	cc
 768 004c 0020     		movcc	r0, #0
 769 004e 0120     		movcs	r0, #1
 770              		.loc 1 247 0 discriminator 2
 771 0050 8B42     		cmp	r3, r1
 772 0052 2CBF     		ite	cs
 773 0054 0346     		movcs	r3, r0
 774 0056 40F00103 		orrcc	r3, r0, #1
 775              	.LVL54:
 776              		.loc 1 248 0 discriminator 2
 777 005a 002B     		cmp	r3, #0
 778 005c E4D1     		bne	.L61
 779 005e F2E7     		b	.L63
 780              	.L65:
 781              		.align	2
 782              	.L64:
 783 0060 00000000 		.word	rlist
ARM GAS  C:\Users\z80\AppData\Local\Temp\ccq4Gerd.s 			page 15


 784              		.cfi_endproc
 785              	.LFE74:
 786              		.size	test_cpu_pulse, .-test_cpu_pulse
 787 0064 AFF30080 		.section	.text.test_wait_tick,"ax",%progbits
 787      AFF30080 
 787      AFF30080 
 788              		.align	2
 789              		.p2align 4,,15
 790              		.global	test_wait_tick
 791              		.thumb
 792              		.thumb_func
 793              		.type	test_wait_tick, %function
 794              	test_wait_tick:
 795              	.LFB75:
 796              		.loc 1 257 0
 797              		.cfi_startproc
 798              		@ args = 0, pretend = 0, frame = 0
 799              		@ frame_needed = 0, uses_anonymous_args = 0
 800 0000 08B5     		push	{r3, lr}
 801              	.LCFI10:
 802              		.cfi_def_cfa_offset 8
 803              		.loc 1 259 0
 804 0002 0120     		movs	r0, #1
 805              		.cfi_offset 14, -4
 806              		.cfi_offset 3, -8
 807 0004 FFF7FEFF 		bl	chThdSleep
 808              		.loc 1 260 0
 809 0008 40F20003 		movw	r3, #:lower16:vtlist
 810 000c C0F20003 		movt	r3, #:upper16:vtlist
 811 0010 D868     		ldr	r0, [r3, #12]
 812              		.loc 1 261 0
 813 0012 08BD     		pop	{r3, pc}
 814              		.cfi_endproc
 815              	.LFE75:
 816              		.size	test_wait_tick, .-test_wait_tick
 817 0014 AFF30080 		.section	.text.test_start_timer,"ax",%progbits
 817      AFF30080 
 817      AFF30080 
 818              		.align	2
 819              		.p2align 4,,15
 820              		.global	test_start_timer
 821              		.thumb
 822              		.thumb_func
 823              		.type	test_start_timer, %function
 824              	test_start_timer:
 825              	.LFB77:
 826              		.loc 1 284 0
 827              		.cfi_startproc
 828              		@ args = 0, pretend = 0, frame = 0
 829              		@ frame_needed = 0, uses_anonymous_args = 0
 830              	.LVL55:
 831 0000 38B5     		push	{r3, r4, r5, lr}
 832              	.LCFI11:
 833              		.cfi_def_cfa_offset 16
 834              		.loc 1 287 0
 835 0002 40F20003 		movw	r3, #:lower16:.LANCHOR0
 836              		.cfi_offset 14, -4
ARM GAS  C:\Users\z80\AppData\Local\Temp\ccq4Gerd.s 			page 16


 837              		.cfi_offset 5, -8
 838              		.cfi_offset 4, -12
 839              		.cfi_offset 3, -16
 840 0006 C0F20003 		movt	r3, #:upper16:.LANCHOR0
 841 000a 0024     		movs	r4, #0
 842 000c 1C60     		str	r4, [r3, #0]
 843              		.loc 1 284 0
 844 000e 0546     		mov	r5, r0
 845              	.LVL56:
 846              	.LBB37:
 847              		.loc 1 288 0
 848 0010 2023     		movs	r3, #32
 849              	.LVL57:
 850              	@ 288 "../chibios_2.4.x/test/test.c" 1
 851 0012 83F31188 		msr     BASEPRI, r3
 852              	@ 0 "" 2
 853              	.LVL58:
 854              		.thumb
 855              	.LBE37:
 856 0016 FFF7FEFF 		bl	dbg_check_lock
 857              	.LVL59:
 858              		.loc 1 286 0
 859 001a 4FF4FA71 		mov	r1, #500
 860 001e 01FB05F1 		mul	r1, r1, r5
 861 0022 44F6D353 		movw	r3, #19923
 862 0026 C1F26203 		movt	r3, 4194
 863 002a A1F5FA71 		sub	r1, r1, #500
 864 002e A3FB0121 		umull	r2, r1, r3, r1
 865              		.loc 1 289 0
 866 0032 40F20000 		movw	r0, #:lower16:.LANCHOR8
 867              		.loc 1 286 0
 868 0036 8909     		lsrs	r1, r1, #6
 869              		.loc 1 289 0
 870 0038 40F20002 		movw	r2, #:lower16:tmr
 871 003c 2346     		mov	r3, r4
 872 003e C0F20000 		movt	r0, #:upper16:.LANCHOR8
 873              		.loc 1 286 0
 874 0042 0131     		adds	r1, r1, #1
 875              		.loc 1 289 0
 876 0044 C0F20002 		movt	r2, #:upper16:tmr
 877 0048 FFF7FEFF 		bl	chVTSetI
 878              		.loc 1 290 0
 879 004c FFF7FEFF 		bl	dbg_check_unlock
 880              	.LBB38:
 881 0050 2346     		mov	r3, r4
 882              	.LVL60:
 883              	@ 290 "../chibios_2.4.x/test/test.c" 1
 884 0052 83F31188 		msr     BASEPRI, r3
 885              	@ 0 "" 2
 886              	.LVL61:
 887              		.thumb
 888              	.LBE38:
 889              		.loc 1 291 0
 890 0056 38BD     		pop	{r3, r4, r5, pc}
 891              		.cfi_endproc
 892              	.LFE77:
 893              		.size	test_start_timer, .-test_start_timer
ARM GAS  C:\Users\z80\AppData\Local\Temp\ccq4Gerd.s 			page 17


 894 0058 AFF30080 		.section	.text.TestThread,"ax",%progbits
 894      AFF30080 
 895              		.align	2
 896              		.p2align 4,,15
 897              		.global	TestThread
 898              		.thumb
 899              		.thumb_func
 900              		.type	TestThread, %function
 901              	TestThread:
 902              	.LFB80:
 903              		.loc 1 329 0
 904              		.cfi_startproc
 905              		@ args = 0, pretend = 0, frame = 16
 906              		@ frame_needed = 0, uses_anonymous_args = 0
 907              	.LVL62:
 908 0000 2DE9F04F 		push	{r4, r5, r6, r7, r8, r9, sl, fp, lr}
 909              	.LCFI12:
 910              		.cfi_def_cfa_offset 36
 911              		.loc 1 332 0
 912 0004 DFF8CC81 		ldr	r8, .L84
 913              		.cfi_offset 14, -4
 914              		.cfi_offset 11, -8
 915              		.cfi_offset 10, -12
 916              		.cfi_offset 9, -16
 917              		.cfi_offset 8, -20
 918              		.cfi_offset 7, -24
 919              		.cfi_offset 6, -28
 920              		.cfi_offset 5, -32
 921              		.cfi_offset 4, -36
 922              		.loc 1 329 0
 923 0008 0346     		mov	r3, r0
 924 000a 85B0     		sub	sp, sp, #20
 925              	.LCFI13:
 926              		.cfi_def_cfa_offset 56
 927              		.loc 1 333 0
 928 000c 7248     		ldr	r0, .L84+4
 929              	.LVL63:
 930              		.loc 1 332 0
 931 000e C8F80030 		str	r3, [r8, #0]
 932              		.loc 1 333 0
 933 0012 FFF7FEFF 		bl	test_println
 934              	.LVL64:
 935              		.loc 1 334 0
 936 0016 7148     		ldr	r0, .L84+8
 937 0018 FFF7FEFF 		bl	test_println
 938              		.loc 1 335 0
 939 001c 7048     		ldr	r0, .L84+12
 940 001e FFF7FEFF 		bl	test_println
 941              		.loc 1 336 0
 942 0022 7048     		ldr	r0, .L84+16
 943 0024 FFF7FEFF 		bl	test_print
 944              		.loc 1 337 0
 945 0028 6F48     		ldr	r0, .L84+20
 946 002a FFF7FEFF 		bl	test_println
 947              		.loc 1 338 0
 948 002e 6F48     		ldr	r0, .L84+24
 949 0030 FFF7FEFF 		bl	test_print
ARM GAS  C:\Users\z80\AppData\Local\Temp\ccq4Gerd.s 			page 18


 950              		.loc 1 339 0
 951 0034 6E48     		ldr	r0, .L84+28
 952 0036 FFF7FEFF 		bl	test_println
 953              		.loc 1 341 0
 954 003a 6E48     		ldr	r0, .L84+32
 955 003c FFF7FEFF 		bl	test_print
 956              		.loc 1 342 0
 957 0040 6D48     		ldr	r0, .L84+36
 958 0042 FFF7FEFF 		bl	test_println
 959              		.loc 1 344 0
 960 0046 6D48     		ldr	r0, .L84+40
 961 0048 FFF7FEFF 		bl	test_print
 962              		.loc 1 345 0
 963 004c 6C48     		ldr	r0, .L84+44
 964 004e FFF7FEFF 		bl	test_println
 965              		.loc 1 347 0
 966 0052 6C48     		ldr	r0, .L84+48
 967 0054 FFF7FEFF 		bl	test_print
 968              		.loc 1 348 0
 969 0058 6B48     		ldr	r0, .L84+52
 970 005a FFF7FEFF 		bl	test_println
 971              		.loc 1 351 0
 972 005e 6B48     		ldr	r0, .L84+56
 973 0060 FFF7FEFF 		bl	test_print
 974              		.loc 1 352 0
 975 0064 6A48     		ldr	r0, .L84+60
 976 0066 FFF7FEFF 		bl	test_println
 977              		.loc 1 355 0
 978 006a 6A48     		ldr	r0, .L84+64
 979 006c FFF7FEFF 		bl	test_print
 980              		.loc 1 356 0
 981 0070 6948     		ldr	r0, .L84+68
 982 0072 FFF7FEFF 		bl	test_println
 983              		.loc 1 359 0
 984 0076 6948     		ldr	r0, .L84+72
 985 0078 FFF7FEFF 		bl	test_print
 986              		.loc 1 360 0
 987 007c 6848     		ldr	r0, .L84+76
 988 007e FFF7FEFF 		bl	test_println
 989              		.loc 1 362 0
 990 0082 5548     		ldr	r0, .L84+4
 991 0084 FFF7FEFF 		bl	test_println
 992              		.loc 1 364 0
 993 0088 40F20002 		movw	r2, #:lower16:.LANCHOR4
 994 008c 0023     		movs	r3, #0
 995 008e C0F20002 		movt	r2, #:upper16:.LANCHOR4
 996 0092 1360     		str	r3, [r2, #0]
 997              	.LVL65:
 998 0094 634A     		ldr	r2, .L84+80
 999 0096 644C     		ldr	r4, .L84+84
 1000              	.LBB39:
 1001              	.LBB41:
 1002              	.LBB42:
 1003              	.LBB43:
 1004              		.loc 1 144 0
 1005 0098 644D     		ldr	r5, .L84+88
 1006 009a DFF894B1 		ldr	fp, .L84+92
ARM GAS  C:\Users\z80\AppData\Local\Temp\ccq4Gerd.s 			page 19


 1007              	.LBE43:
 1008              	.LBE42:
 1009              		.loc 1 301 0
 1010 009e DFF89491 		ldr	r9, .L84+96
 1011              		.loc 1 303 0
 1012 00a2 DFF894A1 		ldr	sl, .L84+100
 1013              	.LBE41:
 1014              	.LBE39:
 1015              		.loc 1 364 0
 1016 00a6 0292     		str	r2, [sp, #8]
 1017              		.loc 1 365 0
 1018 00a8 0393     		str	r3, [sp, #12]
 1019              	.LVL66:
 1020              	.L69:
 1021              		.loc 1 366 0 discriminator 1
 1022 00aa 039A     		ldr	r2, [sp, #12]
 1023              		.loc 1 329 0 discriminator 1
 1024 00ac 0026     		movs	r6, #0
 1025              	.LVL67:
 1026              		.loc 1 366 0 discriminator 1
 1027 00ae 0132     		adds	r2, r2, #1
 1028 00b0 0392     		str	r2, [sp, #12]
 1029              		.loc 1 368 0 discriminator 1
 1030 00b2 54F82620 		ldr	r2, [r4, r6, lsl #2]
 1031              	.LBB47:
 1032              	.LBB40:
 1033              		.loc 1 301 0 discriminator 1
 1034 00b6 3746     		mov	r7, r6
 1035              	.LBE40:
 1036              	.LBE47:
 1037              		.loc 1 368 0 discriminator 1
 1038 00b8 B300     		lsls	r3, r6, #2
 1039 00ba 002A     		cmp	r2, #0
 1040 00bc 63D0     		beq	.L82
 1041              	.LVL68:
 1042              	.L76:
 1043              		.loc 1 369 0
 1044 00be 0193     		str	r3, [sp, #4]
 1045 00c0 FFF7FEFF 		bl	print_line
 1046              		.loc 1 370 0
 1047 00c4 5D48     		ldr	r0, .L84+104
 1048 00c6 FFF7FEFF 		bl	test_print
 1049              		.loc 1 371 0
 1050 00ca 0398     		ldr	r0, [sp, #12]
 1051 00cc FFF7FEFF 		bl	test_printn
 1052              		.loc 1 373 0
 1053 00d0 0136     		adds	r6, r6, #1
 1054              	.LVL69:
 1055              		.loc 1 372 0
 1056 00d2 5B48     		ldr	r0, .L84+108
 1057 00d4 FFF7FEFF 		bl	test_print
 1058              		.loc 1 373 0
 1059 00d8 3046     		mov	r0, r6
 1060 00da FFF7FEFF 		bl	test_printn
 1061              		.loc 1 374 0
 1062 00de 5948     		ldr	r0, .L84+112
 1063 00e0 FFF7FEFF 		bl	test_print
ARM GAS  C:\Users\z80\AppData\Local\Temp\ccq4Gerd.s 			page 20


 1064              		.loc 1 375 0
 1065 00e4 019B     		ldr	r3, [sp, #4]
 1066 00e6 E258     		ldr	r2, [r4, r3]
 1067 00e8 1068     		ldr	r0, [r2, #0]
 1068 00ea FFF7FEFF 		bl	test_print
 1069              		.loc 1 376 0
 1070 00ee 5648     		ldr	r0, .L84+116
 1071 00f0 FFF7FEFF 		bl	test_println
 1072              		.loc 1 378 0
 1073 00f4 6420     		movs	r0, #100
 1074 00f6 FFF7FEFF 		bl	chThdSleep
 1075              		.loc 1 380 0
 1076 00fa 019B     		ldr	r3, [sp, #4]
 1077 00fc E458     		ldr	r4, [r4, r3]
 1078              	.LVL70:
 1079              	.LBB48:
 1080              	.LBB46:
 1081              	.LBB45:
 1082              	.LBB44:
 1083              		.loc 1 144 0
 1084 00fe C5F800B0 		str	fp, [r5, #0]
 1085              	.LBE44:
 1086              	.LBE45:
 1087              		.loc 1 305 0
 1088 0102 6368     		ldr	r3, [r4, #4]
 1089              		.loc 1 301 0
 1090 0104 C9F80070 		str	r7, [r9, #0]
 1091              	.LVL71:
 1092              		.loc 1 303 0
 1093 0108 CAF80070 		str	r7, [sl, #0]
 1094              	.LVL72:
 1095 010c CAF80470 		str	r7, [sl, #4]
 1096              	.LVL73:
 1097 0110 CAF80870 		str	r7, [sl, #8]
 1098              	.LVL74:
 1099 0114 CAF80C70 		str	r7, [sl, #12]
 1100              	.LVL75:
 1101 0118 CAF81070 		str	r7, [sl, #16]
 1102              	.LVL76:
 1103              		.loc 1 305 0
 1104 011c 03B1     		cbz	r3, .L70
 1105              		.loc 1 306 0
 1106 011e 9847     		blx	r3
 1107              	.L70:
 1108              		.loc 1 307 0
 1109 0120 E368     		ldr	r3, [r4, #12]
 1110 0122 9847     		blx	r3
 1111              		.loc 1 308 0
 1112 0124 A368     		ldr	r3, [r4, #8]
 1113 0126 03B1     		cbz	r3, .L71
 1114              		.loc 1 309 0
 1115 0128 9847     		blx	r3
 1116              	.L71:
 1117              		.loc 1 311 0
 1118 012a FFF7FEFF 		bl	test_wait_threads
 1119              	.LBE46:
 1120              	.LBE48:
ARM GAS  C:\Users\z80\AppData\Local\Temp\ccq4Gerd.s 			page 21


 1121              		.loc 1 381 0
 1122 012e D9F80030 		ldr	r3, [r9, #0]
 1123 0132 002B     		cmp	r3, #0
 1124 0134 46D0     		beq	.L72
 1125              		.loc 1 382 0
 1126 0136 4548     		ldr	r0, .L84+120
 1127 0138 FFF7FEFF 		bl	test_print
 1128              		.loc 1 383 0
 1129 013c 40F20003 		movw	r3, #:lower16:.LANCHOR5
 1130 0140 C0F20003 		movt	r3, #:upper16:.LANCHOR5
 1131 0144 1868     		ldr	r0, [r3, #0]
 1132 0146 FFF7FEFF 		bl	test_printn
 1133              		.loc 1 384 0
 1134 014a 4148     		ldr	r0, .L84+124
 1135 014c FFF7FEFF 		bl	test_print
 1136              	.LVL77:
 1137              	.LBB49:
 1138              	.LBB50:
 1139              		.loc 1 150 0
 1140 0150 2B68     		ldr	r3, [r5, #0]
 1141 0152 5B45     		cmp	r3, fp
 1142 0154 0CD9     		bls	.L73
 1143 0156 364C     		ldr	r4, .L84+92
 1144              	.LVL78:
 1145              	.L74:
 1146              		.loc 1 151 0
 1147 0158 D8F80000 		ldr	r0, [r8, #0]
 1148 015c 14F8011B 		ldrb	r1, [r4], #1	@ zero_extendqisi2
 1149              	.LVL79:
 1150 0160 0368     		ldr	r3, [r0, #0]
 1151 0162 4FF0FF32 		mov	r2, #-1
 1152 0166 1B69     		ldr	r3, [r3, #16]
 1153 0168 9847     		blx	r3
 1154              		.loc 1 150 0
 1155 016a 2B68     		ldr	r3, [r5, #0]
 1156 016c A342     		cmp	r3, r4
 1157 016e F3D8     		bhi	.L74
 1158              	.LVL80:
 1159              	.L73:
 1160              	.LBE50:
 1161              	.LBE49:
 1162              		.loc 1 386 0
 1163 0170 3848     		ldr	r0, .L84+128
 1164 0172 FFF7FEFF 		bl	test_println
 1165              	.L75:
 1166              	.LVL81:
 1167              		.loc 1 389 0
 1168 0176 029A     		ldr	r2, [sp, #8]
 1169              		.loc 1 368 0
 1170 0178 B300     		lsls	r3, r6, #2
 1171              		.loc 1 389 0
 1172 017a 52F8044C 		ldr	r4, [r2, #-4]
 1173              		.loc 1 368 0
 1174 017e 54F82620 		ldr	r2, [r4, r6, lsl #2]
 1175 0182 002A     		cmp	r2, #0
 1176 0184 9BD1     		bne	.L76
 1177              	.LVL82:
ARM GAS  C:\Users\z80\AppData\Local\Temp\ccq4Gerd.s 			page 22


 1178              	.L82:
 1179              		.loc 1 366 0
 1180 0186 029B     		ldr	r3, [sp, #8]
 1181 0188 53F8044B 		ldr	r4, [r3], #4
 1182 018c 0293     		str	r3, [sp, #8]
 1183 018e 002C     		cmp	r4, #0
 1184 0190 8BD1     		bne	.L69
 1185              		.loc 1 394 0
 1186 0192 FFF7FEFF 		bl	print_line
 1187              		.loc 1 395 0
 1188 0196 1048     		ldr	r0, .L84+4
 1189 0198 FFF7FEFF 		bl	test_println
 1190              		.loc 1 396 0
 1191 019c 2E48     		ldr	r0, .L84+132
 1192 019e FFF7FEFF 		bl	test_print
 1193              		.loc 1 397 0
 1194 01a2 40F20002 		movw	r2, #:lower16:.LANCHOR4
 1195 01a6 C0F20002 		movt	r2, #:upper16:.LANCHOR4
 1196 01aa 1368     		ldr	r3, [r2, #0]
 1197 01ac 73B9     		cbnz	r3, .L83
 1198              		.loc 1 400 0
 1199 01ae 2B48     		ldr	r0, .L84+136
 1200 01b0 FFF7FEFF 		bl	test_println
 1201              	.L80:
 1202 01b4 40F20003 		movw	r3, #:lower16:.LANCHOR4
 1203 01b8 C0F20003 		movt	r3, #:upper16:.LANCHOR4
 1204 01bc 1868     		ldr	r0, [r3, #0]
 1205              		.loc 1 403 0
 1206 01be 05B0     		add	sp, sp, #20
 1207 01c0 BDE8F08F 		pop	{r4, r5, r6, r7, r8, r9, sl, fp, pc}
 1208              	.LVL83:
 1209              	.L72:
 1210              		.loc 1 389 0
 1211 01c4 2648     		ldr	r0, .L84+140
 1212 01c6 FFF7FEFF 		bl	test_println
 1213 01ca D4E7     		b	.L75
 1214              	.LVL84:
 1215              	.L83:
 1216              		.loc 1 398 0
 1217 01cc 2548     		ldr	r0, .L84+144
 1218 01ce FFF7FEFF 		bl	test_println
 1219 01d2 EFE7     		b	.L80
 1220              	.L85:
 1221              		.align	2
 1222              	.L84:
 1223 01d4 00000000 		.word	.LANCHOR1
 1224 01d8 00000000 		.word	.LC0
 1225 01dc 04000000 		.word	.LC1
 1226 01e0 20000000 		.word	.LC2
 1227 01e4 24000000 		.word	.LC3
 1228 01e8 38000000 		.word	.LC4
 1229 01ec 40000000 		.word	.LC5
 1230 01f0 54000000 		.word	.LC6
 1231 01f4 6C000000 		.word	.LC7
 1232 01f8 80000000 		.word	.LC8
 1233 01fc 8C000000 		.word	.LC9
 1234 0200 A0000000 		.word	.LC10
ARM GAS  C:\Users\z80\AppData\Local\Temp\ccq4Gerd.s 			page 23


 1235 0204 A8000000 		.word	.LC11
 1236 0208 BC000000 		.word	.LC12
 1237 020c C8000000 		.word	.LC13
 1238 0210 DC000000 		.word	.LC14
 1239 0214 F4000000 		.word	.LC15
 1240 0218 08010000 		.word	.LC16
 1241 021c 30010000 		.word	.LC17
 1242 0220 44010000 		.word	.LC18
 1243 0224 04000000 		.word	.LANCHOR9+4
 1244 0228 00000000 		.word	patternthd
 1245 022c 00000000 		.word	.LANCHOR2
 1246 0230 00000000 		.word	.LANCHOR6
 1247 0234 00000000 		.word	.LANCHOR3
 1248 0238 00000000 		.word	.LANCHOR7
 1249 023c 58010000 		.word	.LC19
 1250 0240 68010000 		.word	.LC20
 1251 0244 6C010000 		.word	.LC21
 1252 0248 70010000 		.word	.LC22
 1253 024c 74010000 		.word	.LC23
 1254 0250 8C010000 		.word	.LC24
 1255 0254 90010000 		.word	.LC25
 1256 0258 A8010000 		.word	.LC27
 1257 025c C0010000 		.word	.LC29
 1258 0260 94010000 		.word	.LC26
 1259 0264 B8010000 		.word	.LC28
 1260              		.cfi_endproc
 1261              	.LFE80:
 1262              		.size	TestThread, .-TestThread
 1263              		.global	wa
 1264              		.global	threads
 1265              		.global	test
 1266              		.global	test_timer_done
 1267 0268 AFF30080 		.section	.bss.test,"aw",%nobits
 1267      AFF30080 
 1268              		.align	3
 1269              		.type	test, %object
 1270              		.size	test, 1520
 1271              	test:
 1272 0000 00000000 		.space	1520
 1272      00000000 
 1272      00000000 
 1272      00000000 
 1272      00000000 
 1273              		.section	.bss.failpoint,"aw",%nobits
 1274              		.align	2
 1275              		.set	.LANCHOR5,. + 0
 1276              		.type	failpoint, %object
 1277              		.size	failpoint, 4
 1278              	failpoint:
 1279 0000 00000000 		.space	4
 1280              		.section	.bss.local_fail,"aw",%nobits
 1281              		.align	2
 1282              		.set	.LANCHOR3,. + 0
 1283              		.type	local_fail, %object
 1284              		.size	local_fail, 4
 1285              	local_fail:
 1286 0000 00000000 		.space	4
ARM GAS  C:\Users\z80\AppData\Local\Temp\ccq4Gerd.s 			page 24


 1287              		.section	.bss.test_timer_done,"aw",%nobits
 1288              		.align	2
 1289              		.set	.LANCHOR0,. + 0
 1290              		.type	test_timer_done, %object
 1291              		.size	test_timer_done, 4
 1292              	test_timer_done:
 1293 0000 00000000 		.space	4
 1294              		.section	.rodata.wa,"a",%progbits
 1295              		.align	2
 1296              		.type	wa, %object
 1297              		.size	wa, 20
 1298              	wa:
 1299 0000 00000000 		.word	test
 1300 0004 30010000 		.word	test+304
 1301 0008 60020000 		.word	test+608
 1302 000c 90030000 		.word	test+912
 1303 0010 C0040000 		.word	test+1216
 1304              		.section	.bss.tokp,"aw",%nobits
 1305              		.align	2
 1306              		.set	.LANCHOR2,. + 0
 1307              		.type	tokp, %object
 1308              		.size	tokp, 4
 1309              	tokp:
 1310 0000 00000000 		.space	4
 1311              		.section	.bss.global_fail,"aw",%nobits
 1312              		.align	2
 1313              		.set	.LANCHOR4,. + 0
 1314              		.type	global_fail, %object
 1315              		.size	global_fail, 4
 1316              	global_fail:
 1317 0000 00000000 		.space	4
 1318              		.section	.rodata.str1.4,"aMS",%progbits,1
 1319              		.align	2
 1320              	.LC0:
 1321 0000 00       		.ascii	"\000"
 1322 0001 000000   		.space	3
 1323              	.LC1:
 1324 0004 2A2A2A20 		.ascii	"*** ChibiOS/RT test suite\000"
 1324      43686962 
 1324      694F532F 
 1324      52542074 
 1324      65737420 
 1325 001e 0000     		.space	2
 1326              	.LC2:
 1327 0020 2A2A2A00 		.ascii	"***\000"
 1328              	.LC3:
 1329 0024 2A2A2A20 		.ascii	"*** Kernel:       \000"
 1329      4B65726E 
 1329      656C3A20 
 1329      20202020 
 1329      202000
 1330 0037 00       		.space	1
 1331              	.LC4:
 1332 0038 322E342E 		.ascii	"2.4.3\000"
 1332      3300
 1333 003e 0000     		.space	2
 1334              	.LC5:
ARM GAS  C:\Users\z80\AppData\Local\Temp\ccq4Gerd.s 			page 25


 1335 0040 2A2A2A20 		.ascii	"*** Compiled:     \000"
 1335      436F6D70 
 1335      696C6564 
 1335      3A202020 
 1335      202000
 1336 0053 00       		.space	1
 1337              	.LC6:
 1338 0054 44656320 		.ascii	"Dec 23 2014 - 10:23:20\000"
 1338      32332032 
 1338      30313420 
 1338      2D203130 
 1338      3A32333A 
 1339 006b 00       		.space	1
 1340              	.LC7:
 1341 006c 2A2A2A20 		.ascii	"*** Compiler:     \000"
 1341      436F6D70 
 1341      696C6572 
 1341      3A202020 
 1341      202000
 1342 007f 00       		.space	1
 1343              	.LC8:
 1344 0080 47434320 		.ascii	"GCC 4.5.0\000"
 1344      342E352E 
 1344      3000
 1345 008a 0000     		.space	2
 1346              	.LC9:
 1347 008c 2A2A2A20 		.ascii	"*** Architecture: \000"
 1347      41726368 
 1347      69746563 
 1347      74757265 
 1347      3A2000
 1348 009f 00       		.space	1
 1349              	.LC10:
 1350 00a0 41524D76 		.ascii	"ARMv7-M\000"
 1350      372D4D00 
 1351              	.LC11:
 1352 00a8 2A2A2A20 		.ascii	"*** Core Variant: \000"
 1352      436F7265 
 1352      20566172 
 1352      69616E74 
 1352      3A2000
 1353 00bb 00       		.space	1
 1354              	.LC12:
 1355 00bc 436F7274 		.ascii	"Cortex-M3\000"
 1355      65782D4D 
 1355      3300
 1356 00c6 0000     		.space	2
 1357              	.LC13:
 1358 00c8 2A2A2A20 		.ascii	"*** Port Info:    \000"
 1358      506F7274 
 1358      20496E66 
 1358      6F3A2020 
 1358      202000
 1359 00db 00       		.space	1
 1360              	.LC14:
 1361 00dc 41647661 		.ascii	"Advanced kernel mode\000"
 1361      6E636564 
ARM GAS  C:\Users\z80\AppData\Local\Temp\ccq4Gerd.s 			page 26


 1361      206B6572 
 1361      6E656C20 
 1361      6D6F6465 
 1362 00f1 000000   		.space	3
 1363              	.LC15:
 1364 00f4 2A2A2A20 		.ascii	"*** Platform:     \000"
 1364      506C6174 
 1364      666F726D 
 1364      3A202020 
 1364      202000
 1365 0107 00       		.space	1
 1366              	.LC16:
 1367 0108 53544D33 		.ascii	"STM32F1 Performance Line Medium Density\000"
 1367      32463120 
 1367      50657266 
 1367      6F726D61 
 1367      6E636520 
 1368              	.LC17:
 1369 0130 2A2A2A20 		.ascii	"*** Test Board:   \000"
 1369      54657374 
 1369      20426F61 
 1369      72643A20 
 1369      202000
 1370 0143 00       		.space	1
 1371              	.LC18:
 1372 0144 4F6C696D 		.ascii	"Olimex STM32-P103\000"
 1372      65782053 
 1372      544D3332 
 1372      2D503130 
 1372      3300
 1373 0156 0000     		.space	2
 1374              	.LC19:
 1375 0158 2D2D2D20 		.ascii	"--- Test Case \000"
 1375      54657374 
 1375      20436173 
 1375      652000
 1376 0167 00       		.space	1
 1377              	.LC20:
 1378 0168 2E00     		.ascii	".\000"
 1379 016a 0000     		.space	2
 1380              	.LC21:
 1381 016c 202800   		.ascii	" (\000"
 1382 016f 00       		.space	1
 1383              	.LC22:
 1384 0170 2900     		.ascii	")\000"
 1385 0172 0000     		.space	2
 1386              	.LC23:
 1387 0174 2D2D2D20 		.ascii	"--- Result: FAILURE (#\000"
 1387      52657375 
 1387      6C743A20 
 1387      4641494C 
 1387      55524520 
 1388 018b 00       		.space	1
 1389              	.LC24:
 1390 018c 205B00   		.ascii	" [\000"
 1391 018f 00       		.space	1
 1392              	.LC25:
ARM GAS  C:\Users\z80\AppData\Local\Temp\ccq4Gerd.s 			page 27


 1393 0190 5D2900   		.ascii	"])\000"
 1394 0193 00       		.space	1
 1395              	.LC26:
 1396 0194 2D2D2D20 		.ascii	"--- Result: SUCCESS\000"
 1396      52657375 
 1396      6C743A20 
 1396      53554343 
 1396      45535300 
 1397              	.LC27:
 1398 01a8 46696E61 		.ascii	"Final result: \000"
 1398      6C207265 
 1398      73756C74 
 1398      3A2000
 1399 01b7 00       		.space	1
 1400              	.LC28:
 1401 01b8 4641494C 		.ascii	"FAILURE\000"
 1401      55524500 
 1402              	.LC29:
 1403 01c0 53554343 		.ascii	"SUCCESS\000"
 1403      45535300 
 1404              		.section	.bss.vt,"aw",%nobits
 1405              		.align	2
 1406              		.set	.LANCHOR8,. + 0
 1407              		.type	vt, %object
 1408              		.size	vt, 20
 1409              	vt:
 1410 0000 00000000 		.space	20
 1410      00000000 
 1410      00000000 
 1410      00000000 
 1410      00000000 
 1411              		.section	.bss.threads,"aw",%nobits
 1412              		.align	2
 1413              		.set	.LANCHOR7,. + 0
 1414              		.type	threads, %object
 1415              		.size	threads, 20
 1416              	threads:
 1417 0000 00000000 		.space	20
 1417      00000000 
 1417      00000000 
 1417      00000000 
 1417      00000000 
 1418              		.section	.rodata.patterns,"a",%progbits
 1419              		.align	2
 1420              		.set	.LANCHOR9,. + 0
 1421              		.type	patterns, %object
 1422              		.size	patterns, 48
 1423              	patterns:
 1424 0000 00000000 		.word	patternthd
 1425 0004 00000000 		.word	patternsem
 1426 0008 00000000 		.word	patternmtx
 1427 000c 00000000 		.word	patternmsg
 1428 0010 00000000 		.word	patternmbox
 1429 0014 00000000 		.word	patternevt
 1430 0018 00000000 		.word	patternheap
 1431 001c 00000000 		.word	patternpools
 1432 0020 00000000 		.word	patterndyn
ARM GAS  C:\Users\z80\AppData\Local\Temp\ccq4Gerd.s 			page 28


 1433 0024 00000000 		.word	patternqueues
 1434 0028 00000000 		.word	patternbmk
 1435 002c 00000000 		.word	0
 1436              		.section	.bss.chp,"aw",%nobits
 1437              		.align	2
 1438              		.set	.LANCHOR1,. + 0
 1439              		.type	chp, %object
 1440              		.size	chp, 4
 1441              	chp:
 1442 0000 00000000 		.space	4
 1443              		.section	.bss.tokens_buffer,"aw",%nobits
 1444              		.align	2
 1445              		.set	.LANCHOR6,. + 0
 1446              		.type	tokens_buffer, %object
 1447              		.size	tokens_buffer, 16
 1448              	tokens_buffer:
 1449 0000 00000000 		.space	16
 1449      00000000 
 1449      00000000 
 1449      00000000 
 1450              		.text
 1451              	.Letext0: