ARM GAS  /tmp/ccbYGuwX.s 			page 1


   1              		.syntax unified
   2              		.cpu cortex-m3
   3              		.fpu softvfp
   4              		.eabi_attribute 20, 1
   5              		.eabi_attribute 21, 1
   6              		.eabi_attribute 23, 3
   7              		.eabi_attribute 24, 1
   8              		.eabi_attribute 25, 1
   9              		.eabi_attribute 26, 1
  10              		.eabi_attribute 30, 2
  11              		.eabi_attribute 18, 4
  12              		.thumb
  13              		.file	"testthd.c"
  20 0000 0D020000 		.text
  20      02005F01 
  20      00000201 
  20      FB0E0D00 
  20      01010101 
  21              	.Ltext0:
  22              		.cfi_sections	.debug_frame
  23              		.section	.text.thd4_execute,"ax",%progbits
  24              		.align	2
  25              		.p2align 4,,15
  26              		.thumb
  27              		.thumb_func
  28              		.type	thd4_execute, %function
  29              	thd4_execute:
  30              	.LFB11:
  31              		.file 1 "../chibios_2.4.x/test/testthd.c"
  32              		.loc 1 200 0
  33              		.cfi_startproc
  34              		@ args = 0, pretend = 0, frame = 0
  35              		@ frame_needed = 0, uses_anonymous_args = 0
  36 0000 70B5     		push	{r4, r5, r6, lr}
  37              	.LCFI0:
  38              		.cfi_def_cfa_offset 16
  39              		.loc 1 206 0
  40 0002 1C4C     		ldr	r4, .L5
  41              		.cfi_offset 14, -4
  42              		.cfi_offset 6, -8
  43              		.cfi_offset 5, -12
  44              		.cfi_offset 4, -16
  45              		.loc 1 203 0
  46 0004 FFF7FEFF 		bl	test_wait_tick
  47              		.loc 1 206 0
  48 0008 E568     		ldr	r5, [r4, #12]
  49              	.LVL0:
  50              		.loc 1 207 0
  51 000a 3220     		movs	r0, #50
  52 000c FFF7FEFF 		bl	chThdSleep
  53              		.loc 1 208 0
ARM GAS  /tmp/ccbYGuwX.s 			page 2


  54 0010 0120     		movs	r0, #1
  55 0012 05F13201 		add	r1, r5, #50
  56 0016 05F13302 		add	r2, r5, #51
  57 001a FFF7FEFF 		bl	_test_assert_time_window
  58 001e 00B1     		cbz	r0, .L4
  59              	.L1:
  60 0020 70BD     		pop	{r4, r5, r6, pc}
  61              	.L4:
  62              		.loc 1 211 0
  63 0022 E568     		ldr	r5, [r4, #12]
  64              	.LVL1:
  65              		.loc 1 212 0
  66 0024 3220     		movs	r0, #50
  67 0026 FFF7FEFF 		bl	chThdSleep
  68              		.loc 1 213 0
  69 002a 0220     		movs	r0, #2
  70 002c 05F13201 		add	r1, r5, #50
  71 0030 05F13302 		add	r2, r5, #51
  72 0034 FFF7FEFF 		bl	_test_assert_time_window
  73 0038 0028     		cmp	r0, #0
  74 003a F1D1     		bne	.L1
  75              		.loc 1 216 0
  76 003c E568     		ldr	r5, [r4, #12]
  77              	.LVL2:
  78              		.loc 1 217 0
  79 003e 4FF4FA70 		mov	r0, #500
  80 0042 FFF7FEFF 		bl	chThdSleep
  81              		.loc 1 218 0
  82 0046 05F5FA71 		add	r1, r5, #500
  83 004a 0320     		movs	r0, #3
  84 004c 4A1C     		adds	r2, r1, #1
  85 004e FFF7FEFF 		bl	_test_assert_time_window
  86 0052 0028     		cmp	r0, #0
  87 0054 E4D1     		bne	.L1
  88              		.loc 1 221 0
  89 0056 E468     		ldr	r4, [r4, #12]
  90 0058 04F13205 		add	r5, r4, #50
  91              	.LVL3:
  92              		.loc 1 222 0
  93 005c 2846     		mov	r0, r5
  94 005e FFF7FEFF 		bl	chThdSleepUntil
  95              		.loc 1 223 0
  96 0062 0420     		movs	r0, #4
  97 0064 2946     		mov	r1, r5
  98 0066 04F13302 		add	r2, r4, #51
  99              		.loc 1 224 0
 100 006a BDE87040 		pop	{r4, r5, r6, lr}
 101              		.loc 1 223 0
 102 006e FFF7FEBF 		b	_test_assert_time_window
 103              	.L6:
 104 0072 00BF     		.align	2
 105              	.L5:
 106 0074 00000000 		.word	vtlist
 107              		.cfi_endproc
 108              	.LFE11:
 109              		.size	thd4_execute, .-thd4_execute
 110 0078 AFF30080 		.section	.text.thd3_execute,"ax",%progbits
ARM GAS  /tmp/ccbYGuwX.s 			page 3


 110      AFF30080 
 111              		.align	2
 112              		.p2align 4,,15
 113              		.thumb
 114              		.thumb_func
 115              		.type	thd3_execute, %function
 116              	thd3_execute:
 117              	.LFB10:
 118              		.loc 1 137 0
 119              		.cfi_startproc
 120              		@ args = 0, pretend = 0, frame = 0
 121              		@ frame_needed = 0, uses_anonymous_args = 0
 122 0000 F8B5     		push	{r3, r4, r5, r6, r7, lr}
 123              	.LCFI1:
 124              		.cfi_def_cfa_offset 24
 125              		.loc 1 140 0
 126 0002 574E     		ldr	r6, .L10
 127              		.cfi_offset 14, -4
 128              		.cfi_offset 7, -8
 129              		.cfi_offset 6, -12
 130              		.cfi_offset 5, -16
 131              		.cfi_offset 4, -20
 132              		.cfi_offset 3, -24
 133 0004 F069     		ldr	r0, [r6, #28]
 134 0006 8468     		ldr	r4, [r0, #8]
 135              	.LVL4:
 136              		.loc 1 141 0
 137 0008 651C     		adds	r5, r4, #1
 138 000a 2846     		mov	r0, r5
 139 000c FFF7FEFF 		bl	chThdSetPriority
 140              	.LVL5:
 141              		.loc 1 142 0
 142 0010 031B     		subs	r3, r0, r4
 143 0012 5942     		rsbs	r1, r3, #0
 144 0014 41EB0301 		adc	r1, r1, r3
 145              		.loc 1 141 0
 146 0018 0746     		mov	r7, r0
 147              	.LVL6:
 148              		.loc 1 142 0
 149 001a 0120     		movs	r0, #1
 150              	.LVL7:
 151 001c FFF7FEFF 		bl	_test_assert
 152 0020 00B1     		cbz	r0, .L9
 153              	.LVL8:
 154              	.L7:
 155 0022 F8BD     		pop	{r3, r4, r5, r6, r7, pc}
 156              	.LVL9:
 157              	.L9:
 158              		.loc 1 144 0
 159 0024 F369     		ldr	r3, [r6, #28]
 160 0026 0220     		movs	r0, #2
 161 0028 9968     		ldr	r1, [r3, #8]
 162 002a C1EB050C 		rsb	ip, r1, r5
 163 002e DCF10002 		rsbs	r2, ip, #0
 164 0032 42EB0C01 		adc	r1, r2, ip
 165 0036 FFF7FEFF 		bl	_test_assert
 166 003a 0028     		cmp	r0, #0
ARM GAS  /tmp/ccbYGuwX.s 			page 4


 167 003c F1D1     		bne	.L7
 168              		.loc 1 146 0
 169 003e 3846     		mov	r0, r7
 170 0040 FFF7FEFF 		bl	chThdSetPriority
 171              	.LVL10:
 172              		.loc 1 147 0
 173 0044 C0EB050E 		rsb	lr, r0, r5
 174 0048 DEF10000 		rsbs	r0, lr, #0
 175              	.LVL11:
 176 004c 40EB0E01 		adc	r1, r0, lr
 177 0050 0320     		movs	r0, #3
 178 0052 FFF7FEFF 		bl	_test_assert
 179 0056 0028     		cmp	r0, #0
 180 0058 E3D1     		bne	.L7
 181              		.loc 1 149 0
 182 005a F369     		ldr	r3, [r6, #28]
 183 005c 0420     		movs	r0, #4
 184 005e 9968     		ldr	r1, [r3, #8]
 185 0060 0F1B     		subs	r7, r1, r4
 186 0062 7A42     		rsbs	r2, r7, #0
 187 0064 42EB0701 		adc	r1, r2, r7
 188 0068 FFF7FEFF 		bl	_test_assert
 189 006c 0746     		mov	r7, r0
 190 006e 0028     		cmp	r0, #0
 191 0070 D7D1     		bne	.L7
 192              	.LBB2:
 193              		.loc 1 154 0
 194 0072 2023     		movs	r3, #32
 195              	.LVL12:
 196              	@ 154 "../chibios_2.4.x/test/testthd.c" 1
 197 0074 83F31188 		msr     BASEPRI, r3
 198              	@ 0 "" 2
 199              	.LVL13:
 200              		.thumb
 201              	.LBE2:
 202 0078 FFF7FEFF 		bl	dbg_check_lock
 203              	.LVL14:
 204              		.loc 1 155 0
 205 007c F369     		ldr	r3, [r6, #28]
 206 007e 9968     		ldr	r1, [r3, #8]
 207 0080 8A1C     		adds	r2, r1, #2
 208 0082 9A60     		str	r2, [r3, #8]
 209              		.loc 1 156 0
 210 0084 FFF7FEFF 		bl	dbg_check_unlock
 211              	.LBB3:
 212 0088 3B46     		mov	r3, r7
 213              	.LVL15:
 214              	@ 156 "../chibios_2.4.x/test/testthd.c" 1
 215 008a 83F31188 		msr     BASEPRI, r3
 216              	@ 0 "" 2
 217              	.LVL16:
 218              		.thumb
 219              	.LBE3:
 220              		.loc 1 157 0
 221 008e F069     		ldr	r0, [r6, #28]
 222 0090 A71C     		adds	r7, r4, #2
 223 0092 8168     		ldr	r1, [r0, #8]
ARM GAS  /tmp/ccbYGuwX.s 			page 5


 224 0094 0520     		movs	r0, #5
 225 0096 CA1B     		subs	r2, r1, r7
 226 0098 D2F1000C 		rsbs	ip, r2, #0
 227 009c 4CEB0201 		adc	r1, ip, r2
 228 00a0 FFF7FEFF 		bl	_test_assert
 229              	.LVL17:
 230 00a4 0028     		cmp	r0, #0
 231 00a6 BCD1     		bne	.L7
 232              		.loc 1 161 0
 233 00a8 2846     		mov	r0, r5
 234 00aa FFF7FEFF 		bl	chThdSetPriority
 235              	.LVL18:
 236              		.loc 1 162 0
 237 00ae 001B     		subs	r0, r0, r4
 238              	.LVL19:
 239 00b0 D0F1000C 		rsbs	ip, r0, #0
 240 00b4 4CEB0001 		adc	r1, ip, r0
 241 00b8 0620     		movs	r0, #6
 242 00ba FFF7FEFF 		bl	_test_assert
 243 00be 0028     		cmp	r0, #0
 244 00c0 AFD1     		bne	.L7
 245              		.loc 1 164 0
 246 00c2 F169     		ldr	r1, [r6, #28]
 247 00c4 0720     		movs	r0, #7
 248 00c6 8B68     		ldr	r3, [r1, #8]
 249 00c8 FA1A     		subs	r2, r7, r3
 250 00ca D2F1000E 		rsbs	lr, r2, #0
 251 00ce 4EEB0201 		adc	r1, lr, r2
 252 00d2 FFF7FEFF 		bl	_test_assert
 253 00d6 0028     		cmp	r0, #0
 254 00d8 A3D1     		bne	.L7
 255              		.loc 1 166 0
 256 00da F369     		ldr	r3, [r6, #28]
 257 00dc 0820     		movs	r0, #8
 258 00de 5A6C     		ldr	r2, [r3, #68]
 259 00e0 C2EB050E 		rsb	lr, r2, r5
 260 00e4 DEF1000C 		rsbs	ip, lr, #0
 261 00e8 4CEB0E01 		adc	r1, ip, lr
 262 00ec FFF7FEFF 		bl	_test_assert
 263 00f0 0028     		cmp	r0, #0
 264 00f2 96D1     		bne	.L7
 265              		.loc 1 170 0
 266 00f4 E71C     		adds	r7, r4, #3
 267 00f6 3846     		mov	r0, r7
 268 00f8 FFF7FEFF 		bl	chThdSetPriority
 269              	.LVL20:
 270              		.loc 1 171 0
 271 00fc 281A     		subs	r0, r5, r0
 272              	.LVL21:
 273 00fe 4142     		rsbs	r1, r0, #0
 274 0100 41EB0001 		adc	r1, r1, r0
 275 0104 0920     		movs	r0, #9
 276 0106 FFF7FEFF 		bl	_test_assert
 277 010a 0028     		cmp	r0, #0
 278 010c 89D1     		bne	.L7
 279              		.loc 1 173 0
 280 010e F369     		ldr	r3, [r6, #28]
ARM GAS  /tmp/ccbYGuwX.s 			page 6


 281 0110 0A30     		adds	r0, r0, #10
 282 0112 9A68     		ldr	r2, [r3, #8]
 283 0114 C2EB070E 		rsb	lr, r2, r7
 284 0118 DEF1000C 		rsbs	ip, lr, #0
 285 011c 4CEB0E01 		adc	r1, ip, lr
 286 0120 FFF7FEFF 		bl	_test_assert
 287 0124 0028     		cmp	r0, #0
 288 0126 7FF47CAF 		bne	.L7
 289              		.loc 1 175 0
 290 012a F369     		ldr	r3, [r6, #28]
 291 012c 0B30     		adds	r0, r0, #11
 292 012e 5A6C     		ldr	r2, [r3, #68]
 293 0130 B91A     		subs	r1, r7, r2
 294 0132 4D42     		rsbs	r5, r1, #0
 295 0134 45EB0101 		adc	r1, r5, r1
 296 0138 FFF7FEFF 		bl	_test_assert
 297 013c 0546     		mov	r5, r0
 298 013e 0028     		cmp	r0, #0
 299 0140 7FF46FAF 		bne	.L7
 300              	.LBB4:
 301              		.loc 1 178 0
 302 0144 2023     		movs	r3, #32
 303              	.LVL22:
 304              	@ 178 "../chibios_2.4.x/test/testthd.c" 1
 305 0146 83F31188 		msr     BASEPRI, r3
 306              	@ 0 "" 2
 307              	.LVL23:
 308              		.thumb
 309              	.LBE4:
 310 014a FFF7FEFF 		bl	dbg_check_lock
 311              	.LVL24:
 312              		.loc 1 179 0
 313 014e F069     		ldr	r0, [r6, #28]
 314 0150 8460     		str	r4, [r0, #8]
 315              		.loc 1 180 0
 316 0152 4464     		str	r4, [r0, #68]
 317              		.loc 1 181 0
 318 0154 FFF7FEFF 		bl	dbg_check_unlock
 319              	.LBB5:
 320 0158 2B46     		mov	r3, r5
 321              	@ 181 "../chibios_2.4.x/test/testthd.c" 1
 322 015a 83F31188 		msr     BASEPRI, r3
 323              	@ 0 "" 2
 324              	.LVL25:
 325              		.thumb
 326 015e 60E7     		b	.L7
 327              	.L11:
 328              		.align	2
 329              	.L10:
 330 0160 00000000 		.word	rlist
 331              	.LBE5:
 332              		.cfi_endproc
 333              	.LFE10:
 334              		.size	thd3_execute, .-thd3_execute
 335 0164 AFF30080 		.section	.text.thd2_execute,"ax",%progbits
 335      AFF30080 
 335      AFF30080 
ARM GAS  /tmp/ccbYGuwX.s 			page 7


 336              		.align	2
 337              		.p2align 4,,15
 338              		.thumb
 339              		.thumb_func
 340              		.type	thd2_execute, %function
 341              	thd2_execute:
 342              	.LFB9:
 343              		.loc 1 105 0
 344              		.cfi_startproc
 345              		@ args = 0, pretend = 0, frame = 0
 346              		@ frame_needed = 0, uses_anonymous_args = 0
 347 0000 F0B5     		push	{r4, r5, r6, r7, lr}
 348              	.LCFI2:
 349              		.cfi_def_cfa_offset 20
 350              		.loc 1 107 0
 351 0002 304F     		ldr	r7, .L13
 352              		.cfi_offset 14, -4
 353              		.cfi_offset 7, -8
 354              		.cfi_offset 6, -12
 355              		.cfi_offset 5, -16
 356              		.cfi_offset 4, -20
 357 0004 304E     		ldr	r6, .L13+4
 358 0006 F869     		ldr	r0, [r7, #28]
 359 0008 304D     		ldr	r5, .L13+8
 360 000a 8168     		ldr	r1, [r0, #8]
 361 000c 304C     		ldr	r4, .L13+12
 362              		.loc 1 105 0
 363 000e 83B0     		sub	sp, sp, #12
 364              	.LCFI3:
 365              		.cfi_def_cfa_offset 32
 366              		.loc 1 107 0
 367 0010 0A1F     		subs	r2, r1, #4
 368 0012 2B46     		mov	r3, r5
 369 0014 7068     		ldr	r0, [r6, #4]
 370 0016 4FF49871 		mov	r1, #304
 371 001a 0094     		str	r4, [sp, #0]
 372 001c FFF7FEFF 		bl	chThdCreateStatic
 373              		.loc 1 108 0
 374 0020 FB69     		ldr	r3, [r7, #28]
 375              		.loc 1 107 0
 376 0022 2C4C     		ldr	r4, .L13+16
 377              		.loc 1 108 0
 378 0024 9A68     		ldr	r2, [r3, #8]
 379 0026 3168     		ldr	r1, [r6, #0]
 380 0028 DFF8B4E0 		ldr	lr, .L13+28
 381              		.loc 1 107 0
 382 002c 6060     		str	r0, [r4, #4]
 383              		.loc 1 108 0
 384 002e 053A     		subs	r2, r2, #5
 385 0030 2B46     		mov	r3, r5
 386 0032 0846     		mov	r0, r1
 387 0034 4FF49871 		mov	r1, #304
 388 0038 CDF800E0 		str	lr, [sp, #0]
 389 003c FFF7FEFF 		bl	chThdCreateStatic
 390              		.loc 1 109 0
 391 0040 FB69     		ldr	r3, [r7, #28]
 392 0042 3169     		ldr	r1, [r6, #16]
ARM GAS  /tmp/ccbYGuwX.s 			page 8


 393 0044 9A68     		ldr	r2, [r3, #8]
 394 0046 DFF89CC0 		ldr	ip, .L13+32
 395              		.loc 1 108 0
 396 004a 2060     		str	r0, [r4, #0]
 397              		.loc 1 109 0
 398 004c 013A     		subs	r2, r2, #1
 399 004e 2B46     		mov	r3, r5
 400 0050 0846     		mov	r0, r1
 401 0052 4FF49871 		mov	r1, #304
 402 0056 CDF800C0 		str	ip, [sp, #0]
 403 005a FFF7FEFF 		bl	chThdCreateStatic
 404              		.loc 1 110 0
 405 005e FB69     		ldr	r3, [r7, #28]
 406 0060 F168     		ldr	r1, [r6, #12]
 407 0062 9A68     		ldr	r2, [r3, #8]
 408 0064 DFF880E0 		ldr	lr, .L13+36
 409              		.loc 1 109 0
 410 0068 2061     		str	r0, [r4, #16]
 411              		.loc 1 110 0
 412 006a 2B46     		mov	r3, r5
 413 006c 0846     		mov	r0, r1
 414 006e 023A     		subs	r2, r2, #2
 415 0070 4FF49871 		mov	r1, #304
 416 0074 CDF800E0 		str	lr, [sp, #0]
 417 0078 FFF7FEFF 		bl	chThdCreateStatic
 418              	.LBB6:
 419              		.loc 1 112 0
 420 007c 2023     		movs	r3, #32
 421              	.LVL26:
 422              	.LBE6:
 423              		.loc 1 110 0
 424 007e E060     		str	r0, [r4, #12]
 425              	.LBB7:
 426              		.loc 1 112 0
 427              	@ 112 "../chibios_2.4.x/test/testthd.c" 1
 428 0080 83F31188 		msr     BASEPRI, r3
 429              	@ 0 "" 2
 430              	.LVL27:
 431              		.thumb
 432              	.LBE7:
 433 0084 FFF7FEFF 		bl	dbg_check_lock
 434              	.LVL28:
 435              		.loc 1 113 0
 436 0088 FB69     		ldr	r3, [r7, #28]
 437 008a 4FF49871 		mov	r1, #304
 438 008e 9A68     		ldr	r2, [r3, #8]
 439 0090 2B46     		mov	r3, r5
 440 0092 114D     		ldr	r5, .L13+20
 441 0094 033A     		subs	r2, r2, #3
 442 0096 B068     		ldr	r0, [r6, #8]
 443 0098 0095     		str	r5, [sp, #0]
 444 009a FFF7FEFF 		bl	chThdCreateI
 445 009e A060     		str	r0, [r4, #8]
 446              		.loc 1 114 0
 447 00a0 FFF7FEFF 		bl	dbg_check_unlock
 448              	.LBB8:
 449 00a4 0023     		movs	r3, #0
ARM GAS  /tmp/ccbYGuwX.s 			page 9


 450              	.LVL29:
 451              	@ 114 "../chibios_2.4.x/test/testthd.c" 1
 452 00a6 83F31188 		msr     BASEPRI, r3
 453              	@ 0 "" 2
 454              	.LVL30:
 455              		.thumb
 456              	.LBE8:
 457              		.loc 1 115 0
 458 00aa A068     		ldr	r0, [r4, #8]
 459 00ac FFF7FEFF 		bl	chThdResume
 460              	.LVL31:
 461              		.loc 1 116 0
 462 00b0 FFF7FEFF 		bl	test_wait_threads
 463              		.loc 1 117 0
 464 00b4 0949     		ldr	r1, .L13+24
 465 00b6 0120     		movs	r0, #1
 466              		.loc 1 118 0
 467 00b8 03B0     		add	sp, sp, #12
 468 00ba BDE8F040 		pop	{r4, r5, r6, r7, lr}
 469              		.loc 1 117 0
 470 00be FFF7FEBF 		b	_test_assert_sequence
 471              	.L14:
 472 00c2 00BF     		.align	2
 473              	.L13:
 474 00c4 00000000 		.word	rlist
 475 00c8 00000000 		.word	wa
 476 00cc 00000000 		.word	thread
 477 00d0 00000000 		.word	.LC0
 478 00d4 00000000 		.word	threads
 479 00d8 10000000 		.word	.LC4
 480 00dc 14000000 		.word	.LC5
 481 00e0 04000000 		.word	.LC1
 482 00e4 08000000 		.word	.LC2
 483 00e8 0C000000 		.word	.LC3
 484              		.cfi_endproc
 485              	.LFE9:
 486              		.size	thd2_execute, .-thd2_execute
 487 00ec AFF30080 		.section	.text.thd1_execute,"ax",%progbits
 488              		.align	2
 489              		.p2align 4,,15
 490              		.thumb
 491              		.thumb_func
 492              		.type	thd1_execute, %function
 493              	thd1_execute:
 494              	.LFB8:
 495              		.loc 1 77 0
 496              		.cfi_startproc
 497              		@ args = 0, pretend = 0, frame = 0
 498              		@ frame_needed = 0, uses_anonymous_args = 0
 499 0000 F0B5     		push	{r4, r5, r6, r7, lr}
 500              	.LCFI4:
 501              		.cfi_def_cfa_offset 20
 502              		.loc 1 79 0
 503 0002 2B4F     		ldr	r7, .L16
 504              		.cfi_offset 14, -4
 505              		.cfi_offset 7, -8
 506              		.cfi_offset 6, -12
ARM GAS  /tmp/ccbYGuwX.s 			page 10


 507              		.cfi_offset 5, -16
 508              		.cfi_offset 4, -20
 509 0004 2B4D     		ldr	r5, .L16+4
 510 0006 F869     		ldr	r0, [r7, #28]
 511 0008 2B4E     		ldr	r6, .L16+8
 512 000a 8268     		ldr	r2, [r0, #8]
 513 000c 2B4C     		ldr	r4, .L16+12
 514              		.loc 1 77 0
 515 000e 83B0     		sub	sp, sp, #12
 516              	.LCFI5:
 517              		.cfi_def_cfa_offset 32
 518              		.loc 1 79 0
 519 0010 053A     		subs	r2, r2, #5
 520 0012 2B46     		mov	r3, r5
 521 0014 3068     		ldr	r0, [r6, #0]
 522 0016 4FF49871 		mov	r1, #304
 523 001a 0094     		str	r4, [sp, #0]
 524 001c FFF7FEFF 		bl	chThdCreateStatic
 525              		.loc 1 80 0
 526 0020 F969     		ldr	r1, [r7, #28]
 527              		.loc 1 79 0
 528 0022 274C     		ldr	r4, .L16+16
 529              		.loc 1 80 0
 530 0024 8B68     		ldr	r3, [r1, #8]
 531 0026 D6F804C0 		ldr	ip, [r6, #4]
 532 002a DFF8A0E0 		ldr	lr, .L16+28
 533              		.loc 1 79 0
 534 002e 2060     		str	r0, [r4, #0]
 535              		.loc 1 80 0
 536 0030 1A1F     		subs	r2, r3, #4
 537 0032 4FF49871 		mov	r1, #304
 538 0036 2B46     		mov	r3, r5
 539 0038 6046     		mov	r0, ip
 540 003a CDF800E0 		str	lr, [sp, #0]
 541 003e FFF7FEFF 		bl	chThdCreateStatic
 542              		.loc 1 81 0
 543 0042 FA69     		ldr	r2, [r7, #28]
 544 0044 D6F808C0 		ldr	ip, [r6, #8]
 545 0048 9368     		ldr	r3, [r2, #8]
 546 004a DFF884E0 		ldr	lr, .L16+32
 547              		.loc 1 80 0
 548 004e 6060     		str	r0, [r4, #4]
 549              		.loc 1 81 0
 550 0050 DA1E     		subs	r2, r3, #3
 551 0052 4FF49871 		mov	r1, #304
 552 0056 2B46     		mov	r3, r5
 553 0058 6046     		mov	r0, ip
 554 005a CDF800E0 		str	lr, [sp, #0]
 555 005e FFF7FEFF 		bl	chThdCreateStatic
 556              		.loc 1 82 0
 557 0062 F969     		ldr	r1, [r7, #28]
 558 0064 D6F80CC0 		ldr	ip, [r6, #12]
 559 0068 8A68     		ldr	r2, [r1, #8]
 560 006a DFF868E0 		ldr	lr, .L16+36
 561              		.loc 1 81 0
 562 006e A060     		str	r0, [r4, #8]
 563              		.loc 1 82 0
ARM GAS  /tmp/ccbYGuwX.s 			page 11


 564 0070 023A     		subs	r2, r2, #2
 565 0072 6046     		mov	r0, ip
 566 0074 2B46     		mov	r3, r5
 567 0076 4FF49871 		mov	r1, #304
 568 007a CDF800E0 		str	lr, [sp, #0]
 569 007e FFF7FEFF 		bl	chThdCreateStatic
 570              		.loc 1 83 0
 571 0082 FB69     		ldr	r3, [r7, #28]
 572 0084 3669     		ldr	r6, [r6, #16]
 573 0086 9A68     		ldr	r2, [r3, #8]
 574 0088 2B46     		mov	r3, r5
 575 008a 0E4D     		ldr	r5, .L16+20
 576              		.loc 1 82 0
 577 008c E060     		str	r0, [r4, #12]
 578              		.loc 1 83 0
 579 008e 4FF49871 		mov	r1, #304
 580 0092 013A     		subs	r2, r2, #1
 581 0094 3046     		mov	r0, r6
 582 0096 0095     		str	r5, [sp, #0]
 583 0098 FFF7FEFF 		bl	chThdCreateStatic
 584 009c 2061     		str	r0, [r4, #16]
 585              		.loc 1 84 0
 586 009e FFF7FEFF 		bl	test_wait_threads
 587              		.loc 1 85 0
 588 00a2 0949     		ldr	r1, .L16+24
 589 00a4 0120     		movs	r0, #1
 590              		.loc 1 86 0
 591 00a6 03B0     		add	sp, sp, #12
 592 00a8 BDE8F040 		pop	{r4, r5, r6, r7, lr}
 593              		.loc 1 85 0
 594 00ac FFF7FEBF 		b	_test_assert_sequence
 595              	.L17:
 596              		.align	2
 597              	.L16:
 598 00b0 00000000 		.word	rlist
 599 00b4 00000000 		.word	thread
 600 00b8 00000000 		.word	wa
 601 00bc 04000000 		.word	.LC1
 602 00c0 00000000 		.word	threads
 603 00c4 08000000 		.word	.LC2
 604 00c8 14000000 		.word	.LC5
 605 00cc 00000000 		.word	.LC0
 606 00d0 10000000 		.word	.LC4
 607 00d4 0C000000 		.word	.LC3
 608              		.cfi_endproc
 609              	.LFE8:
 610              		.size	thd1_execute, .-thd1_execute
 611 00d8 AFF30080 		.section	.text.thread,"ax",%progbits
 611      AFF30080 
 612              		.align	2
 613              		.p2align 4,,15
 614              		.thumb
 615              		.thumb_func
 616              		.type	thread, %function
 617              	thread:
 618              	.LFB7:
 619              		.loc 1 71 0
ARM GAS  /tmp/ccbYGuwX.s 			page 12


 620              		.cfi_startproc
 621              		@ args = 0, pretend = 0, frame = 0
 622              		@ frame_needed = 0, uses_anonymous_args = 0
 623              	.LVL32:
 624 0000 08B5     		push	{r3, lr}
 625              	.LCFI6:
 626              		.cfi_def_cfa_offset 8
 627              		.loc 1 73 0
 628 0002 0078     		ldrb	r0, [r0, #0]	@ zero_extendqisi2
 629              	.LVL33:
 630              		.cfi_offset 14, -4
 631              		.cfi_offset 3, -8
 632 0004 FFF7FEFF 		bl	test_emit_token
 633              		.loc 1 75 0
 634 0008 0020     		movs	r0, #0
 635 000a 08BD     		pop	{r3, pc}
 636              		.cfi_endproc
 637              	.LFE7:
 638              		.size	thread, .-thread
 639              		.global	testthd1
 640              		.global	testthd2
 641              		.global	testthd3
 642              		.global	testthd4
 643              		.global	patternthd
 644 000c AFF30080 		.section	.rodata.testthd1,"a",%progbits
 645              		.align	2
 646              		.type	testthd1, %object
 647              		.size	testthd1, 16
 648              	testthd1:
 649 0000 1C000000 		.word	.LC6
 650 0004 00000000 		.word	0
 651 0008 00000000 		.word	0
 652 000c 00000000 		.word	thd1_execute
 653              		.section	.rodata.testthd2,"a",%progbits
 654              		.align	2
 655              		.type	testthd2, %object
 656              		.size	testthd2, 16
 657              	testthd2:
 658 0000 38000000 		.word	.LC7
 659 0004 00000000 		.word	0
 660 0008 00000000 		.word	0
 661 000c 00000000 		.word	thd2_execute
 662              		.section	.rodata.testthd3,"a",%progbits
 663              		.align	2
 664              		.type	testthd3, %object
 665              		.size	testthd3, 16
 666              	testthd3:
 667 0000 54000000 		.word	.LC8
 668 0004 00000000 		.word	0
 669 0008 00000000 		.word	0
 670 000c 00000000 		.word	thd3_execute
 671              		.section	.rodata.testthd4,"a",%progbits
 672              		.align	2
 673              		.type	testthd4, %object
 674              		.size	testthd4, 16
 675              	testthd4:
 676 0000 70000000 		.word	.LC9
ARM GAS  /tmp/ccbYGuwX.s 			page 13


 677 0004 00000000 		.word	0
 678 0008 00000000 		.word	0
 679 000c 00000000 		.word	thd4_execute
 680              		.section	.rodata.patternthd,"a",%progbits
 681              		.align	2
 682              		.type	patternthd, %object
 683              		.size	patternthd, 20
 684              	patternthd:
 685 0000 00000000 		.word	testthd1
 686 0004 00000000 		.word	testthd2
 687 0008 00000000 		.word	testthd3
 688 000c 00000000 		.word	testthd4
 689 0010 00000000 		.word	0
 690              		.section	.rodata.str1.4,"aMS",%progbits,1
 691              		.align	2
 692              	.LC0:
 693 0000 4400     		.ascii	"D\000"
 694 0002 0000     		.space	2
 695              	.LC1:
 696 0004 4500     		.ascii	"E\000"
 697 0006 0000     		.space	2
 698              	.LC2:
 699 0008 4100     		.ascii	"A\000"
 700 000a 0000     		.space	2
 701              	.LC3:
 702 000c 4200     		.ascii	"B\000"
 703 000e 0000     		.space	2
 704              	.LC4:
 705 0010 4300     		.ascii	"C\000"
 706 0012 0000     		.space	2
 707              	.LC5:
 708 0014 41424344 		.ascii	"ABCDE\000"
 708      4500
 709 001a 0000     		.space	2
 710              	.LC6:
 711 001c 54687265 		.ascii	"Threads, enqueuing test #1\000"
 711      6164732C 
 711      20656E71 
 711      75657569 
 711      6E672074 
 712 0037 00       		.space	1
 713              	.LC7:
 714 0038 54687265 		.ascii	"Threads, enqueuing test #2\000"
 714      6164732C 
 714      20656E71 
 714      75657569 
 714      6E672074 
 715 0053 00       		.space	1
 716              	.LC8:
 717 0054 54687265 		.ascii	"Threads, priority change\000"
 717      6164732C 
 717      20707269 
 717      6F726974 
 717      79206368 
 718 006d 000000   		.space	3
 719              	.LC9:
 720 0070 54687265 		.ascii	"Threads, delays\000"
ARM GAS  /tmp/ccbYGuwX.s 			page 14


 720      6164732C 
 720      2064656C 
 720      61797300 
 721              		.text
 722              	.Letext0: