ARM GAS  /tmp/ccW6g9xV.s 			page 1


   1              		.syntax unified
   2              		.cpu cortex-m3
   3              		.fpu softvfp
   4              		.eabi_attribute 20, 1
   5              		.eabi_attribute 21, 1
   6              		.eabi_attribute 23, 3
   7              		.eabi_attribute 24, 1
   8              		.eabi_attribute 25, 1
   9              		.eabi_attribute 26, 1
  10              		.eabi_attribute 30, 6
  11              		.eabi_attribute 18, 4
  12              		.thumb
  13              		.file	"testsem.c"
  14              		.section	.debug_abbrev,"",%progbits
  15              	.Ldebug_abbrev0:
  16              		.section	.debug_info,"",%progbits
  17              	.Ldebug_info0:
  18              		.section	.debug_line,"",%progbits
  19              	.Ldebug_line0:
  20 0000 C7020000 		.text
  20      02007601 
  20      00000201 
  20      FB0E0D00 
  20      01010101 
  21              	.Ltext0:
  22              		.cfi_sections	.debug_frame
  23              		.section	.data.sem1,"aw",%progbits
  24              		.align	2
  25              		.type	sem1, %object
  26              		.size	sem1, 12
  27              	sem1:
  28 0000 00000000 		.word	sem1
  29 0004 00000000 		.word	sem1
  30 0008 00000000 		.word	0
  31              		.section	.text.sem1_setup,"ax",%progbits
  32              		.align	2
  33              		.p2align 4,,15
  34              		.thumb
  35              		.thumb_func
  36              		.type	sem1_setup, %function
  37              	sem1_setup:
  38              	.LFB7:
  39              		.file 1 "../chibios_2.4.x/test/testsem.c"
  40              		.loc 1 83 0
  41              		.cfi_startproc
  42              		@ args = 0, pretend = 0, frame = 0
  43              		@ frame_needed = 0, uses_anonymous_args = 0
  44 0000 08B5     		push	{r3, lr}
  45              	.LCFI0:
  46              		.cfi_def_cfa_offset 8
  47              		.loc 1 85 0
  48 0002 0348     		ldr	r0, .L2
  49 0004 4FF00001 		mov	r1, #0
  50              		.cfi_offset 14, -4
  51              		.cfi_offset 3, -8
  52 0008 FFF7FEFF 		bl	chSemInit
  53              		.loc 1 86 0
ARM GAS  /tmp/ccW6g9xV.s 			page 2


  54 000c 08BD     		pop	{r3, pc}
  55              	.L3:
  56 000e 00BF     		.align	2
  57              	.L2:
  58 0010 00000000 		.word	sem1
  59              		.cfi_endproc
  60              	.LFE7:
  61              		.size	sem1_setup, .-sem1_setup
  62 0014 AFF30080 		.section	.text.thread1,"ax",%progbits
  62      AFF30080 
  62      AFF30080 
  63              		.align	2
  64              		.p2align 4,,15
  65              		.thumb
  66              		.thumb_func
  67              		.type	thread1, %function
  68              	thread1:
  69              	.LFB8:
  70              		.loc 1 88 0
  71              		.cfi_startproc
  72              		@ args = 0, pretend = 0, frame = 8
  73              		@ frame_needed = 0, uses_anonymous_args = 0
  74 0000 00B5     		push	{lr}
  75              	.LCFI1:
  76              		.cfi_def_cfa_offset 4
  77 0002 83B0     		sub	sp, sp, #12
  78              	.LCFI2:
  79              		.cfi_def_cfa_offset 16
  80 0004 0190     		str	r0, [sp, #4]
  81              		.loc 1 90 0
  82 0006 0648     		ldr	r0, .L5
  83              		.cfi_offset 14, -4
  84 0008 FFF7FEFF 		bl	chSemWait
  85              		.loc 1 91 0
  86 000c 019B     		ldr	r3, [sp, #4]
  87 000e 1B78     		ldrb	r3, [r3, #0]	@ zero_extendqisi2
  88 0010 1846     		mov	r0, r3
  89 0012 FFF7FEFF 		bl	test_emit_token
  90              		.loc 1 92 0
  91 0016 4FF00003 		mov	r3, #0
  92              		.loc 1 93 0
  93 001a 1846     		mov	r0, r3
  94 001c 03B0     		add	sp, sp, #12
  95 001e 00BD     		pop	{pc}
  96              	.L6:
  97              		.align	2
  98              	.L5:
  99 0020 00000000 		.word	sem1
 100              		.cfi_endproc
 101              	.LFE8:
 102              		.size	thread1, .-thread1
 103 0024 AFF30080 		.section	.rodata
 103      AFF30080 
 103      AFF30080 
 104              		.align	2
 105              	.LC0:
 106 0000 4100     		.ascii	"A\000"
ARM GAS  /tmp/ccW6g9xV.s 			page 3


 107 0002 0000     		.align	2
 108              	.LC1:
 109 0004 4200     		.ascii	"B\000"
 110 0006 0000     		.align	2
 111              	.LC2:
 112 0008 4300     		.ascii	"C\000"
 113 000a 0000     		.align	2
 114              	.LC3:
 115 000c 4400     		.ascii	"D\000"
 116 000e 0000     		.align	2
 117              	.LC4:
 118 0010 4500     		.ascii	"E\000"
 119 0012 0000     		.align	2
 120              	.LC5:
 121 0014 41424344 		.ascii	"ABCDE\000"
 121      4500
 122              		.section	.text.sem1_execute,"ax",%progbits
 123              		.align	2
 124              		.p2align 4,,15
 125              		.thumb
 126              		.thumb_func
 127              		.type	sem1_execute, %function
 128              	sem1_execute:
 129              	.LFB9:
 130              		.loc 1 95 0
 131              		.cfi_startproc
 132              		@ args = 0, pretend = 0, frame = 0
 133              		@ frame_needed = 0, uses_anonymous_args = 0
 134 0000 00B5     		push	{lr}
 135              	.LCFI3:
 136              		.cfi_def_cfa_offset 4
 137 0002 83B0     		sub	sp, sp, #12
 138              	.LCFI4:
 139              		.cfi_def_cfa_offset 16
 140              		.loc 1 97 0
 141 0004 564B     		ldr	r3, .L10
 142 0006 1A68     		ldr	r2, [r3, #0]
 143 0008 564B     		ldr	r3, .L10+4
 144 000a DB69     		ldr	r3, [r3, #28]
 145 000c 9B68     		ldr	r3, [r3, #8]
 146 000e 03F10503 		add	r3, r3, #5
 147 0012 5549     		ldr	r1, .L10+8
 148 0014 0091     		str	r1, [sp, #0]
 149 0016 1046     		mov	r0, r2
 150 0018 4FF49871 		mov	r1, #304
 151 001c 1A46     		mov	r2, r3
 152 001e 534B     		ldr	r3, .L10+12
 153              		.cfi_offset 14, -4
 154 0020 FFF7FEFF 		bl	chThdCreateStatic
 155 0024 0246     		mov	r2, r0
 156 0026 524B     		ldr	r3, .L10+16
 157 0028 1A60     		str	r2, [r3, #0]
 158              		.loc 1 98 0
 159 002a 4D4B     		ldr	r3, .L10
 160 002c 5A68     		ldr	r2, [r3, #4]
 161 002e 4D4B     		ldr	r3, .L10+4
 162 0030 DB69     		ldr	r3, [r3, #28]
ARM GAS  /tmp/ccW6g9xV.s 			page 4


 163 0032 9B68     		ldr	r3, [r3, #8]
 164 0034 03F10103 		add	r3, r3, #1
 165 0038 4E49     		ldr	r1, .L10+20
 166 003a 0091     		str	r1, [sp, #0]
 167 003c 1046     		mov	r0, r2
 168 003e 4FF49871 		mov	r1, #304
 169 0042 1A46     		mov	r2, r3
 170 0044 494B     		ldr	r3, .L10+12
 171 0046 FFF7FEFF 		bl	chThdCreateStatic
 172 004a 0246     		mov	r2, r0
 173 004c 484B     		ldr	r3, .L10+16
 174 004e 5A60     		str	r2, [r3, #4]
 175              		.loc 1 99 0
 176 0050 434B     		ldr	r3, .L10
 177 0052 9A68     		ldr	r2, [r3, #8]
 178 0054 434B     		ldr	r3, .L10+4
 179 0056 DB69     		ldr	r3, [r3, #28]
 180 0058 9B68     		ldr	r3, [r3, #8]
 181 005a 03F10303 		add	r3, r3, #3
 182 005e 4649     		ldr	r1, .L10+24
 183 0060 0091     		str	r1, [sp, #0]
 184 0062 1046     		mov	r0, r2
 185 0064 4FF49871 		mov	r1, #304
 186 0068 1A46     		mov	r2, r3
 187 006a 404B     		ldr	r3, .L10+12
 188 006c FFF7FEFF 		bl	chThdCreateStatic
 189 0070 0246     		mov	r2, r0
 190 0072 3F4B     		ldr	r3, .L10+16
 191 0074 9A60     		str	r2, [r3, #8]
 192              		.loc 1 100 0
 193 0076 3A4B     		ldr	r3, .L10
 194 0078 DA68     		ldr	r2, [r3, #12]
 195 007a 3A4B     		ldr	r3, .L10+4
 196 007c DB69     		ldr	r3, [r3, #28]
 197 007e 9B68     		ldr	r3, [r3, #8]
 198 0080 03F10403 		add	r3, r3, #4
 199 0084 3D49     		ldr	r1, .L10+28
 200 0086 0091     		str	r1, [sp, #0]
 201 0088 1046     		mov	r0, r2
 202 008a 4FF49871 		mov	r1, #304
 203 008e 1A46     		mov	r2, r3
 204 0090 364B     		ldr	r3, .L10+12
 205 0092 FFF7FEFF 		bl	chThdCreateStatic
 206 0096 0246     		mov	r2, r0
 207 0098 354B     		ldr	r3, .L10+16
 208 009a DA60     		str	r2, [r3, #12]
 209              		.loc 1 101 0
 210 009c 304B     		ldr	r3, .L10
 211 009e 1A69     		ldr	r2, [r3, #16]
 212 00a0 304B     		ldr	r3, .L10+4
 213 00a2 DB69     		ldr	r3, [r3, #28]
 214 00a4 9B68     		ldr	r3, [r3, #8]
 215 00a6 03F10203 		add	r3, r3, #2
 216 00aa 3549     		ldr	r1, .L10+32
 217 00ac 0091     		str	r1, [sp, #0]
 218 00ae 1046     		mov	r0, r2
 219 00b0 4FF49871 		mov	r1, #304
ARM GAS  /tmp/ccW6g9xV.s 			page 5


 220 00b4 1A46     		mov	r2, r3
 221 00b6 2D4B     		ldr	r3, .L10+12
 222 00b8 FFF7FEFF 		bl	chThdCreateStatic
 223 00bc 0246     		mov	r2, r0
 224 00be 2C4B     		ldr	r3, .L10+16
 225 00c0 1A61     		str	r2, [r3, #16]
 226              		.loc 1 102 0
 227 00c2 3048     		ldr	r0, .L10+36
 228 00c4 FFF7FEFF 		bl	chSemSignal
 229              		.loc 1 103 0
 230 00c8 2E48     		ldr	r0, .L10+36
 231 00ca FFF7FEFF 		bl	chSemSignal
 232              		.loc 1 104 0
 233 00ce 2D48     		ldr	r0, .L10+36
 234 00d0 FFF7FEFF 		bl	chSemSignal
 235              		.loc 1 105 0
 236 00d4 2B48     		ldr	r0, .L10+36
 237 00d6 FFF7FEFF 		bl	chSemSignal
 238              		.loc 1 106 0
 239 00da 2A48     		ldr	r0, .L10+36
 240 00dc FFF7FEFF 		bl	chSemSignal
 241              		.loc 1 107 0
 242 00e0 FFF7FEFF 		bl	test_wait_threads
 243              		.loc 1 111 0
 244 00e4 4FF00100 		mov	r0, #1
 245 00e8 2749     		ldr	r1, .L10+40
 246 00ea FFF7FEFF 		bl	_test_assert_sequence
 247 00ee 0346     		mov	r3, r0
 248 00f0 002B     		cmp	r3, #0
 249 00f2 32D1     		bne	.L7
 250              	.L8:
 251              		.loc 1 113 0
 252 00f4 1A4B     		ldr	r3, .L10
 253 00f6 1A68     		ldr	r2, [r3, #0]
 254 00f8 1A4B     		ldr	r3, .L10+4
 255 00fa DB69     		ldr	r3, [r3, #28]
 256 00fc 9B68     		ldr	r3, [r3, #8]
 257 00fe 03F10503 		add	r3, r3, #5
 258 0102 1949     		ldr	r1, .L10+8
 259 0104 0091     		str	r1, [sp, #0]
 260 0106 1046     		mov	r0, r2
 261 0108 4FF49871 		mov	r1, #304
 262 010c 1A46     		mov	r2, r3
 263 010e 174B     		ldr	r3, .L10+12
 264 0110 FFF7FEFF 		bl	chThdCreateStatic
 265 0114 0246     		mov	r2, r0
 266 0116 164B     		ldr	r3, .L10+16
 267 0118 1A60     		str	r2, [r3, #0]
 268              	.LBB2:
 269              		.loc 1 114 0
 270 011a 4FF02003 		mov	r3, #32
 271              	@ 114 "../chibios_2.4.x/test/testsem.c" 1
 272 011e 83F31188 		msr     BASEPRI, r3
 273              	@ 0 "" 2
 274              		.thumb
 275              	.LBE2:
 276 0122 FFF7FEFF 		bl	dbg_check_lock
ARM GAS  /tmp/ccW6g9xV.s 			page 6


 277              		.loc 1 115 0
 278 0126 1748     		ldr	r0, .L10+36
 279 0128 4FF00201 		mov	r1, #2
 280 012c FFF7FEFF 		bl	chSemAddCounterI
 281              		.loc 1 116 0
 282 0130 FFF7FEFF 		bl	dbg_check_unlock
 283              	.LBB3:
 284 0134 4FF00003 		mov	r3, #0
 285              	@ 116 "../chibios_2.4.x/test/testsem.c" 1
 286 0138 83F31188 		msr     BASEPRI, r3
 287              	@ 0 "" 2
 288              		.thumb
 289              	.LBE3:
 290              		.loc 1 117 0
 291 013c FFF7FEFF 		bl	test_wait_threads
 292              		.loc 1 118 0
 293 0140 104B     		ldr	r3, .L10+36
 294 0142 9B68     		ldr	r3, [r3, #8]
 295 0144 012B     		cmp	r3, #1
 296 0146 14BF     		ite	ne
 297 0148 0023     		movne	r3, #0
 298 014a 0123     		moveq	r3, #1
 299 014c 4FF00200 		mov	r0, #2
 300 0150 1946     		mov	r1, r3
 301 0152 FFF7FEFF 		bl	_test_assert
 302 0156 0346     		mov	r3, r0
 303 0158 002B     		cmp	r3, #0
 304              	.L7:
 305              		.loc 1 119 0
 306 015a 03B0     		add	sp, sp, #12
 307 015c 00BD     		pop	{pc}
 308              	.L11:
 309 015e 00BF     		.align	2
 310              	.L10:
 311 0160 00000000 		.word	wa
 312 0164 00000000 		.word	rlist
 313 0168 00000000 		.word	.LC0
 314 016c 00000000 		.word	thread1
 315 0170 00000000 		.word	threads
 316 0174 04000000 		.word	.LC1
 317 0178 08000000 		.word	.LC2
 318 017c 0C000000 		.word	.LC3
 319 0180 10000000 		.word	.LC4
 320 0184 00000000 		.word	sem1
 321 0188 14000000 		.word	.LC5
 322              		.cfi_endproc
 323              	.LFE9:
 324              		.size	sem1_execute, .-sem1_execute
 325              		.global	testsem1
 326 018c AFF30080 		.section	.rodata
 327 001a 0000     		.align	2
 328              	.LC6:
 329 001c 53656D61 		.ascii	"Semaphores, enqueuing\000"
 329      70686F72 
 329      65732C20 
 329      656E7175 
 329      6575696E 
ARM GAS  /tmp/ccW6g9xV.s 			page 7


 330              		.section	.rodata.testsem1,"a",%progbits
 331              		.align	2
 332              		.type	testsem1, %object
 333              		.size	testsem1, 16
 334              	testsem1:
 335 0000 1C000000 		.word	.LC6
 336 0004 00000000 		.word	sem1_setup
 337 0008 00000000 		.word	0
 338 000c 00000000 		.word	sem1_execute
 339              		.section	.text.sem2_setup,"ax",%progbits
 340              		.align	2
 341              		.p2align 4,,15
 342              		.thumb
 343              		.thumb_func
 344              		.type	sem2_setup, %function
 345              	sem2_setup:
 346              	.LFB10:
 347              		.loc 1 139 0
 348              		.cfi_startproc
 349              		@ args = 0, pretend = 0, frame = 0
 350              		@ frame_needed = 0, uses_anonymous_args = 0
 351 0000 08B5     		push	{r3, lr}
 352              	.LCFI5:
 353              		.cfi_def_cfa_offset 8
 354              		.loc 1 141 0
 355 0002 0348     		ldr	r0, .L13
 356 0004 4FF00001 		mov	r1, #0
 357              		.cfi_offset 14, -4
 358              		.cfi_offset 3, -8
 359 0008 FFF7FEFF 		bl	chSemInit
 360              		.loc 1 142 0
 361 000c 08BD     		pop	{r3, pc}
 362              	.L14:
 363 000e 00BF     		.align	2
 364              	.L13:
 365 0010 00000000 		.word	sem1
 366              		.cfi_endproc
 367              	.LFE10:
 368              		.size	sem2_setup, .-sem2_setup
 369 0014 AFF30080 		.section	.text.thread2,"ax",%progbits
 369      AFF30080 
 369      AFF30080 
 370              		.align	2
 371              		.p2align 4,,15
 372              		.thumb
 373              		.thumb_func
 374              		.type	thread2, %function
 375              	thread2:
 376              	.LFB11:
 377              		.loc 1 144 0
 378              		.cfi_startproc
 379              		@ args = 0, pretend = 0, frame = 8
 380              		@ frame_needed = 0, uses_anonymous_args = 0
 381 0000 00B5     		push	{lr}
 382              	.LCFI6:
 383              		.cfi_def_cfa_offset 4
 384 0002 83B0     		sub	sp, sp, #12
ARM GAS  /tmp/ccW6g9xV.s 			page 8


 385              	.LCFI7:
 386              		.cfi_def_cfa_offset 16
 387 0004 0190     		str	r0, [sp, #4]
 388              		.loc 1 147 0
 389 0006 4FF01900 		mov	r0, #25
 390              		.cfi_offset 14, -4
 391 000a FFF7FEFF 		bl	chThdSleep
 392              	.LBB4:
 393              		.loc 1 148 0
 394 000e 4FF02003 		mov	r3, #32
 395              	@ 148 "../chibios_2.4.x/test/testsem.c" 1
 396 0012 83F31188 		msr     BASEPRI, r3
 397              	@ 0 "" 2
 398              		.thumb
 399              	.LBE4:
 400 0016 FFF7FEFF 		bl	dbg_check_lock
 401              		.loc 1 149 0
 402 001a 0848     		ldr	r0, .L16
 403 001c FFF7FEFF 		bl	chSemSignalI
 404              		.loc 1 150 0
 405 0020 FFF7FEFF 		bl	chSchRescheduleS
 406              		.loc 1 151 0
 407 0024 FFF7FEFF 		bl	dbg_check_unlock
 408              	.LBB5:
 409 0028 4FF00003 		mov	r3, #0
 410              	@ 151 "../chibios_2.4.x/test/testsem.c" 1
 411 002c 83F31188 		msr     BASEPRI, r3
 412              	@ 0 "" 2
 413              		.thumb
 414              	.LBE5:
 415              		.loc 1 152 0
 416 0030 4FF00003 		mov	r3, #0
 417              		.loc 1 153 0
 418 0034 1846     		mov	r0, r3
 419 0036 03B0     		add	sp, sp, #12
 420 0038 00BD     		pop	{pc}
 421              	.L17:
 422 003a 00BF     		.align	2
 423              	.L16:
 424 003c 00000000 		.word	sem1
 425              		.cfi_endproc
 426              	.LFE11:
 427              		.size	thread2, .-thread2
 428              		.section	.text.sem2_execute,"ax",%progbits
 429              		.align	2
 430              		.p2align 4,,15
 431              		.thumb
 432              		.thumb_func
 433              		.type	sem2_execute, %function
 434              	sem2_execute:
 435              	.LFB12:
 436              		.loc 1 155 0
 437              		.cfi_startproc
 438              		@ args = 0, pretend = 0, frame = 16
 439              		@ frame_needed = 0, uses_anonymous_args = 0
 440 0000 00B5     		push	{lr}
 441              	.LCFI8:
ARM GAS  /tmp/ccW6g9xV.s 			page 9


 442              		.cfi_def_cfa_offset 4
 443 0002 87B0     		sub	sp, sp, #28
 444              	.LCFI9:
 445              		.cfi_def_cfa_offset 32
 446              		.loc 1 163 0
 447 0004 6D48     		ldr	r0, .L32
 448 0006 4FF00001 		mov	r1, #0
 449              		.cfi_offset 14, -4
 450 000a FFF7FEFF 		bl	chSemWaitTimeout
 451 000e 0490     		str	r0, [sp, #16]
 452              		.loc 1 164 0
 453 0010 049B     		ldr	r3, [sp, #16]
 454 0012 B3F1FF3F 		cmp	r3, #-1
 455 0016 14BF     		ite	ne
 456 0018 0023     		movne	r3, #0
 457 001a 0123     		moveq	r3, #1
 458 001c 4FF00100 		mov	r0, #1
 459 0020 1946     		mov	r1, r3
 460 0022 FFF7FEFF 		bl	_test_assert
 461 0026 0346     		mov	r3, r0
 462 0028 002B     		cmp	r3, #0
 463 002a 40F0C580 		bne	.L18
 464              	.L19:
 465              		.loc 1 165 0
 466 002e 634B     		ldr	r3, .L32
 467 0030 1A68     		ldr	r2, [r3, #0]
 468 0032 624B     		ldr	r3, .L32
 469 0034 9A42     		cmp	r2, r3
 470 0036 14BF     		ite	ne
 471 0038 0023     		movne	r3, #0
 472 003a 0123     		moveq	r3, #1
 473 003c 4FF00200 		mov	r0, #2
 474 0040 1946     		mov	r1, r3
 475 0042 FFF7FEFF 		bl	_test_assert
 476 0046 0346     		mov	r3, r0
 477 0048 002B     		cmp	r3, #0
 478 004a 40F0B580 		bne	.L18
 479              	.L21:
 480              		.loc 1 166 0
 481 004e 5B4B     		ldr	r3, .L32
 482 0050 9B68     		ldr	r3, [r3, #8]
 483 0052 002B     		cmp	r3, #0
 484 0054 14BF     		ite	ne
 485 0056 0023     		movne	r3, #0
 486 0058 0123     		moveq	r3, #1
 487 005a 4FF00300 		mov	r0, #3
 488 005e 1946     		mov	r1, r3
 489 0060 FFF7FEFF 		bl	_test_assert
 490 0064 0346     		mov	r3, r0
 491 0066 002B     		cmp	r3, #0
 492 0068 40F0A680 		bne	.L18
 493              	.L22:
 494              		.loc 1 171 0
 495 006c 544B     		ldr	r3, .L32+4
 496 006e 1A68     		ldr	r2, [r3, #0]
 497 0070 544B     		ldr	r3, .L32+8
 498 0072 DB69     		ldr	r3, [r3, #28]
ARM GAS  /tmp/ccW6g9xV.s 			page 10


 499 0074 9B68     		ldr	r3, [r3, #8]
 500 0076 03F1FF33 		add	r3, r3, #-1
 501 007a 4FF00001 		mov	r1, #0
 502 007e 0091     		str	r1, [sp, #0]
 503 0080 1046     		mov	r0, r2
 504 0082 4FF49871 		mov	r1, #304
 505 0086 1A46     		mov	r2, r3
 506 0088 4F4B     		ldr	r3, .L32+12
 507 008a FFF7FEFF 		bl	chThdCreateStatic
 508 008e 0246     		mov	r2, r0
 509 0090 4E4B     		ldr	r3, .L32+16
 510 0092 1A60     		str	r2, [r3, #0]
 511              		.loc 1 173 0
 512 0094 4948     		ldr	r0, .L32
 513 0096 4FF0FA01 		mov	r1, #250
 514 009a FFF7FEFF 		bl	chSemWaitTimeout
 515 009e 0490     		str	r0, [sp, #16]
 516              		.loc 1 174 0
 517 00a0 FFF7FEFF 		bl	test_wait_threads
 518              		.loc 1 175 0
 519 00a4 049B     		ldr	r3, [sp, #16]
 520 00a6 002B     		cmp	r3, #0
 521 00a8 14BF     		ite	ne
 522 00aa 0023     		movne	r3, #0
 523 00ac 0123     		moveq	r3, #1
 524 00ae 4FF00400 		mov	r0, #4
 525 00b2 1946     		mov	r1, r3
 526 00b4 FFF7FEFF 		bl	_test_assert
 527 00b8 0346     		mov	r3, r0
 528 00ba 002B     		cmp	r3, #0
 529 00bc 7CD1     		bne	.L18
 530              	.L23:
 531              		.loc 1 176 0
 532 00be 3F4B     		ldr	r3, .L32
 533 00c0 1A68     		ldr	r2, [r3, #0]
 534 00c2 3E4B     		ldr	r3, .L32
 535 00c4 9A42     		cmp	r2, r3
 536 00c6 14BF     		ite	ne
 537 00c8 0023     		movne	r3, #0
 538 00ca 0123     		moveq	r3, #1
 539 00cc 4FF00500 		mov	r0, #5
 540 00d0 1946     		mov	r1, r3
 541 00d2 FFF7FEFF 		bl	_test_assert
 542 00d6 0346     		mov	r3, r0
 543 00d8 002B     		cmp	r3, #0
 544 00da 6DD1     		bne	.L18
 545              	.L24:
 546              		.loc 1 177 0
 547 00dc 374B     		ldr	r3, .L32
 548 00de 9B68     		ldr	r3, [r3, #8]
 549 00e0 002B     		cmp	r3, #0
 550 00e2 14BF     		ite	ne
 551 00e4 0023     		movne	r3, #0
 552 00e6 0123     		moveq	r3, #1
 553 00e8 4FF00600 		mov	r0, #6
 554 00ec 1946     		mov	r1, r3
 555 00ee FFF7FEFF 		bl	_test_assert
ARM GAS  /tmp/ccW6g9xV.s 			page 11


 556 00f2 0346     		mov	r3, r0
 557 00f4 002B     		cmp	r3, #0
 558 00f6 5FD1     		bne	.L18
 559              	.L25:
 560              		.loc 1 182 0
 561 00f8 FFF7FEFF 		bl	test_wait_tick
 562              		.loc 1 183 0
 563 00fc 344B     		ldr	r3, .L32+20
 564 00fe DB68     		ldr	r3, [r3, #12]
 565 0100 03F59C63 		add	r3, r3, #1248
 566 0104 03F10203 		add	r3, r3, #2
 567 0108 0393     		str	r3, [sp, #12]
 568              		.loc 1 184 0
 569 010a 4FF00003 		mov	r3, #0
 570 010e 0593     		str	r3, [sp, #20]
 571 0110 3CE0     		b	.L26
 572              	.L30:
 573              		.loc 1 185 0
 574 0112 059B     		ldr	r3, [sp, #20]
 575 0114 DBB2     		uxtb	r3, r3
 576 0116 03F14103 		add	r3, r3, #65
 577 011a DBB2     		uxtb	r3, r3
 578 011c 1846     		mov	r0, r3
 579 011e FFF7FEFF 		bl	test_emit_token
 580              		.loc 1 186 0
 581 0122 2648     		ldr	r0, .L32
 582 0124 4FF0FA01 		mov	r1, #250
 583 0128 FFF7FEFF 		bl	chSemWaitTimeout
 584 012c 0490     		str	r0, [sp, #16]
 585              		.loc 1 187 0
 586 012e 049B     		ldr	r3, [sp, #16]
 587 0130 B3F1FF3F 		cmp	r3, #-1
 588 0134 14BF     		ite	ne
 589 0136 0023     		movne	r3, #0
 590 0138 0123     		moveq	r3, #1
 591 013a 4FF00700 		mov	r0, #7
 592 013e 1946     		mov	r1, r3
 593 0140 FFF7FEFF 		bl	_test_assert
 594 0144 0346     		mov	r3, r0
 595 0146 002B     		cmp	r3, #0
 596 0148 36D1     		bne	.L18
 597              	.L27:
 598              		.loc 1 188 0
 599 014a 1C4B     		ldr	r3, .L32
 600 014c 1A68     		ldr	r2, [r3, #0]
 601 014e 1B4B     		ldr	r3, .L32
 602 0150 9A42     		cmp	r2, r3
 603 0152 14BF     		ite	ne
 604 0154 0023     		movne	r3, #0
 605 0156 0123     		moveq	r3, #1
 606 0158 4FF00800 		mov	r0, #8
 607 015c 1946     		mov	r1, r3
 608 015e FFF7FEFF 		bl	_test_assert
 609 0162 0346     		mov	r3, r0
 610 0164 002B     		cmp	r3, #0
 611 0166 27D1     		bne	.L18
 612              	.L28:
ARM GAS  /tmp/ccW6g9xV.s 			page 12


 613              		.loc 1 189 0
 614 0168 144B     		ldr	r3, .L32
 615 016a 9B68     		ldr	r3, [r3, #8]
 616 016c 002B     		cmp	r3, #0
 617 016e 14BF     		ite	ne
 618 0170 0023     		movne	r3, #0
 619 0172 0123     		moveq	r3, #1
 620 0174 4FF00900 		mov	r0, #9
 621 0178 1946     		mov	r1, r3
 622 017a FFF7FEFF 		bl	_test_assert
 623 017e 0346     		mov	r3, r0
 624 0180 002B     		cmp	r3, #0
 625 0182 19D1     		bne	.L18
 626              	.L29:
 627              		.loc 1 184 0
 628 0184 059B     		ldr	r3, [sp, #20]
 629 0186 03F10103 		add	r3, r3, #1
 630 018a 0593     		str	r3, [sp, #20]
 631              	.L26:
 632              		.loc 1 184 0 is_stmt 0 discriminator 1
 633 018c 059B     		ldr	r3, [sp, #20]
 634 018e 042B     		cmp	r3, #4
 635 0190 BFDD     		ble	.L30
 636              		.loc 1 191 0 is_stmt 1
 637 0192 4FF00A00 		mov	r0, #10
 638 0196 0F49     		ldr	r1, .L32+24
 639 0198 FFF7FEFF 		bl	_test_assert_sequence
 640 019c 0346     		mov	r3, r0
 641 019e 002B     		cmp	r3, #0
 642 01a0 0AD1     		bne	.L18
 643              	.L31:
 644              		.loc 1 192 0
 645 01a2 039B     		ldr	r3, [sp, #12]
 646 01a4 03F10303 		add	r3, r3, #3
 647 01a8 4FF00B00 		mov	r0, #11
 648 01ac 0399     		ldr	r1, [sp, #12]
 649 01ae 1A46     		mov	r2, r3
 650 01b0 FFF7FEFF 		bl	_test_assert_time_window
 651 01b4 0346     		mov	r3, r0
 652 01b6 002B     		cmp	r3, #0
 653              	.L18:
 654              		.loc 1 193 0
 655 01b8 07B0     		add	sp, sp, #28
 656 01ba 00BD     		pop	{pc}
 657              	.L33:
 658              		.align	2
 659              	.L32:
 660 01bc 00000000 		.word	sem1
 661 01c0 00000000 		.word	wa
 662 01c4 00000000 		.word	rlist
 663 01c8 00000000 		.word	thread2
 664 01cc 00000000 		.word	threads
 665 01d0 00000000 		.word	vtlist
 666 01d4 14000000 		.word	.LC5
 667              		.cfi_endproc
 668              	.LFE12:
 669              		.size	sem2_execute, .-sem2_execute
ARM GAS  /tmp/ccW6g9xV.s 			page 13


 670              		.global	testsem2
 671 01d8 AFF30080 		.section	.rodata
 671      AFF30080 
 672 0032 0000     		.align	2
 673              	.LC7:
 674 0034 53656D61 		.ascii	"Semaphores, timeout\000"
 674      70686F72 
 674      65732C20 
 674      74696D65 
 674      6F757400 
 675              		.section	.rodata.testsem2,"a",%progbits
 676              		.align	2
 677              		.type	testsem2, %object
 678              		.size	testsem2, 16
 679              	testsem2:
 680 0000 34000000 		.word	.LC7
 681 0004 00000000 		.word	sem2_setup
 682 0008 00000000 		.word	0
 683 000c 00000000 		.word	sem2_execute
 684              		.section	.text.sem3_setup,"ax",%progbits
 685              		.align	2
 686              		.p2align 4,,15
 687              		.thumb
 688              		.thumb_func
 689              		.type	sem3_setup, %function
 690              	sem3_setup:
 691              	.LFB13:
 692              		.loc 1 215 0
 693              		.cfi_startproc
 694              		@ args = 0, pretend = 0, frame = 0
 695              		@ frame_needed = 0, uses_anonymous_args = 0
 696 0000 08B5     		push	{r3, lr}
 697              	.LCFI10:
 698              		.cfi_def_cfa_offset 8
 699              		.loc 1 217 0
 700 0002 0348     		ldr	r0, .L35
 701 0004 4FF00001 		mov	r1, #0
 702              		.cfi_offset 14, -4
 703              		.cfi_offset 3, -8
 704 0008 FFF7FEFF 		bl	chSemInit
 705              		.loc 1 218 0
 706 000c 08BD     		pop	{r3, pc}
 707              	.L36:
 708 000e 00BF     		.align	2
 709              	.L35:
 710 0010 00000000 		.word	sem1
 711              		.cfi_endproc
 712              	.LFE13:
 713              		.size	sem3_setup, .-sem3_setup
 714 0014 AFF30080 		.section	.text.thread3,"ax",%progbits
 714      AFF30080 
 714      AFF30080 
 715              		.align	2
 716              		.p2align 4,,15
 717              		.thumb
 718              		.thumb_func
 719              		.type	thread3, %function
ARM GAS  /tmp/ccW6g9xV.s 			page 14


 720              	thread3:
 721              	.LFB14:
 722              		.loc 1 220 0
 723              		.cfi_startproc
 724              		@ args = 0, pretend = 0, frame = 8
 725              		@ frame_needed = 0, uses_anonymous_args = 0
 726 0000 00B5     		push	{lr}
 727              	.LCFI11:
 728              		.cfi_def_cfa_offset 4
 729 0002 83B0     		sub	sp, sp, #12
 730              	.LCFI12:
 731              		.cfi_def_cfa_offset 16
 732 0004 0190     		str	r0, [sp, #4]
 733              		.loc 1 223 0
 734 0006 0548     		ldr	r0, .L38
 735              		.cfi_offset 14, -4
 736 0008 FFF7FEFF 		bl	chSemWait
 737              		.loc 1 224 0
 738 000c 0348     		ldr	r0, .L38
 739 000e FFF7FEFF 		bl	chSemSignal
 740              		.loc 1 225 0
 741 0012 4FF00003 		mov	r3, #0
 742              		.loc 1 226 0
 743 0016 1846     		mov	r0, r3
 744 0018 03B0     		add	sp, sp, #12
 745 001a 00BD     		pop	{pc}
 746              	.L39:
 747              		.align	2
 748              	.L38:
 749 001c 00000000 		.word	sem1
 750              		.cfi_endproc
 751              	.LFE14:
 752              		.size	thread3, .-thread3
 753              		.section	.text.sem3_execute,"ax",%progbits
 754              		.align	2
 755              		.p2align 4,,15
 756              		.thumb
 757              		.thumb_func
 758              		.type	sem3_execute, %function
 759              	sem3_execute:
 760              	.LFB15:
 761              		.loc 1 228 0
 762              		.cfi_startproc
 763              		@ args = 0, pretend = 0, frame = 0
 764              		@ frame_needed = 0, uses_anonymous_args = 0
 765 0000 00B5     		push	{lr}
 766              	.LCFI13:
 767              		.cfi_def_cfa_offset 4
 768 0002 83B0     		sub	sp, sp, #12
 769              	.LCFI14:
 770              		.cfi_def_cfa_offset 16
 771              		.loc 1 230 0
 772 0004 2B4B     		ldr	r3, .L45
 773 0006 1A68     		ldr	r2, [r3, #0]
 774 0008 2B4B     		ldr	r3, .L45+4
 775 000a DB69     		ldr	r3, [r3, #28]
 776 000c 9B68     		ldr	r3, [r3, #8]
ARM GAS  /tmp/ccW6g9xV.s 			page 15


 777 000e 03F10103 		add	r3, r3, #1
 778 0012 4FF00001 		mov	r1, #0
 779 0016 0091     		str	r1, [sp, #0]
 780 0018 1046     		mov	r0, r2
 781 001a 4FF49871 		mov	r1, #304
 782 001e 1A46     		mov	r2, r3
 783 0020 264B     		ldr	r3, .L45+8
 784              		.cfi_offset 14, -4
 785 0022 FFF7FEFF 		bl	chThdCreateStatic
 786 0026 0246     		mov	r2, r0
 787 0028 254B     		ldr	r3, .L45+12
 788 002a 1A60     		str	r2, [r3, #0]
 789              		.loc 1 231 0
 790 002c 2548     		ldr	r0, .L45+16
 791 002e 2549     		ldr	r1, .L45+16
 792 0030 FFF7FEFF 		bl	chSemSignalWait
 793              		.loc 1 232 0
 794 0034 234B     		ldr	r3, .L45+16
 795 0036 1A68     		ldr	r2, [r3, #0]
 796 0038 224B     		ldr	r3, .L45+16
 797 003a 9A42     		cmp	r2, r3
 798 003c 14BF     		ite	ne
 799 003e 0023     		movne	r3, #0
 800 0040 0123     		moveq	r3, #1
 801 0042 4FF00100 		mov	r0, #1
 802 0046 1946     		mov	r1, r3
 803 0048 FFF7FEFF 		bl	_test_assert
 804 004c 0346     		mov	r3, r0
 805 004e 002B     		cmp	r3, #0
 806 0050 2DD1     		bne	.L40
 807              	.L41:
 808              		.loc 1 233 0
 809 0052 1C4B     		ldr	r3, .L45+16
 810 0054 9B68     		ldr	r3, [r3, #8]
 811 0056 002B     		cmp	r3, #0
 812 0058 14BF     		ite	ne
 813 005a 0023     		movne	r3, #0
 814 005c 0123     		moveq	r3, #1
 815 005e 4FF00200 		mov	r0, #2
 816 0062 1946     		mov	r1, r3
 817 0064 FFF7FEFF 		bl	_test_assert
 818 0068 0346     		mov	r3, r0
 819 006a 002B     		cmp	r3, #0
 820 006c 1FD1     		bne	.L40
 821              	.L43:
 822              		.loc 1 235 0
 823 006e 1548     		ldr	r0, .L45+16
 824 0070 1449     		ldr	r1, .L45+16
 825 0072 FFF7FEFF 		bl	chSemSignalWait
 826              		.loc 1 236 0
 827 0076 134B     		ldr	r3, .L45+16
 828 0078 1A68     		ldr	r2, [r3, #0]
 829 007a 124B     		ldr	r3, .L45+16
 830 007c 9A42     		cmp	r2, r3
 831 007e 14BF     		ite	ne
 832 0080 0023     		movne	r3, #0
 833 0082 0123     		moveq	r3, #1
ARM GAS  /tmp/ccW6g9xV.s 			page 16


 834 0084 4FF00300 		mov	r0, #3
 835 0088 1946     		mov	r1, r3
 836 008a FFF7FEFF 		bl	_test_assert
 837 008e 0346     		mov	r3, r0
 838 0090 002B     		cmp	r3, #0
 839 0092 0CD1     		bne	.L40
 840              	.L44:
 841              		.loc 1 237 0
 842 0094 0B4B     		ldr	r3, .L45+16
 843 0096 9B68     		ldr	r3, [r3, #8]
 844 0098 002B     		cmp	r3, #0
 845 009a 14BF     		ite	ne
 846 009c 0023     		movne	r3, #0
 847 009e 0123     		moveq	r3, #1
 848 00a0 4FF00400 		mov	r0, #4
 849 00a4 1946     		mov	r1, r3
 850 00a6 FFF7FEFF 		bl	_test_assert
 851 00aa 0346     		mov	r3, r0
 852 00ac 002B     		cmp	r3, #0
 853              	.L40:
 854              		.loc 1 238 0
 855 00ae 03B0     		add	sp, sp, #12
 856 00b0 00BD     		pop	{pc}
 857              	.L46:
 858 00b2 00BF     		.align	2
 859              	.L45:
 860 00b4 00000000 		.word	wa
 861 00b8 00000000 		.word	rlist
 862 00bc 00000000 		.word	thread3
 863 00c0 00000000 		.word	threads
 864 00c4 00000000 		.word	sem1
 865              		.cfi_endproc
 866              	.LFE15:
 867              		.size	sem3_execute, .-sem3_execute
 868              		.global	testsem3
 869 00c8 AFF30080 		.section	.rodata
 869      AFF30080 
 870              		.align	2
 871              	.LC8:
 872 0048 53656D61 		.ascii	"Semaphores, atomic signal-wait\000"
 872      70686F72 
 872      65732C20 
 872      61746F6D 
 872      69632073 
 873              		.section	.rodata.testsem3,"a",%progbits
 874              		.align	2
 875              		.type	testsem3, %object
 876              		.size	testsem3, 16
 877              	testsem3:
 878 0000 48000000 		.word	.LC8
 879 0004 00000000 		.word	sem3_setup
 880 0008 00000000 		.word	0
 881 000c 00000000 		.word	sem3_execute
 882              		.section	.text.thread4,"ax",%progbits
 883              		.align	2
 884              		.p2align 4,,15
 885              		.thumb
ARM GAS  /tmp/ccW6g9xV.s 			page 17


 886              		.thumb_func
 887              		.type	thread4, %function
 888              	thread4:
 889              	.LFB16:
 890              		.loc 1 256 0
 891              		.cfi_startproc
 892              		@ args = 0, pretend = 0, frame = 8
 893              		@ frame_needed = 0, uses_anonymous_args = 0
 894 0000 00B5     		push	{lr}
 895              	.LCFI15:
 896              		.cfi_def_cfa_offset 4
 897 0002 83B0     		sub	sp, sp, #12
 898              	.LCFI16:
 899              		.cfi_def_cfa_offset 16
 900 0004 0190     		str	r0, [sp, #4]
 901              	.LBB6:
 902              		.loc 1 258 0
 903 0006 4FF02003 		mov	r3, #32
 904              	@ 258 "../chibios_2.4.x/test/testsem.c" 1
 905 000a 83F31188 		msr     BASEPRI, r3
 906              	@ 0 "" 2
 907              		.thumb
 908              	.LBE6:
 909              		.cfi_offset 14, -4
 910 000e FFF7FEFF 		bl	dbg_check_lock
 911 0012 019B     		ldr	r3, [sp, #4]
 912 0014 9B68     		ldr	r3, [r3, #8]
 913 0016 002B     		cmp	r3, #0
 914 0018 03DC     		bgt	.L48
 915              		.loc 1 258 0 is_stmt 0 discriminator 1
 916 001a 019B     		ldr	r3, [sp, #4]
 917 001c 1846     		mov	r0, r3
 918 001e FFF7FEFF 		bl	chSemSignalI
 919              	.L48:
 920              		.loc 1 258 0 discriminator 2
 921 0022 FFF7FEFF 		bl	chSchRescheduleS
 922 0026 FFF7FEFF 		bl	dbg_check_unlock
 923              	.LBB7:
 924 002a 4FF00003 		mov	r3, #0
 925              	@ 258 "../chibios_2.4.x/test/testsem.c" 1
 926 002e 83F31188 		msr     BASEPRI, r3
 927              	@ 0 "" 2
 928              		.thumb
 929              	.LBE7:
 930              		.loc 1 259 0 is_stmt 1 discriminator 2
 931 0032 4FF00003 		mov	r3, #0
 932              		.loc 1 260 0 discriminator 2
 933 0036 1846     		mov	r0, r3
 934 0038 03B0     		add	sp, sp, #12
 935 003a 00BD     		pop	{pc}
 936              		.cfi_endproc
 937              	.LFE16:
 938              		.size	thread4, .-thread4
 939 003c AFF30080 		.section	.text.sem4_execute,"ax",%progbits
 940              		.align	2
 941              		.p2align 4,,15
 942              		.thumb
ARM GAS  /tmp/ccW6g9xV.s 			page 18


 943              		.thumb_func
 944              		.type	sem4_execute, %function
 945              	sem4_execute:
 946              	.LFB17:
 947              		.loc 1 262 0
 948              		.cfi_startproc
 949              		@ args = 0, pretend = 0, frame = 16
 950              		@ frame_needed = 0, uses_anonymous_args = 0
 951 0000 00B5     		push	{lr}
 952              	.LCFI17:
 953              		.cfi_def_cfa_offset 4
 954 0002 87B0     		sub	sp, sp, #28
 955              	.LCFI18:
 956              		.cfi_def_cfa_offset 32
 957              		.loc 1 266 0
 958 0004 03AB     		add	r3, sp, #12
 959 0006 1846     		mov	r0, r3
 960 0008 4FF00001 		mov	r1, #0
 961              		.cfi_offset 14, -4
 962 000c FFF7FEFF 		bl	chSemInit
 963              		.loc 1 267 0
 964 0010 03AB     		add	r3, sp, #12
 965 0012 1846     		mov	r0, r3
 966 0014 4FF00001 		mov	r1, #0
 967 0018 FFF7FEFF 		bl	chSemReset
 968              		.loc 1 268 0
 969 001c 059B     		ldr	r3, [sp, #20]
 970 001e 002B     		cmp	r3, #0
 971 0020 CCBF     		ite	gt
 972 0022 0023     		movgt	r3, #0
 973 0024 0123     		movle	r3, #1
 974 0026 4FF00100 		mov	r0, #1
 975 002a 1946     		mov	r1, r3
 976 002c FFF7FEFF 		bl	_test_assert
 977 0030 0346     		mov	r3, r0
 978 0032 002B     		cmp	r3, #0
 979 0034 40F08180 		bne	.L49
 980              	.L50:
 981              		.loc 1 271 0
 982 0038 414B     		ldr	r3, .L58
 983 003a 1A68     		ldr	r2, [r3, #0]
 984              		.loc 1 272 0
 985 003c 414B     		ldr	r3, .L58+4
 986 003e DB69     		ldr	r3, [r3, #28]
 987 0040 9B68     		ldr	r3, [r3, #8]
 988              		.loc 1 271 0
 989 0042 03F1FF33 		add	r3, r3, #-1
 990 0046 03A9     		add	r1, sp, #12
 991 0048 0091     		str	r1, [sp, #0]
 992 004a 1046     		mov	r0, r2
 993 004c 4FF49871 		mov	r1, #304
 994 0050 1A46     		mov	r2, r3
 995 0052 3D4B     		ldr	r3, .L58+8
 996 0054 FFF7FEFF 		bl	chThdCreateStatic
 997 0058 0246     		mov	r2, r0
 998 005a 3C4B     		ldr	r3, .L58+12
 999 005c 1A60     		str	r2, [r3, #0]
ARM GAS  /tmp/ccW6g9xV.s 			page 19


 1000              		.loc 1 275 0
 1001 005e 03AB     		add	r3, sp, #12
 1002 0060 1846     		mov	r0, r3
 1003 0062 FFF7FEFF 		bl	chSemWait
 1004              		.loc 1 278 0
 1005 0066 059B     		ldr	r3, [sp, #20]
 1006 0068 002B     		cmp	r3, #0
 1007 006a CCBF     		ite	gt
 1008 006c 0023     		movgt	r3, #0
 1009 006e 0123     		movle	r3, #1
 1010 0070 4FF00200 		mov	r0, #2
 1011 0074 1946     		mov	r1, r3
 1012 0076 FFF7FEFF 		bl	_test_assert
 1013 007a 0346     		mov	r3, r0
 1014 007c 002B     		cmp	r3, #0
 1015 007e 5CD1     		bne	.L49
 1016              	.L52:
 1017              	.LBB8:
 1018              		.loc 1 282 0
 1019 0080 4FF02003 		mov	r3, #32
 1020              	@ 282 "../chibios_2.4.x/test/testsem.c" 1
 1021 0084 83F31188 		msr     BASEPRI, r3
 1022              	@ 0 "" 2
 1023              		.thumb
 1024              	.LBE8:
 1025 0088 FFF7FEFF 		bl	dbg_check_lock
 1026 008c 059B     		ldr	r3, [sp, #20]
 1027 008e 002B     		cmp	r3, #0
 1028 0090 03DC     		bgt	.L53
 1029              		.loc 1 282 0 is_stmt 0 discriminator 1
 1030 0092 03AB     		add	r3, sp, #12
 1031 0094 1846     		mov	r0, r3
 1032 0096 FFF7FEFF 		bl	chSemSignalI
 1033              	.L53:
 1034              		.loc 1 282 0 discriminator 2
 1035 009a FFF7FEFF 		bl	chSchRescheduleS
 1036 009e FFF7FEFF 		bl	dbg_check_unlock
 1037              	.LBB9:
 1038 00a2 4FF00003 		mov	r3, #0
 1039              	@ 282 "../chibios_2.4.x/test/testsem.c" 1
 1040 00a6 83F31188 		msr     BASEPRI, r3
 1041              	@ 0 "" 2
 1042              		.thumb
 1043              	.LBE9:
 1044              		.loc 1 283 0 is_stmt 1 discriminator 2
 1045 00aa 059B     		ldr	r3, [sp, #20]
 1046 00ac 002B     		cmp	r3, #0
 1047 00ae D4BF     		ite	le
 1048 00b0 0023     		movle	r3, #0
 1049 00b2 0123     		movgt	r3, #1
 1050 00b4 4FF00300 		mov	r0, #3
 1051 00b8 1946     		mov	r1, r3
 1052 00ba FFF7FEFF 		bl	_test_assert
 1053 00be 0346     		mov	r3, r0
 1054 00c0 002B     		cmp	r3, #0
 1055 00c2 3AD1     		bne	.L49
 1056              	.L54:
ARM GAS  /tmp/ccW6g9xV.s 			page 20


 1057              		.loc 1 284 0
 1058 00c4 059B     		ldr	r3, [sp, #20]
 1059 00c6 012B     		cmp	r3, #1
 1060 00c8 14BF     		ite	ne
 1061 00ca 0023     		movne	r3, #0
 1062 00cc 0123     		moveq	r3, #1
 1063 00ce 4FF00400 		mov	r0, #4
 1064 00d2 1946     		mov	r1, r3
 1065 00d4 FFF7FEFF 		bl	_test_assert
 1066 00d8 0346     		mov	r3, r0
 1067 00da 002B     		cmp	r3, #0
 1068 00dc 2DD1     		bne	.L49
 1069              	.L55:
 1070              	.LBB10:
 1071              		.loc 1 287 0
 1072 00de 4FF02003 		mov	r3, #32
 1073              	@ 287 "../chibios_2.4.x/test/testsem.c" 1
 1074 00e2 83F31188 		msr     BASEPRI, r3
 1075              	@ 0 "" 2
 1076              		.thumb
 1077              	.LBE10:
 1078 00e6 FFF7FEFF 		bl	dbg_check_lock
 1079 00ea 059B     		ldr	r3, [sp, #20]
 1080 00ec 002B     		cmp	r3, #0
 1081 00ee 03DC     		bgt	.L56
 1082              		.loc 1 287 0 is_stmt 0 discriminator 1
 1083 00f0 03AB     		add	r3, sp, #12
 1084 00f2 1846     		mov	r0, r3
 1085 00f4 FFF7FEFF 		bl	chSemSignalI
 1086              	.L56:
 1087              		.loc 1 287 0 discriminator 2
 1088 00f8 FFF7FEFF 		bl	chSchRescheduleS
 1089 00fc FFF7FEFF 		bl	dbg_check_unlock
 1090              	.LBB11:
 1091 0100 4FF00003 		mov	r3, #0
 1092              	@ 287 "../chibios_2.4.x/test/testsem.c" 1
 1093 0104 83F31188 		msr     BASEPRI, r3
 1094              	@ 0 "" 2
 1095              		.thumb
 1096              	.LBE11:
 1097              		.loc 1 288 0 is_stmt 1 discriminator 2
 1098 0108 059B     		ldr	r3, [sp, #20]
 1099 010a 002B     		cmp	r3, #0
 1100 010c D4BF     		ite	le
 1101 010e 0023     		movle	r3, #0
 1102 0110 0123     		movgt	r3, #1
 1103 0112 4FF00300 		mov	r0, #3
 1104 0116 1946     		mov	r1, r3
 1105 0118 FFF7FEFF 		bl	_test_assert
 1106 011c 0346     		mov	r3, r0
 1107 011e 002B     		cmp	r3, #0
 1108 0120 0BD1     		bne	.L49
 1109              	.L57:
 1110              		.loc 1 289 0
 1111 0122 059B     		ldr	r3, [sp, #20]
 1112 0124 012B     		cmp	r3, #1
 1113 0126 14BF     		ite	ne
ARM GAS  /tmp/ccW6g9xV.s 			page 21


 1114 0128 0023     		movne	r3, #0
 1115 012a 0123     		moveq	r3, #1
 1116 012c 4FF00500 		mov	r0, #5
 1117 0130 1946     		mov	r1, r3
 1118 0132 FFF7FEFF 		bl	_test_assert
 1119 0136 0346     		mov	r3, r0
 1120 0138 002B     		cmp	r3, #0
 1121              	.L49:
 1122              		.loc 1 290 0
 1123 013a 07B0     		add	sp, sp, #28
 1124 013c 00BD     		pop	{pc}
 1125              	.L59:
 1126 013e 00BF     		.align	2
 1127              	.L58:
 1128 0140 00000000 		.word	wa
 1129 0144 00000000 		.word	rlist
 1130 0148 00000000 		.word	thread4
 1131 014c 00000000 		.word	threads
 1132              		.cfi_endproc
 1133              	.LFE17:
 1134              		.size	sem4_execute, .-sem4_execute
 1135              		.global	testsem4
 1136              		.section	.rodata
 1137 0067 00       		.align	2
 1138              	.LC9:
 1139 0068 42696E61 		.ascii	"Binary Semaphores, functionality\000"
 1139      72792053 
 1139      656D6170 
 1139      686F7265 
 1139      732C2066 
 1140 0089 000000   		.section	.rodata.testsem4,"a",%progbits
 1141              		.align	2
 1142              		.type	testsem4, %object
 1143              		.size	testsem4, 16
 1144              	testsem4:
 1145 0000 68000000 		.word	.LC9
 1146 0004 00000000 		.word	0
 1147 0008 00000000 		.word	0
 1148 000c 00000000 		.word	sem4_execute
 1149              		.global	patternsem
 1150              		.section	.rodata.patternsem,"a",%progbits
 1151              		.align	2
 1152              		.type	patternsem, %object
 1153              		.size	patternsem, 20
 1154              	patternsem:
 1155 0000 00000000 		.word	testsem1
 1156 0004 00000000 		.word	testsem2
 1157 0008 00000000 		.word	testsem3
 1158 000c 00000000 		.word	testsem4
 1159 0010 00000000 		.word	0
 1160              		.text
 1161              	.Letext0:
 1162              		.section	.debug_loc,"",%progbits
 1163              	.Ldebug_loc0:
 1164              	.LLST0:
 1165 0000 00000000 		.4byte	.LFB7
 1166 0004 02000000 		.4byte	.LCFI0
ARM GAS  /tmp/ccW6g9xV.s 			page 22


 1167 0008 0200     		.2byte	0x2
 1168 000a 7D       		.byte	0x7d
 1169 000b 00       		.sleb128 0
 1170 000c 02000000 		.4byte	.LCFI0
 1171 0010 14000000 		.4byte	.LFE7
 1172 0014 0200     		.2byte	0x2
 1173 0016 7D       		.byte	0x7d
 1174 0017 08       		.sleb128 8
 1175 0018 00000000 		.4byte	0x0
 1176 001c 00000000 		.4byte	0x0
 1177              	.LLST1:
 1178 0020 00000000 		.4byte	.LFB8
 1179 0024 02000000 		.4byte	.LCFI1
 1180 0028 0200     		.2byte	0x2
 1181 002a 7D       		.byte	0x7d
 1182 002b 00       		.sleb128 0
 1183 002c 02000000 		.4byte	.LCFI1
 1184 0030 04000000 		.4byte	.LCFI2
 1185 0034 0200     		.2byte	0x2
 1186 0036 7D       		.byte	0x7d
 1187 0037 04       		.sleb128 4
 1188 0038 04000000 		.4byte	.LCFI2
 1189 003c 24000000 		.4byte	.LFE8
 1190 0040 0200     		.2byte	0x2
 1191 0042 7D       		.byte	0x7d
 1192 0043 10       		.sleb128 16
 1193 0044 00000000 		.4byte	0x0
 1194 0048 00000000 		.4byte	0x0
 1195              	.LLST2:
 1196 004c 00000000 		.4byte	.LFB9
 1197 0050 02000000 		.4byte	.LCFI3
 1198 0054 0200     		.2byte	0x2
 1199 0056 7D       		.byte	0x7d
 1200 0057 00       		.sleb128 0
 1201 0058 02000000 		.4byte	.LCFI3
 1202 005c 04000000 		.4byte	.LCFI4
 1203 0060 0200     		.2byte	0x2
 1204 0062 7D       		.byte	0x7d
 1205 0063 04       		.sleb128 4
 1206 0064 04000000 		.4byte	.LCFI4
 1207 0068 8C010000 		.4byte	.LFE9
 1208 006c 0200     		.2byte	0x2
 1209 006e 7D       		.byte	0x7d
 1210 006f 10       		.sleb128 16
 1211 0070 00000000 		.4byte	0x0
 1212 0074 00000000 		.4byte	0x0
 1213              	.LLST3:
 1214 0078 00000000 		.4byte	.LFB10
 1215 007c 02000000 		.4byte	.LCFI5
 1216 0080 0200     		.2byte	0x2
 1217 0082 7D       		.byte	0x7d
 1218 0083 00       		.sleb128 0
 1219 0084 02000000 		.4byte	.LCFI5
 1220 0088 14000000 		.4byte	.LFE10
 1221 008c 0200     		.2byte	0x2
 1222 008e 7D       		.byte	0x7d
 1223 008f 08       		.sleb128 8
ARM GAS  /tmp/ccW6g9xV.s 			page 23


 1224 0090 00000000 		.4byte	0x0
 1225 0094 00000000 		.4byte	0x0
 1226              	.LLST4:
 1227 0098 00000000 		.4byte	.LFB11
 1228 009c 02000000 		.4byte	.LCFI6
 1229 00a0 0200     		.2byte	0x2
 1230 00a2 7D       		.byte	0x7d
 1231 00a3 00       		.sleb128 0
 1232 00a4 02000000 		.4byte	.LCFI6
 1233 00a8 04000000 		.4byte	.LCFI7
 1234 00ac 0200     		.2byte	0x2
 1235 00ae 7D       		.byte	0x7d
 1236 00af 04       		.sleb128 4
 1237 00b0 04000000 		.4byte	.LCFI7
 1238 00b4 40000000 		.4byte	.LFE11
 1239 00b8 0200     		.2byte	0x2
 1240 00ba 7D       		.byte	0x7d
 1241 00bb 10       		.sleb128 16
 1242 00bc 00000000 		.4byte	0x0
 1243 00c0 00000000 		.4byte	0x0
 1244              	.LLST5:
 1245 00c4 00000000 		.4byte	.LFB12
 1246 00c8 02000000 		.4byte	.LCFI8
 1247 00cc 0200     		.2byte	0x2
 1248 00ce 7D       		.byte	0x7d
 1249 00cf 00       		.sleb128 0
 1250 00d0 02000000 		.4byte	.LCFI8
 1251 00d4 04000000 		.4byte	.LCFI9
 1252 00d8 0200     		.2byte	0x2
 1253 00da 7D       		.byte	0x7d
 1254 00db 04       		.sleb128 4
 1255 00dc 04000000 		.4byte	.LCFI9
 1256 00e0 D8010000 		.4byte	.LFE12
 1257 00e4 0200     		.2byte	0x2
 1258 00e6 7D       		.byte	0x7d
 1259 00e7 20       		.sleb128 32
 1260 00e8 00000000 		.4byte	0x0
 1261 00ec 00000000 		.4byte	0x0
 1262              	.LLST6:
 1263 00f0 00000000 		.4byte	.LFB13
 1264 00f4 02000000 		.4byte	.LCFI10
 1265 00f8 0200     		.2byte	0x2
 1266 00fa 7D       		.byte	0x7d
 1267 00fb 00       		.sleb128 0
 1268 00fc 02000000 		.4byte	.LCFI10
 1269 0100 14000000 		.4byte	.LFE13
 1270 0104 0200     		.2byte	0x2
 1271 0106 7D       		.byte	0x7d
 1272 0107 08       		.sleb128 8
 1273 0108 00000000 		.4byte	0x0
 1274 010c 00000000 		.4byte	0x0
 1275              	.LLST7:
 1276 0110 00000000 		.4byte	.LFB14
 1277 0114 02000000 		.4byte	.LCFI11
 1278 0118 0200     		.2byte	0x2
 1279 011a 7D       		.byte	0x7d
 1280 011b 00       		.sleb128 0
ARM GAS  /tmp/ccW6g9xV.s 			page 24


 1281 011c 02000000 		.4byte	.LCFI11
 1282 0120 04000000 		.4byte	.LCFI12
 1283 0124 0200     		.2byte	0x2
 1284 0126 7D       		.byte	0x7d
 1285 0127 04       		.sleb128 4
 1286 0128 04000000 		.4byte	.LCFI12
 1287 012c 20000000 		.4byte	.LFE14
 1288 0130 0200     		.2byte	0x2
 1289 0132 7D       		.byte	0x7d
 1290 0133 10       		.sleb128 16
 1291 0134 00000000 		.4byte	0x0
 1292 0138 00000000 		.4byte	0x0
 1293              	.LLST8:
 1294 013c 00000000 		.4byte	.LFB15
 1295 0140 02000000 		.4byte	.LCFI13
 1296 0144 0200     		.2byte	0x2
 1297 0146 7D       		.byte	0x7d
 1298 0147 00       		.sleb128 0
 1299 0148 02000000 		.4byte	.LCFI13
 1300 014c 04000000 		.4byte	.LCFI14
 1301 0150 0200     		.2byte	0x2
 1302 0152 7D       		.byte	0x7d
 1303 0153 04       		.sleb128 4
 1304 0154 04000000 		.4byte	.LCFI14
 1305 0158 C8000000 		.4byte	.LFE15
 1306 015c 0200     		.2byte	0x2
 1307 015e 7D       		.byte	0x7d
 1308 015f 10       		.sleb128 16
 1309 0160 00000000 		.4byte	0x0
 1310 0164 00000000 		.4byte	0x0
 1311              	.LLST9:
 1312 0168 00000000 		.4byte	.LFB16
 1313 016c 02000000 		.4byte	.LCFI15
 1314 0170 0200     		.2byte	0x2
 1315 0172 7D       		.byte	0x7d
 1316 0173 00       		.sleb128 0
 1317 0174 02000000 		.4byte	.LCFI15
 1318 0178 04000000 		.4byte	.LCFI16
 1319 017c 0200     		.2byte	0x2
 1320 017e 7D       		.byte	0x7d
 1321 017f 04       		.sleb128 4
 1322 0180 04000000 		.4byte	.LCFI16
 1323 0184 3C000000 		.4byte	.LFE16
 1324 0188 0200     		.2byte	0x2
 1325 018a 7D       		.byte	0x7d
 1326 018b 10       		.sleb128 16
 1327 018c 00000000 		.4byte	0x0
 1328 0190 00000000 		.4byte	0x0
 1329              	.LLST10:
 1330 0194 00000000 		.4byte	.LFB17
 1331 0198 02000000 		.4byte	.LCFI17
 1332 019c 0200     		.2byte	0x2
 1333 019e 7D       		.byte	0x7d
 1334 019f 00       		.sleb128 0
 1335 01a0 02000000 		.4byte	.LCFI17
 1336 01a4 04000000 		.4byte	.LCFI18
 1337 01a8 0200     		.2byte	0x2
ARM GAS  /tmp/ccW6g9xV.s 			page 25


 1338 01aa 7D       		.byte	0x7d
 1339 01ab 04       		.sleb128 4
 1340 01ac 04000000 		.4byte	.LCFI18
 1341 01b0 50010000 		.4byte	.LFE17
 1342 01b4 0200     		.2byte	0x2
 1343 01b6 7D       		.byte	0x7d
 1344 01b7 20       		.sleb128 32
 1345 01b8 00000000 		.4byte	0x0
 1346 01bc 00000000 		.4byte	0x0
 1347              		.file 2 "/home/z80/programs/code-sourcery/2011.03-42/bin/../lib/gcc/arm-none-eabi/4.5.2/../../../.
 1348              		.file 3 "../chibios_2.4.x/os/ports/GCC/ARMCMx/chtypes.h"
 1349              		.file 4 "../chibios_2.4.x/os/kernel/include/chlists.h"
 1350              		.file 5 "../chibios_2.4.x/os/kernel/include/chthreads.h"
 1351              		.file 6 "../chibios_2.4.x/os/ports/GCC/ARMCMx/chcore_v7m.h"
 1352              		.file 7 "../chibios_2.4.x/os/kernel/include/chvt.h"
 1353              		.file 8 "../chibios_2.4.x/os/kernel/include/chschd.h"
 1354              		.file 9 "../chibios_2.4.x/os/kernel/include/chsem.h"
 1355              		.file 10 "../chibios_2.4.x/os/kernel/include/chbsem.h"
 1356              		.file 11 "../chibios_2.4.x/os/kernel/include/chmtx.h"
 1357              		.file 12 "../chibios_2.4.x/test/test.h"
 1358              		.section	.debug_info
 1359 0000 69090000 		.4byte	0x969
 1360 0004 0200     		.2byte	0x2
 1361 0006 00000000 		.4byte	.Ldebug_abbrev0
 1362 000a 04       		.byte	0x4
 1363 000b 01       		.uleb128 0x1
 1364 000c B7030000 		.4byte	.LASF102
 1365 0010 01       		.byte	0x1
 1366 0011 9E020000 		.4byte	.LASF103
 1367 0015 70030000 		.4byte	.LASF104
 1368 0019 00000000 		.4byte	0x0
 1369 001d 00000000 		.4byte	0x0
 1370 0021 00000000 		.4byte	.Ldebug_ranges0+0x0
 1371 0025 00000000 		.4byte	.Ldebug_line0
 1372 0029 02       		.uleb128 0x2
 1373 002a 04       		.byte	0x4
 1374 002b 05       		.byte	0x5
 1375 002c 696E7400 		.ascii	"int\000"
 1376 0030 03       		.uleb128 0x3
 1377 0031 04       		.byte	0x4
 1378 0032 07       		.byte	0x7
 1379 0033 F0000000 		.4byte	.LASF0
 1380 0037 03       		.uleb128 0x3
 1381 0038 01       		.byte	0x1
 1382 0039 06       		.byte	0x6
 1383 003a 5F000000 		.4byte	.LASF1
 1384 003e 04       		.uleb128 0x4
 1385 003f A8030000 		.4byte	.LASF5
 1386 0043 02       		.byte	0x2
 1387 0044 2A       		.byte	0x2a
 1388 0045 49000000 		.4byte	0x49
 1389 0049 03       		.uleb128 0x3
 1390 004a 01       		.byte	0x1
 1391 004b 08       		.byte	0x8
 1392 004c 57020000 		.4byte	.LASF2
 1393 0050 03       		.uleb128 0x3
 1394 0051 02       		.byte	0x2
ARM GAS  /tmp/ccW6g9xV.s 			page 26


 1395 0052 05       		.byte	0x5
 1396 0053 6F020000 		.4byte	.LASF3
 1397 0057 03       		.uleb128 0x3
 1398 0058 02       		.byte	0x2
 1399 0059 07       		.byte	0x7
 1400 005a 62010000 		.4byte	.LASF4
 1401 005e 04       		.uleb128 0x4
 1402 005f 4F020000 		.4byte	.LASF6
 1403 0063 02       		.byte	0x2
 1404 0064 4F       		.byte	0x4f
 1405 0065 69000000 		.4byte	0x69
 1406 0069 03       		.uleb128 0x3
 1407 006a 04       		.byte	0x4
 1408 006b 05       		.byte	0x5
 1409 006c 88000000 		.4byte	.LASF7
 1410 0070 04       		.uleb128 0x4
 1411 0071 D9020000 		.4byte	.LASF8
 1412 0075 02       		.byte	0x2
 1413 0076 50       		.byte	0x50
 1414 0077 7B000000 		.4byte	0x7b
 1415 007b 03       		.uleb128 0x3
 1416 007c 04       		.byte	0x4
 1417 007d 07       		.byte	0x7
 1418 007e 34010000 		.4byte	.LASF9
 1419 0082 03       		.uleb128 0x3
 1420 0083 08       		.byte	0x8
 1421 0084 05       		.byte	0x5
 1422 0085 51000000 		.4byte	.LASF10
 1423 0089 04       		.uleb128 0x4
 1424 008a 1A000000 		.4byte	.LASF11
 1425 008e 02       		.byte	0x2
 1426 008f 78       		.byte	0x78
 1427 0090 94000000 		.4byte	0x94
 1428 0094 03       		.uleb128 0x3
 1429 0095 08       		.byte	0x8
 1430 0096 07       		.byte	0x7
 1431 0097 2A000000 		.4byte	.LASF12
 1432 009b 04       		.uleb128 0x4
 1433 009c 80010000 		.4byte	.LASF13
 1434 00a0 03       		.byte	0x3
 1435 00a1 2F       		.byte	0x2f
 1436 00a2 3E000000 		.4byte	0x3e
 1437 00a6 04       		.uleb128 0x4
 1438 00a7 9D000000 		.4byte	.LASF14
 1439 00ab 03       		.byte	0x3
 1440 00ac 30       		.byte	0x30
 1441 00ad 3E000000 		.4byte	0x3e
 1442 00b1 04       		.uleb128 0x4
 1443 00b2 47020000 		.4byte	.LASF15
 1444 00b6 03       		.byte	0x3
 1445 00b7 32       		.byte	0x32
 1446 00b8 70000000 		.4byte	0x70
 1447 00bc 04       		.uleb128 0x4
 1448 00bd 7A010000 		.4byte	.LASF16
 1449 00c1 03       		.byte	0x3
 1450 00c2 33       		.byte	0x33
 1451 00c3 5E000000 		.4byte	0x5e
ARM GAS  /tmp/ccW6g9xV.s 			page 27


 1452 00c7 04       		.uleb128 0x4
 1453 00c8 94010000 		.4byte	.LASF17
 1454 00cc 03       		.byte	0x3
 1455 00cd 35       		.byte	0x35
 1456 00ce 70000000 		.4byte	0x70
 1457 00d2 04       		.uleb128 0x4
 1458 00d3 13030000 		.4byte	.LASF18
 1459 00d7 03       		.byte	0x3
 1460 00d8 36       		.byte	0x36
 1461 00d9 70000000 		.4byte	0x70
 1462 00dd 04       		.uleb128 0x4
 1463 00de DF000000 		.4byte	.LASF19
 1464 00e2 03       		.byte	0x3
 1465 00e3 37       		.byte	0x37
 1466 00e4 5E000000 		.4byte	0x5e
 1467 00e8 04       		.uleb128 0x4
 1468 00e9 BE020000 		.4byte	.LASF20
 1469 00ed 04       		.byte	0x4
 1470 00ee 2A       		.byte	0x2a
 1471 00ef F3000000 		.4byte	0xf3
 1472 00f3 05       		.uleb128 0x5
 1473 00f4 BE020000 		.4byte	.LASF20
 1474 00f8 48       		.byte	0x48
 1475 00f9 05       		.byte	0x5
 1476 00fa 5E       		.byte	0x5e
 1477 00fb FC010000 		.4byte	0x1fc
 1478 00ff 06       		.uleb128 0x6
 1479 0100 97020000 		.4byte	.LASF21
 1480 0104 05       		.byte	0x5
 1481 0105 5F       		.byte	0x5f
 1482 0106 21020000 		.4byte	0x221
 1483 010a 02       		.byte	0x2
 1484 010b 23       		.byte	0x23
 1485 010c 00       		.uleb128 0x0
 1486 010d 06       		.uleb128 0x6
 1487 010e 38020000 		.4byte	.LASF22
 1488 0112 05       		.byte	0x5
 1489 0113 61       		.byte	0x61
 1490 0114 21020000 		.4byte	0x221
 1491 0118 02       		.byte	0x2
 1492 0119 23       		.byte	0x23
 1493 011a 04       		.uleb128 0x4
 1494 011b 06       		.uleb128 0x6
 1495 011c 4A000000 		.4byte	.LASF23
 1496 0120 05       		.byte	0x5
 1497 0121 63       		.byte	0x63
 1498 0122 B1000000 		.4byte	0xb1
 1499 0126 02       		.byte	0x2
 1500 0127 23       		.byte	0x23
 1501 0128 08       		.uleb128 0x8
 1502 0129 06       		.uleb128 0x6
 1503 012a F6030000 		.4byte	.LASF24
 1504 012e 05       		.byte	0x5
 1505 012f 64       		.byte	0x64
 1506 0130 F9020000 		.4byte	0x2f9
 1507 0134 02       		.byte	0x2
 1508 0135 23       		.byte	0x23
ARM GAS  /tmp/ccW6g9xV.s 			page 28


 1509 0136 0C       		.uleb128 0xc
 1510 0137 06       		.uleb128 0x6
 1511 0138 A6000000 		.4byte	.LASF25
 1512 013c 05       		.byte	0x5
 1513 013d 66       		.byte	0x66
 1514 013e 21020000 		.4byte	0x221
 1515 0142 02       		.byte	0x2
 1516 0143 23       		.byte	0x23
 1517 0144 10       		.uleb128 0x10
 1518 0145 06       		.uleb128 0x6
 1519 0146 E2010000 		.4byte	.LASF26
 1520 014a 05       		.byte	0x5
 1521 014b 67       		.byte	0x67
 1522 014c 21020000 		.4byte	0x221
 1523 0150 02       		.byte	0x2
 1524 0151 23       		.byte	0x23
 1525 0152 14       		.uleb128 0x14
 1526 0153 06       		.uleb128 0x6
 1527 0154 C3030000 		.4byte	.LASF27
 1528 0158 05       		.byte	0x5
 1529 0159 6E       		.byte	0x6e
 1530 015a 37050000 		.4byte	0x537
 1531 015e 02       		.byte	0x2
 1532 015f 23       		.byte	0x23
 1533 0160 18       		.uleb128 0x18
 1534 0161 06       		.uleb128 0x6
 1535 0162 E5000000 		.4byte	.LASF28
 1536 0166 05       		.byte	0x5
 1537 0167 74       		.byte	0x74
 1538 0168 49050000 		.4byte	0x549
 1539 016c 02       		.byte	0x2
 1540 016d 23       		.byte	0x23
 1541 016e 1C       		.uleb128 0x1c
 1542 016f 06       		.uleb128 0x6
 1543 0170 79020000 		.4byte	.LASF29
 1544 0174 05       		.byte	0x5
 1545 0175 79       		.byte	0x79
 1546 0176 A6000000 		.4byte	0xa6
 1547 017a 02       		.byte	0x2
 1548 017b 23       		.byte	0x23
 1549 017c 20       		.uleb128 0x20
 1550 017d 06       		.uleb128 0x6
 1551 017e D5030000 		.4byte	.LASF30
 1552 0182 05       		.byte	0x5
 1553 0183 7D       		.byte	0x7d
 1554 0184 9B000000 		.4byte	0x9b
 1555 0188 02       		.byte	0x2
 1556 0189 23       		.byte	0x23
 1557 018a 21       		.uleb128 0x21
 1558 018b 06       		.uleb128 0x6
 1559 018c 31030000 		.4byte	.LASF31
 1560 0190 05       		.byte	0x5
 1561 0191 89       		.byte	0x89
 1562 0192 DE030000 		.4byte	0x3de
 1563 0196 02       		.byte	0x2
 1564 0197 23       		.byte	0x23
 1565 0198 24       		.uleb128 0x24
ARM GAS  /tmp/ccW6g9xV.s 			page 29


 1566 0199 07       		.uleb128 0x7
 1567 019a 705F7500 		.ascii	"p_u\000"
 1568 019e 05       		.byte	0x5
 1569 019f AE       		.byte	0xae
 1570 01a0 02050000 		.4byte	0x502
 1571 01a4 02       		.byte	0x2
 1572 01a5 23       		.byte	0x23
 1573 01a6 28       		.uleb128 0x28
 1574 01a7 06       		.uleb128 0x6
 1575 01a8 FC030000 		.4byte	.LASF32
 1576 01ac 05       		.byte	0x5
 1577 01ad B3       		.byte	0xb3
 1578 01ae 49020000 		.4byte	0x249
 1579 01b2 02       		.byte	0x2
 1580 01b3 23       		.byte	0x23
 1581 01b4 2C       		.uleb128 0x2c
 1582 01b5 06       		.uleb128 0x6
 1583 01b6 3F030000 		.4byte	.LASF33
 1584 01ba 05       		.byte	0x5
 1585 01bb B9       		.byte	0xb9
 1586 01bc 27020000 		.4byte	0x227
 1587 01c0 02       		.byte	0x2
 1588 01c1 23       		.byte	0x23
 1589 01c2 30       		.uleb128 0x30
 1590 01c3 06       		.uleb128 0x6
 1591 01c4 00000000 		.4byte	.LASF34
 1592 01c8 05       		.byte	0x5
 1593 01c9 BD       		.byte	0xbd
 1594 01ca BC000000 		.4byte	0xbc
 1595 01ce 02       		.byte	0x2
 1596 01cf 23       		.byte	0x23
 1597 01d0 38       		.uleb128 0x38
 1598 01d1 06       		.uleb128 0x6
 1599 01d2 CE020000 		.4byte	.LASF35
 1600 01d6 05       		.byte	0x5
 1601 01d7 C3       		.byte	0xc3
 1602 01d8 C7000000 		.4byte	0xc7
 1603 01dc 02       		.byte	0x2
 1604 01dd 23       		.byte	0x23
 1605 01de 3C       		.uleb128 0x3c
 1606 01df 06       		.uleb128 0x6
 1607 01e0 65020000 		.4byte	.LASF36
 1608 01e4 05       		.byte	0x5
 1609 01e5 CA       		.byte	0xca
 1610 01e6 4F050000 		.4byte	0x54f
 1611 01ea 02       		.byte	0x2
 1612 01eb 23       		.byte	0x23
 1613 01ec 40       		.uleb128 0x40
 1614 01ed 06       		.uleb128 0x6
 1615 01ee 1D030000 		.4byte	.LASF37
 1616 01f2 05       		.byte	0x5
 1617 01f3 CE       		.byte	0xce
 1618 01f4 B1000000 		.4byte	0xb1
 1619 01f8 02       		.byte	0x2
 1620 01f9 23       		.byte	0x23
 1621 01fa 44       		.uleb128 0x44
 1622 01fb 00       		.byte	0x0
ARM GAS  /tmp/ccW6g9xV.s 			page 30


 1623 01fc 08       		.uleb128 0x8
 1624 01fd 08       		.byte	0x8
 1625 01fe 04       		.byte	0x4
 1626 01ff 61       		.byte	0x61
 1627 0200 21020000 		.4byte	0x221
 1628 0204 06       		.uleb128 0x6
 1629 0205 97020000 		.4byte	.LASF21
 1630 0209 04       		.byte	0x4
 1631 020a 62       		.byte	0x62
 1632 020b 21020000 		.4byte	0x221
 1633 020f 02       		.byte	0x2
 1634 0210 23       		.byte	0x23
 1635 0211 00       		.uleb128 0x0
 1636 0212 06       		.uleb128 0x6
 1637 0213 38020000 		.4byte	.LASF22
 1638 0217 04       		.byte	0x4
 1639 0218 64       		.byte	0x64
 1640 0219 21020000 		.4byte	0x221
 1641 021d 02       		.byte	0x2
 1642 021e 23       		.byte	0x23
 1643 021f 04       		.uleb128 0x4
 1644 0220 00       		.byte	0x0
 1645 0221 09       		.uleb128 0x9
 1646 0222 04       		.byte	0x4
 1647 0223 E8000000 		.4byte	0xe8
 1648 0227 04       		.uleb128 0x4
 1649 0228 08020000 		.4byte	.LASF38
 1650 022c 04       		.byte	0x4
 1651 022d 66       		.byte	0x66
 1652 022e FC010000 		.4byte	0x1fc
 1653 0232 08       		.uleb128 0x8
 1654 0233 04       		.byte	0x4
 1655 0234 04       		.byte	0x4
 1656 0235 6B       		.byte	0x6b
 1657 0236 49020000 		.4byte	0x249
 1658 023a 06       		.uleb128 0x6
 1659 023b 97020000 		.4byte	.LASF21
 1660 023f 04       		.byte	0x4
 1661 0240 6D       		.byte	0x6d
 1662 0241 21020000 		.4byte	0x221
 1663 0245 02       		.byte	0x2
 1664 0246 23       		.byte	0x23
 1665 0247 00       		.uleb128 0x0
 1666 0248 00       		.byte	0x0
 1667 0249 04       		.uleb128 0x4
 1668 024a 88010000 		.4byte	.LASF39
 1669 024e 04       		.byte	0x4
 1670 024f 70       		.byte	0x70
 1671 0250 32020000 		.4byte	0x232
 1672 0254 04       		.uleb128 0x4
 1673 0255 BE000000 		.4byte	.LASF40
 1674 0259 06       		.byte	0x6
 1675 025a D7       		.byte	0xd7
 1676 025b 5F020000 		.4byte	0x25f
 1677 025f 0A       		.uleb128 0xa
 1678 0260 04       		.byte	0x4
 1679 0261 04       		.uleb128 0x4
ARM GAS  /tmp/ccW6g9xV.s 			page 31


 1680 0262 A6010000 		.4byte	.LASF41
 1681 0266 06       		.byte	0x6
 1682 0267 DD       		.byte	0xdd
 1683 0268 89000000 		.4byte	0x89
 1684 026c 05       		.uleb128 0x5
 1685 026d 38030000 		.4byte	.LASF42
 1686 0271 24       		.byte	0x24
 1687 0272 06       		.byte	0x6
 1688 0273 FE       		.byte	0xfe
 1689 0274 F9020000 		.4byte	0x2f9
 1690 0278 0B       		.uleb128 0xb
 1691 0279 723400   		.ascii	"r4\000"
 1692 027c 06       		.byte	0x6
 1693 027d 1101     		.2byte	0x111
 1694 027f 54020000 		.4byte	0x254
 1695 0283 02       		.byte	0x2
 1696 0284 23       		.byte	0x23
 1697 0285 00       		.uleb128 0x0
 1698 0286 0B       		.uleb128 0xb
 1699 0287 723500   		.ascii	"r5\000"
 1700 028a 06       		.byte	0x6
 1701 028b 1201     		.2byte	0x112
 1702 028d 54020000 		.4byte	0x254
 1703 0291 02       		.byte	0x2
 1704 0292 23       		.byte	0x23
 1705 0293 04       		.uleb128 0x4
 1706 0294 0B       		.uleb128 0xb
 1707 0295 723600   		.ascii	"r6\000"
 1708 0298 06       		.byte	0x6
 1709 0299 1301     		.2byte	0x113
 1710 029b 54020000 		.4byte	0x254
 1711 029f 02       		.byte	0x2
 1712 02a0 23       		.byte	0x23
 1713 02a1 08       		.uleb128 0x8
 1714 02a2 0B       		.uleb128 0xb
 1715 02a3 723700   		.ascii	"r7\000"
 1716 02a6 06       		.byte	0x6
 1717 02a7 1401     		.2byte	0x114
 1718 02a9 54020000 		.4byte	0x254
 1719 02ad 02       		.byte	0x2
 1720 02ae 23       		.byte	0x23
 1721 02af 0C       		.uleb128 0xc
 1722 02b0 0B       		.uleb128 0xb
 1723 02b1 723800   		.ascii	"r8\000"
 1724 02b4 06       		.byte	0x6
 1725 02b5 1501     		.2byte	0x115
 1726 02b7 54020000 		.4byte	0x254
 1727 02bb 02       		.byte	0x2
 1728 02bc 23       		.byte	0x23
 1729 02bd 10       		.uleb128 0x10
 1730 02be 0B       		.uleb128 0xb
 1731 02bf 723900   		.ascii	"r9\000"
 1732 02c2 06       		.byte	0x6
 1733 02c3 1601     		.2byte	0x116
 1734 02c5 54020000 		.4byte	0x254
 1735 02c9 02       		.byte	0x2
 1736 02ca 23       		.byte	0x23
ARM GAS  /tmp/ccW6g9xV.s 			page 32


 1737 02cb 14       		.uleb128 0x14
 1738 02cc 0B       		.uleb128 0xb
 1739 02cd 72313000 		.ascii	"r10\000"
 1740 02d1 06       		.byte	0x6
 1741 02d2 1701     		.2byte	0x117
 1742 02d4 54020000 		.4byte	0x254
 1743 02d8 02       		.byte	0x2
 1744 02d9 23       		.byte	0x23
 1745 02da 18       		.uleb128 0x18
 1746 02db 0B       		.uleb128 0xb
 1747 02dc 72313100 		.ascii	"r11\000"
 1748 02e0 06       		.byte	0x6
 1749 02e1 1801     		.2byte	0x118
 1750 02e3 54020000 		.4byte	0x254
 1751 02e7 02       		.byte	0x2
 1752 02e8 23       		.byte	0x23
 1753 02e9 1C       		.uleb128 0x1c
 1754 02ea 0B       		.uleb128 0xb
 1755 02eb 6C7200   		.ascii	"lr\000"
 1756 02ee 06       		.byte	0x6
 1757 02ef 1901     		.2byte	0x119
 1758 02f1 54020000 		.4byte	0x254
 1759 02f5 02       		.byte	0x2
 1760 02f6 23       		.byte	0x23
 1761 02f7 20       		.uleb128 0x20
 1762 02f8 00       		.byte	0x0
 1763 02f9 0C       		.uleb128 0xc
 1764 02fa 5A010000 		.4byte	.LASF43
 1765 02fe 04       		.byte	0x4
 1766 02ff 06       		.byte	0x6
 1767 0300 2301     		.2byte	0x123
 1768 0302 16030000 		.4byte	0x316
 1769 0306 0B       		.uleb128 0xb
 1770 0307 72313300 		.ascii	"r13\000"
 1771 030b 06       		.byte	0x6
 1772 030c 2401     		.2byte	0x124
 1773 030e 16030000 		.4byte	0x316
 1774 0312 02       		.byte	0x2
 1775 0313 23       		.byte	0x23
 1776 0314 00       		.uleb128 0x0
 1777 0315 00       		.byte	0x0
 1778 0316 09       		.uleb128 0x9
 1779 0317 04       		.byte	0x4
 1780 0318 6C020000 		.4byte	0x26c
 1781 031c 04       		.uleb128 0x4
 1782 031d 28030000 		.4byte	.LASF44
 1783 0321 07       		.byte	0x7
 1784 0322 53       		.byte	0x53
 1785 0323 27030000 		.4byte	0x327
 1786 0327 09       		.uleb128 0x9
 1787 0328 04       		.byte	0x4
 1788 0329 2D030000 		.4byte	0x32d
 1789 032d 0D       		.uleb128 0xd
 1790 032e 01       		.byte	0x1
 1791 032f 39030000 		.4byte	0x339
 1792 0333 0E       		.uleb128 0xe
 1793 0334 5F020000 		.4byte	0x25f
ARM GAS  /tmp/ccW6g9xV.s 			page 33


 1794 0338 00       		.byte	0x0
 1795 0339 04       		.uleb128 0x4
 1796 033a EA020000 		.4byte	.LASF45
 1797 033e 07       		.byte	0x7
 1798 033f 58       		.byte	0x58
 1799 0340 44030000 		.4byte	0x344
 1800 0344 05       		.uleb128 0x5
 1801 0345 EA020000 		.4byte	.LASF45
 1802 0349 14       		.byte	0x14
 1803 034a 07       		.byte	0x7
 1804 034b 5F       		.byte	0x5f
 1805 034c 97030000 		.4byte	0x397
 1806 0350 06       		.uleb128 0x6
 1807 0351 FD000000 		.4byte	.LASF46
 1808 0355 07       		.byte	0x7
 1809 0356 60       		.byte	0x60
 1810 0357 97030000 		.4byte	0x397
 1811 035b 02       		.byte	0x2
 1812 035c 23       		.byte	0x23
 1813 035d 00       		.uleb128 0x0
 1814 035e 06       		.uleb128 0x6
 1815 035f C7000000 		.4byte	.LASF47
 1816 0363 07       		.byte	0x7
 1817 0364 62       		.byte	0x62
 1818 0365 97030000 		.4byte	0x397
 1819 0369 02       		.byte	0x2
 1820 036a 23       		.byte	0x23
 1821 036b 04       		.uleb128 0x4
 1822 036c 06       		.uleb128 0x6
 1823 036d C7010000 		.4byte	.LASF48
 1824 0371 07       		.byte	0x7
 1825 0372 64       		.byte	0x64
 1826 0373 D2000000 		.4byte	0xd2
 1827 0377 02       		.byte	0x2
 1828 0378 23       		.byte	0x23
 1829 0379 08       		.uleb128 0x8
 1830 037a 06       		.uleb128 0x6
 1831 037b CF010000 		.4byte	.LASF49
 1832 037f 07       		.byte	0x7
 1833 0380 65       		.byte	0x65
 1834 0381 1C030000 		.4byte	0x31c
 1835 0385 02       		.byte	0x2
 1836 0386 23       		.byte	0x23
 1837 0387 0C       		.uleb128 0xc
 1838 0388 06       		.uleb128 0x6
 1839 0389 4A030000 		.4byte	.LASF50
 1840 038d 07       		.byte	0x7
 1841 038e 67       		.byte	0x67
 1842 038f 5F020000 		.4byte	0x25f
 1843 0393 02       		.byte	0x2
 1844 0394 23       		.byte	0x23
 1845 0395 10       		.uleb128 0x10
 1846 0396 00       		.byte	0x0
 1847 0397 09       		.uleb128 0x9
 1848 0398 04       		.byte	0x4
 1849 0399 39030000 		.4byte	0x339
 1850 039d 08       		.uleb128 0x8
ARM GAS  /tmp/ccW6g9xV.s 			page 34


 1851 039e 10       		.byte	0x10
 1852 039f 07       		.byte	0x7
 1853 03a0 71       		.byte	0x71
 1854 03a1 DE030000 		.4byte	0x3de
 1855 03a5 06       		.uleb128 0x6
 1856 03a6 FD000000 		.4byte	.LASF46
 1857 03aa 07       		.byte	0x7
 1858 03ab 72       		.byte	0x72
 1859 03ac 97030000 		.4byte	0x397
 1860 03b0 02       		.byte	0x2
 1861 03b1 23       		.byte	0x23
 1862 03b2 00       		.uleb128 0x0
 1863 03b3 06       		.uleb128 0x6
 1864 03b4 C7000000 		.4byte	.LASF47
 1865 03b8 07       		.byte	0x7
 1866 03b9 74       		.byte	0x74
 1867 03ba 97030000 		.4byte	0x397
 1868 03be 02       		.byte	0x2
 1869 03bf 23       		.byte	0x23
 1870 03c0 04       		.uleb128 0x4
 1871 03c1 06       		.uleb128 0x6
 1872 03c2 C7010000 		.4byte	.LASF48
 1873 03c6 07       		.byte	0x7
 1874 03c7 76       		.byte	0x76
 1875 03c8 D2000000 		.4byte	0xd2
 1876 03cc 02       		.byte	0x2
 1877 03cd 23       		.byte	0x23
 1878 03ce 08       		.uleb128 0x8
 1879 03cf 06       		.uleb128 0x6
 1880 03d0 CA030000 		.4byte	.LASF51
 1881 03d4 07       		.byte	0x7
 1882 03d5 77       		.byte	0x77
 1883 03d6 DE030000 		.4byte	0x3de
 1884 03da 02       		.byte	0x2
 1885 03db 23       		.byte	0x23
 1886 03dc 0C       		.uleb128 0xc
 1887 03dd 00       		.byte	0x0
 1888 03de 0F       		.uleb128 0xf
 1889 03df D2000000 		.4byte	0xd2
 1890 03e3 04       		.uleb128 0x4
 1891 03e4 DD030000 		.4byte	.LASF52
 1892 03e8 07       		.byte	0x7
 1893 03e9 78       		.byte	0x78
 1894 03ea 9D030000 		.4byte	0x39d
 1895 03ee 08       		.uleb128 0x8
 1896 03ef 20       		.byte	0x20
 1897 03f0 08       		.byte	0x8
 1898 03f1 5E       		.byte	0x5e
 1899 03f2 59040000 		.4byte	0x459
 1900 03f6 06       		.uleb128 0x6
 1901 03f7 E2020000 		.4byte	.LASF53
 1902 03fb 08       		.byte	0x8
 1903 03fc 5F       		.byte	0x5f
 1904 03fd 27020000 		.4byte	0x227
 1905 0401 02       		.byte	0x2
 1906 0402 23       		.byte	0x23
 1907 0403 00       		.uleb128 0x0
ARM GAS  /tmp/ccW6g9xV.s 			page 35


 1908 0404 06       		.uleb128 0x6
 1909 0405 89020000 		.4byte	.LASF54
 1910 0409 08       		.byte	0x8
 1911 040a 60       		.byte	0x60
 1912 040b B1000000 		.4byte	0xb1
 1913 040f 02       		.byte	0x2
 1914 0410 23       		.byte	0x23
 1915 0411 08       		.uleb128 0x8
 1916 0412 06       		.uleb128 0x6
 1917 0413 FA010000 		.4byte	.LASF55
 1918 0417 08       		.byte	0x8
 1919 0418 62       		.byte	0x62
 1920 0419 F9020000 		.4byte	0x2f9
 1921 041d 02       		.byte	0x2
 1922 041e 23       		.byte	0x23
 1923 041f 0C       		.uleb128 0xc
 1924 0420 06       		.uleb128 0x6
 1925 0421 B6000000 		.4byte	.LASF56
 1926 0425 08       		.byte	0x8
 1927 0426 65       		.byte	0x65
 1928 0427 21020000 		.4byte	0x221
 1929 042b 02       		.byte	0x2
 1930 042c 23       		.byte	0x23
 1931 042d 10       		.uleb128 0x10
 1932 042e 06       		.uleb128 0x6
 1933 042f 25020000 		.4byte	.LASF57
 1934 0433 08       		.byte	0x8
 1935 0434 66       		.byte	0x66
 1936 0435 21020000 		.4byte	0x221
 1937 0439 02       		.byte	0x2
 1938 043a 23       		.byte	0x23
 1939 043b 14       		.uleb128 0x14
 1940 043c 06       		.uleb128 0x6
 1941 043d E4030000 		.4byte	.LASF58
 1942 0441 08       		.byte	0x8
 1943 0442 6A       		.byte	0x6a
 1944 0443 DD000000 		.4byte	0xdd
 1945 0447 02       		.byte	0x2
 1946 0448 23       		.byte	0x23
 1947 0449 18       		.uleb128 0x18
 1948 044a 06       		.uleb128 0x6
 1949 044b 1B020000 		.4byte	.LASF59
 1950 044f 08       		.byte	0x8
 1951 0450 6C       		.byte	0x6c
 1952 0451 21020000 		.4byte	0x221
 1953 0455 02       		.byte	0x2
 1954 0456 23       		.byte	0x23
 1955 0457 1C       		.uleb128 0x1c
 1956 0458 00       		.byte	0x0
 1957 0459 04       		.uleb128 0x4
 1958 045a 66030000 		.4byte	.LASF60
 1959 045e 08       		.byte	0x8
 1960 045f 6E       		.byte	0x6e
 1961 0460 EE030000 		.4byte	0x3ee
 1962 0464 05       		.uleb128 0x5
 1963 0465 51030000 		.4byte	.LASF61
 1964 0469 0C       		.byte	0xc
ARM GAS  /tmp/ccW6g9xV.s 			page 36


 1965 046a 09       		.byte	0x9
 1966 046b 2C       		.byte	0x2c
 1967 046c 8D040000 		.4byte	0x48d
 1968 0470 06       		.uleb128 0x6
 1969 0471 AE000000 		.4byte	.LASF62
 1970 0475 09       		.byte	0x9
 1971 0476 2D       		.byte	0x2d
 1972 0477 27020000 		.4byte	0x227
 1973 047b 02       		.byte	0x2
 1974 047c 23       		.byte	0x23
 1975 047d 00       		.uleb128 0x0
 1976 047e 06       		.uleb128 0x6
 1977 047f 54010000 		.4byte	.LASF63
 1978 0483 09       		.byte	0x9
 1979 0484 2F       		.byte	0x2f
 1980 0485 DD000000 		.4byte	0xdd
 1981 0489 02       		.byte	0x2
 1982 048a 23       		.byte	0x23
 1983 048b 08       		.uleb128 0x8
 1984 048c 00       		.byte	0x0
 1985 048d 04       		.uleb128 0x4
 1986 048e 51030000 		.4byte	.LASF61
 1987 0492 09       		.byte	0x9
 1988 0493 30       		.byte	0x30
 1989 0494 64040000 		.4byte	0x464
 1990 0498 08       		.uleb128 0x8
 1991 0499 0C       		.byte	0xc
 1992 049a 0A       		.byte	0xa
 1993 049b 44       		.byte	0x44
 1994 049c AF040000 		.4byte	0x4af
 1995 04a0 06       		.uleb128 0x6
 1996 04a1 1B010000 		.4byte	.LASF64
 1997 04a5 0A       		.byte	0xa
 1998 04a6 45       		.byte	0x45
 1999 04a7 8D040000 		.4byte	0x48d
 2000 04ab 02       		.byte	0x2
 2001 04ac 23       		.byte	0x23
 2002 04ad 00       		.uleb128 0x0
 2003 04ae 00       		.byte	0x0
 2004 04af 04       		.uleb128 0x4
 2005 04b0 FC020000 		.4byte	.LASF65
 2006 04b4 0A       		.byte	0xa
 2007 04b5 46       		.byte	0x46
 2008 04b6 98040000 		.4byte	0x498
 2009 04ba 05       		.uleb128 0x5
 2010 04bb A0010000 		.4byte	.LASF66
 2011 04bf 10       		.byte	0x10
 2012 04c0 0B       		.byte	0xb
 2013 04c1 2C       		.byte	0x2c
 2014 04c2 F1040000 		.4byte	0x4f1
 2015 04c6 06       		.uleb128 0x6
 2016 04c7 6B000000 		.4byte	.LASF67
 2017 04cb 0B       		.byte	0xb
 2018 04cc 2D       		.byte	0x2d
 2019 04cd 27020000 		.4byte	0x227
 2020 04d1 02       		.byte	0x2
 2021 04d2 23       		.byte	0x23
ARM GAS  /tmp/ccW6g9xV.s 			page 37


 2022 04d3 00       		.uleb128 0x0
 2023 04d4 06       		.uleb128 0x6
 2024 04d5 EE030000 		.4byte	.LASF68
 2025 04d9 0B       		.byte	0xb
 2026 04da 2F       		.byte	0x2f
 2027 04db 21020000 		.4byte	0x221
 2028 04df 02       		.byte	0x2
 2029 04e0 23       		.byte	0x23
 2030 04e1 08       		.uleb128 0x8
 2031 04e2 06       		.uleb128 0x6
 2032 04e3 0C030000 		.4byte	.LASF69
 2033 04e7 0B       		.byte	0xb
 2034 04e8 31       		.byte	0x31
 2035 04e9 F1040000 		.4byte	0x4f1
 2036 04ed 02       		.byte	0x2
 2037 04ee 23       		.byte	0x23
 2038 04ef 0C       		.uleb128 0xc
 2039 04f0 00       		.byte	0x0
 2040 04f1 09       		.uleb128 0x9
 2041 04f2 04       		.byte	0x4
 2042 04f3 BA040000 		.4byte	0x4ba
 2043 04f7 04       		.uleb128 0x4
 2044 04f8 A0010000 		.4byte	.LASF66
 2045 04fc 0B       		.byte	0xb
 2046 04fd 33       		.byte	0x33
 2047 04fe BA040000 		.4byte	0x4ba
 2048 0502 10       		.uleb128 0x10
 2049 0503 04       		.byte	0x4
 2050 0504 05       		.byte	0x5
 2051 0505 90       		.byte	0x90
 2052 0506 37050000 		.4byte	0x537
 2053 050a 11       		.uleb128 0x11
 2054 050b 06000000 		.4byte	.LASF70
 2055 050f 05       		.byte	0x5
 2056 0510 97       		.byte	0x97
 2057 0511 BC000000 		.4byte	0xbc
 2058 0515 11       		.uleb128 0x11
 2059 0516 41000000 		.4byte	.LASF71
 2060 051a 05       		.byte	0x5
 2061 051b 9E       		.byte	0x9e
 2062 051c BC000000 		.4byte	0xbc
 2063 0520 11       		.uleb128 0x11
 2064 0521 B0030000 		.4byte	.LASF72
 2065 0525 05       		.byte	0x5
 2066 0526 A5       		.byte	0xa5
 2067 0527 5F020000 		.4byte	0x25f
 2068 052b 11       		.uleb128 0x11
 2069 052c 90020000 		.4byte	.LASF73
 2070 0530 05       		.byte	0x5
 2071 0531 AC       		.byte	0xac
 2072 0532 C7000000 		.4byte	0xc7
 2073 0536 00       		.byte	0x0
 2074 0537 09       		.uleb128 0x9
 2075 0538 04       		.byte	0x4
 2076 0539 3D050000 		.4byte	0x53d
 2077 053d 12       		.uleb128 0x12
 2078 053e 42050000 		.4byte	0x542
ARM GAS  /tmp/ccW6g9xV.s 			page 38


 2079 0542 03       		.uleb128 0x3
 2080 0543 01       		.byte	0x1
 2081 0544 08       		.byte	0x8
 2082 0545 F7020000 		.4byte	.LASF74
 2083 0549 09       		.uleb128 0x9
 2084 054a 04       		.byte	0x4
 2085 054b 61020000 		.4byte	0x261
 2086 054f 09       		.uleb128 0x9
 2087 0550 04       		.byte	0x4
 2088 0551 F7040000 		.4byte	0x4f7
 2089 0555 05       		.uleb128 0x5
 2090 0556 C5020000 		.4byte	.LASF75
 2091 055a 10       		.byte	0x10
 2092 055b 0C       		.byte	0xc
 2093 055c 46       		.byte	0x46
 2094 055d 9A050000 		.4byte	0x59a
 2095 0561 06       		.uleb128 0x6
 2096 0562 4F010000 		.4byte	.LASF76
 2097 0566 0C       		.byte	0xc
 2098 0567 47       		.byte	0x47
 2099 0568 37050000 		.4byte	0x537
 2100 056c 02       		.byte	0x2
 2101 056d 23       		.byte	0x23
 2102 056e 00       		.uleb128 0x0
 2103 056f 06       		.uleb128 0x6
 2104 0570 15020000 		.4byte	.LASF77
 2105 0574 0C       		.byte	0xc
 2106 0575 48       		.byte	0x48
 2107 0576 9C050000 		.4byte	0x59c
 2108 057a 02       		.byte	0x2
 2109 057b 23       		.byte	0x23
 2110 057c 04       		.uleb128 0x4
 2111 057d 06       		.uleb128 0x6
 2112 057e 46010000 		.4byte	.LASF78
 2113 0582 0C       		.byte	0xc
 2114 0583 49       		.byte	0x49
 2115 0584 9C050000 		.4byte	0x59c
 2116 0588 02       		.byte	0x2
 2117 0589 23       		.byte	0x23
 2118 058a 08       		.uleb128 0x8
 2119 058b 06       		.uleb128 0x6
 2120 058c 3F020000 		.4byte	.LASF79
 2121 0590 0C       		.byte	0xc
 2122 0591 4A       		.byte	0x4a
 2123 0592 9C050000 		.4byte	0x59c
 2124 0596 02       		.byte	0x2
 2125 0597 23       		.byte	0x23
 2126 0598 0C       		.uleb128 0xc
 2127 0599 00       		.byte	0x0
 2128 059a 13       		.uleb128 0x13
 2129 059b 01       		.byte	0x1
 2130 059c 09       		.uleb128 0x9
 2131 059d 04       		.byte	0x4
 2132 059e 9A050000 		.4byte	0x59a
 2133 05a2 14       		.uleb128 0x14
 2134 05a3 D7010000 		.4byte	.LASF80
 2135 05a7 01       		.byte	0x1
ARM GAS  /tmp/ccW6g9xV.s 			page 39


 2136 05a8 53       		.byte	0x53
 2137 05a9 01       		.byte	0x1
 2138 05aa 00000000 		.4byte	.LFB7
 2139 05ae 14000000 		.4byte	.LFE7
 2140 05b2 00000000 		.4byte	.LLST0
 2141 05b6 15       		.uleb128 0x15
 2142 05b7 EA010000 		.4byte	.LASF82
 2143 05bb 01       		.byte	0x1
 2144 05bc 58       		.byte	0x58
 2145 05bd 01       		.byte	0x1
 2146 05be BC000000 		.4byte	0xbc
 2147 05c2 00000000 		.4byte	.LFB8
 2148 05c6 24000000 		.4byte	.LFE8
 2149 05ca 20000000 		.4byte	.LLST1
 2150 05ce DF050000 		.4byte	0x5df
 2151 05d2 16       		.uleb128 0x16
 2152 05d3 7000     		.ascii	"p\000"
 2153 05d5 01       		.byte	0x1
 2154 05d6 58       		.byte	0x58
 2155 05d7 5F020000 		.4byte	0x25f
 2156 05db 02       		.byte	0x2
 2157 05dc 91       		.byte	0x91
 2158 05dd 74       		.sleb128 -12
 2159 05de 00       		.byte	0x0
 2160 05df 17       		.uleb128 0x17
 2161 05e0 0D000000 		.4byte	.LASF84
 2162 05e4 01       		.byte	0x1
 2163 05e5 5F       		.byte	0x5f
 2164 05e6 01       		.byte	0x1
 2165 05e7 00000000 		.4byte	.LFB9
 2166 05eb 8C010000 		.4byte	.LFE9
 2167 05ef 4C000000 		.4byte	.LLST2
 2168 05f3 2A060000 		.4byte	0x62a
 2169 05f7 18       		.uleb128 0x18
 2170 05f8 1A010000 		.4byte	.LBB2
 2171 05fc 22010000 		.4byte	.LBE2
 2172 0600 12060000 		.4byte	0x612
 2173 0604 19       		.uleb128 0x19
 2174 0605 746D7000 		.ascii	"tmp\000"
 2175 0609 01       		.byte	0x1
 2176 060a 72       		.byte	0x72
 2177 060b 70000000 		.4byte	0x70
 2178 060f 01       		.byte	0x1
 2179 0610 53       		.byte	0x53
 2180 0611 00       		.byte	0x0
 2181 0612 1A       		.uleb128 0x1a
 2182 0613 34010000 		.4byte	.LBB3
 2183 0617 3C010000 		.4byte	.LBE3
 2184 061b 19       		.uleb128 0x19
 2185 061c 746D7000 		.ascii	"tmp\000"
 2186 0620 01       		.byte	0x1
 2187 0621 74       		.byte	0x74
 2188 0622 70000000 		.4byte	0x70
 2189 0626 01       		.byte	0x1
 2190 0627 53       		.byte	0x53
 2191 0628 00       		.byte	0x0
 2192 0629 00       		.byte	0x0
ARM GAS  /tmp/ccW6g9xV.s 			page 40


 2193 062a 14       		.uleb128 0x14
 2194 062b CF000000 		.4byte	.LASF81
 2195 062f 01       		.byte	0x1
 2196 0630 8B       		.byte	0x8b
 2197 0631 01       		.byte	0x1
 2198 0632 00000000 		.4byte	.LFB10
 2199 0636 14000000 		.4byte	.LFE10
 2200 063a 78000000 		.4byte	.LLST3
 2201 063e 15       		.uleb128 0x15
 2202 063f F2010000 		.4byte	.LASF83
 2203 0643 01       		.byte	0x1
 2204 0644 90       		.byte	0x90
 2205 0645 01       		.byte	0x1
 2206 0646 BC000000 		.4byte	0xbc
 2207 064a 00000000 		.4byte	.LFB11
 2208 064e 40000000 		.4byte	.LFE11
 2209 0652 98000000 		.4byte	.LLST4
 2210 0656 99060000 		.4byte	0x699
 2211 065a 16       		.uleb128 0x16
 2212 065b 7000     		.ascii	"p\000"
 2213 065d 01       		.byte	0x1
 2214 065e 90       		.byte	0x90
 2215 065f 5F020000 		.4byte	0x25f
 2216 0663 02       		.byte	0x2
 2217 0664 91       		.byte	0x91
 2218 0665 74       		.sleb128 -12
 2219 0666 18       		.uleb128 0x18
 2220 0667 0E000000 		.4byte	.LBB4
 2221 066b 16000000 		.4byte	.LBE4
 2222 066f 81060000 		.4byte	0x681
 2223 0673 19       		.uleb128 0x19
 2224 0674 746D7000 		.ascii	"tmp\000"
 2225 0678 01       		.byte	0x1
 2226 0679 94       		.byte	0x94
 2227 067a 70000000 		.4byte	0x70
 2228 067e 01       		.byte	0x1
 2229 067f 53       		.byte	0x53
 2230 0680 00       		.byte	0x0
 2231 0681 1A       		.uleb128 0x1a
 2232 0682 28000000 		.4byte	.LBB5
 2233 0686 30000000 		.4byte	.LBE5
 2234 068a 19       		.uleb128 0x19
 2235 068b 746D7000 		.ascii	"tmp\000"
 2236 068f 01       		.byte	0x1
 2237 0690 97       		.byte	0x97
 2238 0691 70000000 		.4byte	0x70
 2239 0695 01       		.byte	0x1
 2240 0696 53       		.byte	0x53
 2241 0697 00       		.byte	0x0
 2242 0698 00       		.byte	0x0
 2243 0699 17       		.uleb128 0x17
 2244 069a 7B000000 		.4byte	.LASF85
 2245 069e 01       		.byte	0x1
 2246 069f 9B       		.byte	0x9b
 2247 06a0 01       		.byte	0x1
 2248 06a1 00000000 		.4byte	.LFB12
 2249 06a5 D8010000 		.4byte	.LFE12
ARM GAS  /tmp/ccW6g9xV.s 			page 41


 2250 06a9 C4000000 		.4byte	.LLST5
 2251 06ad DA060000 		.4byte	0x6da
 2252 06b1 19       		.uleb128 0x19
 2253 06b2 6900     		.ascii	"i\000"
 2254 06b4 01       		.byte	0x1
 2255 06b5 9C       		.byte	0x9c
 2256 06b6 29000000 		.4byte	0x29
 2257 06ba 02       		.byte	0x2
 2258 06bb 91       		.byte	0x91
 2259 06bc 74       		.sleb128 -12
 2260 06bd 1B       		.uleb128 0x1b
 2261 06be 91000000 		.4byte	.LASF86
 2262 06c2 01       		.byte	0x1
 2263 06c3 9D       		.byte	0x9d
 2264 06c4 D2000000 		.4byte	0xd2
 2265 06c8 02       		.byte	0x2
 2266 06c9 91       		.byte	0x91
 2267 06ca 6C       		.sleb128 -20
 2268 06cb 19       		.uleb128 0x19
 2269 06cc 6D736700 		.ascii	"msg\000"
 2270 06d0 01       		.byte	0x1
 2271 06d1 9E       		.byte	0x9e
 2272 06d2 BC000000 		.4byte	0xbc
 2273 06d6 02       		.byte	0x2
 2274 06d7 91       		.byte	0x91
 2275 06d8 70       		.sleb128 -16
 2276 06d9 00       		.byte	0x0
 2277 06da 14       		.uleb128 0x14
 2278 06db 5B030000 		.4byte	.LASF87
 2279 06df 01       		.byte	0x1
 2280 06e0 D7       		.byte	0xd7
 2281 06e1 01       		.byte	0x1
 2282 06e2 00000000 		.4byte	.LFB13
 2283 06e6 14000000 		.4byte	.LFE13
 2284 06ea F0000000 		.4byte	.LLST6
 2285 06ee 15       		.uleb128 0x15
 2286 06ef 73000000 		.4byte	.LASF88
 2287 06f3 01       		.byte	0x1
 2288 06f4 DC       		.byte	0xdc
 2289 06f5 01       		.byte	0x1
 2290 06f6 BC000000 		.4byte	0xbc
 2291 06fa 00000000 		.4byte	.LFB14
 2292 06fe 20000000 		.4byte	.LFE14
 2293 0702 10010000 		.4byte	.LLST7
 2294 0706 17070000 		.4byte	0x717
 2295 070a 16       		.uleb128 0x16
 2296 070b 7000     		.ascii	"p\000"
 2297 070d 01       		.byte	0x1
 2298 070e DC       		.byte	0xdc
 2299 070f 5F020000 		.4byte	0x25f
 2300 0713 02       		.byte	0x2
 2301 0714 91       		.byte	0x91
 2302 0715 74       		.sleb128 -12
 2303 0716 00       		.byte	0x0
 2304 0717 14       		.uleb128 0x14
 2305 0718 05010000 		.4byte	.LASF89
 2306 071c 01       		.byte	0x1
ARM GAS  /tmp/ccW6g9xV.s 			page 42


 2307 071d E4       		.byte	0xe4
 2308 071e 01       		.byte	0x1
 2309 071f 00000000 		.4byte	.LFB15
 2310 0723 C8000000 		.4byte	.LFE15
 2311 0727 3C010000 		.4byte	.LLST8
 2312 072b 1C       		.uleb128 0x1c
 2313 072c 00020000 		.4byte	.LASF90
 2314 0730 01       		.byte	0x1
 2315 0731 0001     		.2byte	0x100
 2316 0733 01       		.byte	0x1
 2317 0734 BC000000 		.4byte	0xbc
 2318 0738 00000000 		.4byte	.LFB16
 2319 073c 3C000000 		.4byte	.LFE16
 2320 0740 68010000 		.4byte	.LLST9
 2321 0744 8A070000 		.4byte	0x78a
 2322 0748 1D       		.uleb128 0x1d
 2323 0749 7000     		.ascii	"p\000"
 2324 074b 01       		.byte	0x1
 2325 074c 0001     		.2byte	0x100
 2326 074e 5F020000 		.4byte	0x25f
 2327 0752 02       		.byte	0x2
 2328 0753 91       		.byte	0x91
 2329 0754 74       		.sleb128 -12
 2330 0755 18       		.uleb128 0x18
 2331 0756 06000000 		.4byte	.LBB6
 2332 075a 0E000000 		.4byte	.LBE6
 2333 075e 71070000 		.4byte	0x771
 2334 0762 1E       		.uleb128 0x1e
 2335 0763 746D7000 		.ascii	"tmp\000"
 2336 0767 01       		.byte	0x1
 2337 0768 0201     		.2byte	0x102
 2338 076a 70000000 		.4byte	0x70
 2339 076e 01       		.byte	0x1
 2340 076f 53       		.byte	0x53
 2341 0770 00       		.byte	0x0
 2342 0771 1A       		.uleb128 0x1a
 2343 0772 2A000000 		.4byte	.LBB7
 2344 0776 32000000 		.4byte	.LBE7
 2345 077a 1E       		.uleb128 0x1e
 2346 077b 746D7000 		.ascii	"tmp\000"
 2347 077f 01       		.byte	0x1
 2348 0780 0201     		.2byte	0x102
 2349 0782 70000000 		.4byte	0x70
 2350 0786 01       		.byte	0x1
 2351 0787 53       		.byte	0x53
 2352 0788 00       		.byte	0x0
 2353 0789 00       		.byte	0x0
 2354 078a 1F       		.uleb128 0x1f
 2355 078b BA010000 		.4byte	.LASF91
 2356 078f 01       		.byte	0x1
 2357 0790 0601     		.2byte	0x106
 2358 0792 01       		.byte	0x1
 2359 0793 00000000 		.4byte	.LFB17
 2360 0797 50010000 		.4byte	.LFE17
 2361 079b 94010000 		.4byte	.LLST10
 2362 079f 1F080000 		.4byte	0x81f
 2363 07a3 20       		.uleb128 0x20
ARM GAS  /tmp/ccW6g9xV.s 			page 43


 2364 07a4 75010000 		.4byte	.LASF92
 2365 07a8 01       		.byte	0x1
 2366 07a9 0701     		.2byte	0x107
 2367 07ab AF040000 		.4byte	0x4af
 2368 07af 02       		.byte	0x2
 2369 07b0 91       		.byte	0x91
 2370 07b1 6C       		.sleb128 -20
 2371 07b2 18       		.uleb128 0x18
 2372 07b3 80000000 		.4byte	.LBB8
 2373 07b7 88000000 		.4byte	.LBE8
 2374 07bb CE070000 		.4byte	0x7ce
 2375 07bf 1E       		.uleb128 0x1e
 2376 07c0 746D7000 		.ascii	"tmp\000"
 2377 07c4 01       		.byte	0x1
 2378 07c5 1A01     		.2byte	0x11a
 2379 07c7 70000000 		.4byte	0x70
 2380 07cb 01       		.byte	0x1
 2381 07cc 53       		.byte	0x53
 2382 07cd 00       		.byte	0x0
 2383 07ce 18       		.uleb128 0x18
 2384 07cf A2000000 		.4byte	.LBB9
 2385 07d3 AA000000 		.4byte	.LBE9
 2386 07d7 EA070000 		.4byte	0x7ea
 2387 07db 1E       		.uleb128 0x1e
 2388 07dc 746D7000 		.ascii	"tmp\000"
 2389 07e0 01       		.byte	0x1
 2390 07e1 1A01     		.2byte	0x11a
 2391 07e3 70000000 		.4byte	0x70
 2392 07e7 01       		.byte	0x1
 2393 07e8 53       		.byte	0x53
 2394 07e9 00       		.byte	0x0
 2395 07ea 18       		.uleb128 0x18
 2396 07eb DE000000 		.4byte	.LBB10
 2397 07ef E6000000 		.4byte	.LBE10
 2398 07f3 06080000 		.4byte	0x806
 2399 07f7 1E       		.uleb128 0x1e
 2400 07f8 746D7000 		.ascii	"tmp\000"
 2401 07fc 01       		.byte	0x1
 2402 07fd 1F01     		.2byte	0x11f
 2403 07ff 70000000 		.4byte	0x70
 2404 0803 01       		.byte	0x1
 2405 0804 53       		.byte	0x53
 2406 0805 00       		.byte	0x0
 2407 0806 1A       		.uleb128 0x1a
 2408 0807 00010000 		.4byte	.LBB11
 2409 080b 08010000 		.4byte	.LBE11
 2410 080f 1E       		.uleb128 0x1e
 2411 0810 746D7000 		.ascii	"tmp\000"
 2412 0814 01       		.byte	0x1
 2413 0815 1F01     		.2byte	0x11f
 2414 0817 70000000 		.4byte	0x70
 2415 081b 01       		.byte	0x1
 2416 081c 53       		.byte	0x53
 2417 081d 00       		.byte	0x0
 2418 081e 00       		.byte	0x0
 2419 081f 21       		.uleb128 0x21
 2420 0820 23000000 		.4byte	.LASF93
ARM GAS  /tmp/ccW6g9xV.s 			page 44


 2421 0824 07       		.byte	0x7
 2422 0825 7A       		.byte	0x7a
 2423 0826 E3030000 		.4byte	0x3e3
 2424 082a 01       		.byte	0x1
 2425 082b 01       		.byte	0x1
 2426 082c 21       		.uleb128 0x21
 2427 082d A2030000 		.4byte	.LASF94
 2428 0831 08       		.byte	0x8
 2429 0832 72       		.byte	0x72
 2430 0833 59040000 		.4byte	0x459
 2431 0837 01       		.byte	0x1
 2432 0838 01       		.byte	0x1
 2433 0839 22       		.uleb128 0x22
 2434 083a 21020000 		.4byte	0x221
 2435 083e 49080000 		.4byte	0x849
 2436 0842 23       		.uleb128 0x23
 2437 0843 30000000 		.4byte	0x30
 2438 0847 04       		.byte	0x4
 2439 0848 00       		.byte	0x0
 2440 0849 21       		.uleb128 0x21
 2441 084a 81020000 		.4byte	.LASF95
 2442 084e 0C       		.byte	0xc
 2443 084f B0       		.byte	0xb0
 2444 0850 39080000 		.4byte	0x839
 2445 0854 01       		.byte	0x1
 2446 0855 01       		.byte	0x1
 2447 0856 22       		.uleb128 0x22
 2448 0857 5F020000 		.4byte	0x25f
 2449 085b 61080000 		.4byte	0x861
 2450 085f 24       		.uleb128 0x24
 2451 0860 00       		.byte	0x0
 2452 0861 25       		.uleb128 0x25
 2453 0862 776100   		.ascii	"wa\000"
 2454 0865 0C       		.byte	0xc
 2455 0866 B2       		.byte	0xb2
 2456 0867 6D080000 		.4byte	0x86d
 2457 086b 01       		.byte	0x1
 2458 086c 01       		.byte	0x1
 2459 086d 12       		.uleb128 0x12
 2460 086e 56080000 		.4byte	0x856
 2461 0872 1B       		.uleb128 0x1b
 2462 0873 DA000000 		.4byte	.LASF96
 2463 0877 01       		.byte	0x1
 2464 0878 46       		.byte	0x46
 2465 0879 8D040000 		.4byte	0x48d
 2466 087d 05       		.byte	0x5
 2467 087e 03       		.byte	0x3
 2468 087f 00000000 		.4byte	sem1
 2469 0883 21       		.uleb128 0x21
 2470 0884 12010000 		.4byte	.LASF97
 2471 0888 01       		.byte	0x1
 2472 0889 79       		.byte	0x79
 2473 088a 90080000 		.4byte	0x890
 2474 088e 01       		.byte	0x1
 2475 088f 01       		.byte	0x1
 2476 0890 12       		.uleb128 0x12
 2477 0891 55050000 		.4byte	0x555
ARM GAS  /tmp/ccW6g9xV.s 			page 45


 2478 0895 21       		.uleb128 0x21
 2479 0896 B1010000 		.4byte	.LASF98
 2480 089a 01       		.byte	0x1
 2481 089b C3       		.byte	0xc3
 2482 089c 90080000 		.4byte	0x890
 2483 08a0 01       		.byte	0x1
 2484 08a1 01       		.byte	0x1
 2485 08a2 21       		.uleb128 0x21
 2486 08a3 22010000 		.4byte	.LASF99
 2487 08a7 01       		.byte	0x1
 2488 08a8 F0       		.byte	0xf0
 2489 08a9 90080000 		.4byte	0x890
 2490 08ad 01       		.byte	0x1
 2491 08ae 01       		.byte	0x1
 2492 08af 26       		.uleb128 0x26
 2493 08b0 2B010000 		.4byte	.LASF100
 2494 08b4 01       		.byte	0x1
 2495 08b5 2401     		.2byte	0x124
 2496 08b7 90080000 		.4byte	0x890
 2497 08bb 01       		.byte	0x1
 2498 08bc 01       		.byte	0x1
 2499 08bd 21       		.uleb128 0x21
 2500 08be 23000000 		.4byte	.LASF93
 2501 08c2 07       		.byte	0x7
 2502 08c3 7A       		.byte	0x7a
 2503 08c4 E3030000 		.4byte	0x3e3
 2504 08c8 01       		.byte	0x1
 2505 08c9 01       		.byte	0x1
 2506 08ca 21       		.uleb128 0x21
 2507 08cb A2030000 		.4byte	.LASF94
 2508 08cf 08       		.byte	0x8
 2509 08d0 72       		.byte	0x72
 2510 08d1 59040000 		.4byte	0x459
 2511 08d5 01       		.byte	0x1
 2512 08d6 01       		.byte	0x1
 2513 08d7 21       		.uleb128 0x21
 2514 08d8 81020000 		.4byte	.LASF95
 2515 08dc 0C       		.byte	0xc
 2516 08dd B0       		.byte	0xb0
 2517 08de 39080000 		.4byte	0x839
 2518 08e2 01       		.byte	0x1
 2519 08e3 01       		.byte	0x1
 2520 08e4 25       		.uleb128 0x25
 2521 08e5 776100   		.ascii	"wa\000"
 2522 08e8 0C       		.byte	0xc
 2523 08e9 B2       		.byte	0xb2
 2524 08ea F0080000 		.4byte	0x8f0
 2525 08ee 01       		.byte	0x1
 2526 08ef 01       		.byte	0x1
 2527 08f0 12       		.uleb128 0x12
 2528 08f1 56080000 		.4byte	0x856
 2529 08f5 27       		.uleb128 0x27
 2530 08f6 12010000 		.4byte	.LASF97
 2531 08fa 01       		.byte	0x1
 2532 08fb 79       		.byte	0x79
 2533 08fc 90080000 		.4byte	0x890
 2534 0900 01       		.byte	0x1
ARM GAS  /tmp/ccW6g9xV.s 			page 46


 2535 0901 05       		.byte	0x5
 2536 0902 03       		.byte	0x3
 2537 0903 00000000 		.4byte	testsem1
 2538 0907 27       		.uleb128 0x27
 2539 0908 B1010000 		.4byte	.LASF98
 2540 090c 01       		.byte	0x1
 2541 090d C3       		.byte	0xc3
 2542 090e 90080000 		.4byte	0x890
 2543 0912 01       		.byte	0x1
 2544 0913 05       		.byte	0x5
 2545 0914 03       		.byte	0x3
 2546 0915 00000000 		.4byte	testsem2
 2547 0919 27       		.uleb128 0x27
 2548 091a 22010000 		.4byte	.LASF99
 2549 091e 01       		.byte	0x1
 2550 091f F0       		.byte	0xf0
 2551 0920 90080000 		.4byte	0x890
 2552 0924 01       		.byte	0x1
 2553 0925 05       		.byte	0x5
 2554 0926 03       		.byte	0x3
 2555 0927 00000000 		.4byte	testsem3
 2556 092b 28       		.uleb128 0x28
 2557 092c 2B010000 		.4byte	.LASF100
 2558 0930 01       		.byte	0x1
 2559 0931 2401     		.2byte	0x124
 2560 0933 90080000 		.4byte	0x890
 2561 0937 01       		.byte	0x1
 2562 0938 05       		.byte	0x5
 2563 0939 03       		.byte	0x3
 2564 093a 00000000 		.4byte	testsem4
 2565 093e 22       		.uleb128 0x22
 2566 093f 4E090000 		.4byte	0x94e
 2567 0943 4E090000 		.4byte	0x94e
 2568 0947 23       		.uleb128 0x23
 2569 0948 30000000 		.4byte	0x30
 2570 094c 04       		.byte	0x4
 2571 094d 00       		.byte	0x0
 2572 094e 09       		.uleb128 0x9
 2573 094f 04       		.byte	0x4
 2574 0950 90080000 		.4byte	0x890
 2575 0954 28       		.uleb128 0x28
 2576 0955 2D020000 		.4byte	.LASF101
 2577 0959 01       		.byte	0x1
 2578 095a 2F01     		.2byte	0x12f
 2579 095c 67090000 		.4byte	0x967
 2580 0960 01       		.byte	0x1
 2581 0961 05       		.byte	0x5
 2582 0962 03       		.byte	0x3
 2583 0963 00000000 		.4byte	patternsem
 2584 0967 12       		.uleb128 0x12
 2585 0968 3E090000 		.4byte	0x93e
 2586 096c 00       		.byte	0x0
 2587              		.section	.debug_abbrev
 2588 0000 01       		.uleb128 0x1
 2589 0001 11       		.uleb128 0x11
 2590 0002 01       		.byte	0x1
 2591 0003 25       		.uleb128 0x25
ARM GAS  /tmp/ccW6g9xV.s 			page 47


 2592 0004 0E       		.uleb128 0xe
 2593 0005 13       		.uleb128 0x13
 2594 0006 0B       		.uleb128 0xb
 2595 0007 03       		.uleb128 0x3
 2596 0008 0E       		.uleb128 0xe
 2597 0009 1B       		.uleb128 0x1b
 2598 000a 0E       		.uleb128 0xe
 2599 000b 11       		.uleb128 0x11
 2600 000c 01       		.uleb128 0x1
 2601 000d 52       		.uleb128 0x52
 2602 000e 01       		.uleb128 0x1
 2603 000f 55       		.uleb128 0x55
 2604 0010 06       		.uleb128 0x6
 2605 0011 10       		.uleb128 0x10
 2606 0012 06       		.uleb128 0x6
 2607 0013 00       		.byte	0x0
 2608 0014 00       		.byte	0x0
 2609 0015 02       		.uleb128 0x2
 2610 0016 24       		.uleb128 0x24
 2611 0017 00       		.byte	0x0
 2612 0018 0B       		.uleb128 0xb
 2613 0019 0B       		.uleb128 0xb
 2614 001a 3E       		.uleb128 0x3e
 2615 001b 0B       		.uleb128 0xb
 2616 001c 03       		.uleb128 0x3
 2617 001d 08       		.uleb128 0x8
 2618 001e 00       		.byte	0x0
 2619 001f 00       		.byte	0x0
 2620 0020 03       		.uleb128 0x3
 2621 0021 24       		.uleb128 0x24
 2622 0022 00       		.byte	0x0
 2623 0023 0B       		.uleb128 0xb
 2624 0024 0B       		.uleb128 0xb
 2625 0025 3E       		.uleb128 0x3e
 2626 0026 0B       		.uleb128 0xb
 2627 0027 03       		.uleb128 0x3
 2628 0028 0E       		.uleb128 0xe
 2629 0029 00       		.byte	0x0
 2630 002a 00       		.byte	0x0
 2631 002b 04       		.uleb128 0x4
 2632 002c 16       		.uleb128 0x16
 2633 002d 00       		.byte	0x0
 2634 002e 03       		.uleb128 0x3
 2635 002f 0E       		.uleb128 0xe
 2636 0030 3A       		.uleb128 0x3a
 2637 0031 0B       		.uleb128 0xb
 2638 0032 3B       		.uleb128 0x3b
 2639 0033 0B       		.uleb128 0xb
 2640 0034 49       		.uleb128 0x49
 2641 0035 13       		.uleb128 0x13
 2642 0036 00       		.byte	0x0
 2643 0037 00       		.byte	0x0
 2644 0038 05       		.uleb128 0x5
 2645 0039 13       		.uleb128 0x13
 2646 003a 01       		.byte	0x1
 2647 003b 03       		.uleb128 0x3
 2648 003c 0E       		.uleb128 0xe
ARM GAS  /tmp/ccW6g9xV.s 			page 48


 2649 003d 0B       		.uleb128 0xb
 2650 003e 0B       		.uleb128 0xb
 2651 003f 3A       		.uleb128 0x3a
 2652 0040 0B       		.uleb128 0xb
 2653 0041 3B       		.uleb128 0x3b
 2654 0042 0B       		.uleb128 0xb
 2655 0043 01       		.uleb128 0x1
 2656 0044 13       		.uleb128 0x13
 2657 0045 00       		.byte	0x0
 2658 0046 00       		.byte	0x0
 2659 0047 06       		.uleb128 0x6
 2660 0048 0D       		.uleb128 0xd
 2661 0049 00       		.byte	0x0
 2662 004a 03       		.uleb128 0x3
 2663 004b 0E       		.uleb128 0xe
 2664 004c 3A       		.uleb128 0x3a
 2665 004d 0B       		.uleb128 0xb
 2666 004e 3B       		.uleb128 0x3b
 2667 004f 0B       		.uleb128 0xb
 2668 0050 49       		.uleb128 0x49
 2669 0051 13       		.uleb128 0x13
 2670 0052 38       		.uleb128 0x38
 2671 0053 0A       		.uleb128 0xa
 2672 0054 00       		.byte	0x0
 2673 0055 00       		.byte	0x0
 2674 0056 07       		.uleb128 0x7
 2675 0057 0D       		.uleb128 0xd
 2676 0058 00       		.byte	0x0
 2677 0059 03       		.uleb128 0x3
 2678 005a 08       		.uleb128 0x8
 2679 005b 3A       		.uleb128 0x3a
 2680 005c 0B       		.uleb128 0xb
 2681 005d 3B       		.uleb128 0x3b
 2682 005e 0B       		.uleb128 0xb
 2683 005f 49       		.uleb128 0x49
 2684 0060 13       		.uleb128 0x13
 2685 0061 38       		.uleb128 0x38
 2686 0062 0A       		.uleb128 0xa
 2687 0063 00       		.byte	0x0
 2688 0064 00       		.byte	0x0
 2689 0065 08       		.uleb128 0x8
 2690 0066 13       		.uleb128 0x13
 2691 0067 01       		.byte	0x1
 2692 0068 0B       		.uleb128 0xb
 2693 0069 0B       		.uleb128 0xb
 2694 006a 3A       		.uleb128 0x3a
 2695 006b 0B       		.uleb128 0xb
 2696 006c 3B       		.uleb128 0x3b
 2697 006d 0B       		.uleb128 0xb
 2698 006e 01       		.uleb128 0x1
 2699 006f 13       		.uleb128 0x13
 2700 0070 00       		.byte	0x0
 2701 0071 00       		.byte	0x0
 2702 0072 09       		.uleb128 0x9
 2703 0073 0F       		.uleb128 0xf
 2704 0074 00       		.byte	0x0
 2705 0075 0B       		.uleb128 0xb
ARM GAS  /tmp/ccW6g9xV.s 			page 49


 2706 0076 0B       		.uleb128 0xb
 2707 0077 49       		.uleb128 0x49
 2708 0078 13       		.uleb128 0x13
 2709 0079 00       		.byte	0x0
 2710 007a 00       		.byte	0x0
 2711 007b 0A       		.uleb128 0xa
 2712 007c 0F       		.uleb128 0xf
 2713 007d 00       		.byte	0x0
 2714 007e 0B       		.uleb128 0xb
 2715 007f 0B       		.uleb128 0xb
 2716 0080 00       		.byte	0x0
 2717 0081 00       		.byte	0x0
 2718 0082 0B       		.uleb128 0xb
 2719 0083 0D       		.uleb128 0xd
 2720 0084 00       		.byte	0x0
 2721 0085 03       		.uleb128 0x3
 2722 0086 08       		.uleb128 0x8
 2723 0087 3A       		.uleb128 0x3a
 2724 0088 0B       		.uleb128 0xb
 2725 0089 3B       		.uleb128 0x3b
 2726 008a 05       		.uleb128 0x5
 2727 008b 49       		.uleb128 0x49
 2728 008c 13       		.uleb128 0x13
 2729 008d 38       		.uleb128 0x38
 2730 008e 0A       		.uleb128 0xa
 2731 008f 00       		.byte	0x0
 2732 0090 00       		.byte	0x0
 2733 0091 0C       		.uleb128 0xc
 2734 0092 13       		.uleb128 0x13
 2735 0093 01       		.byte	0x1
 2736 0094 03       		.uleb128 0x3
 2737 0095 0E       		.uleb128 0xe
 2738 0096 0B       		.uleb128 0xb
 2739 0097 0B       		.uleb128 0xb
 2740 0098 3A       		.uleb128 0x3a
 2741 0099 0B       		.uleb128 0xb
 2742 009a 3B       		.uleb128 0x3b
 2743 009b 05       		.uleb128 0x5
 2744 009c 01       		.uleb128 0x1
 2745 009d 13       		.uleb128 0x13
 2746 009e 00       		.byte	0x0
 2747 009f 00       		.byte	0x0
 2748 00a0 0D       		.uleb128 0xd
 2749 00a1 15       		.uleb128 0x15
 2750 00a2 01       		.byte	0x1
 2751 00a3 27       		.uleb128 0x27
 2752 00a4 0C       		.uleb128 0xc
 2753 00a5 01       		.uleb128 0x1
 2754 00a6 13       		.uleb128 0x13
 2755 00a7 00       		.byte	0x0
 2756 00a8 00       		.byte	0x0
 2757 00a9 0E       		.uleb128 0xe
 2758 00aa 05       		.uleb128 0x5
 2759 00ab 00       		.byte	0x0
 2760 00ac 49       		.uleb128 0x49
 2761 00ad 13       		.uleb128 0x13
 2762 00ae 00       		.byte	0x0
ARM GAS  /tmp/ccW6g9xV.s 			page 50


 2763 00af 00       		.byte	0x0
 2764 00b0 0F       		.uleb128 0xf
 2765 00b1 35       		.uleb128 0x35
 2766 00b2 00       		.byte	0x0
 2767 00b3 49       		.uleb128 0x49
 2768 00b4 13       		.uleb128 0x13
 2769 00b5 00       		.byte	0x0
 2770 00b6 00       		.byte	0x0
 2771 00b7 10       		.uleb128 0x10
 2772 00b8 17       		.uleb128 0x17
 2773 00b9 01       		.byte	0x1
 2774 00ba 0B       		.uleb128 0xb
 2775 00bb 0B       		.uleb128 0xb
 2776 00bc 3A       		.uleb128 0x3a
 2777 00bd 0B       		.uleb128 0xb
 2778 00be 3B       		.uleb128 0x3b
 2779 00bf 0B       		.uleb128 0xb
 2780 00c0 01       		.uleb128 0x1
 2781 00c1 13       		.uleb128 0x13
 2782 00c2 00       		.byte	0x0
 2783 00c3 00       		.byte	0x0
 2784 00c4 11       		.uleb128 0x11
 2785 00c5 0D       		.uleb128 0xd
 2786 00c6 00       		.byte	0x0
 2787 00c7 03       		.uleb128 0x3
 2788 00c8 0E       		.uleb128 0xe
 2789 00c9 3A       		.uleb128 0x3a
 2790 00ca 0B       		.uleb128 0xb
 2791 00cb 3B       		.uleb128 0x3b
 2792 00cc 0B       		.uleb128 0xb
 2793 00cd 49       		.uleb128 0x49
 2794 00ce 13       		.uleb128 0x13
 2795 00cf 00       		.byte	0x0
 2796 00d0 00       		.byte	0x0
 2797 00d1 12       		.uleb128 0x12
 2798 00d2 26       		.uleb128 0x26
 2799 00d3 00       		.byte	0x0
 2800 00d4 49       		.uleb128 0x49
 2801 00d5 13       		.uleb128 0x13
 2802 00d6 00       		.byte	0x0
 2803 00d7 00       		.byte	0x0
 2804 00d8 13       		.uleb128 0x13
 2805 00d9 15       		.uleb128 0x15
 2806 00da 00       		.byte	0x0
 2807 00db 27       		.uleb128 0x27
 2808 00dc 0C       		.uleb128 0xc
 2809 00dd 00       		.byte	0x0
 2810 00de 00       		.byte	0x0
 2811 00df 14       		.uleb128 0x14
 2812 00e0 2E       		.uleb128 0x2e
 2813 00e1 00       		.byte	0x0
 2814 00e2 03       		.uleb128 0x3
 2815 00e3 0E       		.uleb128 0xe
 2816 00e4 3A       		.uleb128 0x3a
 2817 00e5 0B       		.uleb128 0xb
 2818 00e6 3B       		.uleb128 0x3b
 2819 00e7 0B       		.uleb128 0xb
ARM GAS  /tmp/ccW6g9xV.s 			page 51


 2820 00e8 27       		.uleb128 0x27
 2821 00e9 0C       		.uleb128 0xc
 2822 00ea 11       		.uleb128 0x11
 2823 00eb 01       		.uleb128 0x1
 2824 00ec 12       		.uleb128 0x12
 2825 00ed 01       		.uleb128 0x1
 2826 00ee 40       		.uleb128 0x40
 2827 00ef 06       		.uleb128 0x6
 2828 00f0 00       		.byte	0x0
 2829 00f1 00       		.byte	0x0
 2830 00f2 15       		.uleb128 0x15
 2831 00f3 2E       		.uleb128 0x2e
 2832 00f4 01       		.byte	0x1
 2833 00f5 03       		.uleb128 0x3
 2834 00f6 0E       		.uleb128 0xe
 2835 00f7 3A       		.uleb128 0x3a
 2836 00f8 0B       		.uleb128 0xb
 2837 00f9 3B       		.uleb128 0x3b
 2838 00fa 0B       		.uleb128 0xb
 2839 00fb 27       		.uleb128 0x27
 2840 00fc 0C       		.uleb128 0xc
 2841 00fd 49       		.uleb128 0x49
 2842 00fe 13       		.uleb128 0x13
 2843 00ff 11       		.uleb128 0x11
 2844 0100 01       		.uleb128 0x1
 2845 0101 12       		.uleb128 0x12
 2846 0102 01       		.uleb128 0x1
 2847 0103 40       		.uleb128 0x40
 2848 0104 06       		.uleb128 0x6
 2849 0105 01       		.uleb128 0x1
 2850 0106 13       		.uleb128 0x13
 2851 0107 00       		.byte	0x0
 2852 0108 00       		.byte	0x0
 2853 0109 16       		.uleb128 0x16
 2854 010a 05       		.uleb128 0x5
 2855 010b 00       		.byte	0x0
 2856 010c 03       		.uleb128 0x3
 2857 010d 08       		.uleb128 0x8
 2858 010e 3A       		.uleb128 0x3a
 2859 010f 0B       		.uleb128 0xb
 2860 0110 3B       		.uleb128 0x3b
 2861 0111 0B       		.uleb128 0xb
 2862 0112 49       		.uleb128 0x49
 2863 0113 13       		.uleb128 0x13
 2864 0114 02       		.uleb128 0x2
 2865 0115 0A       		.uleb128 0xa
 2866 0116 00       		.byte	0x0
 2867 0117 00       		.byte	0x0
 2868 0118 17       		.uleb128 0x17
 2869 0119 2E       		.uleb128 0x2e
 2870 011a 01       		.byte	0x1
 2871 011b 03       		.uleb128 0x3
 2872 011c 0E       		.uleb128 0xe
 2873 011d 3A       		.uleb128 0x3a
 2874 011e 0B       		.uleb128 0xb
 2875 011f 3B       		.uleb128 0x3b
 2876 0120 0B       		.uleb128 0xb
ARM GAS  /tmp/ccW6g9xV.s 			page 52


 2877 0121 27       		.uleb128 0x27
 2878 0122 0C       		.uleb128 0xc
 2879 0123 11       		.uleb128 0x11
 2880 0124 01       		.uleb128 0x1
 2881 0125 12       		.uleb128 0x12
 2882 0126 01       		.uleb128 0x1
 2883 0127 40       		.uleb128 0x40
 2884 0128 06       		.uleb128 0x6
 2885 0129 01       		.uleb128 0x1
 2886 012a 13       		.uleb128 0x13
 2887 012b 00       		.byte	0x0
 2888 012c 00       		.byte	0x0
 2889 012d 18       		.uleb128 0x18
 2890 012e 0B       		.uleb128 0xb
 2891 012f 01       		.byte	0x1
 2892 0130 11       		.uleb128 0x11
 2893 0131 01       		.uleb128 0x1
 2894 0132 12       		.uleb128 0x12
 2895 0133 01       		.uleb128 0x1
 2896 0134 01       		.uleb128 0x1
 2897 0135 13       		.uleb128 0x13
 2898 0136 00       		.byte	0x0
 2899 0137 00       		.byte	0x0
 2900 0138 19       		.uleb128 0x19
 2901 0139 34       		.uleb128 0x34
 2902 013a 00       		.byte	0x0
 2903 013b 03       		.uleb128 0x3
 2904 013c 08       		.uleb128 0x8
 2905 013d 3A       		.uleb128 0x3a
 2906 013e 0B       		.uleb128 0xb
 2907 013f 3B       		.uleb128 0x3b
 2908 0140 0B       		.uleb128 0xb
 2909 0141 49       		.uleb128 0x49
 2910 0142 13       		.uleb128 0x13
 2911 0143 02       		.uleb128 0x2
 2912 0144 0A       		.uleb128 0xa
 2913 0145 00       		.byte	0x0
 2914 0146 00       		.byte	0x0
 2915 0147 1A       		.uleb128 0x1a
 2916 0148 0B       		.uleb128 0xb
 2917 0149 01       		.byte	0x1
 2918 014a 11       		.uleb128 0x11
 2919 014b 01       		.uleb128 0x1
 2920 014c 12       		.uleb128 0x12
 2921 014d 01       		.uleb128 0x1
 2922 014e 00       		.byte	0x0
 2923 014f 00       		.byte	0x0
 2924 0150 1B       		.uleb128 0x1b
 2925 0151 34       		.uleb128 0x34
 2926 0152 00       		.byte	0x0
 2927 0153 03       		.uleb128 0x3
 2928 0154 0E       		.uleb128 0xe
 2929 0155 3A       		.uleb128 0x3a
 2930 0156 0B       		.uleb128 0xb
 2931 0157 3B       		.uleb128 0x3b
 2932 0158 0B       		.uleb128 0xb
 2933 0159 49       		.uleb128 0x49
ARM GAS  /tmp/ccW6g9xV.s 			page 53


 2934 015a 13       		.uleb128 0x13
 2935 015b 02       		.uleb128 0x2
 2936 015c 0A       		.uleb128 0xa
 2937 015d 00       		.byte	0x0
 2938 015e 00       		.byte	0x0
 2939 015f 1C       		.uleb128 0x1c
 2940 0160 2E       		.uleb128 0x2e
 2941 0161 01       		.byte	0x1
 2942 0162 03       		.uleb128 0x3
 2943 0163 0E       		.uleb128 0xe
 2944 0164 3A       		.uleb128 0x3a
 2945 0165 0B       		.uleb128 0xb
 2946 0166 3B       		.uleb128 0x3b
 2947 0167 05       		.uleb128 0x5
 2948 0168 27       		.uleb128 0x27
 2949 0169 0C       		.uleb128 0xc
 2950 016a 49       		.uleb128 0x49
 2951 016b 13       		.uleb128 0x13
 2952 016c 11       		.uleb128 0x11
 2953 016d 01       		.uleb128 0x1
 2954 016e 12       		.uleb128 0x12
 2955 016f 01       		.uleb128 0x1
 2956 0170 40       		.uleb128 0x40
 2957 0171 06       		.uleb128 0x6
 2958 0172 01       		.uleb128 0x1
 2959 0173 13       		.uleb128 0x13
 2960 0174 00       		.byte	0x0
 2961 0175 00       		.byte	0x0
 2962 0176 1D       		.uleb128 0x1d
 2963 0177 05       		.uleb128 0x5
 2964 0178 00       		.byte	0x0
 2965 0179 03       		.uleb128 0x3
 2966 017a 08       		.uleb128 0x8
 2967 017b 3A       		.uleb128 0x3a
 2968 017c 0B       		.uleb128 0xb
 2969 017d 3B       		.uleb128 0x3b
 2970 017e 05       		.uleb128 0x5
 2971 017f 49       		.uleb128 0x49
 2972 0180 13       		.uleb128 0x13
 2973 0181 02       		.uleb128 0x2
 2974 0182 0A       		.uleb128 0xa
 2975 0183 00       		.byte	0x0
 2976 0184 00       		.byte	0x0
 2977 0185 1E       		.uleb128 0x1e
 2978 0186 34       		.uleb128 0x34
 2979 0187 00       		.byte	0x0
 2980 0188 03       		.uleb128 0x3
 2981 0189 08       		.uleb128 0x8
 2982 018a 3A       		.uleb128 0x3a
 2983 018b 0B       		.uleb128 0xb
 2984 018c 3B       		.uleb128 0x3b
 2985 018d 05       		.uleb128 0x5
 2986 018e 49       		.uleb128 0x49
 2987 018f 13       		.uleb128 0x13
 2988 0190 02       		.uleb128 0x2
 2989 0191 0A       		.uleb128 0xa
 2990 0192 00       		.byte	0x0
ARM GAS  /tmp/ccW6g9xV.s 			page 54


 2991 0193 00       		.byte	0x0
 2992 0194 1F       		.uleb128 0x1f
 2993 0195 2E       		.uleb128 0x2e
 2994 0196 01       		.byte	0x1
 2995 0197 03       		.uleb128 0x3
 2996 0198 0E       		.uleb128 0xe
 2997 0199 3A       		.uleb128 0x3a
 2998 019a 0B       		.uleb128 0xb
 2999 019b 3B       		.uleb128 0x3b
 3000 019c 05       		.uleb128 0x5
 3001 019d 27       		.uleb128 0x27
 3002 019e 0C       		.uleb128 0xc
 3003 019f 11       		.uleb128 0x11
 3004 01a0 01       		.uleb128 0x1
 3005 01a1 12       		.uleb128 0x12
 3006 01a2 01       		.uleb128 0x1
 3007 01a3 40       		.uleb128 0x40
 3008 01a4 06       		.uleb128 0x6
 3009 01a5 01       		.uleb128 0x1
 3010 01a6 13       		.uleb128 0x13
 3011 01a7 00       		.byte	0x0
 3012 01a8 00       		.byte	0x0
 3013 01a9 20       		.uleb128 0x20
 3014 01aa 34       		.uleb128 0x34
 3015 01ab 00       		.byte	0x0
 3016 01ac 03       		.uleb128 0x3
 3017 01ad 0E       		.uleb128 0xe
 3018 01ae 3A       		.uleb128 0x3a
 3019 01af 0B       		.uleb128 0xb
 3020 01b0 3B       		.uleb128 0x3b
 3021 01b1 05       		.uleb128 0x5
 3022 01b2 49       		.uleb128 0x49
 3023 01b3 13       		.uleb128 0x13
 3024 01b4 02       		.uleb128 0x2
 3025 01b5 0A       		.uleb128 0xa
 3026 01b6 00       		.byte	0x0
 3027 01b7 00       		.byte	0x0
 3028 01b8 21       		.uleb128 0x21
 3029 01b9 34       		.uleb128 0x34
 3030 01ba 00       		.byte	0x0
 3031 01bb 03       		.uleb128 0x3
 3032 01bc 0E       		.uleb128 0xe
 3033 01bd 3A       		.uleb128 0x3a
 3034 01be 0B       		.uleb128 0xb
 3035 01bf 3B       		.uleb128 0x3b
 3036 01c0 0B       		.uleb128 0xb
 3037 01c1 49       		.uleb128 0x49
 3038 01c2 13       		.uleb128 0x13
 3039 01c3 3F       		.uleb128 0x3f
 3040 01c4 0C       		.uleb128 0xc
 3041 01c5 3C       		.uleb128 0x3c
 3042 01c6 0C       		.uleb128 0xc
 3043 01c7 00       		.byte	0x0
 3044 01c8 00       		.byte	0x0
 3045 01c9 22       		.uleb128 0x22
 3046 01ca 01       		.uleb128 0x1
 3047 01cb 01       		.byte	0x1
ARM GAS  /tmp/ccW6g9xV.s 			page 55


 3048 01cc 49       		.uleb128 0x49
 3049 01cd 13       		.uleb128 0x13
 3050 01ce 01       		.uleb128 0x1
 3051 01cf 13       		.uleb128 0x13
 3052 01d0 00       		.byte	0x0
 3053 01d1 00       		.byte	0x0
 3054 01d2 23       		.uleb128 0x23
 3055 01d3 21       		.uleb128 0x21
 3056 01d4 00       		.byte	0x0
 3057 01d5 49       		.uleb128 0x49
 3058 01d6 13       		.uleb128 0x13
 3059 01d7 2F       		.uleb128 0x2f
 3060 01d8 0B       		.uleb128 0xb
 3061 01d9 00       		.byte	0x0
 3062 01da 00       		.byte	0x0
 3063 01db 24       		.uleb128 0x24
 3064 01dc 21       		.uleb128 0x21
 3065 01dd 00       		.byte	0x0
 3066 01de 00       		.byte	0x0
 3067 01df 00       		.byte	0x0
 3068 01e0 25       		.uleb128 0x25
 3069 01e1 34       		.uleb128 0x34
 3070 01e2 00       		.byte	0x0
 3071 01e3 03       		.uleb128 0x3
 3072 01e4 08       		.uleb128 0x8
 3073 01e5 3A       		.uleb128 0x3a
 3074 01e6 0B       		.uleb128 0xb
 3075 01e7 3B       		.uleb128 0x3b
 3076 01e8 0B       		.uleb128 0xb
 3077 01e9 49       		.uleb128 0x49
 3078 01ea 13       		.uleb128 0x13
 3079 01eb 3F       		.uleb128 0x3f
 3080 01ec 0C       		.uleb128 0xc
 3081 01ed 3C       		.uleb128 0x3c
 3082 01ee 0C       		.uleb128 0xc
 3083 01ef 00       		.byte	0x0
 3084 01f0 00       		.byte	0x0
 3085 01f1 26       		.uleb128 0x26
 3086 01f2 34       		.uleb128 0x34
 3087 01f3 00       		.byte	0x0
 3088 01f4 03       		.uleb128 0x3
 3089 01f5 0E       		.uleb128 0xe
 3090 01f6 3A       		.uleb128 0x3a
 3091 01f7 0B       		.uleb128 0xb
 3092 01f8 3B       		.uleb128 0x3b
 3093 01f9 05       		.uleb128 0x5
 3094 01fa 49       		.uleb128 0x49
 3095 01fb 13       		.uleb128 0x13
 3096 01fc 3F       		.uleb128 0x3f
 3097 01fd 0C       		.uleb128 0xc
 3098 01fe 3C       		.uleb128 0x3c
 3099 01ff 0C       		.uleb128 0xc
 3100 0200 00       		.byte	0x0
 3101 0201 00       		.byte	0x0
 3102 0202 27       		.uleb128 0x27
 3103 0203 34       		.uleb128 0x34
 3104 0204 00       		.byte	0x0
ARM GAS  /tmp/ccW6g9xV.s 			page 56


 3105 0205 03       		.uleb128 0x3
 3106 0206 0E       		.uleb128 0xe
 3107 0207 3A       		.uleb128 0x3a
 3108 0208 0B       		.uleb128 0xb
 3109 0209 3B       		.uleb128 0x3b
 3110 020a 0B       		.uleb128 0xb
 3111 020b 49       		.uleb128 0x49
 3112 020c 13       		.uleb128 0x13
 3113 020d 3F       		.uleb128 0x3f
 3114 020e 0C       		.uleb128 0xc
 3115 020f 02       		.uleb128 0x2
 3116 0210 0A       		.uleb128 0xa
 3117 0211 00       		.byte	0x0
 3118 0212 00       		.byte	0x0
 3119 0213 28       		.uleb128 0x28
 3120 0214 34       		.uleb128 0x34
 3121 0215 00       		.byte	0x0
 3122 0216 03       		.uleb128 0x3
 3123 0217 0E       		.uleb128 0xe
 3124 0218 3A       		.uleb128 0x3a
 3125 0219 0B       		.uleb128 0xb
 3126 021a 3B       		.uleb128 0x3b
 3127 021b 05       		.uleb128 0x5
 3128 021c 49       		.uleb128 0x49
 3129 021d 13       		.uleb128 0x13
 3130 021e 3F       		.uleb128 0x3f
 3131 021f 0C       		.uleb128 0xc
 3132 0220 02       		.uleb128 0x2
 3133 0221 0A       		.uleb128 0xa
 3134 0222 00       		.byte	0x0
 3135 0223 00       		.byte	0x0
 3136 0224 00       		.byte	0x0
 3137              		.section	.debug_pubnames,"",%progbits
 3138 0000 51000000 		.4byte	0x51
 3139 0004 0200     		.2byte	0x2
 3140 0006 00000000 		.4byte	.Ldebug_info0
 3141 000a 6D090000 		.4byte	0x96d
 3142 000e F5080000 		.4byte	0x8f5
 3143 0012 74657374 		.ascii	"testsem1\000"
 3143      73656D31 
 3143      00
 3144 001b 07090000 		.4byte	0x907
 3145 001f 74657374 		.ascii	"testsem2\000"
 3145      73656D32 
 3145      00
 3146 0028 19090000 		.4byte	0x919
 3147 002c 74657374 		.ascii	"testsem3\000"
 3147      73656D33 
 3147      00
 3148 0035 2B090000 		.4byte	0x92b
 3149 0039 74657374 		.ascii	"testsem4\000"
 3149      73656D34 
 3149      00
 3150 0042 54090000 		.4byte	0x954
 3151 0046 70617474 		.ascii	"patternsem\000"
 3151      65726E73 
 3151      656D00
ARM GAS  /tmp/ccW6g9xV.s 			page 57


 3152 0051 00000000 		.4byte	0x0
 3153              		.section	.debug_pubtypes,"",%progbits
 3154 0000 9A010000 		.4byte	0x19a
 3155 0004 0200     		.2byte	0x2
 3156 0006 00000000 		.4byte	.Ldebug_info0
 3157 000a 6D090000 		.4byte	0x96d
 3158 000e 3E000000 		.4byte	0x3e
 3159 0012 75696E74 		.ascii	"uint8_t\000"
 3159      385F7400 
 3160 001a 5E000000 		.4byte	0x5e
 3161 001e 696E7433 		.ascii	"int32_t\000"
 3161      325F7400 
 3162 0026 70000000 		.4byte	0x70
 3163 002a 75696E74 		.ascii	"uint32_t\000"
 3163      33325F74 
 3163      00
 3164 0033 89000000 		.4byte	0x89
 3165 0037 75696E74 		.ascii	"uint64_t\000"
 3165      36345F74 
 3165      00
 3166 0040 9B000000 		.4byte	0x9b
 3167 0044 746D6F64 		.ascii	"tmode_t\000"
 3167      655F7400 
 3168 004c A6000000 		.4byte	0xa6
 3169 0050 74737461 		.ascii	"tstate_t\000"
 3169      74655F74 
 3169      00
 3170 0059 B1000000 		.4byte	0xb1
 3171 005d 74707269 		.ascii	"tprio_t\000"
 3171      6F5F7400 
 3172 0065 BC000000 		.4byte	0xbc
 3173 0069 6D73675F 		.ascii	"msg_t\000"
 3173      7400
 3174 006f C7000000 		.4byte	0xc7
 3175 0073 6576656E 		.ascii	"eventmask_t\000"
 3175      746D6173 
 3175      6B5F7400 
 3176 007f D2000000 		.4byte	0xd2
 3177 0083 73797374 		.ascii	"systime_t\000"
 3177      696D655F 
 3177      7400
 3178 008d DD000000 		.4byte	0xdd
 3179 0091 636E745F 		.ascii	"cnt_t\000"
 3179      7400
 3180 0097 E8000000 		.4byte	0xe8
 3181 009b 54687265 		.ascii	"Thread\000"
 3181      616400
 3182 00a2 27020000 		.4byte	0x227
 3183 00a6 54687265 		.ascii	"ThreadsQueue\000"
 3183      61647351 
 3183      75657565 
 3183      00
 3184 00b3 49020000 		.4byte	0x249
 3185 00b7 54687265 		.ascii	"ThreadsList\000"
 3185      6164734C 
 3185      69737400 
 3186 00c3 54020000 		.4byte	0x254
ARM GAS  /tmp/ccW6g9xV.s 			page 58


 3187 00c7 72656761 		.ascii	"regarm_t\000"
 3187      726D5F74 
 3187      00
 3188 00d0 61020000 		.4byte	0x261
 3189 00d4 73746B61 		.ascii	"stkalign_t\000"
 3189      6C69676E 
 3189      5F7400
 3190 00df 6C020000 		.4byte	0x26c
 3191 00e3 696E7463 		.ascii	"intctx\000"
 3191      747800
 3192 00ea F9020000 		.4byte	0x2f9
 3193 00ee 636F6E74 		.ascii	"context\000"
 3193      65787400 
 3194 00f6 1C030000 		.4byte	0x31c
 3195 00fa 76746675 		.ascii	"vtfunc_t\000"
 3195      6E635F74 
 3195      00
 3196 0103 39030000 		.4byte	0x339
 3197 0107 56697274 		.ascii	"VirtualTimer\000"
 3197      75616C54 
 3197      696D6572 
 3197      00
 3198 0114 44030000 		.4byte	0x344
 3199 0118 56697274 		.ascii	"VirtualTimer\000"
 3199      75616C54 
 3199      696D6572 
 3199      00
 3200 0125 E3030000 		.4byte	0x3e3
 3201 0129 56544C69 		.ascii	"VTList\000"
 3201      737400
 3202 0130 59040000 		.4byte	0x459
 3203 0134 52656164 		.ascii	"ReadyList\000"
 3203      794C6973 
 3203      7400
 3204 013e 64040000 		.4byte	0x464
 3205 0142 53656D61 		.ascii	"Semaphore\000"
 3205      70686F72 
 3205      6500
 3206 014c 8D040000 		.4byte	0x48d
 3207 0150 53656D61 		.ascii	"Semaphore\000"
 3207      70686F72 
 3207      6500
 3208 015a AF040000 		.4byte	0x4af
 3209 015e 42696E61 		.ascii	"BinarySemaphore\000"
 3209      72795365 
 3209      6D617068 
 3209      6F726500 
 3210 016e BA040000 		.4byte	0x4ba
 3211 0172 4D757465 		.ascii	"Mutex\000"
 3211      7800
 3212 0178 F7040000 		.4byte	0x4f7
 3213 017c 4D757465 		.ascii	"Mutex\000"
 3213      7800
 3214 0182 F3000000 		.4byte	0xf3
 3215 0186 54687265 		.ascii	"Thread\000"
 3215      616400
 3216 018d 55050000 		.4byte	0x555
ARM GAS  /tmp/ccW6g9xV.s 			page 59


 3217 0191 74657374 		.ascii	"testcase\000"
 3217      63617365 
 3217      00
 3218 019a 00000000 		.4byte	0x0
 3219              		.section	.debug_aranges,"",%progbits
 3220 0000 6C000000 		.4byte	0x6c
 3221 0004 0200     		.2byte	0x2
 3222 0006 00000000 		.4byte	.Ldebug_info0
 3223 000a 04       		.byte	0x4
 3224 000b 00       		.byte	0x0
 3225 000c 0000     		.2byte	0x0
 3226 000e 0000     		.2byte	0x0
 3227 0010 00000000 		.4byte	.LFB7
 3228 0014 14000000 		.4byte	.LFE7-.LFB7
 3229 0018 00000000 		.4byte	.LFB8
 3230 001c 24000000 		.4byte	.LFE8-.LFB8
 3231 0020 00000000 		.4byte	.LFB9
 3232 0024 8C010000 		.4byte	.LFE9-.LFB9
 3233 0028 00000000 		.4byte	.LFB10
 3234 002c 14000000 		.4byte	.LFE10-.LFB10
 3235 0030 00000000 		.4byte	.LFB11
 3236 0034 40000000 		.4byte	.LFE11-.LFB11
 3237 0038 00000000 		.4byte	.LFB12
 3238 003c D8010000 		.4byte	.LFE12-.LFB12
 3239 0040 00000000 		.4byte	.LFB13
 3240 0044 14000000 		.4byte	.LFE13-.LFB13
 3241 0048 00000000 		.4byte	.LFB14
 3242 004c 20000000 		.4byte	.LFE14-.LFB14
 3243 0050 00000000 		.4byte	.LFB15
 3244 0054 C8000000 		.4byte	.LFE15-.LFB15
 3245 0058 00000000 		.4byte	.LFB16
 3246 005c 3C000000 		.4byte	.LFE16-.LFB16
 3247 0060 00000000 		.4byte	.LFB17
 3248 0064 50010000 		.4byte	.LFE17-.LFB17
 3249 0068 00000000 		.4byte	0x0
 3250 006c 00000000 		.4byte	0x0
 3251              		.section	.debug_ranges,"",%progbits
 3252              	.Ldebug_ranges0:
 3253 0000 00000000 		.4byte	.LFB7
 3254 0004 14000000 		.4byte	.LFE7
 3255 0008 00000000 		.4byte	.LFB8
 3256 000c 24000000 		.4byte	.LFE8
 3257 0010 00000000 		.4byte	.LFB9
 3258 0014 8C010000 		.4byte	.LFE9
 3259 0018 00000000 		.4byte	.LFB10
 3260 001c 14000000 		.4byte	.LFE10
 3261 0020 00000000 		.4byte	.LFB11
 3262 0024 40000000 		.4byte	.LFE11
 3263 0028 00000000 		.4byte	.LFB12
 3264 002c D8010000 		.4byte	.LFE12
 3265 0030 00000000 		.4byte	.LFB13
 3266 0034 14000000 		.4byte	.LFE13
 3267 0038 00000000 		.4byte	.LFB14
 3268 003c 20000000 		.4byte	.LFE14
 3269 0040 00000000 		.4byte	.LFB15
 3270 0044 C8000000 		.4byte	.LFE15
 3271 0048 00000000 		.4byte	.LFB16
ARM GAS  /tmp/ccW6g9xV.s 			page 60


 3272 004c 3C000000 		.4byte	.LFE16
 3273 0050 00000000 		.4byte	.LFB17
 3274 0054 50010000 		.4byte	.LFE17
 3275 0058 00000000 		.4byte	0x0
 3276 005c 00000000 		.4byte	0x0
 3277              		.section	.debug_str,"MS",%progbits,1
 3278              	.LASF34:
 3279 0000 705F6D73 		.ascii	"p_msg\000"
 3279      6700
 3280              	.LASF70:
 3281 0006 7264796D 		.ascii	"rdymsg\000"
 3281      736700
 3282              	.LASF84:
 3283 000d 73656D31 		.ascii	"sem1_execute\000"
 3283      5F657865 
 3283      63757465 
 3283      00
 3284              	.LASF11:
 3285 001a 75696E74 		.ascii	"uint64_t\000"
 3285      36345F74 
 3285      00
 3286              	.LASF93:
 3287 0023 76746C69 		.ascii	"vtlist\000"
 3287      737400
 3288              	.LASF12:
 3289 002a 6C6F6E67 		.ascii	"long long unsigned int\000"
 3289      206C6F6E 
 3289      6720756E 
 3289      7369676E 
 3289      65642069 
 3290              	.LASF71:
 3291 0041 65786974 		.ascii	"exitcode\000"
 3291      636F6465 
 3291      00
 3292              	.LASF23:
 3293 004a 705F7072 		.ascii	"p_prio\000"
 3293      696F00
 3294              	.LASF10:
 3295 0051 6C6F6E67 		.ascii	"long long int\000"
 3295      206C6F6E 
 3295      6720696E 
 3295      7400
 3296              	.LASF1:
 3297 005f 7369676E 		.ascii	"signed char\000"
 3297      65642063 
 3297      68617200 
 3298              	.LASF67:
 3299 006b 6D5F7175 		.ascii	"m_queue\000"
 3299      65756500 
 3300              	.LASF88:
 3301 0073 74687265 		.ascii	"thread3\000"
 3301      61643300 
 3302              	.LASF85:
 3303 007b 73656D32 		.ascii	"sem2_execute\000"
 3303      5F657865 
 3303      63757465 
 3303      00
ARM GAS  /tmp/ccW6g9xV.s 			page 61


 3304              	.LASF7:
 3305 0088 6C6F6E67 		.ascii	"long int\000"
 3305      20696E74 
 3305      00
 3306              	.LASF86:
 3307 0091 74617267 		.ascii	"target_time\000"
 3307      65745F74 
 3307      696D6500 
 3308              	.LASF14:
 3309 009d 74737461 		.ascii	"tstate_t\000"
 3309      74655F74 
 3309      00
 3310              	.LASF25:
 3311 00a6 705F6E65 		.ascii	"p_newer\000"
 3311      77657200 
 3312              	.LASF62:
 3313 00ae 735F7175 		.ascii	"s_queue\000"
 3313      65756500 
 3314              	.LASF56:
 3315 00b6 725F6E65 		.ascii	"r_newer\000"
 3315      77657200 
 3316              	.LASF40:
 3317 00be 72656761 		.ascii	"regarm_t\000"
 3317      726D5F74 
 3317      00
 3318              	.LASF47:
 3319 00c7 76745F70 		.ascii	"vt_prev\000"
 3319      72657600 
 3320              	.LASF81:
 3321 00cf 73656D32 		.ascii	"sem2_setup\000"
 3321      5F736574 
 3321      757000
 3322              	.LASF96:
 3323 00da 73656D31 		.ascii	"sem1\000"
 3323      00
 3324              	.LASF19:
 3325 00df 636E745F 		.ascii	"cnt_t\000"
 3325      7400
 3326              	.LASF28:
 3327 00e5 705F7374 		.ascii	"p_stklimit\000"
 3327      6B6C696D 
 3327      697400
 3328              	.LASF0:
 3329 00f0 756E7369 		.ascii	"unsigned int\000"
 3329      676E6564 
 3329      20696E74 
 3329      00
 3330              	.LASF46:
 3331 00fd 76745F6E 		.ascii	"vt_next\000"
 3331      65787400 
 3332              	.LASF89:
 3333 0105 73656D33 		.ascii	"sem3_execute\000"
 3333      5F657865 
 3333      63757465 
 3333      00
 3334              	.LASF97:
 3335 0112 74657374 		.ascii	"testsem1\000"
ARM GAS  /tmp/ccW6g9xV.s 			page 62


 3335      73656D31 
 3335      00
 3336              	.LASF64:
 3337 011b 62735F73 		.ascii	"bs_sem\000"
 3337      656D00
 3338              	.LASF99:
 3339 0122 74657374 		.ascii	"testsem3\000"
 3339      73656D33 
 3339      00
 3340              	.LASF100:
 3341 012b 74657374 		.ascii	"testsem4\000"
 3341      73656D34 
 3341      00
 3342              	.LASF9:
 3343 0134 6C6F6E67 		.ascii	"long unsigned int\000"
 3343      20756E73 
 3343      69676E65 
 3343      6420696E 
 3343      7400
 3344              	.LASF78:
 3345 0146 74656172 		.ascii	"teardown\000"
 3345      646F776E 
 3345      00
 3346              	.LASF76:
 3347 014f 6E616D65 		.ascii	"name\000"
 3347      00
 3348              	.LASF63:
 3349 0154 735F636E 		.ascii	"s_cnt\000"
 3349      7400
 3350              	.LASF43:
 3351 015a 636F6E74 		.ascii	"context\000"
 3351      65787400 
 3352              	.LASF4:
 3353 0162 73686F72 		.ascii	"short unsigned int\000"
 3353      7420756E 
 3353      7369676E 
 3353      65642069 
 3353      6E7400
 3354              	.LASF92:
 3355 0175 6273656D 		.ascii	"bsem\000"
 3355      00
 3356              	.LASF16:
 3357 017a 6D73675F 		.ascii	"msg_t\000"
 3357      7400
 3358              	.LASF13:
 3359 0180 746D6F64 		.ascii	"tmode_t\000"
 3359      655F7400 
 3360              	.LASF39:
 3361 0188 54687265 		.ascii	"ThreadsList\000"
 3361      6164734C 
 3361      69737400 
 3362              	.LASF17:
 3363 0194 6576656E 		.ascii	"eventmask_t\000"
 3363      746D6173 
 3363      6B5F7400 
 3364              	.LASF66:
 3365 01a0 4D757465 		.ascii	"Mutex\000"
ARM GAS  /tmp/ccW6g9xV.s 			page 63


 3365      7800
 3366              	.LASF41:
 3367 01a6 73746B61 		.ascii	"stkalign_t\000"
 3367      6C69676E 
 3367      5F7400
 3368              	.LASF98:
 3369 01b1 74657374 		.ascii	"testsem2\000"
 3369      73656D32 
 3369      00
 3370              	.LASF91:
 3371 01ba 73656D34 		.ascii	"sem4_execute\000"
 3371      5F657865 
 3371      63757465 
 3371      00
 3372              	.LASF48:
 3373 01c7 76745F74 		.ascii	"vt_time\000"
 3373      696D6500 
 3374              	.LASF49:
 3375 01cf 76745F66 		.ascii	"vt_func\000"
 3375      756E6300 
 3376              	.LASF80:
 3377 01d7 73656D31 		.ascii	"sem1_setup\000"
 3377      5F736574 
 3377      757000
 3378              	.LASF26:
 3379 01e2 705F6F6C 		.ascii	"p_older\000"
 3379      64657200 
 3380              	.LASF82:
 3381 01ea 74687265 		.ascii	"thread1\000"
 3381      61643100 
 3382              	.LASF83:
 3383 01f2 74687265 		.ascii	"thread2\000"
 3383      61643200 
 3384              	.LASF55:
 3385 01fa 725F6374 		.ascii	"r_ctx\000"
 3385      7800
 3386              	.LASF90:
 3387 0200 74687265 		.ascii	"thread4\000"
 3387      61643400 
 3388              	.LASF38:
 3389 0208 54687265 		.ascii	"ThreadsQueue\000"
 3389      61647351 
 3389      75657565 
 3389      00
 3390              	.LASF77:
 3391 0215 73657475 		.ascii	"setup\000"
 3391      7000
 3392              	.LASF59:
 3393 021b 725F6375 		.ascii	"r_current\000"
 3393      7272656E 
 3393      7400
 3394              	.LASF57:
 3395 0225 725F6F6C 		.ascii	"r_older\000"
 3395      64657200 
 3396              	.LASF101:
 3397 022d 70617474 		.ascii	"patternsem\000"
 3397      65726E73 
ARM GAS  /tmp/ccW6g9xV.s 			page 64


 3397      656D00
 3398              	.LASF22:
 3399 0238 705F7072 		.ascii	"p_prev\000"
 3399      657600
 3400              	.LASF79:
 3401 023f 65786563 		.ascii	"execute\000"
 3401      75746500 
 3402              	.LASF15:
 3403 0247 74707269 		.ascii	"tprio_t\000"
 3403      6F5F7400 
 3404              	.LASF6:
 3405 024f 696E7433 		.ascii	"int32_t\000"
 3405      325F7400 
 3406              	.LASF2:
 3407 0257 756E7369 		.ascii	"unsigned char\000"
 3407      676E6564 
 3407      20636861 
 3407      7200
 3408              	.LASF36:
 3409 0265 705F6D74 		.ascii	"p_mtxlist\000"
 3409      786C6973 
 3409      7400
 3410              	.LASF3:
 3411 026f 73686F72 		.ascii	"short int\000"
 3411      7420696E 
 3411      7400
 3412              	.LASF29:
 3413 0279 705F7374 		.ascii	"p_state\000"
 3413      61746500 
 3414              	.LASF95:
 3415 0281 74687265 		.ascii	"threads\000"
 3415      61647300 
 3416              	.LASF54:
 3417 0289 725F7072 		.ascii	"r_prio\000"
 3417      696F00
 3418              	.LASF73:
 3419 0290 65776D61 		.ascii	"ewmask\000"
 3419      736B00
 3420              	.LASF21:
 3421 0297 705F6E65 		.ascii	"p_next\000"
 3421      787400
 3422              	.LASF103:
 3423 029e 2E2E2F63 		.ascii	"../chibios_2.4.x/test/testsem.c\000"
 3423      68696269 
 3423      6F735F32 
 3423      2E342E78 
 3423      2F746573 
 3424              	.LASF20:
 3425 02be 54687265 		.ascii	"Thread\000"
 3425      616400
 3426              	.LASF75:
 3427 02c5 74657374 		.ascii	"testcase\000"
 3427      63617365 
 3427      00
 3428              	.LASF35:
 3429 02ce 705F6570 		.ascii	"p_epending\000"
 3429      656E6469 
ARM GAS  /tmp/ccW6g9xV.s 			page 65


 3429      6E6700
 3430              	.LASF8:
 3431 02d9 75696E74 		.ascii	"uint32_t\000"
 3431      33325F74 
 3431      00
 3432              	.LASF53:
 3433 02e2 725F7175 		.ascii	"r_queue\000"
 3433      65756500 
 3434              	.LASF45:
 3435 02ea 56697274 		.ascii	"VirtualTimer\000"
 3435      75616C54 
 3435      696D6572 
 3435      00
 3436              	.LASF74:
 3437 02f7 63686172 		.ascii	"char\000"
 3437      00
 3438              	.LASF65:
 3439 02fc 42696E61 		.ascii	"BinarySemaphore\000"
 3439      72795365 
 3439      6D617068 
 3439      6F726500 
 3440              	.LASF69:
 3441 030c 6D5F6E65 		.ascii	"m_next\000"
 3441      787400
 3442              	.LASF18:
 3443 0313 73797374 		.ascii	"systime_t\000"
 3443      696D655F 
 3443      7400
 3444              	.LASF37:
 3445 031d 705F7265 		.ascii	"p_realprio\000"
 3445      616C7072 
 3445      696F00
 3446              	.LASF44:
 3447 0328 76746675 		.ascii	"vtfunc_t\000"
 3447      6E635F74 
 3447      00
 3448              	.LASF31:
 3449 0331 705F7469 		.ascii	"p_time\000"
 3449      6D6500
 3450              	.LASF42:
 3451 0338 696E7463 		.ascii	"intctx\000"
 3451      747800
 3452              	.LASF33:
 3453 033f 705F6D73 		.ascii	"p_msgqueue\000"
 3453      67717565 
 3453      756500
 3454              	.LASF50:
 3455 034a 76745F70 		.ascii	"vt_par\000"
 3455      617200
 3456              	.LASF61:
 3457 0351 53656D61 		.ascii	"Semaphore\000"
 3457      70686F72 
 3457      6500
 3458              	.LASF87:
 3459 035b 73656D33 		.ascii	"sem3_setup\000"
 3459      5F736574 
 3459      757000
ARM GAS  /tmp/ccW6g9xV.s 			page 66


 3460              	.LASF60:
 3461 0366 52656164 		.ascii	"ReadyList\000"
 3461      794C6973 
 3461      7400
 3462              	.LASF104:
 3463 0370 2F686F6D 		.ascii	"/home/z80/projects/voltamper.git/firmware/voltamp\000"
 3463      652F7A38 
 3463      302F7072 
 3463      6F6A6563 
 3463      74732F76 
 3464              	.LASF94:
 3465 03a2 726C6973 		.ascii	"rlist\000"
 3465      7400
 3466              	.LASF5:
 3467 03a8 75696E74 		.ascii	"uint8_t\000"
 3467      385F7400 
 3468              	.LASF72:
 3469 03b0 77746F62 		.ascii	"wtobjp\000"
 3469      6A7000
 3470              	.LASF102:
 3471 03b7 474E5520 		.ascii	"GNU C 4.5.2\000"
 3471      4320342E 
 3471      352E3200 
 3472              	.LASF27:
 3473 03c3 705F6E61 		.ascii	"p_name\000"
 3473      6D6500
 3474              	.LASF51:
 3475 03ca 76745F73 		.ascii	"vt_systime\000"
 3475      79737469 
 3475      6D6500
 3476              	.LASF30:
 3477 03d5 705F666C 		.ascii	"p_flags\000"
 3477      61677300 
 3478              	.LASF52:
 3479 03dd 56544C69 		.ascii	"VTList\000"
 3479      737400
 3480              	.LASF58:
 3481 03e4 725F7072 		.ascii	"r_preempt\000"
 3481      65656D70 
 3481      7400
 3482              	.LASF68:
 3483 03ee 6D5F6F77 		.ascii	"m_owner\000"
 3483      6E657200 
 3484              	.LASF24:
 3485 03f6 705F6374 		.ascii	"p_ctx\000"
 3485      7800
 3486              	.LASF32:
 3487 03fc 705F7761 		.ascii	"p_waiting\000"
 3487      6974696E 
 3487      6700
 3488              		.ident	"GCC: (Sourcery G++ Lite 2011.03-42) 4.5.2"
ARM GAS  /tmp/ccW6g9xV.s 			page 67


DEFINED SYMBOLS
                            *ABS*:00000000 testsem.c
     /tmp/ccW6g9xV.s:24     .data.sem1:00000000 $d
     /tmp/ccW6g9xV.s:27     .data.sem1:00000000 sem1
     /tmp/ccW6g9xV.s:32     .text.sem1_setup:00000000 $t
     /tmp/ccW6g9xV.s:37     .text.sem1_setup:00000000 sem1_setup
     /tmp/ccW6g9xV.s:58     .text.sem1_setup:00000010 $d
     /tmp/ccW6g9xV.s:63     .text.thread1:00000000 $t
     /tmp/ccW6g9xV.s:68     .text.thread1:00000000 thread1
     /tmp/ccW6g9xV.s:99     .text.thread1:00000020 $d
     /tmp/ccW6g9xV.s:104    .rodata:00000000 $d
     /tmp/ccW6g9xV.s:123    .text.sem1_execute:00000000 $t
     /tmp/ccW6g9xV.s:128    .text.sem1_execute:00000000 sem1_execute
     /tmp/ccW6g9xV.s:311    .text.sem1_execute:00000160 $d
     /tmp/ccW6g9xV.s:334    .rodata.testsem1:00000000 testsem1
     /tmp/ccW6g9xV.s:331    .rodata.testsem1:00000000 $d
     /tmp/ccW6g9xV.s:340    .text.sem2_setup:00000000 $t
     /tmp/ccW6g9xV.s:345    .text.sem2_setup:00000000 sem2_setup
     /tmp/ccW6g9xV.s:365    .text.sem2_setup:00000010 $d
     /tmp/ccW6g9xV.s:370    .text.thread2:00000000 $t
     /tmp/ccW6g9xV.s:375    .text.thread2:00000000 thread2
     /tmp/ccW6g9xV.s:424    .text.thread2:0000003c $d
     /tmp/ccW6g9xV.s:429    .text.sem2_execute:00000000 $t
     /tmp/ccW6g9xV.s:434    .text.sem2_execute:00000000 sem2_execute
     /tmp/ccW6g9xV.s:660    .text.sem2_execute:000001bc $d
     /tmp/ccW6g9xV.s:679    .rodata.testsem2:00000000 testsem2
     /tmp/ccW6g9xV.s:676    .rodata.testsem2:00000000 $d
     /tmp/ccW6g9xV.s:685    .text.sem3_setup:00000000 $t
     /tmp/ccW6g9xV.s:690    .text.sem3_setup:00000000 sem3_setup
     /tmp/ccW6g9xV.s:710    .text.sem3_setup:00000010 $d
     /tmp/ccW6g9xV.s:715    .text.thread3:00000000 $t
     /tmp/ccW6g9xV.s:720    .text.thread3:00000000 thread3
     /tmp/ccW6g9xV.s:749    .text.thread3:0000001c $d
     /tmp/ccW6g9xV.s:754    .text.sem3_execute:00000000 $t
     /tmp/ccW6g9xV.s:759    .text.sem3_execute:00000000 sem3_execute
     /tmp/ccW6g9xV.s:860    .text.sem3_execute:000000b4 $d
     /tmp/ccW6g9xV.s:877    .rodata.testsem3:00000000 testsem3
     /tmp/ccW6g9xV.s:874    .rodata.testsem3:00000000 $d
     /tmp/ccW6g9xV.s:883    .text.thread4:00000000 $t
     /tmp/ccW6g9xV.s:888    .text.thread4:00000000 thread4
     /tmp/ccW6g9xV.s:940    .text.sem4_execute:00000000 $t
     /tmp/ccW6g9xV.s:945    .text.sem4_execute:00000000 sem4_execute
     /tmp/ccW6g9xV.s:1128   .text.sem4_execute:00000140 $d
     /tmp/ccW6g9xV.s:1144   .rodata.testsem4:00000000 testsem4
     /tmp/ccW6g9xV.s:1141   .rodata.testsem4:00000000 $d
     /tmp/ccW6g9xV.s:1154   .rodata.patternsem:00000000 patternsem
     /tmp/ccW6g9xV.s:1151   .rodata.patternsem:00000000 $d
                     .debug_frame:00000010 $d
     /tmp/ccW6g9xV.s:62     .text.sem1_setup:00000014 $t
     /tmp/ccW6g9xV.s:103    .text.thread1:00000024 $t
     /tmp/ccW6g9xV.s:326    .text.sem1_execute:0000018c $t
     /tmp/ccW6g9xV.s:369    .text.sem2_setup:00000014 $t
     /tmp/ccW6g9xV.s:671    .text.sem2_execute:000001d8 $t
     /tmp/ccW6g9xV.s:714    .text.sem3_setup:00000014 $t
     /tmp/ccW6g9xV.s:869    .text.sem3_execute:000000c8 $t

UNDEFINED SYMBOLS
ARM GAS  /tmp/ccW6g9xV.s 			page 68


chSemInit
chSemWait
test_emit_token
chThdCreateStatic
chSemSignal
test_wait_threads
_test_assert_sequence
dbg_check_lock
chSemAddCounterI
dbg_check_unlock
_test_assert
wa
rlist
threads
chThdSleep
chSemSignalI
chSchRescheduleS
chSemWaitTimeout
test_wait_tick
_test_assert_time_window
vtlist
chSemSignalWait
chSemReset
