ARM GAS  C:\Users\z80\AppData\Local\Temp\cc7zWIaO.s 			page 1


   1              		.syntax unified
   2              		.cpu cortex-m3
   3              		.fpu softvfp
   4              		.eabi_attribute 20, 1
   5              		.eabi_attribute 21, 1
   6              		.eabi_attribute 23, 3
   7              		.eabi_attribute 24, 1
   8              		.eabi_attribute 25, 1
   9              		.eabi_attribute 26, 1
  10              		.eabi_attribute 30, 2
  11              		.eabi_attribute 18, 4
  12              		.thumb
  13              		.file	"testmsg.c"
  20 0000 5F010000 		.text
  20      02002001 
  20      00000201 
  20      FB0E0D00 
  20      01010101 
  21              	.Ltext0:
  22              		.cfi_sections	.debug_frame
  23              		.section	.text.msg1_execute,"ax",%progbits
  24              		.align	2
  25              		.p2align 4,,15
  26              		.thumb
  27              		.thumb_func
  28              		.type	msg1_execute, %function
  29              	msg1_execute:
  30              	.LFB8:
  31              		.file 1 "../chibios_2.4.x/test/testmsg.c"
  32              		.loc 1 78 0
  33              		.cfi_startproc
  34              		@ args = 0, pretend = 0, frame = 0
  35              		@ frame_needed = 0, uses_anonymous_args = 0
  36 0000 10B5     		push	{r4, lr}
  37              	.LCFI0:
  38              		.cfi_def_cfa_offset 8
  39              		.loc 1 85 0
  40 0002 40F20003 		movw	r3, #:lower16:rlist
  41 0006 C0F20003 		movt	r3, #:upper16:rlist
  42 000a D969     		ldr	r1, [r3, #28]
  43 000c 40F20003 		movw	r3, #:lower16:wa
  44 0010 8A68     		ldr	r2, [r1, #8]
  45 0012 C0F20003 		movt	r3, #:upper16:wa
  46              		.loc 1 78 0
  47 0016 82B0     		sub	sp, sp, #8
  48              	.LCFI1:
  49              		.cfi_def_cfa_offset 16
  50              		.loc 1 85 0
  51 0018 1868     		ldr	r0, [r3, #0]
  52 001a 40F20003 		movw	r3, #:lower16:thread
  53 001e 0132     		adds	r2, r2, #1
ARM GAS  C:\Users\z80\AppData\Local\Temp\cc7zWIaO.s 			page 2


  54 0020 0091     		str	r1, [sp, #0]
  55 0022 C0F20003 		movt	r3, #:upper16:thread
  56 0026 4FF49871 		mov	r1, #304
  57              		.cfi_offset 14, -4
  58              		.cfi_offset 4, -8
  59 002a FFF7FEFF 		bl	chThdCreateStatic
  60 002e 40F20003 		movw	r3, #:lower16:threads
  61 0032 C0F20003 		movt	r3, #:upper16:threads
  62 0036 1860     		str	r0, [r3, #0]
  63              		.loc 1 87 0
  64 0038 FFF7FEFF 		bl	chMsgWait
  65              	.LVL0:
  66              		.loc 1 88 0
  67 003c 846B     		ldr	r4, [r0, #56]
  68              	.LVL1:
  69              		.loc 1 89 0
  70 003e 2146     		mov	r1, r4
  71 0040 FFF7FEFF 		bl	chMsgRelease
  72              	.LVL2:
  73              		.loc 1 90 0
  74 0044 E0B2     		uxtb	r0, r4
  75 0046 FFF7FEFF 		bl	test_emit_token
  76              		.loc 1 91 0
  77 004a FFF7FEFF 		bl	chMsgWait
  78              	.LVL3:
  79              		.loc 1 92 0
  80 004e 846B     		ldr	r4, [r0, #56]
  81              	.LVL4:
  82              		.loc 1 93 0
  83 0050 2146     		mov	r1, r4
  84 0052 FFF7FEFF 		bl	chMsgRelease
  85              	.LVL5:
  86              		.loc 1 94 0
  87 0056 E0B2     		uxtb	r0, r4
  88 0058 FFF7FEFF 		bl	test_emit_token
  89              		.loc 1 95 0
  90 005c FFF7FEFF 		bl	chMsgWait
  91              	.LVL6:
  92              		.loc 1 96 0
  93 0060 846B     		ldr	r4, [r0, #56]
  94              	.LVL7:
  95              		.loc 1 97 0
  96 0062 2146     		mov	r1, r4
  97 0064 FFF7FEFF 		bl	chMsgRelease
  98              	.LVL8:
  99              		.loc 1 98 0
 100 0068 E0B2     		uxtb	r0, r4
 101 006a FFF7FEFF 		bl	test_emit_token
 102              		.loc 1 99 0
 103 006e 40F20001 		movw	r1, #:lower16:.LC0
 104 0072 C0F20001 		movt	r1, #:upper16:.LC0
 105 0076 0120     		movs	r0, #1
 106 0078 FFF7FEFF 		bl	_test_assert_sequence
 107              		.loc 1 100 0
 108 007c 02B0     		add	sp, sp, #8
 109 007e 10BD     		pop	{r4, pc}
 110              		.cfi_endproc
ARM GAS  C:\Users\z80\AppData\Local\Temp\cc7zWIaO.s 			page 3


 111              	.LFE8:
 112              		.size	msg1_execute, .-msg1_execute
 113              		.section	.text.thread,"ax",%progbits
 114              		.align	2
 115              		.p2align 4,,15
 116              		.thumb
 117              		.thumb_func
 118              		.type	thread, %function
 119              	thread:
 120              	.LFB7:
 121              		.loc 1 70 0
 122              		.cfi_startproc
 123              		@ args = 0, pretend = 0, frame = 0
 124              		@ frame_needed = 0, uses_anonymous_args = 0
 125              	.LVL9:
 126 0000 10B5     		push	{r4, lr}
 127              	.LCFI2:
 128              		.cfi_def_cfa_offset 8
 129              		.loc 1 72 0
 130 0002 4121     		movs	r1, #65
 131              		.loc 1 70 0
 132 0004 0446     		mov	r4, r0
 133              		.cfi_offset 14, -4
 134              		.cfi_offset 4, -8
 135              		.loc 1 72 0
 136 0006 FFF7FEFF 		bl	chMsgSend
 137              	.LVL10:
 138              		.loc 1 73 0
 139 000a 4221     		movs	r1, #66
 140 000c 2046     		mov	r0, r4
 141 000e FFF7FEFF 		bl	chMsgSend
 142              		.loc 1 74 0
 143 0012 2046     		mov	r0, r4
 144 0014 4321     		movs	r1, #67
 145 0016 FFF7FEFF 		bl	chMsgSend
 146              		.loc 1 76 0
 147 001a 0020     		movs	r0, #0
 148 001c 10BD     		pop	{r4, pc}
 149              		.cfi_endproc
 150              	.LFE7:
 151              		.size	thread, .-thread
 152              		.global	testmsg1
 153              		.global	patternmsg
 154 001e 00BF     		.section	.rodata.testmsg1,"a",%progbits
 155              		.align	2
 156              		.type	testmsg1, %object
 157              		.size	testmsg1, 16
 158              	testmsg1:
 159 0000 04000000 		.word	.LC1
 160 0004 00000000 		.word	0
 161 0008 00000000 		.word	0
 162 000c 00000000 		.word	msg1_execute
 163              		.section	.rodata.str1.4,"aMS",%progbits,1
 164              		.align	2
 165              	.LC0:
 166 0000 41424300 		.ascii	"ABC\000"
 167              	.LC1:
ARM GAS  C:\Users\z80\AppData\Local\Temp\cc7zWIaO.s 			page 4


 168 0004 4D657373 		.ascii	"Messages, loop\000"
 168      61676573 
 168      2C206C6F 
 168      6F7000
 169 0013 00       		.section	.rodata.patternmsg,"a",%progbits
 170              		.align	2
 171              		.type	patternmsg, %object
 172              		.size	patternmsg, 8
 173              	patternmsg:
 174 0000 00000000 		.word	testmsg1
 175 0004 00000000 		.word	0
 176              		.text
 177              	.Letext0: