ARM GAS  C:\Users\z80\AppData\Local\Temp\cc6Nwez1.s 			page 1


   1              		.syntax unified
   2              		.cpu cortex-m3
   3              		.fpu softvfp
   4              		.eabi_attribute 20, 1
   5              		.eabi_attribute 21, 1
   6              		.eabi_attribute 23, 3
   7              		.eabi_attribute 24, 1
   8              		.eabi_attribute 25, 1
   9              		.eabi_attribute 26, 1
  10              		.eabi_attribute 30, 2
  11              		.eabi_attribute 18, 4
  12              		.thumb
  13              		.file	"testpools.c"
  14              		.section	.debug_abbrev,"",%progbits
  15              	.Ldebug_abbrev0:
  16              		.section	.debug_info,"",%progbits
  17              	.Ldebug_info0:
  18              		.section	.debug_line,"",%progbits
  19              	.Ldebug_line0:
  20 0000 1F010000 		.text
  20      0200CF00 
  20      00000201 
  20      FB0E0D00 
  20      01010101 
  21              	.Ltext0:
  22              		.cfi_sections	.debug_frame
  23              		.section	.text.null_provider,"ax",%progbits
  24              		.align	2
  25              		.p2align 4,,15
  26              		.thumb
  27              		.thumb_func
  28              		.type	null_provider, %function
  29              	null_provider:
  30              	.LFB7:
  31              		.file 1 "../chibios_2.4.x/test/testpools.c"
  32              		.loc 1 71 0
  33              		.cfi_startproc
  34              		@ args = 0, pretend = 0, frame = 0
  35              		@ frame_needed = 0, uses_anonymous_args = 0
  36              		@ link register save eliminated.
  37              	.LVL0:
  38              		.loc 1 75 0
  39 0000 0020     		movs	r0, #0
  40              	.LVL1:
  41 0002 7047     		bx	lr
  42              		.cfi_endproc
  43              	.LFE7:
  44              		.size	null_provider, .-null_provider
  45 0004 AFF30080 		.section	.text.pools1_execute,"ax",%progbits
  45      AFF30080 
  45      AFF30080 
  46              		.align	2
  47              		.p2align 4,,15
  48              		.thumb
  49              		.thumb_func
  50              		.type	pools1_execute, %function
  51              	pools1_execute:
ARM GAS  C:\Users\z80\AppData\Local\Temp\cc6Nwez1.s 			page 2


  52              	.LFB9:
  53              		.loc 1 82 0
  54              		.cfi_startproc
  55              		@ args = 0, pretend = 0, frame = 0
  56              		@ frame_needed = 0, uses_anonymous_args = 0
  57              	.LVL2:
  58 0000 38B5     		push	{r3, r4, r5, lr}
  59              	.LCFI0:
  60              		.cfi_def_cfa_offset 16
  61              		.loc 1 86 0
  62 0002 1A4C     		ldr	r4, .L10
  63              		.cfi_offset 14, -4
  64              		.cfi_offset 5, -8
  65              		.cfi_offset 4, -12
  66              		.cfi_offset 3, -16
  67              		.loc 1 82 0
  68 0004 04F11405 		add	r5, r4, #20
  69              	.LVL3:
  70              	.L3:
  71              		.loc 1 87 0 discriminator 2
  72 0008 54F8041B 		ldr	r1, [r4], #4
  73 000c 1848     		ldr	r0, .L10+4
  74 000e FFF7FEFF 		bl	chPoolFree
  75              		.loc 1 86 0 discriminator 2
  76 0012 AC42     		cmp	r4, r5
  77 0014 F8D1     		bne	.L3
  78              		.loc 1 86 0 is_stmt 0
  79 0016 0524     		movs	r4, #5
  80              	.L5:
  81              		.loc 1 91 0 is_stmt 1
  82 0018 1548     		ldr	r0, .L10+4
  83 001a FFF7FEFF 		bl	chPoolAlloc
  84 001e 011E     		subs	r1, r0, #0
  85 0020 18BF     		it	ne
  86 0022 0121     		movne	r1, #1
  87 0024 0120     		movs	r0, #1
  88 0026 FFF7FEFF 		bl	_test_assert
  89 002a 68B9     		cbnz	r0, .L2
  90              		.loc 1 90 0
  91 002c 14F1FF34 		adds	r4, r4, #-1
  92 0030 F2D1     		bne	.L5
  93              		.loc 1 94 0
  94 0032 0F48     		ldr	r0, .L10+4
  95 0034 FFF7FEFF 		bl	chPoolAlloc
  96 0038 D0F10101 		rsbs	r1, r0, #1
  97 003c 38BF     		it	cc
  98 003e 0021     		movcc	r1, #0
  99 0040 0220     		movs	r0, #2
 100 0042 FFF7FEFF 		bl	_test_assert
 101 0046 00B1     		cbz	r0, .L9
 102              	.L2:
 103              		.loc 1 99 0
 104 0048 38BD     		pop	{r3, r4, r5, pc}
 105              	.L9:
 106              		.loc 1 97 0
 107 004a 1021     		movs	r1, #16
 108 004c 094A     		ldr	r2, .L10+8
ARM GAS  C:\Users\z80\AppData\Local\Temp\cc6Nwez1.s 			page 3


 109 004e 0848     		ldr	r0, .L10+4
 110 0050 FFF7FEFF 		bl	chPoolInit
 111              		.loc 1 98 0
 112 0054 0648     		ldr	r0, .L10+4
 113 0056 FFF7FEFF 		bl	chPoolAlloc
 114 005a D0F10101 		rsbs	r1, r0, #1
 115 005e 38BF     		it	cc
 116 0060 0021     		movcc	r1, #0
 117 0062 0320     		movs	r0, #3
 118 0064 FFF7FEFF 		bl	_test_assert
 119 0068 EEE7     		b	.L2
 120              	.L11:
 121 006a 00BF     		.align	2
 122              	.L10:
 123 006c 00000000 		.word	wa
 124 0070 00000000 		.word	.LANCHOR0
 125 0074 00000000 		.word	null_provider
 126              		.cfi_endproc
 127              	.LFE9:
 128              		.size	pools1_execute, .-pools1_execute
 129 0078 AFF30080 		.section	.text.pools1_setup,"ax",%progbits
 129      AFF30080 
 130              		.align	2
 131              		.p2align 4,,15
 132              		.thumb
 133              		.thumb_func
 134              		.type	pools1_setup, %function
 135              	pools1_setup:
 136              	.LFB8:
 137              		.loc 1 77 0
 138              		.cfi_startproc
 139              		@ args = 0, pretend = 0, frame = 0
 140              		@ frame_needed = 0, uses_anonymous_args = 0
 141              		.loc 1 79 0
 142 0000 40F20000 		movw	r0, #:lower16:.LANCHOR0
 143              		.loc 1 77 0
 144 0004 08B5     		push	{r3, lr}
 145              	.LCFI1:
 146              		.cfi_def_cfa_offset 8
 147              		.loc 1 79 0
 148 0006 C0F20000 		movt	r0, #:upper16:.LANCHOR0
 149 000a 4FF49871 		mov	r1, #304
 150 000e 0022     		movs	r2, #0
 151              		.cfi_offset 14, -4
 152              		.cfi_offset 3, -8
 153 0010 FFF7FEFF 		bl	chPoolInit
 154              		.loc 1 80 0
 155 0014 08BD     		pop	{r3, pc}
 156              		.cfi_endproc
 157              	.LFE8:
 158              		.size	pools1_setup, .-pools1_setup
 159              		.global	testpools1
 160              		.global	patternpools
 161 0016 00BFAFF3 		.section	.rodata.str1.4,"aMS",%progbits,1
 161      0080AFF3 
 161      0080
 162              		.align	2
ARM GAS  C:\Users\z80\AppData\Local\Temp\cc6Nwez1.s 			page 4


 163              	.LC0:
 164 0000 4D656D6F 		.ascii	"Memory Pools, queue/dequeue\000"
 164      72792050 
 164      6F6F6C73 
 164      2C207175 
 164      6575652F 
 165              		.section	.rodata.patternpools,"a",%progbits
 166              		.align	2
 167              		.type	patternpools, %object
 168              		.size	patternpools, 8
 169              	patternpools:
 170 0000 00000000 		.word	testpools1
 171 0004 00000000 		.word	0
 172              		.section	.data.mp1,"aw",%progbits
 173              		.align	2
 174              		.set	.LANCHOR0,. + 0
 175              		.type	mp1, %object
 176              		.size	mp1, 12
 177              	mp1:
 178 0000 00000000 		.word	0
 179 0004 30010000 		.word	304
 180 0008 00000000 		.word	0
 181              		.section	.rodata.testpools1,"a",%progbits
 182              		.align	2
 183              		.type	testpools1, %object
 184              		.size	testpools1, 16
 185              	testpools1:
 186 0000 00000000 		.word	.LC0
 187 0004 00000000 		.word	pools1_setup
 188 0008 00000000 		.word	0
 189 000c 00000000 		.word	pools1_execute
 190              		.text
 191              	.Letext0:
 192              		.section	.debug_loc,"",%progbits
 193              	.Ldebug_loc0:
 194              	.LLST0:
 195 0000 00000000 		.4byte	.LVL0
 196 0004 02000000 		.4byte	.LVL1
 197 0008 0100     		.2byte	0x1
 198 000a 50       		.byte	0x50
 199 000b 00000000 		.4byte	0x0
 200 000f 00000000 		.4byte	0x0
 201              	.LLST1:
 202 0013 00000000 		.4byte	.LFB9
 203 0017 02000000 		.4byte	.LCFI0
 204 001b 0200     		.2byte	0x2
 205 001d 7D       		.byte	0x7d
 206 001e 00       		.sleb128 0
 207 001f 02000000 		.4byte	.LCFI0
 208 0023 78000000 		.4byte	.LFE9
 209 0027 0200     		.2byte	0x2
 210 0029 7D       		.byte	0x7d
 211 002a 10       		.sleb128 16
 212 002b 00000000 		.4byte	0x0
 213 002f 00000000 		.4byte	0x0
 214              	.LLST2:
 215 0033 00000000 		.4byte	.LVL2
ARM GAS  C:\Users\z80\AppData\Local\Temp\cc6Nwez1.s 			page 5


 216 0037 08000000 		.4byte	.LVL3
 217 003b 0200     		.2byte	0x2
 218 003d 30       		.byte	0x30
 219 003e 9F       		.byte	0x9f
 220 003f 00000000 		.4byte	0x0
 221 0043 00000000 		.4byte	0x0
 222              	.LLST3:
 223 0047 00000000 		.4byte	.LFB8
 224 004b 06000000 		.4byte	.LCFI1
 225 004f 0200     		.2byte	0x2
 226 0051 7D       		.byte	0x7d
 227 0052 00       		.sleb128 0
 228 0053 06000000 		.4byte	.LCFI1
 229 0057 16000000 		.4byte	.LFE8
 230 005b 0200     		.2byte	0x2
 231 005d 7D       		.byte	0x7d
 232 005e 08       		.sleb128 8
 233 005f 00000000 		.4byte	0x0
 234 0063 00000000 		.4byte	0x0
 235              		.file 2 "c:\\programs\\yagarto\\bin\\../lib/gcc/arm-none-eabi/4.5.0/include/stddef.h"
 236              		.file 3 "../chibios_2.4.x/os/kernel/include/chmemcore.h"
 237              		.file 4 "../chibios_2.4.x/os/kernel/include/chmempools.h"
 238              		.file 5 "../chibios_2.4.x/test/test.h"
 239              		.section	.debug_info
 240 0000 4F020000 		.4byte	0x24f
 241 0004 0200     		.2byte	0x2
 242 0006 00000000 		.4byte	.Ldebug_abbrev0
 243 000a 04       		.byte	0x4
 244 000b 01       		.uleb128 0x1
 245 000c C6000000 		.4byte	.LASF25
 246 0010 01       		.byte	0x1
 247 0011 5A000000 		.4byte	.LASF26
 248 0015 4A010000 		.4byte	.LASF27
 249 0019 00000000 		.4byte	0x0
 250 001d 00000000 		.4byte	0x0
 251 0021 00000000 		.4byte	.Ldebug_ranges0+0x0
 252 0025 00000000 		.4byte	.Ldebug_line0
 253 0029 02       		.uleb128 0x2
 254 002a 04       		.byte	0x4
 255 002b 05       		.byte	0x5
 256 002c 696E7400 		.ascii	"int\000"
 257 0030 03       		.uleb128 0x3
 258 0031 00000000 		.4byte	.LASF9
 259 0035 02       		.byte	0x2
 260 0036 D3       		.byte	0xd3
 261 0037 3B000000 		.4byte	0x3b
 262 003b 04       		.uleb128 0x4
 263 003c 04       		.byte	0x4
 264 003d 07       		.byte	0x7
 265 003e E8000000 		.4byte	.LASF0
 266 0042 04       		.uleb128 0x4
 267 0043 01       		.byte	0x1
 268 0044 06       		.byte	0x6
 269 0045 83010000 		.4byte	.LASF1
 270 0049 04       		.uleb128 0x4
 271 004a 01       		.byte	0x1
 272 004b 08       		.byte	0x8
ARM GAS  C:\Users\z80\AppData\Local\Temp\cc6Nwez1.s 			page 6


 273 004c B8000000 		.4byte	.LASF2
 274 0050 04       		.uleb128 0x4
 275 0051 02       		.byte	0x2
 276 0052 05       		.byte	0x5
 277 0053 40010000 		.4byte	.LASF3
 278 0057 04       		.uleb128 0x4
 279 0058 02       		.byte	0x2
 280 0059 07       		.byte	0x7
 281 005a 97000000 		.4byte	.LASF4
 282 005e 04       		.uleb128 0x4
 283 005f 04       		.byte	0x4
 284 0060 05       		.byte	0x5
 285 0061 75010000 		.4byte	.LASF5
 286 0065 04       		.uleb128 0x4
 287 0066 04       		.byte	0x4
 288 0067 07       		.byte	0x7
 289 0068 7C000000 		.4byte	.LASF6
 290 006c 04       		.uleb128 0x4
 291 006d 08       		.byte	0x8
 292 006e 05       		.byte	0x5
 293 006f 14010000 		.4byte	.LASF7
 294 0073 04       		.uleb128 0x4
 295 0074 08       		.byte	0x8
 296 0075 07       		.byte	0x7
 297 0076 F5000000 		.4byte	.LASF8
 298 007a 05       		.uleb128 0x5
 299 007b 04       		.byte	0x4
 300 007c 06       		.uleb128 0x6
 301 007d 04       		.byte	0x4
 302 007e 07       		.byte	0x7
 303 007f 03       		.uleb128 0x3
 304 0080 27010000 		.4byte	.LASF10
 305 0084 03       		.byte	0x3
 306 0085 2C       		.byte	0x2c
 307 0086 8A000000 		.4byte	0x8a
 308 008a 07       		.uleb128 0x7
 309 008b 04       		.byte	0x4
 310 008c 90000000 		.4byte	0x90
 311 0090 08       		.uleb128 0x8
 312 0091 01       		.byte	0x1
 313 0092 7A000000 		.4byte	0x7a
 314 0096 A0000000 		.4byte	0xa0
 315 009a 09       		.uleb128 0x9
 316 009b 30000000 		.4byte	0x30
 317 009f 00       		.byte	0x0
 318 00a0 0A       		.uleb128 0xa
 319 00a1 3A000000 		.4byte	.LASF17
 320 00a5 04       		.byte	0x4
 321 00a6 04       		.byte	0x4
 322 00a7 2C       		.byte	0x2c
 323 00a8 BB000000 		.4byte	0xbb
 324 00ac 0B       		.uleb128 0xb
 325 00ad 0C010000 		.4byte	.LASF11
 326 00b1 04       		.byte	0x4
 327 00b2 2D       		.byte	0x2d
 328 00b3 BB000000 		.4byte	0xbb
 329 00b7 02       		.byte	0x2
ARM GAS  C:\Users\z80\AppData\Local\Temp\cc6Nwez1.s 			page 7


 330 00b8 23       		.byte	0x23
 331 00b9 00       		.uleb128 0x0
 332 00ba 00       		.byte	0x0
 333 00bb 07       		.uleb128 0x7
 334 00bc 04       		.byte	0x4
 335 00bd A0000000 		.4byte	0xa0
 336 00c1 0C       		.uleb128 0xc
 337 00c2 0C       		.byte	0xc
 338 00c3 04       		.byte	0x4
 339 00c4 34       		.byte	0x34
 340 00c5 F4000000 		.4byte	0xf4
 341 00c9 0B       		.uleb128 0xb
 342 00ca 8F010000 		.4byte	.LASF12
 343 00ce 04       		.byte	0x4
 344 00cf 35       		.byte	0x35
 345 00d0 BB000000 		.4byte	0xbb
 346 00d4 02       		.byte	0x2
 347 00d5 23       		.byte	0x23
 348 00d6 00       		.uleb128 0x0
 349 00d7 0B       		.uleb128 0xb
 350 00d8 1A000000 		.4byte	.LASF13
 351 00dc 04       		.byte	0x4
 352 00dd 36       		.byte	0x36
 353 00de 30000000 		.4byte	0x30
 354 00e2 02       		.byte	0x2
 355 00e3 23       		.byte	0x23
 356 00e4 04       		.uleb128 0x4
 357 00e5 0B       		.uleb128 0xb
 358 00e6 34010000 		.4byte	.LASF14
 359 00ea 04       		.byte	0x4
 360 00eb 38       		.byte	0x38
 361 00ec 7F000000 		.4byte	0x7f
 362 00f0 02       		.byte	0x2
 363 00f1 23       		.byte	0x23
 364 00f2 08       		.uleb128 0x8
 365 00f3 00       		.byte	0x0
 366 00f4 03       		.uleb128 0x3
 367 00f5 D2000000 		.4byte	.LASF15
 368 00f9 04       		.byte	0x4
 369 00fa 3A       		.byte	0x3a
 370 00fb C1000000 		.4byte	0xc1
 371 00ff 07       		.uleb128 0x7
 372 0100 04       		.byte	0x4
 373 0101 05010000 		.4byte	0x105
 374 0105 0D       		.uleb128 0xd
 375 0106 0A010000 		.4byte	0x10a
 376 010a 04       		.uleb128 0x4
 377 010b 01       		.byte	0x1
 378 010c 08       		.byte	0x8
 379 010d 7E010000 		.4byte	.LASF16
 380 0111 0A       		.uleb128 0xa
 381 0112 31000000 		.4byte	.LASF18
 382 0116 10       		.byte	0x10
 383 0117 05       		.byte	0x5
 384 0118 46       		.byte	0x46
 385 0119 56010000 		.4byte	0x156
 386 011d 0B       		.uleb128 0xb
ARM GAS  C:\Users\z80\AppData\Local\Temp\cc6Nwez1.s 			page 8


 387 011e 22010000 		.4byte	.LASF19
 388 0122 05       		.byte	0x5
 389 0123 47       		.byte	0x47
 390 0124 FF000000 		.4byte	0xff
 391 0128 02       		.byte	0x2
 392 0129 23       		.byte	0x23
 393 012a 00       		.uleb128 0x0
 394 012b 0B       		.uleb128 0xb
 395 012c 14000000 		.4byte	.LASF20
 396 0130 05       		.byte	0x5
 397 0131 48       		.byte	0x48
 398 0132 58010000 		.4byte	0x158
 399 0136 02       		.byte	0x2
 400 0137 23       		.byte	0x23
 401 0138 04       		.uleb128 0x4
 402 0139 0B       		.uleb128 0xb
 403 013a 8E000000 		.4byte	.LASF21
 404 013e 05       		.byte	0x5
 405 013f 49       		.byte	0x49
 406 0140 58010000 		.4byte	0x158
 407 0144 02       		.byte	0x2
 408 0145 23       		.byte	0x23
 409 0146 08       		.uleb128 0x8
 410 0147 0B       		.uleb128 0xb
 411 0148 29000000 		.4byte	.LASF22
 412 014c 05       		.byte	0x5
 413 014d 4A       		.byte	0x4a
 414 014e 58010000 		.4byte	0x158
 415 0152 02       		.byte	0x2
 416 0153 23       		.byte	0x23
 417 0154 0C       		.uleb128 0xc
 418 0155 00       		.byte	0x0
 419 0156 0E       		.uleb128 0xe
 420 0157 01       		.byte	0x1
 421 0158 07       		.uleb128 0x7
 422 0159 04       		.byte	0x4
 423 015a 56010000 		.4byte	0x156
 424 015e 0F       		.uleb128 0xf
 425 015f AA000000 		.4byte	.LASF28
 426 0163 01       		.byte	0x1
 427 0164 47       		.byte	0x47
 428 0165 01       		.byte	0x1
 429 0166 7A000000 		.4byte	0x7a
 430 016a 00000000 		.4byte	.LFB7
 431 016e 04000000 		.4byte	.LFE7
 432 0172 02       		.byte	0x2
 433 0173 7D       		.byte	0x7d
 434 0174 00       		.sleb128 0
 435 0175 89010000 		.4byte	0x189
 436 0179 10       		.uleb128 0x10
 437 017a 55000000 		.4byte	.LASF29
 438 017e 01       		.byte	0x1
 439 017f 47       		.byte	0x47
 440 0180 30000000 		.4byte	0x30
 441 0184 00000000 		.4byte	.LLST0
 442 0188 00       		.byte	0x0
 443 0189 11       		.uleb128 0x11
ARM GAS  C:\Users\z80\AppData\Local\Temp\cc6Nwez1.s 			page 9


 444 018a 46000000 		.4byte	.LASF30
 445 018e 01       		.byte	0x1
 446 018f 52       		.byte	0x52
 447 0190 01       		.byte	0x1
 448 0191 00000000 		.4byte	.LFB9
 449 0195 78000000 		.4byte	.LFE9
 450 0199 13000000 		.4byte	.LLST1
 451 019d AF010000 		.4byte	0x1af
 452 01a1 12       		.uleb128 0x12
 453 01a2 6900     		.ascii	"i\000"
 454 01a4 01       		.byte	0x1
 455 01a5 53       		.byte	0x53
 456 01a6 29000000 		.4byte	0x29
 457 01aa 33000000 		.4byte	.LLST2
 458 01ae 00       		.byte	0x0
 459 01af 13       		.uleb128 0x13
 460 01b0 07000000 		.4byte	.LASF31
 461 01b4 01       		.byte	0x1
 462 01b5 4D       		.byte	0x4d
 463 01b6 01       		.byte	0x1
 464 01b7 00000000 		.4byte	.LFB8
 465 01bb 16000000 		.4byte	.LFE8
 466 01bf 47000000 		.4byte	.LLST3
 467 01c3 14       		.uleb128 0x14
 468 01c4 7A000000 		.4byte	0x7a
 469 01c8 CE010000 		.4byte	0x1ce
 470 01cc 15       		.uleb128 0x15
 471 01cd 00       		.byte	0x0
 472 01ce 16       		.uleb128 0x16
 473 01cf 776100   		.ascii	"wa\000"
 474 01d2 05       		.byte	0x5
 475 01d3 B2       		.byte	0xb2
 476 01d4 DA010000 		.4byte	0x1da
 477 01d8 01       		.byte	0x1
 478 01d9 01       		.byte	0x1
 479 01da 0D       		.uleb128 0xd
 480 01db C3010000 		.4byte	0x1c3
 481 01df 17       		.uleb128 0x17
 482 01e0 6D703100 		.ascii	"mp1\000"
 483 01e4 01       		.byte	0x1
 484 01e5 3C       		.byte	0x3c
 485 01e6 F4000000 		.4byte	0xf4
 486 01ea 05       		.byte	0x5
 487 01eb 03       		.byte	0x3
 488 01ec 00000000 		.4byte	mp1
 489 01f0 18       		.uleb128 0x18
 490 01f1 DD000000 		.4byte	.LASF23
 491 01f5 01       		.byte	0x1
 492 01f6 65       		.byte	0x65
 493 01f7 FD010000 		.4byte	0x1fd
 494 01fb 01       		.byte	0x1
 495 01fc 01       		.byte	0x1
 496 01fd 0D       		.uleb128 0xd
 497 01fe 11010000 		.4byte	0x111
 498 0202 16       		.uleb128 0x16
 499 0203 776100   		.ascii	"wa\000"
 500 0206 05       		.byte	0x5
ARM GAS  C:\Users\z80\AppData\Local\Temp\cc6Nwez1.s 			page 10


 501 0207 B2       		.byte	0xb2
 502 0208 0E020000 		.4byte	0x20e
 503 020c 01       		.byte	0x1
 504 020d 01       		.byte	0x1
 505 020e 0D       		.uleb128 0xd
 506 020f C3010000 		.4byte	0x1c3
 507 0213 19       		.uleb128 0x19
 508 0214 DD000000 		.4byte	.LASF23
 509 0218 01       		.byte	0x1
 510 0219 65       		.byte	0x65
 511 021a FD010000 		.4byte	0x1fd
 512 021e 01       		.byte	0x1
 513 021f 05       		.byte	0x5
 514 0220 03       		.byte	0x3
 515 0221 00000000 		.4byte	testpools1
 516 0225 14       		.uleb128 0x14
 517 0226 35020000 		.4byte	0x235
 518 022a 35020000 		.4byte	0x235
 519 022e 1A       		.uleb128 0x1a
 520 022f 7C000000 		.4byte	0x7c
 521 0233 01       		.byte	0x1
 522 0234 00       		.byte	0x0
 523 0235 07       		.uleb128 0x7
 524 0236 04       		.byte	0x4
 525 0237 FD010000 		.4byte	0x1fd
 526 023b 19       		.uleb128 0x19
 527 023c 97010000 		.4byte	.LASF24
 528 0240 01       		.byte	0x1
 529 0241 71       		.byte	0x71
 530 0242 4D020000 		.4byte	0x24d
 531 0246 01       		.byte	0x1
 532 0247 05       		.byte	0x5
 533 0248 03       		.byte	0x3
 534 0249 00000000 		.4byte	patternpools
 535 024d 0D       		.uleb128 0xd
 536 024e 25020000 		.4byte	0x225
 537 0252 00       		.byte	0x0
 538              		.section	.debug_abbrev
 539 0000 01       		.uleb128 0x1
 540 0001 11       		.uleb128 0x11
 541 0002 01       		.byte	0x1
 542 0003 25       		.uleb128 0x25
 543 0004 0E       		.uleb128 0xe
 544 0005 13       		.uleb128 0x13
 545 0006 0B       		.uleb128 0xb
 546 0007 03       		.uleb128 0x3
 547 0008 0E       		.uleb128 0xe
 548 0009 1B       		.uleb128 0x1b
 549 000a 0E       		.uleb128 0xe
 550 000b 11       		.uleb128 0x11
 551 000c 01       		.uleb128 0x1
 552 000d 52       		.uleb128 0x52
 553 000e 01       		.uleb128 0x1
 554 000f 55       		.uleb128 0x55
 555 0010 06       		.uleb128 0x6
 556 0011 10       		.uleb128 0x10
 557 0012 06       		.uleb128 0x6
ARM GAS  C:\Users\z80\AppData\Local\Temp\cc6Nwez1.s 			page 11


 558 0013 00       		.byte	0x0
 559 0014 00       		.byte	0x0
 560 0015 02       		.uleb128 0x2
 561 0016 24       		.uleb128 0x24
 562 0017 00       		.byte	0x0
 563 0018 0B       		.uleb128 0xb
 564 0019 0B       		.uleb128 0xb
 565 001a 3E       		.uleb128 0x3e
 566 001b 0B       		.uleb128 0xb
 567 001c 03       		.uleb128 0x3
 568 001d 08       		.uleb128 0x8
 569 001e 00       		.byte	0x0
 570 001f 00       		.byte	0x0
 571 0020 03       		.uleb128 0x3
 572 0021 16       		.uleb128 0x16
 573 0022 00       		.byte	0x0
 574 0023 03       		.uleb128 0x3
 575 0024 0E       		.uleb128 0xe
 576 0025 3A       		.uleb128 0x3a
 577 0026 0B       		.uleb128 0xb
 578 0027 3B       		.uleb128 0x3b
 579 0028 0B       		.uleb128 0xb
 580 0029 49       		.uleb128 0x49
 581 002a 13       		.uleb128 0x13
 582 002b 00       		.byte	0x0
 583 002c 00       		.byte	0x0
 584 002d 04       		.uleb128 0x4
 585 002e 24       		.uleb128 0x24
 586 002f 00       		.byte	0x0
 587 0030 0B       		.uleb128 0xb
 588 0031 0B       		.uleb128 0xb
 589 0032 3E       		.uleb128 0x3e
 590 0033 0B       		.uleb128 0xb
 591 0034 03       		.uleb128 0x3
 592 0035 0E       		.uleb128 0xe
 593 0036 00       		.byte	0x0
 594 0037 00       		.byte	0x0
 595 0038 05       		.uleb128 0x5
 596 0039 0F       		.uleb128 0xf
 597 003a 00       		.byte	0x0
 598 003b 0B       		.uleb128 0xb
 599 003c 0B       		.uleb128 0xb
 600 003d 00       		.byte	0x0
 601 003e 00       		.byte	0x0
 602 003f 06       		.uleb128 0x6
 603 0040 24       		.uleb128 0x24
 604 0041 00       		.byte	0x0
 605 0042 0B       		.uleb128 0xb
 606 0043 0B       		.uleb128 0xb
 607 0044 3E       		.uleb128 0x3e
 608 0045 0B       		.uleb128 0xb
 609 0046 00       		.byte	0x0
 610 0047 00       		.byte	0x0
 611 0048 07       		.uleb128 0x7
 612 0049 0F       		.uleb128 0xf
 613 004a 00       		.byte	0x0
 614 004b 0B       		.uleb128 0xb
ARM GAS  C:\Users\z80\AppData\Local\Temp\cc6Nwez1.s 			page 12


 615 004c 0B       		.uleb128 0xb
 616 004d 49       		.uleb128 0x49
 617 004e 13       		.uleb128 0x13
 618 004f 00       		.byte	0x0
 619 0050 00       		.byte	0x0
 620 0051 08       		.uleb128 0x8
 621 0052 15       		.uleb128 0x15
 622 0053 01       		.byte	0x1
 623 0054 27       		.uleb128 0x27
 624 0055 0C       		.uleb128 0xc
 625 0056 49       		.uleb128 0x49
 626 0057 13       		.uleb128 0x13
 627 0058 01       		.uleb128 0x1
 628 0059 13       		.uleb128 0x13
 629 005a 00       		.byte	0x0
 630 005b 00       		.byte	0x0
 631 005c 09       		.uleb128 0x9
 632 005d 05       		.uleb128 0x5
 633 005e 00       		.byte	0x0
 634 005f 49       		.uleb128 0x49
 635 0060 13       		.uleb128 0x13
 636 0061 00       		.byte	0x0
 637 0062 00       		.byte	0x0
 638 0063 0A       		.uleb128 0xa
 639 0064 13       		.uleb128 0x13
 640 0065 01       		.byte	0x1
 641 0066 03       		.uleb128 0x3
 642 0067 0E       		.uleb128 0xe
 643 0068 0B       		.uleb128 0xb
 644 0069 0B       		.uleb128 0xb
 645 006a 3A       		.uleb128 0x3a
 646 006b 0B       		.uleb128 0xb
 647 006c 3B       		.uleb128 0x3b
 648 006d 0B       		.uleb128 0xb
 649 006e 01       		.uleb128 0x1
 650 006f 13       		.uleb128 0x13
 651 0070 00       		.byte	0x0
 652 0071 00       		.byte	0x0
 653 0072 0B       		.uleb128 0xb
 654 0073 0D       		.uleb128 0xd
 655 0074 00       		.byte	0x0
 656 0075 03       		.uleb128 0x3
 657 0076 0E       		.uleb128 0xe
 658 0077 3A       		.uleb128 0x3a
 659 0078 0B       		.uleb128 0xb
 660 0079 3B       		.uleb128 0x3b
 661 007a 0B       		.uleb128 0xb
 662 007b 49       		.uleb128 0x49
 663 007c 13       		.uleb128 0x13
 664 007d 38       		.uleb128 0x38
 665 007e 0A       		.uleb128 0xa
 666 007f 00       		.byte	0x0
 667 0080 00       		.byte	0x0
 668 0081 0C       		.uleb128 0xc
 669 0082 13       		.uleb128 0x13
 670 0083 01       		.byte	0x1
 671 0084 0B       		.uleb128 0xb
ARM GAS  C:\Users\z80\AppData\Local\Temp\cc6Nwez1.s 			page 13


 672 0085 0B       		.uleb128 0xb
 673 0086 3A       		.uleb128 0x3a
 674 0087 0B       		.uleb128 0xb
 675 0088 3B       		.uleb128 0x3b
 676 0089 0B       		.uleb128 0xb
 677 008a 01       		.uleb128 0x1
 678 008b 13       		.uleb128 0x13
 679 008c 00       		.byte	0x0
 680 008d 00       		.byte	0x0
 681 008e 0D       		.uleb128 0xd
 682 008f 26       		.uleb128 0x26
 683 0090 00       		.byte	0x0
 684 0091 49       		.uleb128 0x49
 685 0092 13       		.uleb128 0x13
 686 0093 00       		.byte	0x0
 687 0094 00       		.byte	0x0
 688 0095 0E       		.uleb128 0xe
 689 0096 15       		.uleb128 0x15
 690 0097 00       		.byte	0x0
 691 0098 27       		.uleb128 0x27
 692 0099 0C       		.uleb128 0xc
 693 009a 00       		.byte	0x0
 694 009b 00       		.byte	0x0
 695 009c 0F       		.uleb128 0xf
 696 009d 2E       		.uleb128 0x2e
 697 009e 01       		.byte	0x1
 698 009f 03       		.uleb128 0x3
 699 00a0 0E       		.uleb128 0xe
 700 00a1 3A       		.uleb128 0x3a
 701 00a2 0B       		.uleb128 0xb
 702 00a3 3B       		.uleb128 0x3b
 703 00a4 0B       		.uleb128 0xb
 704 00a5 27       		.uleb128 0x27
 705 00a6 0C       		.uleb128 0xc
 706 00a7 49       		.uleb128 0x49
 707 00a8 13       		.uleb128 0x13
 708 00a9 11       		.uleb128 0x11
 709 00aa 01       		.uleb128 0x1
 710 00ab 12       		.uleb128 0x12
 711 00ac 01       		.uleb128 0x1
 712 00ad 40       		.uleb128 0x40
 713 00ae 0A       		.uleb128 0xa
 714 00af 01       		.uleb128 0x1
 715 00b0 13       		.uleb128 0x13
 716 00b1 00       		.byte	0x0
 717 00b2 00       		.byte	0x0
 718 00b3 10       		.uleb128 0x10
 719 00b4 05       		.uleb128 0x5
 720 00b5 00       		.byte	0x0
 721 00b6 03       		.uleb128 0x3
 722 00b7 0E       		.uleb128 0xe
 723 00b8 3A       		.uleb128 0x3a
 724 00b9 0B       		.uleb128 0xb
 725 00ba 3B       		.uleb128 0x3b
 726 00bb 0B       		.uleb128 0xb
 727 00bc 49       		.uleb128 0x49
 728 00bd 13       		.uleb128 0x13
ARM GAS  C:\Users\z80\AppData\Local\Temp\cc6Nwez1.s 			page 14


 729 00be 02       		.uleb128 0x2
 730 00bf 06       		.uleb128 0x6
 731 00c0 00       		.byte	0x0
 732 00c1 00       		.byte	0x0
 733 00c2 11       		.uleb128 0x11
 734 00c3 2E       		.uleb128 0x2e
 735 00c4 01       		.byte	0x1
 736 00c5 03       		.uleb128 0x3
 737 00c6 0E       		.uleb128 0xe
 738 00c7 3A       		.uleb128 0x3a
 739 00c8 0B       		.uleb128 0xb
 740 00c9 3B       		.uleb128 0x3b
 741 00ca 0B       		.uleb128 0xb
 742 00cb 27       		.uleb128 0x27
 743 00cc 0C       		.uleb128 0xc
 744 00cd 11       		.uleb128 0x11
 745 00ce 01       		.uleb128 0x1
 746 00cf 12       		.uleb128 0x12
 747 00d0 01       		.uleb128 0x1
 748 00d1 40       		.uleb128 0x40
 749 00d2 06       		.uleb128 0x6
 750 00d3 01       		.uleb128 0x1
 751 00d4 13       		.uleb128 0x13
 752 00d5 00       		.byte	0x0
 753 00d6 00       		.byte	0x0
 754 00d7 12       		.uleb128 0x12
 755 00d8 34       		.uleb128 0x34
 756 00d9 00       		.byte	0x0
 757 00da 03       		.uleb128 0x3
 758 00db 08       		.uleb128 0x8
 759 00dc 3A       		.uleb128 0x3a
 760 00dd 0B       		.uleb128 0xb
 761 00de 3B       		.uleb128 0x3b
 762 00df 0B       		.uleb128 0xb
 763 00e0 49       		.uleb128 0x49
 764 00e1 13       		.uleb128 0x13
 765 00e2 02       		.uleb128 0x2
 766 00e3 06       		.uleb128 0x6
 767 00e4 00       		.byte	0x0
 768 00e5 00       		.byte	0x0
 769 00e6 13       		.uleb128 0x13
 770 00e7 2E       		.uleb128 0x2e
 771 00e8 00       		.byte	0x0
 772 00e9 03       		.uleb128 0x3
 773 00ea 0E       		.uleb128 0xe
 774 00eb 3A       		.uleb128 0x3a
 775 00ec 0B       		.uleb128 0xb
 776 00ed 3B       		.uleb128 0x3b
 777 00ee 0B       		.uleb128 0xb
 778 00ef 27       		.uleb128 0x27
 779 00f0 0C       		.uleb128 0xc
 780 00f1 11       		.uleb128 0x11
 781 00f2 01       		.uleb128 0x1
 782 00f3 12       		.uleb128 0x12
 783 00f4 01       		.uleb128 0x1
 784 00f5 40       		.uleb128 0x40
 785 00f6 06       		.uleb128 0x6
ARM GAS  C:\Users\z80\AppData\Local\Temp\cc6Nwez1.s 			page 15


 786 00f7 00       		.byte	0x0
 787 00f8 00       		.byte	0x0
 788 00f9 14       		.uleb128 0x14
 789 00fa 01       		.uleb128 0x1
 790 00fb 01       		.byte	0x1
 791 00fc 49       		.uleb128 0x49
 792 00fd 13       		.uleb128 0x13
 793 00fe 01       		.uleb128 0x1
 794 00ff 13       		.uleb128 0x13
 795 0100 00       		.byte	0x0
 796 0101 00       		.byte	0x0
 797 0102 15       		.uleb128 0x15
 798 0103 21       		.uleb128 0x21
 799 0104 00       		.byte	0x0
 800 0105 00       		.byte	0x0
 801 0106 00       		.byte	0x0
 802 0107 16       		.uleb128 0x16
 803 0108 34       		.uleb128 0x34
 804 0109 00       		.byte	0x0
 805 010a 03       		.uleb128 0x3
 806 010b 08       		.uleb128 0x8
 807 010c 3A       		.uleb128 0x3a
 808 010d 0B       		.uleb128 0xb
 809 010e 3B       		.uleb128 0x3b
 810 010f 0B       		.uleb128 0xb
 811 0110 49       		.uleb128 0x49
 812 0111 13       		.uleb128 0x13
 813 0112 3F       		.uleb128 0x3f
 814 0113 0C       		.uleb128 0xc
 815 0114 3C       		.uleb128 0x3c
 816 0115 0C       		.uleb128 0xc
 817 0116 00       		.byte	0x0
 818 0117 00       		.byte	0x0
 819 0118 17       		.uleb128 0x17
 820 0119 34       		.uleb128 0x34
 821 011a 00       		.byte	0x0
 822 011b 03       		.uleb128 0x3
 823 011c 08       		.uleb128 0x8
 824 011d 3A       		.uleb128 0x3a
 825 011e 0B       		.uleb128 0xb
 826 011f 3B       		.uleb128 0x3b
 827 0120 0B       		.uleb128 0xb
 828 0121 49       		.uleb128 0x49
 829 0122 13       		.uleb128 0x13
 830 0123 02       		.uleb128 0x2
 831 0124 0A       		.uleb128 0xa
 832 0125 00       		.byte	0x0
 833 0126 00       		.byte	0x0
 834 0127 18       		.uleb128 0x18
 835 0128 34       		.uleb128 0x34
 836 0129 00       		.byte	0x0
 837 012a 03       		.uleb128 0x3
 838 012b 0E       		.uleb128 0xe
 839 012c 3A       		.uleb128 0x3a
 840 012d 0B       		.uleb128 0xb
 841 012e 3B       		.uleb128 0x3b
 842 012f 0B       		.uleb128 0xb
ARM GAS  C:\Users\z80\AppData\Local\Temp\cc6Nwez1.s 			page 16


 843 0130 49       		.uleb128 0x49
 844 0131 13       		.uleb128 0x13
 845 0132 3F       		.uleb128 0x3f
 846 0133 0C       		.uleb128 0xc
 847 0134 3C       		.uleb128 0x3c
 848 0135 0C       		.uleb128 0xc
 849 0136 00       		.byte	0x0
 850 0137 00       		.byte	0x0
 851 0138 19       		.uleb128 0x19
 852 0139 34       		.uleb128 0x34
 853 013a 00       		.byte	0x0
 854 013b 03       		.uleb128 0x3
 855 013c 0E       		.uleb128 0xe
 856 013d 3A       		.uleb128 0x3a
 857 013e 0B       		.uleb128 0xb
 858 013f 3B       		.uleb128 0x3b
 859 0140 0B       		.uleb128 0xb
 860 0141 49       		.uleb128 0x49
 861 0142 13       		.uleb128 0x13
 862 0143 3F       		.uleb128 0x3f
 863 0144 0C       		.uleb128 0xc
 864 0145 02       		.uleb128 0x2
 865 0146 0A       		.uleb128 0xa
 866 0147 00       		.byte	0x0
 867 0148 00       		.byte	0x0
 868 0149 1A       		.uleb128 0x1a
 869 014a 21       		.uleb128 0x21
 870 014b 00       		.byte	0x0
 871 014c 49       		.uleb128 0x49
 872 014d 13       		.uleb128 0x13
 873 014e 2F       		.uleb128 0x2f
 874 014f 0B       		.uleb128 0xb
 875 0150 00       		.byte	0x0
 876 0151 00       		.byte	0x0
 877 0152 00       		.byte	0x0
 878              		.section	.debug_pubnames,"",%progbits
 879 0000 2E000000 		.4byte	0x2e
 880 0004 0200     		.2byte	0x2
 881 0006 00000000 		.4byte	.Ldebug_info0
 882 000a 53020000 		.4byte	0x253
 883 000e 13020000 		.4byte	0x213
 884 0012 74657374 		.ascii	"testpools1\000"
 884      706F6F6C 
 884      733100
 885 001d 3B020000 		.4byte	0x23b
 886 0021 70617474 		.ascii	"patternpools\000"
 886      65726E70 
 886      6F6F6C73 
 886      00
 887 002e 00000000 		.4byte	0x0
 888              		.section	.debug_pubtypes,"",%progbits
 889 0000 56000000 		.4byte	0x56
 890 0004 0200     		.2byte	0x2
 891 0006 00000000 		.4byte	.Ldebug_info0
 892 000a 53020000 		.4byte	0x253
 893 000e 30000000 		.4byte	0x30
 894 0012 73697A65 		.ascii	"size_t\000"
ARM GAS  C:\Users\z80\AppData\Local\Temp\cc6Nwez1.s 			page 17


 894      5F7400
 895 0019 7F000000 		.4byte	0x7f
 896 001d 6D656D67 		.ascii	"memgetfunc_t\000"
 896      65746675 
 896      6E635F74 
 896      00
 897 002a A0000000 		.4byte	0xa0
 898 002e 706F6F6C 		.ascii	"pool_header\000"
 898      5F686561 
 898      64657200 
 899 003a F4000000 		.4byte	0xf4
 900 003e 4D656D6F 		.ascii	"MemoryPool\000"
 900      7279506F 
 900      6F6C00
 901 0049 11010000 		.4byte	0x111
 902 004d 74657374 		.ascii	"testcase\000"
 902      63617365 
 902      00
 903 0056 00000000 		.4byte	0x0
 904              		.section	.debug_aranges,"",%progbits
 905 0000 2C000000 		.4byte	0x2c
 906 0004 0200     		.2byte	0x2
 907 0006 00000000 		.4byte	.Ldebug_info0
 908 000a 04       		.byte	0x4
 909 000b 00       		.byte	0x0
 910 000c 0000     		.2byte	0x0
 911 000e 0000     		.2byte	0x0
 912 0010 00000000 		.4byte	.LFB7
 913 0014 04000000 		.4byte	.LFE7-.LFB7
 914 0018 00000000 		.4byte	.LFB9
 915 001c 78000000 		.4byte	.LFE9-.LFB9
 916 0020 00000000 		.4byte	.LFB8
 917 0024 16000000 		.4byte	.LFE8-.LFB8
 918 0028 00000000 		.4byte	0x0
 919 002c 00000000 		.4byte	0x0
 920              		.section	.debug_ranges,"",%progbits
 921              	.Ldebug_ranges0:
 922 0000 00000000 		.4byte	.LFB7
 923 0004 04000000 		.4byte	.LFE7
 924 0008 00000000 		.4byte	.LFB9
 925 000c 78000000 		.4byte	.LFE9
 926 0010 00000000 		.4byte	.LFB8
 927 0014 16000000 		.4byte	.LFE8
 928 0018 00000000 		.4byte	0x0
 929 001c 00000000 		.4byte	0x0
 930              		.section	.debug_str,"MS",%progbits,1
 931              	.LASF9:
 932 0000 73697A65 		.ascii	"size_t\000"
 932      5F7400
 933              	.LASF31:
 934 0007 706F6F6C 		.ascii	"pools1_setup\000"
 934      73315F73 
 934      65747570 
 934      00
 935              	.LASF20:
 936 0014 73657475 		.ascii	"setup\000"
 936      7000
ARM GAS  C:\Users\z80\AppData\Local\Temp\cc6Nwez1.s 			page 18


 937              	.LASF13:
 938 001a 6D705F6F 		.ascii	"mp_object_size\000"
 938      626A6563 
 938      745F7369 
 938      7A6500
 939              	.LASF22:
 940 0029 65786563 		.ascii	"execute\000"
 940      75746500 
 941              	.LASF18:
 942 0031 74657374 		.ascii	"testcase\000"
 942      63617365 
 942      00
 943              	.LASF17:
 944 003a 706F6F6C 		.ascii	"pool_header\000"
 944      5F686561 
 944      64657200 
 945              	.LASF30:
 946 0046 706F6F6C 		.ascii	"pools1_execute\000"
 946      73315F65 
 946      78656375 
 946      746500
 947              	.LASF29:
 948 0055 73697A65 		.ascii	"size\000"
 948      00
 949              	.LASF26:
 950 005a 2E2E2F63 		.ascii	"../chibios_2.4.x/test/testpools.c\000"
 950      68696269 
 950      6F735F32 
 950      2E342E78 
 950      2F746573 
 951              	.LASF6:
 952 007c 6C6F6E67 		.ascii	"long unsigned int\000"
 952      20756E73 
 952      69676E65 
 952      6420696E 
 952      7400
 953              	.LASF21:
 954 008e 74656172 		.ascii	"teardown\000"
 954      646F776E 
 954      00
 955              	.LASF4:
 956 0097 73686F72 		.ascii	"short unsigned int\000"
 956      7420756E 
 956      7369676E 
 956      65642069 
 956      6E7400
 957              	.LASF28:
 958 00aa 6E756C6C 		.ascii	"null_provider\000"
 958      5F70726F 
 958      76696465 
 958      7200
 959              	.LASF2:
 960 00b8 756E7369 		.ascii	"unsigned char\000"
 960      676E6564 
 960      20636861 
 960      7200
 961              	.LASF25:
ARM GAS  C:\Users\z80\AppData\Local\Temp\cc6Nwez1.s 			page 19


 962 00c6 474E5520 		.ascii	"GNU C 4.5.0\000"
 962      4320342E 
 962      352E3000 
 963              	.LASF15:
 964 00d2 4D656D6F 		.ascii	"MemoryPool\000"
 964      7279506F 
 964      6F6C00
 965              	.LASF23:
 966 00dd 74657374 		.ascii	"testpools1\000"
 966      706F6F6C 
 966      733100
 967              	.LASF0:
 968 00e8 756E7369 		.ascii	"unsigned int\000"
 968      676E6564 
 968      20696E74 
 968      00
 969              	.LASF8:
 970 00f5 6C6F6E67 		.ascii	"long long unsigned int\000"
 970      206C6F6E 
 970      6720756E 
 970      7369676E 
 970      65642069 
 971              	.LASF11:
 972 010c 70685F6E 		.ascii	"ph_next\000"
 972      65787400 
 973              	.LASF7:
 974 0114 6C6F6E67 		.ascii	"long long int\000"
 974      206C6F6E 
 974      6720696E 
 974      7400
 975              	.LASF19:
 976 0122 6E616D65 		.ascii	"name\000"
 976      00
 977              	.LASF10:
 978 0127 6D656D67 		.ascii	"memgetfunc_t\000"
 978      65746675 
 978      6E635F74 
 978      00
 979              	.LASF14:
 980 0134 6D705F70 		.ascii	"mp_provider\000"
 980      726F7669 
 980      64657200 
 981              	.LASF3:
 982 0140 73686F72 		.ascii	"short int\000"
 982      7420696E 
 982      7400
 983              	.LASF27:
 984 014a 433A5C70 		.ascii	"C:\\projects\\voltamper.git\\firmware\\voltamp\000"
 984      726F6A65 
 984      6374735C 
 984      766F6C74 
 984      616D7065 
 985              	.LASF5:
 986 0175 6C6F6E67 		.ascii	"long int\000"
 986      20696E74 
 986      00
 987              	.LASF16:
ARM GAS  C:\Users\z80\AppData\Local\Temp\cc6Nwez1.s 			page 20


 988 017e 63686172 		.ascii	"char\000"
 988      00
 989              	.LASF1:
 990 0183 7369676E 		.ascii	"signed char\000"
 990      65642063 
 990      68617200 
 991              	.LASF12:
 992 018f 6D705F6E 		.ascii	"mp_next\000"
 992      65787400 
 993              	.LASF24:
 994 0197 70617474 		.ascii	"patternpools\000"
 994      65726E70 
 994      6F6F6C73 
 994      00
 995              		.ident	"GCC: (GNU) 4.5.0"
ARM GAS  C:\Users\z80\AppData\Local\Temp\cc6Nwez1.s 			page 21


DEFINED SYMBOLS
                            *ABS*:00000000 testpools.c
C:\Users\z80\AppData\Local\Temp\cc6Nwez1.s:24     .text.null_provider:00000000 $t
C:\Users\z80\AppData\Local\Temp\cc6Nwez1.s:29     .text.null_provider:00000000 null_provider
C:\Users\z80\AppData\Local\Temp\cc6Nwez1.s:46     .text.pools1_execute:00000000 $t
C:\Users\z80\AppData\Local\Temp\cc6Nwez1.s:51     .text.pools1_execute:00000000 pools1_execute
C:\Users\z80\AppData\Local\Temp\cc6Nwez1.s:123    .text.pools1_execute:0000006c $d
C:\Users\z80\AppData\Local\Temp\cc6Nwez1.s:130    .text.pools1_setup:00000000 $t
C:\Users\z80\AppData\Local\Temp\cc6Nwez1.s:135    .text.pools1_setup:00000000 pools1_setup
C:\Users\z80\AppData\Local\Temp\cc6Nwez1.s:174    .data.mp1:00000000 .LANCHOR0
C:\Users\z80\AppData\Local\Temp\cc6Nwez1.s:185    .rodata.testpools1:00000000 testpools1
C:\Users\z80\AppData\Local\Temp\cc6Nwez1.s:169    .rodata.patternpools:00000000 patternpools
C:\Users\z80\AppData\Local\Temp\cc6Nwez1.s:162    .rodata.str1.4:00000000 $d
C:\Users\z80\AppData\Local\Temp\cc6Nwez1.s:166    .rodata.patternpools:00000000 $d
C:\Users\z80\AppData\Local\Temp\cc6Nwez1.s:173    .data.mp1:00000000 $d
C:\Users\z80\AppData\Local\Temp\cc6Nwez1.s:177    .data.mp1:00000000 mp1
C:\Users\z80\AppData\Local\Temp\cc6Nwez1.s:182    .rodata.testpools1:00000000 $d
                     .debug_frame:00000010 $d
C:\Users\z80\AppData\Local\Temp\cc6Nwez1.s:129    .text.pools1_execute:00000078 $t

UNDEFINED SYMBOLS
chPoolFree
chPoolAlloc
_test_assert
chPoolInit
wa
