ARM GAS  C:\Users\z80\AppData\Local\Temp\cccNK4iN.s 			page 1


   1              		.syntax unified
   2              		.cpu cortex-m3
   3              		.fpu softvfp
   4              		.eabi_attribute 20, 1
   5              		.eabi_attribute 21, 1
   6              		.eabi_attribute 23, 3
   7              		.eabi_attribute 24, 1
   8              		.eabi_attribute 25, 1
   9              		.eabi_attribute 26, 1
  10              		.eabi_attribute 30, 2
  11              		.eabi_attribute 18, 4
  12              		.thumb
  13              		.file	"testheap.c"
  20 0000 F8010000 		.text
  20      02007B01 
  20      00000201 
  20      FB0E0D00 
  20      01010101 
  21              	.Ltext0:
  22              		.cfi_sections	.debug_frame
  23              		.section	.text.heap1_execute,"ax",%progbits
  24              		.align	2
  25              		.p2align 4,,15
  26              		.thumb
  27              		.thumb_func
  28              		.type	heap1_execute, %function
  29              	heap1_execute:
  30              	.LFB8:
  31              		.file 1 "../chibios_2.4.x/test/testheap.c"
  32              		.loc 1 80 0
  33              		.cfi_startproc
  34              		@ args = 0, pretend = 0, frame = 8
  35              		@ frame_needed = 0, uses_anonymous_args = 0
  36 0000 70B5     		push	{r4, r5, r6, lr}
  37              	.LCFI0:
  38              		.cfi_def_cfa_offset 16
  39 0002 82B0     		sub	sp, sp, #8
  40              	.LCFI1:
  41              		.cfi_def_cfa_offset 24
  42              		.loc 1 85 0
  43              		.cfi_offset 14, -4
  44              		.cfi_offset 6, -8
  45              		.cfi_offset 5, -12
  46              		.cfi_offset 4, -16
  47 0004 FFF7FEFF 		bl	chCoreStatus
  48              		.loc 1 91 0
  49 0008 6946     		mov	r1, sp
  50 000a 0020     		movs	r0, #0
  51 000c FFF7FEFF 		bl	chHeapStatus
  52              		.loc 1 92 0
  53 0010 1021     		movs	r1, #16
ARM GAS  C:\Users\z80\AppData\Local\Temp\cccNK4iN.s 			page 2


  54 0012 0020     		movs	r0, #0
  55 0014 FFF7FEFF 		bl	chHeapAlloc
  56              		.loc 1 93 0
  57 0018 011E     		subs	r1, r0, #0
  58 001a 18BF     		it	ne
  59 001c 0121     		movne	r1, #1
  60              		.loc 1 92 0
  61 001e 0446     		mov	r4, r0
  62              	.LVL0:
  63              		.loc 1 93 0
  64 0020 0120     		movs	r0, #1
  65              	.LVL1:
  66 0022 FFF7FEFF 		bl	_test_assert
  67              		.loc 1 91 0
  68 0026 6D46     		mov	r5, sp
  69              		.loc 1 93 0
  70 0028 0646     		mov	r6, r0
  71 002a 08B1     		cbz	r0, .L7
  72              	.LVL2:
  73              	.L1:
  74              		.loc 1 151 0
  75 002c 02B0     		add	sp, sp, #8
  76 002e 70BD     		pop	{r4, r5, r6, pc}
  77              	.LVL3:
  78              	.L7:
  79              		.loc 1 94 0
  80 0030 2046     		mov	r0, r4
  81 0032 FFF7FEFF 		bl	chHeapFree
  82              		.loc 1 95 0
  83 0036 6FF0FF01 		mvn	r1, #255
  84 003a 3046     		mov	r0, r6
  85 003c FFF7FEFF 		bl	chHeapAlloc
  86              	.LVL4:
  87              		.loc 1 96 0
  88 0040 D0F10101 		rsbs	r1, r0, #1
  89 0044 38BF     		it	cc
  90 0046 0021     		movcc	r1, #0
  91 0048 0220     		movs	r0, #2
  92              	.LVL5:
  93 004a FFF7FEFF 		bl	_test_assert
  94 004e 0028     		cmp	r0, #0
  95 0050 ECD1     		bne	.L1
  96              		.loc 1 99 0
  97 0052 6946     		mov	r1, sp
  98 0054 7C48     		ldr	r0, .L8
  99 0056 FFF7FEFF 		bl	chHeapStatus
 100              		.loc 1 102 0
 101 005a 1021     		movs	r1, #16
 102 005c 7A48     		ldr	r0, .L8
 103 005e FFF7FEFF 		bl	chHeapAlloc
 104              		.loc 1 103 0
 105 0062 1021     		movs	r1, #16
 106              		.loc 1 102 0
 107 0064 0546     		mov	r5, r0
 108              	.LVL6:
 109              		.loc 1 103 0
 110 0066 7848     		ldr	r0, .L8
ARM GAS  C:\Users\z80\AppData\Local\Temp\cccNK4iN.s 			page 3


 111              	.LVL7:
 112 0068 FFF7FEFF 		bl	chHeapAlloc
 113              		.loc 1 104 0
 114 006c 1021     		movs	r1, #16
 115              		.loc 1 103 0
 116 006e 0446     		mov	r4, r0
 117              	.LVL8:
 118              		.loc 1 104 0
 119 0070 7548     		ldr	r0, .L8
 120              	.LVL9:
 121 0072 FFF7FEFF 		bl	chHeapAlloc
 122 0076 0646     		mov	r6, r0
 123              	.LVL10:
 124              		.loc 1 105 0
 125 0078 2846     		mov	r0, r5
 126              	.LVL11:
 127 007a FFF7FEFF 		bl	chHeapFree
 128              		.loc 1 106 0
 129 007e 2046     		mov	r0, r4
 130 0080 FFF7FEFF 		bl	chHeapFree
 131              		.loc 1 108 0
 132 0084 01AC     		add	r4, sp, #4
 133              	.LVL12:
 134              		.loc 1 107 0
 135 0086 3046     		mov	r0, r6
 136 0088 FFF7FEFF 		bl	chHeapFree
 137              		.loc 1 108 0
 138 008c 2146     		mov	r1, r4
 139 008e 6E48     		ldr	r0, .L8
 140 0090 FFF7FEFF 		bl	chHeapStatus
 141 0094 0128     		cmp	r0, #1
 142 0096 14BF     		ite	ne
 143 0098 0021     		movne	r1, #0
 144 009a 0121     		moveq	r1, #1
 145 009c 0320     		movs	r0, #3
 146 009e FFF7FEFF 		bl	_test_assert
 147 00a2 0028     		cmp	r0, #0
 148 00a4 C2D1     		bne	.L1
 149              		.loc 1 111 0
 150 00a6 1021     		movs	r1, #16
 151 00a8 6748     		ldr	r0, .L8
 152 00aa FFF7FEFF 		bl	chHeapAlloc
 153              		.loc 1 112 0
 154 00ae 1021     		movs	r1, #16
 155              		.loc 1 111 0
 156 00b0 0546     		mov	r5, r0
 157              	.LVL13:
 158              		.loc 1 112 0
 159 00b2 6548     		ldr	r0, .L8
 160              	.LVL14:
 161 00b4 FFF7FEFF 		bl	chHeapAlloc
 162              		.loc 1 113 0
 163 00b8 1021     		movs	r1, #16
 164              		.loc 1 112 0
 165 00ba 0646     		mov	r6, r0
 166              	.LVL15:
 167              		.loc 1 113 0
ARM GAS  C:\Users\z80\AppData\Local\Temp\cccNK4iN.s 			page 4


 168 00bc 6248     		ldr	r0, .L8
 169              	.LVL16:
 170 00be FFF7FEFF 		bl	chHeapAlloc
 171              	.LVL17:
 172              		.loc 1 114 0
 173 00c2 FFF7FEFF 		bl	chHeapFree
 174              	.LVL18:
 175              		.loc 1 115 0
 176 00c6 3046     		mov	r0, r6
 177 00c8 FFF7FEFF 		bl	chHeapFree
 178              		.loc 1 116 0
 179 00cc 2846     		mov	r0, r5
 180 00ce FFF7FEFF 		bl	chHeapFree
 181              		.loc 1 117 0
 182 00d2 2146     		mov	r1, r4
 183 00d4 5C48     		ldr	r0, .L8
 184 00d6 FFF7FEFF 		bl	chHeapStatus
 185 00da 0128     		cmp	r0, #1
 186 00dc 14BF     		ite	ne
 187 00de 0021     		movne	r1, #0
 188 00e0 0121     		moveq	r1, #1
 189 00e2 0420     		movs	r0, #4
 190 00e4 FFF7FEFF 		bl	_test_assert
 191 00e8 0028     		cmp	r0, #0
 192 00ea 9FD1     		bne	.L1
 193              		.loc 1 120 0
 194 00ec 1121     		movs	r1, #17
 195 00ee 5648     		ldr	r0, .L8
 196 00f0 FFF7FEFF 		bl	chHeapAlloc
 197              		.loc 1 121 0
 198 00f4 1021     		movs	r1, #16
 199              		.loc 1 120 0
 200 00f6 0546     		mov	r5, r0
 201              	.LVL19:
 202              		.loc 1 121 0
 203 00f8 5348     		ldr	r0, .L8
 204              	.LVL20:
 205 00fa FFF7FEFF 		bl	chHeapAlloc
 206 00fe 0646     		mov	r6, r0
 207              	.LVL21:
 208              		.loc 1 122 0
 209 0100 2846     		mov	r0, r5
 210              	.LVL22:
 211 0102 FFF7FEFF 		bl	chHeapFree
 212              		.loc 1 123 0
 213 0106 2146     		mov	r1, r4
 214 0108 4F48     		ldr	r0, .L8
 215 010a FFF7FEFF 		bl	chHeapStatus
 216 010e 0228     		cmp	r0, #2
 217 0110 14BF     		ite	ne
 218 0112 0021     		movne	r1, #0
 219 0114 0121     		moveq	r1, #1
 220 0116 0520     		movs	r0, #5
 221 0118 FFF7FEFF 		bl	_test_assert
 222 011c 0028     		cmp	r0, #0
 223 011e 85D1     		bne	.L1
 224              		.loc 1 124 0
ARM GAS  C:\Users\z80\AppData\Local\Temp\cccNK4iN.s 			page 5


 225 0120 1021     		movs	r1, #16
 226 0122 4948     		ldr	r0, .L8
 227 0124 FFF7FEFF 		bl	chHeapAlloc
 228              		.loc 1 127 0
 229 0128 2146     		mov	r1, r4
 230              		.loc 1 124 0
 231 012a 0546     		mov	r5, r0
 232              	.LVL23:
 233              		.loc 1 127 0
 234 012c 4648     		ldr	r0, .L8
 235              	.LVL24:
 236 012e FFF7FEFF 		bl	chHeapStatus
 237 0132 0128     		cmp	r0, #1
 238 0134 08BF     		it	eq
 239 0136 0146     		moveq	r1, r0
 240 0138 07D0     		beq	.L3
 241              		.loc 1 127 0 is_stmt 0 discriminator 2
 242 013a 2146     		mov	r1, r4
 243 013c 4248     		ldr	r0, .L8
 244 013e FFF7FEFF 		bl	chHeapStatus
 245 0142 0228     		cmp	r0, #2
 246 0144 14BF     		ite	ne
 247 0146 0021     		movne	r1, #0
 248 0148 0121     		moveq	r1, #1
 249              	.L3:
 250              		.loc 1 127 0 discriminator 4
 251 014a 0620     		movs	r0, #6
 252 014c FFF7FEFF 		bl	_test_assert
 253 0150 0028     		cmp	r0, #0
 254 0152 7FF46BAF 		bne	.L1
 255              		.loc 1 129 0 is_stmt 1
 256 0156 3046     		mov	r0, r6
 257 0158 FFF7FEFF 		bl	chHeapFree
 258              		.loc 1 130 0
 259 015c 2846     		mov	r0, r5
 260 015e FFF7FEFF 		bl	chHeapFree
 261              		.loc 1 131 0
 262 0162 2146     		mov	r1, r4
 263 0164 3848     		ldr	r0, .L8
 264 0166 FFF7FEFF 		bl	chHeapStatus
 265 016a 0128     		cmp	r0, #1
 266 016c 14BF     		ite	ne
 267 016e 0021     		movne	r1, #0
 268 0170 0121     		moveq	r1, #1
 269 0172 0720     		movs	r0, #7
 270 0174 FFF7FEFF 		bl	_test_assert
 271 0178 0028     		cmp	r0, #0
 272 017a 7FF457AF 		bne	.L1
 273              		.loc 1 134 0
 274 017e 1021     		movs	r1, #16
 275 0180 3148     		ldr	r0, .L8
 276 0182 FFF7FEFF 		bl	chHeapAlloc
 277              		.loc 1 135 0
 278 0186 1021     		movs	r1, #16
 279              		.loc 1 134 0
 280 0188 0646     		mov	r6, r0
 281              	.LVL25:
ARM GAS  C:\Users\z80\AppData\Local\Temp\cccNK4iN.s 			page 6


 282              		.loc 1 135 0
 283 018a 2F48     		ldr	r0, .L8
 284              	.LVL26:
 285 018c FFF7FEFF 		bl	chHeapAlloc
 286 0190 0546     		mov	r5, r0
 287              	.LVL27:
 288              		.loc 1 136 0
 289 0192 3046     		mov	r0, r6
 290              	.LVL28:
 291 0194 FFF7FEFF 		bl	chHeapFree
 292              		.loc 1 137 0
 293 0198 2146     		mov	r1, r4
 294 019a 2B48     		ldr	r0, .L8
 295 019c FFF7FEFF 		bl	chHeapStatus
 296 01a0 0228     		cmp	r0, #2
 297 01a2 14BF     		ite	ne
 298 01a4 0021     		movne	r1, #0
 299 01a6 0121     		moveq	r1, #1
 300 01a8 0820     		movs	r0, #8
 301 01aa FFF7FEFF 		bl	_test_assert
 302 01ae 0028     		cmp	r0, #0
 303 01b0 7FF43CAF 		bne	.L1
 304              		.loc 1 138 0
 305 01b4 2021     		movs	r1, #32
 306 01b6 2448     		ldr	r0, .L8
 307 01b8 FFF7FEFF 		bl	chHeapAlloc
 308              	.LVL29:
 309              		.loc 1 139 0
 310 01bc FFF7FEFF 		bl	chHeapFree
 311              	.LVL30:
 312              		.loc 1 140 0
 313 01c0 2846     		mov	r0, r5
 314 01c2 FFF7FEFF 		bl	chHeapFree
 315              		.loc 1 141 0
 316 01c6 2146     		mov	r1, r4
 317 01c8 1F48     		ldr	r0, .L8
 318 01ca FFF7FEFF 		bl	chHeapStatus
 319 01ce 0128     		cmp	r0, #1
 320 01d0 14BF     		ite	ne
 321 01d2 0021     		movne	r1, #0
 322 01d4 0121     		moveq	r1, #1
 323 01d6 0920     		movs	r0, #9
 324 01d8 FFF7FEFF 		bl	_test_assert
 325 01dc 0028     		cmp	r0, #0
 326 01de 7FF425AF 		bne	.L1
 327              		.loc 1 144 0
 328 01e2 2146     		mov	r1, r4
 329 01e4 1848     		ldr	r0, .L8
 330 01e6 FFF7FEFF 		bl	chHeapStatus
 331              	.LVL31:
 332              		.loc 1 145 0
 333 01ea 0199     		ldr	r1, [sp, #4]
 334 01ec 1648     		ldr	r0, .L8
 335 01ee FFF7FEFF 		bl	chHeapAlloc
 336              		.loc 1 146 0
 337 01f2 2146     		mov	r1, r4
 338              		.loc 1 145 0
ARM GAS  C:\Users\z80\AppData\Local\Temp\cccNK4iN.s 			page 7


 339 01f4 0546     		mov	r5, r0
 340              	.LVL32:
 341              		.loc 1 146 0
 342 01f6 1448     		ldr	r0, .L8
 343              	.LVL33:
 344 01f8 FFF7FEFF 		bl	chHeapStatus
 345 01fc D0F10101 		rsbs	r1, r0, #1
 346 0200 38BF     		it	cc
 347 0202 0021     		movcc	r1, #0
 348 0204 0A20     		movs	r0, #10
 349 0206 FFF7FEFF 		bl	_test_assert
 350 020a 0028     		cmp	r0, #0
 351 020c 7FF40EAF 		bne	.L1
 352              		.loc 1 147 0
 353 0210 2846     		mov	r0, r5
 354 0212 FFF7FEFF 		bl	chHeapFree
 355              		.loc 1 149 0
 356 0216 2146     		mov	r1, r4
 357 0218 0B48     		ldr	r0, .L8
 358 021a FFF7FEFF 		bl	chHeapStatus
 359 021e 0128     		cmp	r0, #1
 360 0220 14BF     		ite	ne
 361 0222 0021     		movne	r1, #0
 362 0224 0121     		moveq	r1, #1
 363 0226 0B20     		movs	r0, #11
 364 0228 FFF7FEFF 		bl	_test_assert
 365 022c 0028     		cmp	r0, #0
 366 022e 7FF4FDAE 		bne	.L1
 367              	.LVL34:
 368              		.loc 1 150 0
 369 0232 009B     		ldr	r3, [sp, #0]
 370 0234 0199     		ldr	r1, [sp, #4]
 371 0236 0C30     		adds	r0, r0, #12
 372 0238 9942     		cmp	r1, r3
 373 023a 14BF     		ite	ne
 374 023c 0021     		movne	r1, #0
 375 023e 0121     		moveq	r1, #1
 376 0240 FFF7FEFF 		bl	_test_assert
 377 0244 F2E6     		b	.L1
 378              	.L9:
 379 0246 00BF     		.align	2
 380              	.L8:
 381 0248 00000000 		.word	.LANCHOR0
 382              		.cfi_endproc
 383              	.LFE8:
 384              		.size	heap1_execute, .-heap1_execute
 385 024c AFF30080 		.section	.text.heap1_setup,"ax",%progbits
 386              		.align	2
 387              		.p2align 4,,15
 388              		.thumb
 389              		.thumb_func
 390              		.type	heap1_setup, %function
 391              	heap1_setup:
 392              	.LFB7:
 393              		.loc 1 75 0
 394              		.cfi_startproc
 395              		@ args = 0, pretend = 0, frame = 0
ARM GAS  C:\Users\z80\AppData\Local\Temp\cccNK4iN.s 			page 8


 396              		@ frame_needed = 0, uses_anonymous_args = 0
 397              		.loc 1 77 0
 398 0000 40F20000 		movw	r0, #:lower16:.LANCHOR0
 399 0004 40F20001 		movw	r1, #:lower16:test
 400              		.loc 1 75 0
 401 0008 08B5     		push	{r3, lr}
 402              	.LCFI2:
 403              		.cfi_def_cfa_offset 8
 404              		.loc 1 77 0
 405 000a C0F20001 		movt	r1, #:upper16:test
 406 000e C0F20000 		movt	r0, #:upper16:.LANCHOR0
 407 0012 4FF4BE62 		mov	r2, #1520
 408              		.cfi_offset 14, -4
 409              		.cfi_offset 3, -8
 410 0016 FFF7FEFF 		bl	chHeapInit
 411              		.loc 1 78 0
 412 001a 08BD     		pop	{r3, pc}
 413              		.cfi_endproc
 414              	.LFE7:
 415              		.size	heap1_setup, .-heap1_setup
 416              		.global	testheap1
 417              		.global	patternheap
 418 001c AFF30080 		.section	.rodata.patternheap,"a",%progbits
 419              		.align	2
 420              		.type	patternheap, %object
 421              		.size	patternheap, 8
 422              	patternheap:
 423 0000 00000000 		.word	testheap1
 424 0004 00000000 		.word	0
 425              		.section	.rodata.str1.4,"aMS",%progbits,1
 426              		.align	2
 427              	.LC0:
 428 0000 48656170 		.ascii	"Heap, allocation and fragmentation test\000"
 428      2C20616C 
 428      6C6F6361 
 428      74696F6E 
 428      20616E64 
 429              		.section	.rodata.testheap1,"a",%progbits
 430              		.align	2
 431              		.type	testheap1, %object
 432              		.size	testheap1, 16
 433              	testheap1:
 434 0000 00000000 		.word	.LC0
 435 0004 00000000 		.word	heap1_setup
 436 0008 00000000 		.word	0
 437 000c 00000000 		.word	heap1_execute
 438              		.section	.bss.test_heap,"aw",%nobits
 439              		.align	3
 440              		.set	.LANCHOR0,. + 0
 441              		.type	test_heap, %object
 442              		.size	test_heap, 32
 443              	test_heap:
 444 0000 00000000 		.space	32
 444      00000000 
 444      00000000 
 444      00000000 
 444      00000000 
ARM GAS  C:\Users\z80\AppData\Local\Temp\cccNK4iN.s 			page 9


 445              		.text
 446              	.Letext0: