ARM GAS  /tmp/ccnXntFd.s 			page 1


   1              		.syntax unified
   2              		.cpu cortex-m3
   3              		.fpu softvfp
   4              		.eabi_attribute 20, 1
   5              		.eabi_attribute 21, 1
   6              		.eabi_attribute 23, 3
   7              		.eabi_attribute 24, 1
   8              		.eabi_attribute 25, 1
   9              		.eabi_attribute 26, 1
  10              		.eabi_attribute 30, 6
  11              		.eabi_attribute 18, 4
  12              		.thumb
  13              		.file	"testevt.c"
  14              		.section	.debug_abbrev,"",%progbits
  15              	.Ldebug_abbrev0:
  16              		.section	.debug_info,"",%progbits
  17              	.Ldebug_info0:
  18              		.section	.debug_line,"",%progbits
  19              	.Ldebug_line0:
  20 0000 82020000 		.text
  20      02006D01 
  20      00000201 
  20      FB0E0D00 
  20      01010101 
  21              	.Ltext0:
  22              		.cfi_sections	.debug_frame
  23              		.section	.data.es1,"aw",%progbits
  24              		.align	2
  25              		.type	es1, %object
  26              		.size	es1, 4
  27              	es1:
  28 0000 00000000 		.word	es1
  29              		.section	.data.es2,"aw",%progbits
  30              		.align	2
  31              		.type	es2, %object
  32              		.size	es2, 4
  33              	es2:
  34 0000 00000000 		.word	es2
  35              		.section	.text.evt1_setup,"ax",%progbits
  36              		.align	2
  37              		.p2align 4,,15
  38              		.thumb
  39              		.thumb_func
  40              		.type	evt1_setup, %function
  41              	evt1_setup:
  42              	.LFB7:
  43              		.file 1 "../chibios_2.4.x/test/testevt.c"
  44              		.loc 1 86 0
  45              		.cfi_startproc
  46              		@ args = 0, pretend = 0, frame = 0
  47              		@ frame_needed = 0, uses_anonymous_args = 0
  48 0000 08B5     		push	{r3, lr}
  49              	.LCFI0:
  50              		.cfi_def_cfa_offset 8
  51              		.loc 1 88 0
  52 0002 4FF0FF30 		mov	r0, #-1
  53              		.cfi_offset 14, -4
ARM GAS  /tmp/ccnXntFd.s 			page 2


  54              		.cfi_offset 3, -8
  55 0006 FFF7FEFF 		bl	chEvtClearFlags
  56              		.loc 1 89 0
  57 000a 08BD     		pop	{r3, pc}
  58              		.cfi_endproc
  59              	.LFE7:
  60              		.size	evt1_setup, .-evt1_setup
  61 000c AFF30080 		.section	.text.h1,"ax",%progbits
  62              		.align	2
  63              		.p2align 4,,15
  64              		.thumb
  65              		.thumb_func
  66              		.type	h1, %function
  67              	h1:
  68              	.LFB8:
  69              		.loc 1 91 0
  70              		.cfi_startproc
  71              		@ args = 0, pretend = 0, frame = 8
  72              		@ frame_needed = 0, uses_anonymous_args = 0
  73 0000 00B5     		push	{lr}
  74              	.LCFI1:
  75              		.cfi_def_cfa_offset 4
  76 0002 83B0     		sub	sp, sp, #12
  77              	.LCFI2:
  78              		.cfi_def_cfa_offset 16
  79 0004 0190     		str	r0, [sp, #4]
  80              		.loc 1 91 0
  81 0006 4FF04100 		mov	r0, #65
  82              		.cfi_offset 14, -4
  83 000a FFF7FEFF 		bl	test_emit_token
  84 000e 03B0     		add	sp, sp, #12
  85 0010 00BD     		pop	{pc}
  86              		.cfi_endproc
  87              	.LFE8:
  88              		.size	h1, .-h1
  89 0012 00BFAFF3 		.section	.text.h2,"ax",%progbits
  89      0080AFF3 
  89      0080AFF3 
  89      0080
  90              		.align	2
  91              		.p2align 4,,15
  92              		.thumb
  93              		.thumb_func
  94              		.type	h2, %function
  95              	h2:
  96              	.LFB9:
  97              		.loc 1 92 0
  98              		.cfi_startproc
  99              		@ args = 0, pretend = 0, frame = 8
 100              		@ frame_needed = 0, uses_anonymous_args = 0
 101 0000 00B5     		push	{lr}
 102              	.LCFI3:
 103              		.cfi_def_cfa_offset 4
 104 0002 83B0     		sub	sp, sp, #12
 105              	.LCFI4:
 106              		.cfi_def_cfa_offset 16
 107 0004 0190     		str	r0, [sp, #4]
ARM GAS  /tmp/ccnXntFd.s 			page 3


 108              		.loc 1 92 0
 109 0006 4FF04200 		mov	r0, #66
 110              		.cfi_offset 14, -4
 111 000a FFF7FEFF 		bl	test_emit_token
 112 000e 03B0     		add	sp, sp, #12
 113 0010 00BD     		pop	{pc}
 114              		.cfi_endproc
 115              	.LFE9:
 116              		.size	h2, .-h2
 117 0012 00BFAFF3 		.section	.text.h3,"ax",%progbits
 117      0080AFF3 
 117      0080AFF3 
 117      0080
 118              		.align	2
 119              		.p2align 4,,15
 120              		.thumb
 121              		.thumb_func
 122              		.type	h3, %function
 123              	h3:
 124              	.LFB10:
 125              		.loc 1 93 0
 126              		.cfi_startproc
 127              		@ args = 0, pretend = 0, frame = 8
 128              		@ frame_needed = 0, uses_anonymous_args = 0
 129 0000 00B5     		push	{lr}
 130              	.LCFI5:
 131              		.cfi_def_cfa_offset 4
 132 0002 83B0     		sub	sp, sp, #12
 133              	.LCFI6:
 134              		.cfi_def_cfa_offset 16
 135 0004 0190     		str	r0, [sp, #4]
 136              		.loc 1 93 0
 137 0006 4FF04300 		mov	r0, #67
 138              		.cfi_offset 14, -4
 139 000a FFF7FEFF 		bl	test_emit_token
 140 000e 03B0     		add	sp, sp, #12
 141 0010 00BD     		pop	{pc}
 142              		.cfi_endproc
 143              	.LFE10:
 144              		.size	h3, .-h3
 145 0012 00BFAFF3 		.section	.rodata.evhndl,"a",%progbits
 145      0080AFF3 
 145      0080AFF3 
 145      0080
 146              		.align	2
 147              		.type	evhndl, %object
 148              		.size	evhndl, 12
 149              	evhndl:
 150 0000 00000000 		.word	h1
 151 0004 00000000 		.word	h2
 152 0008 00000000 		.word	h3
 153              		.section	.rodata
 154              		.align	2
 155              	.LC0:
 156 0000 41424300 		.ascii	"ABC\000"
 157              		.section	.text.evt1_execute,"ax",%progbits
 158              		.align	2
ARM GAS  /tmp/ccnXntFd.s 			page 4


 159              		.p2align 4,,15
 160              		.thumb
 161              		.thumb_func
 162              		.type	evt1_execute, %function
 163              	evt1_execute:
 164              	.LFB11:
 165              		.loc 1 96 0
 166              		.cfi_startproc
 167              		@ args = 0, pretend = 0, frame = 24
 168              		@ frame_needed = 0, uses_anonymous_args = 0
 169 0000 00B5     		push	{lr}
 170              	.LCFI7:
 171              		.cfi_def_cfa_offset 4
 172 0002 87B0     		sub	sp, sp, #28
 173              	.LCFI8:
 174              		.cfi_def_cfa_offset 32
 175              		.loc 1 102 0
 176 0004 2A4A     		ldr	r2, .L10
 177 0006 2A4B     		ldr	r3, .L10
 178 0008 1A60     		str	r2, [r3, #0]
 179              		.loc 1 103 0
 180 000a 03AB     		add	r3, sp, #12
 181 000c 2848     		ldr	r0, .L10
 182 000e 1946     		mov	r1, r3
 183 0010 4FF00102 		mov	r2, #1
 184              		.cfi_offset 14, -4
 185 0014 FFF7FEFF 		bl	chEvtRegisterMask
 186              		.loc 1 104 0
 187 0018 6B46     		mov	r3, sp
 188 001a 2548     		ldr	r0, .L10
 189 001c 1946     		mov	r1, r3
 190 001e 4FF00202 		mov	r2, #2
 191 0022 FFF7FEFF 		bl	chEvtRegisterMask
 192              		.loc 1 105 0
 193 0026 224B     		ldr	r3, .L10
 194 0028 1A68     		ldr	r2, [r3, #0]
 195 002a 214B     		ldr	r3, .L10
 196 002c 9A42     		cmp	r2, r3
 197 002e 0CBF     		ite	eq
 198 0030 0023     		moveq	r3, #0
 199 0032 0123     		movne	r3, #1
 200 0034 4FF00100 		mov	r0, #1
 201 0038 1946     		mov	r1, r3
 202 003a FFF7FEFF 		bl	_test_assert
 203 003e 0346     		mov	r3, r0
 204 0040 002B     		cmp	r3, #0
 205 0042 33D1     		bne	.L5
 206              	.L6:
 207              		.loc 1 106 0
 208 0044 03AB     		add	r3, sp, #12
 209 0046 1A48     		ldr	r0, .L10
 210 0048 1946     		mov	r1, r3
 211 004a FFF7FEFF 		bl	chEvtUnregister
 212              		.loc 1 107 0
 213 004e 184B     		ldr	r3, .L10
 214 0050 1A68     		ldr	r2, [r3, #0]
 215 0052 174B     		ldr	r3, .L10
ARM GAS  /tmp/ccnXntFd.s 			page 5


 216 0054 9A42     		cmp	r2, r3
 217 0056 0CBF     		ite	eq
 218 0058 0023     		moveq	r3, #0
 219 005a 0123     		movne	r3, #1
 220 005c 4FF00200 		mov	r0, #2
 221 0060 1946     		mov	r1, r3
 222 0062 FFF7FEFF 		bl	_test_assert
 223 0066 0346     		mov	r3, r0
 224 0068 002B     		cmp	r3, #0
 225 006a 1FD1     		bne	.L5
 226              	.L8:
 227              		.loc 1 108 0
 228 006c 6B46     		mov	r3, sp
 229 006e 1048     		ldr	r0, .L10
 230 0070 1946     		mov	r1, r3
 231 0072 FFF7FEFF 		bl	chEvtUnregister
 232              		.loc 1 109 0
 233 0076 0E4B     		ldr	r3, .L10
 234 0078 1A68     		ldr	r2, [r3, #0]
 235 007a 0D4B     		ldr	r3, .L10
 236 007c 9A42     		cmp	r2, r3
 237 007e 14BF     		ite	ne
 238 0080 0023     		movne	r3, #0
 239 0082 0123     		moveq	r3, #1
 240 0084 4FF00300 		mov	r0, #3
 241 0088 1946     		mov	r1, r3
 242 008a FFF7FEFF 		bl	_test_assert
 243 008e 0346     		mov	r3, r0
 244 0090 002B     		cmp	r3, #0
 245 0092 0BD1     		bne	.L5
 246              	.L9:
 247              		.loc 1 114 0
 248 0094 0748     		ldr	r0, .L10+4
 249 0096 4FF00701 		mov	r1, #7
 250 009a FFF7FEFF 		bl	chEvtDispatch
 251              		.loc 1 115 0
 252 009e 4FF00400 		mov	r0, #4
 253 00a2 0549     		ldr	r1, .L10+8
 254 00a4 FFF7FEFF 		bl	_test_assert_sequence
 255 00a8 0346     		mov	r3, r0
 256 00aa 002B     		cmp	r3, #0
 257              	.L5:
 258              		.loc 1 116 0
 259 00ac 07B0     		add	sp, sp, #28
 260 00ae 00BD     		pop	{pc}
 261              	.L11:
 262              		.align	2
 263              	.L10:
 264 00b0 00000000 		.word	es1
 265 00b4 00000000 		.word	evhndl
 266 00b8 00000000 		.word	.LC0
 267              		.cfi_endproc
 268              	.LFE11:
 269              		.size	evt1_execute, .-evt1_execute
 270              		.global	testevt1
 271 00bc AFF30080 		.section	.rodata
 272              		.align	2
ARM GAS  /tmp/ccnXntFd.s 			page 6


 273              	.LC1:
 274 0004 4576656E 		.ascii	"Events, registration and dispatch\000"
 274      74732C20 
 274      72656769 
 274      73747261 
 274      74696F6E 
 275              		.section	.rodata.testevt1,"a",%progbits
 276              		.align	2
 277              		.type	testevt1, %object
 278              		.size	testevt1, 16
 279              	testevt1:
 280 0000 04000000 		.word	.LC1
 281 0004 00000000 		.word	evt1_setup
 282 0008 00000000 		.word	0
 283 000c 00000000 		.word	evt1_execute
 284              		.section	.text.evt2_setup,"ax",%progbits
 285              		.align	2
 286              		.p2align 4,,15
 287              		.thumb
 288              		.thumb_func
 289              		.type	evt2_setup, %function
 290              	evt2_setup:
 291              	.LFB12:
 292              		.loc 1 139 0
 293              		.cfi_startproc
 294              		@ args = 0, pretend = 0, frame = 0
 295              		@ frame_needed = 0, uses_anonymous_args = 0
 296 0000 08B5     		push	{r3, lr}
 297              	.LCFI9:
 298              		.cfi_def_cfa_offset 8
 299              		.loc 1 141 0
 300 0002 4FF0FF30 		mov	r0, #-1
 301              		.cfi_offset 14, -4
 302              		.cfi_offset 3, -8
 303 0006 FFF7FEFF 		bl	chEvtClearFlags
 304              		.loc 1 142 0
 305 000a 08BD     		pop	{r3, pc}
 306              		.cfi_endproc
 307              	.LFE12:
 308              		.size	evt2_setup, .-evt2_setup
 309 000c AFF30080 		.section	.text.thread1,"ax",%progbits
 310              		.align	2
 311              		.p2align 4,,15
 312              		.thumb
 313              		.thumb_func
 314              		.type	thread1, %function
 315              	thread1:
 316              	.LFB13:
 317              		.loc 1 144 0
 318              		.cfi_startproc
 319              		@ args = 0, pretend = 0, frame = 8
 320              		@ frame_needed = 0, uses_anonymous_args = 0
 321 0000 00B5     		push	{lr}
 322              	.LCFI10:
 323              		.cfi_def_cfa_offset 4
 324 0002 83B0     		sub	sp, sp, #12
 325              	.LCFI11:
ARM GAS  /tmp/ccnXntFd.s 			page 7


 326              		.cfi_def_cfa_offset 16
 327 0004 0190     		str	r0, [sp, #4]
 328              		.loc 1 146 0
 329 0006 4FF01900 		mov	r0, #25
 330              		.cfi_offset 14, -4
 331 000a FFF7FEFF 		bl	chThdSleep
 332              		.loc 1 147 0
 333 000e 019B     		ldr	r3, [sp, #4]
 334 0010 1846     		mov	r0, r3
 335 0012 4FF00101 		mov	r1, #1
 336 0016 FFF7FEFF 		bl	chEvtSignalFlags
 337              		.loc 1 148 0
 338 001a 4FF00003 		mov	r3, #0
 339              		.loc 1 149 0
 340 001e 1846     		mov	r0, r3
 341 0020 03B0     		add	sp, sp, #12
 342 0022 00BD     		pop	{pc}
 343              		.cfi_endproc
 344              	.LFE13:
 345              		.size	thread1, .-thread1
 346 0024 AFF30080 		.section	.text.thread2,"ax",%progbits
 346      AFF30080 
 346      AFF30080 
 347              		.align	2
 348              		.p2align 4,,15
 349              		.thumb
 350              		.thumb_func
 351              		.type	thread2, %function
 352              	thread2:
 353              	.LFB14:
 354              		.loc 1 151 0
 355              		.cfi_startproc
 356              		@ args = 0, pretend = 0, frame = 8
 357              		@ frame_needed = 0, uses_anonymous_args = 0
 358 0000 00B5     		push	{lr}
 359              	.LCFI12:
 360              		.cfi_def_cfa_offset 4
 361 0002 83B0     		sub	sp, sp, #12
 362              	.LCFI13:
 363              		.cfi_def_cfa_offset 16
 364 0004 0190     		str	r0, [sp, #4]
 365              		.loc 1 154 0
 366 0006 0948     		ldr	r0, .L15
 367 0008 4FF00001 		mov	r1, #0
 368              		.cfi_offset 14, -4
 369 000c FFF7FEFF 		bl	chEvtBroadcastFlags
 370              		.loc 1 155 0
 371 0010 4FF01900 		mov	r0, #25
 372 0014 FFF7FEFF 		bl	chThdSleep
 373              		.loc 1 156 0
 374 0018 0548     		ldr	r0, .L15+4
 375 001a 4FF00001 		mov	r1, #0
 376 001e FFF7FEFF 		bl	chEvtBroadcastFlags
 377              		.loc 1 157 0
 378 0022 4FF00003 		mov	r3, #0
 379              		.loc 1 158 0
 380 0026 1846     		mov	r0, r3
ARM GAS  /tmp/ccnXntFd.s 			page 8


 381 0028 03B0     		add	sp, sp, #12
 382 002a 00BD     		pop	{pc}
 383              	.L16:
 384              		.align	2
 385              	.L15:
 386 002c 00000000 		.word	es1
 387 0030 00000000 		.word	es2
 388              		.cfi_endproc
 389              	.LFE14:
 390              		.size	thread2, .-thread2
 391 0034 AFF30080 		.section	.rodata
 391      AFF30080 
 391      AFF30080 
 392 0026 0000     		.align	2
 393              	.LC2:
 394 0028 4100     		.ascii	"A\000"
 395              		.section	.text.evt2_execute,"ax",%progbits
 396              		.align	2
 397              		.p2align 4,,15
 398              		.thumb
 399              		.thumb_func
 400              		.type	evt2_execute, %function
 401              	evt2_execute:
 402              	.LFB15:
 403              		.loc 1 160 0
 404              		.cfi_startproc
 405              		@ args = 0, pretend = 0, frame = 32
 406              		@ frame_needed = 0, uses_anonymous_args = 0
 407 0000 00B5     		push	{lr}
 408              	.LCFI14:
 409              		.cfi_def_cfa_offset 4
 410 0002 8BB0     		sub	sp, sp, #44
 411              	.LCFI15:
 412              		.cfi_def_cfa_offset 48
 413              		.loc 1 168 0
 414 0004 4FF00500 		mov	r0, #5
 415              		.cfi_offset 14, -4
 416 0008 FFF7FEFF 		bl	chEvtAddFlags
 417              		.loc 1 169 0
 418 000c 4FF0FF30 		mov	r0, #-1
 419 0010 FFF7FEFF 		bl	chEvtWaitOne
 420 0014 0990     		str	r0, [sp, #36]
 421              		.loc 1 170 0
 422 0016 099B     		ldr	r3, [sp, #36]
 423 0018 012B     		cmp	r3, #1
 424 001a 14BF     		ite	ne
 425 001c 0023     		movne	r3, #0
 426 001e 0123     		moveq	r3, #1
 427 0020 4FF00100 		mov	r0, #1
 428 0024 1946     		mov	r1, r3
 429 0026 FFF7FEFF 		bl	_test_assert
 430 002a 0346     		mov	r3, r0
 431 002c 002B     		cmp	r3, #0
 432 002e 40F07D81 		bne	.L17
 433              	.L18:
 434              		.loc 1 171 0
 435 0032 4FF0FF30 		mov	r0, #-1
ARM GAS  /tmp/ccnXntFd.s 			page 9


 436 0036 FFF7FEFF 		bl	chEvtWaitOne
 437 003a 0990     		str	r0, [sp, #36]
 438              		.loc 1 172 0
 439 003c 099B     		ldr	r3, [sp, #36]
 440 003e 042B     		cmp	r3, #4
 441 0040 14BF     		ite	ne
 442 0042 0023     		movne	r3, #0
 443 0044 0123     		moveq	r3, #1
 444 0046 4FF00200 		mov	r0, #2
 445 004a 1946     		mov	r1, r3
 446 004c FFF7FEFF 		bl	_test_assert
 447 0050 0346     		mov	r3, r0
 448 0052 002B     		cmp	r3, #0
 449 0054 40F06A81 		bne	.L17
 450              	.L20:
 451              		.loc 1 173 0
 452 0058 4FF0FF30 		mov	r0, #-1
 453 005c FFF7FEFF 		bl	chEvtClearFlags
 454 0060 0990     		str	r0, [sp, #36]
 455              		.loc 1 174 0
 456 0062 099B     		ldr	r3, [sp, #36]
 457 0064 002B     		cmp	r3, #0
 458 0066 14BF     		ite	ne
 459 0068 0023     		movne	r3, #0
 460 006a 0123     		moveq	r3, #1
 461 006c 4FF00300 		mov	r0, #3
 462 0070 1946     		mov	r1, r3
 463 0072 FFF7FEFF 		bl	_test_assert
 464 0076 0346     		mov	r3, r0
 465 0078 002B     		cmp	r3, #0
 466 007a 40F05781 		bne	.L17
 467              	.L21:
 468              		.loc 1 179 0
 469 007e FFF7FEFF 		bl	test_wait_tick
 470              		.loc 1 180 0
 471 0082 A14B     		ldr	r3, .L33
 472 0084 DB68     		ldr	r3, [r3, #12]
 473 0086 03F11903 		add	r3, r3, #25
 474 008a 0893     		str	r3, [sp, #32]
 475              		.loc 1 181 0
 476 008c 9F4B     		ldr	r3, .L33+4
 477 008e 1A68     		ldr	r2, [r3, #0]
 478 0090 9F4B     		ldr	r3, .L33+8
 479 0092 DB69     		ldr	r3, [r3, #28]
 480 0094 9B68     		ldr	r3, [r3, #8]
 481 0096 03F1FF33 		add	r3, r3, #-1
 482              		.loc 1 182 0
 483 009a 9D49     		ldr	r1, .L33+8
 484 009c C969     		ldr	r1, [r1, #28]
 485              		.loc 1 181 0
 486 009e 0091     		str	r1, [sp, #0]
 487 00a0 1046     		mov	r0, r2
 488 00a2 4FF49871 		mov	r1, #304
 489 00a6 1A46     		mov	r2, r3
 490 00a8 9A4B     		ldr	r3, .L33+12
 491 00aa FFF7FEFF 		bl	chThdCreateStatic
 492 00ae 0246     		mov	r2, r0
ARM GAS  /tmp/ccnXntFd.s 			page 10


 493 00b0 994B     		ldr	r3, .L33+16
 494 00b2 1A60     		str	r2, [r3, #0]
 495              		.loc 1 183 0
 496 00b4 4FF0FF30 		mov	r0, #-1
 497 00b8 FFF7FEFF 		bl	chEvtWaitOne
 498 00bc 0990     		str	r0, [sp, #36]
 499              		.loc 1 184 0
 500 00be 089B     		ldr	r3, [sp, #32]
 501 00c0 03F10303 		add	r3, r3, #3
 502 00c4 4FF00400 		mov	r0, #4
 503 00c8 0899     		ldr	r1, [sp, #32]
 504 00ca 1A46     		mov	r2, r3
 505 00cc FFF7FEFF 		bl	_test_assert_time_window
 506 00d0 0346     		mov	r3, r0
 507 00d2 002B     		cmp	r3, #0
 508 00d4 40F02A81 		bne	.L17
 509              	.L22:
 510              		.loc 1 185 0
 511 00d8 099B     		ldr	r3, [sp, #36]
 512 00da 012B     		cmp	r3, #1
 513 00dc 14BF     		ite	ne
 514 00de 0023     		movne	r3, #0
 515 00e0 0123     		moveq	r3, #1
 516 00e2 4FF00500 		mov	r0, #5
 517 00e6 1946     		mov	r1, r3
 518 00e8 FFF7FEFF 		bl	_test_assert
 519 00ec 0346     		mov	r3, r0
 520 00ee 002B     		cmp	r3, #0
 521 00f0 40F01C81 		bne	.L17
 522              	.L23:
 523              		.loc 1 186 0
 524 00f4 4FF0FF30 		mov	r0, #-1
 525 00f8 FFF7FEFF 		bl	chEvtClearFlags
 526 00fc 0990     		str	r0, [sp, #36]
 527              		.loc 1 187 0
 528 00fe 099B     		ldr	r3, [sp, #36]
 529 0100 002B     		cmp	r3, #0
 530 0102 14BF     		ite	ne
 531 0104 0023     		movne	r3, #0
 532 0106 0123     		moveq	r3, #1
 533 0108 4FF00600 		mov	r0, #6
 534 010c 1946     		mov	r1, r3
 535 010e FFF7FEFF 		bl	_test_assert
 536 0112 0346     		mov	r3, r0
 537 0114 002B     		cmp	r3, #0
 538 0116 40F00981 		bne	.L17
 539              	.L24:
 540              		.loc 1 188 0
 541 011a FFF7FEFF 		bl	test_wait_threads
 542              		.loc 1 193 0
 543 011e 4FF00500 		mov	r0, #5
 544 0122 FFF7FEFF 		bl	chEvtAddFlags
 545              		.loc 1 194 0
 546 0126 4FF0FF30 		mov	r0, #-1
 547 012a FFF7FEFF 		bl	chEvtWaitAny
 548 012e 0990     		str	r0, [sp, #36]
 549              		.loc 1 195 0
ARM GAS  /tmp/ccnXntFd.s 			page 11


 550 0130 099B     		ldr	r3, [sp, #36]
 551 0132 052B     		cmp	r3, #5
 552 0134 14BF     		ite	ne
 553 0136 0023     		movne	r3, #0
 554 0138 0123     		moveq	r3, #1
 555 013a 4FF00700 		mov	r0, #7
 556 013e 1946     		mov	r1, r3
 557 0140 FFF7FEFF 		bl	_test_assert
 558 0144 0346     		mov	r3, r0
 559 0146 002B     		cmp	r3, #0
 560 0148 40F0F080 		bne	.L17
 561              	.L25:
 562              		.loc 1 196 0
 563 014c 4FF0FF30 		mov	r0, #-1
 564 0150 FFF7FEFF 		bl	chEvtClearFlags
 565 0154 0990     		str	r0, [sp, #36]
 566              		.loc 1 197 0
 567 0156 099B     		ldr	r3, [sp, #36]
 568 0158 002B     		cmp	r3, #0
 569 015a 14BF     		ite	ne
 570 015c 0023     		movne	r3, #0
 571 015e 0123     		moveq	r3, #1
 572 0160 4FF00800 		mov	r0, #8
 573 0164 1946     		mov	r1, r3
 574 0166 FFF7FEFF 		bl	_test_assert
 575 016a 0346     		mov	r3, r0
 576 016c 002B     		cmp	r3, #0
 577 016e 40F0DD80 		bne	.L17
 578              	.L26:
 579              		.loc 1 202 0
 580 0172 FFF7FEFF 		bl	test_wait_tick
 581              		.loc 1 203 0
 582 0176 644B     		ldr	r3, .L33
 583 0178 DB68     		ldr	r3, [r3, #12]
 584 017a 03F11903 		add	r3, r3, #25
 585 017e 0893     		str	r3, [sp, #32]
 586              		.loc 1 204 0
 587 0180 624B     		ldr	r3, .L33+4
 588 0182 1A68     		ldr	r2, [r3, #0]
 589 0184 624B     		ldr	r3, .L33+8
 590 0186 DB69     		ldr	r3, [r3, #28]
 591 0188 9B68     		ldr	r3, [r3, #8]
 592 018a 03F1FF33 		add	r3, r3, #-1
 593              		.loc 1 205 0
 594 018e 6049     		ldr	r1, .L33+8
 595 0190 C969     		ldr	r1, [r1, #28]
 596              		.loc 1 204 0
 597 0192 0091     		str	r1, [sp, #0]
 598 0194 1046     		mov	r0, r2
 599 0196 4FF49871 		mov	r1, #304
 600 019a 1A46     		mov	r2, r3
 601 019c 5D4B     		ldr	r3, .L33+12
 602 019e FFF7FEFF 		bl	chThdCreateStatic
 603 01a2 0246     		mov	r2, r0
 604 01a4 5C4B     		ldr	r3, .L33+16
 605 01a6 1A60     		str	r2, [r3, #0]
 606              		.loc 1 206 0
ARM GAS  /tmp/ccnXntFd.s 			page 12


 607 01a8 4FF0FF30 		mov	r0, #-1
 608 01ac FFF7FEFF 		bl	chEvtWaitAny
 609 01b0 0990     		str	r0, [sp, #36]
 610              		.loc 1 207 0
 611 01b2 089B     		ldr	r3, [sp, #32]
 612 01b4 03F10303 		add	r3, r3, #3
 613 01b8 4FF00900 		mov	r0, #9
 614 01bc 0899     		ldr	r1, [sp, #32]
 615 01be 1A46     		mov	r2, r3
 616 01c0 FFF7FEFF 		bl	_test_assert_time_window
 617 01c4 0346     		mov	r3, r0
 618 01c6 002B     		cmp	r3, #0
 619 01c8 40F0B080 		bne	.L17
 620              	.L27:
 621              		.loc 1 208 0
 622 01cc 099B     		ldr	r3, [sp, #36]
 623 01ce 012B     		cmp	r3, #1
 624 01d0 14BF     		ite	ne
 625 01d2 0023     		movne	r3, #0
 626 01d4 0123     		moveq	r3, #1
 627 01d6 4FF00A00 		mov	r0, #10
 628 01da 1946     		mov	r1, r3
 629 01dc FFF7FEFF 		bl	_test_assert
 630 01e0 0346     		mov	r3, r0
 631 01e2 002B     		cmp	r3, #0
 632 01e4 40F0A280 		bne	.L17
 633              	.L28:
 634              		.loc 1 209 0
 635 01e8 4FF0FF30 		mov	r0, #-1
 636 01ec FFF7FEFF 		bl	chEvtClearFlags
 637 01f0 0990     		str	r0, [sp, #36]
 638              		.loc 1 210 0
 639 01f2 099B     		ldr	r3, [sp, #36]
 640 01f4 002B     		cmp	r3, #0
 641 01f6 14BF     		ite	ne
 642 01f8 0023     		movne	r3, #0
 643 01fa 0123     		moveq	r3, #1
 644 01fc 4FF00B00 		mov	r0, #11
 645 0200 1946     		mov	r1, r3
 646 0202 FFF7FEFF 		bl	_test_assert
 647 0206 0346     		mov	r3, r0
 648 0208 002B     		cmp	r3, #0
 649 020a 40F08F80 		bne	.L17
 650              	.L29:
 651              		.loc 1 211 0
 652 020e FFF7FEFF 		bl	test_wait_threads
 653              		.loc 1 216 0
 654 0212 424A     		ldr	r2, .L33+20
 655 0214 414B     		ldr	r3, .L33+20
 656 0216 1A60     		str	r2, [r3, #0]
 657              		.loc 1 217 0
 658 0218 414A     		ldr	r2, .L33+24
 659 021a 414B     		ldr	r3, .L33+24
 660 021c 1A60     		str	r2, [r3, #0]
 661              		.loc 1 218 0
 662 021e 05AB     		add	r3, sp, #20
 663 0220 3E48     		ldr	r0, .L33+20
ARM GAS  /tmp/ccnXntFd.s 			page 13


 664 0222 1946     		mov	r1, r3
 665 0224 4FF00102 		mov	r2, #1
 666 0228 FFF7FEFF 		bl	chEvtRegisterMask
 667              		.loc 1 219 0
 668 022c 02AB     		add	r3, sp, #8
 669 022e 3C48     		ldr	r0, .L33+24
 670 0230 1946     		mov	r1, r3
 671 0232 4FF00402 		mov	r2, #4
 672 0236 FFF7FEFF 		bl	chEvtRegisterMask
 673              		.loc 1 220 0
 674 023a FFF7FEFF 		bl	test_wait_tick
 675              		.loc 1 221 0
 676 023e 324B     		ldr	r3, .L33
 677 0240 DB68     		ldr	r3, [r3, #12]
 678 0242 03F11903 		add	r3, r3, #25
 679 0246 0893     		str	r3, [sp, #32]
 680              		.loc 1 222 0
 681 0248 304B     		ldr	r3, .L33+4
 682 024a 1A68     		ldr	r2, [r3, #0]
 683 024c 304B     		ldr	r3, .L33+8
 684 024e DB69     		ldr	r3, [r3, #28]
 685 0250 9B68     		ldr	r3, [r3, #8]
 686 0252 03F1FF33 		add	r3, r3, #-1
 687 0256 3349     		ldr	r1, .L33+28
 688 0258 0091     		str	r1, [sp, #0]
 689 025a 1046     		mov	r0, r2
 690 025c 4FF49871 		mov	r1, #304
 691 0260 1A46     		mov	r2, r3
 692 0262 314B     		ldr	r3, .L33+32
 693 0264 FFF7FEFF 		bl	chThdCreateStatic
 694 0268 0246     		mov	r2, r0
 695 026a 2B4B     		ldr	r3, .L33+16
 696 026c 1A60     		str	r2, [r3, #0]
 697              		.loc 1 224 0
 698 026e 4FF00500 		mov	r0, #5
 699 0272 FFF7FEFF 		bl	chEvtWaitAll
 700 0276 0990     		str	r0, [sp, #36]
 701              		.loc 1 225 0
 702 0278 089B     		ldr	r3, [sp, #32]
 703 027a 03F10303 		add	r3, r3, #3
 704 027e 4FF00C00 		mov	r0, #12
 705 0282 0899     		ldr	r1, [sp, #32]
 706 0284 1A46     		mov	r2, r3
 707 0286 FFF7FEFF 		bl	_test_assert_time_window
 708 028a 0346     		mov	r3, r0
 709 028c 002B     		cmp	r3, #0
 710 028e 4DD1     		bne	.L17
 711              	.L30:
 712              		.loc 1 226 0
 713 0290 4FF0FF30 		mov	r0, #-1
 714 0294 FFF7FEFF 		bl	chEvtClearFlags
 715 0298 0990     		str	r0, [sp, #36]
 716              		.loc 1 227 0
 717 029a 099B     		ldr	r3, [sp, #36]
 718 029c 002B     		cmp	r3, #0
 719 029e 14BF     		ite	ne
 720 02a0 0023     		movne	r3, #0
ARM GAS  /tmp/ccnXntFd.s 			page 14


 721 02a2 0123     		moveq	r3, #1
 722 02a4 4FF00D00 		mov	r0, #13
 723 02a8 1946     		mov	r1, r3
 724 02aa FFF7FEFF 		bl	_test_assert
 725 02ae 0346     		mov	r3, r0
 726 02b0 002B     		cmp	r3, #0
 727 02b2 3BD1     		bne	.L17
 728              	.L31:
 729              		.loc 1 228 0
 730 02b4 FFF7FEFF 		bl	test_wait_threads
 731              		.loc 1 229 0
 732 02b8 05AB     		add	r3, sp, #20
 733 02ba 1848     		ldr	r0, .L33+20
 734 02bc 1946     		mov	r1, r3
 735 02be FFF7FEFF 		bl	chEvtUnregister
 736              		.loc 1 230 0
 737 02c2 02AB     		add	r3, sp, #8
 738 02c4 1648     		ldr	r0, .L33+24
 739 02c6 1946     		mov	r1, r3
 740 02c8 FFF7FEFF 		bl	chEvtUnregister
 741              		.loc 1 231 0
 742 02cc 134B     		ldr	r3, .L33+20
 743 02ce 1A68     		ldr	r2, [r3, #0]
 744 02d0 124B     		ldr	r3, .L33+20
 745 02d2 9A42     		cmp	r2, r3
 746 02d4 14BF     		ite	ne
 747 02d6 0023     		movne	r3, #0
 748 02d8 0123     		moveq	r3, #1
 749 02da 4FF00E00 		mov	r0, #14
 750 02de 1946     		mov	r1, r3
 751 02e0 FFF7FEFF 		bl	_test_assert
 752 02e4 0346     		mov	r3, r0
 753 02e6 002B     		cmp	r3, #0
 754 02e8 20D1     		bne	.L17
 755              	.L32:
 756              		.loc 1 232 0
 757 02ea 0D4B     		ldr	r3, .L33+24
 758 02ec 1A68     		ldr	r2, [r3, #0]
 759 02ee 0C4B     		ldr	r3, .L33+24
 760 02f0 9A42     		cmp	r2, r3
 761 02f2 14BF     		ite	ne
 762 02f4 0023     		movne	r3, #0
 763 02f6 0123     		moveq	r3, #1
 764 02f8 4FF00F00 		mov	r0, #15
 765 02fc 1946     		mov	r1, r3
 766 02fe FFF7FEFF 		bl	_test_assert
 767 0302 0346     		mov	r3, r0
 768 0304 002B     		cmp	r3, #0
 769 0306 11E0     		b	.L34
 770              	.L35:
 771              		.align	2
 772              	.L33:
 773 0308 00000000 		.word	vtlist
 774 030c 00000000 		.word	wa
 775 0310 00000000 		.word	rlist
 776 0314 00000000 		.word	thread1
 777 0318 00000000 		.word	threads
ARM GAS  /tmp/ccnXntFd.s 			page 15


 778 031c 00000000 		.word	es1
 779 0320 00000000 		.word	es2
 780 0324 28000000 		.word	.LC2
 781 0328 00000000 		.word	thread2
 782              	.L34:
 783              	.L17:
 784              		.loc 1 233 0
 785 032c 0BB0     		add	sp, sp, #44
 786 032e 00BD     		pop	{pc}
 787              		.cfi_endproc
 788              	.LFE15:
 789              		.size	evt2_execute, .-evt2_execute
 790              		.global	testevt2
 791              		.section	.rodata
 792 002a 0000     		.align	2
 793              	.LC3:
 794 002c 4576656E 		.ascii	"Events, wait and broadcast\000"
 794      74732C20 
 794      77616974 
 794      20616E64 
 794      2062726F 
 795              		.section	.rodata.testevt2,"a",%progbits
 796              		.align	2
 797              		.type	testevt2, %object
 798              		.size	testevt2, 16
 799              	testevt2:
 800 0000 2C000000 		.word	.LC3
 801 0004 00000000 		.word	evt2_setup
 802 0008 00000000 		.word	0
 803 000c 00000000 		.word	evt2_execute
 804              		.section	.text.evt3_setup,"ax",%progbits
 805              		.align	2
 806              		.p2align 4,,15
 807              		.thumb
 808              		.thumb_func
 809              		.type	evt3_setup, %function
 810              	evt3_setup:
 811              	.LFB16:
 812              		.loc 1 258 0
 813              		.cfi_startproc
 814              		@ args = 0, pretend = 0, frame = 0
 815              		@ frame_needed = 0, uses_anonymous_args = 0
 816 0000 08B5     		push	{r3, lr}
 817              	.LCFI16:
 818              		.cfi_def_cfa_offset 8
 819              		.loc 1 260 0
 820 0002 4FF0FF30 		mov	r0, #-1
 821              		.cfi_offset 14, -4
 822              		.cfi_offset 3, -8
 823 0006 FFF7FEFF 		bl	chEvtClearFlags
 824              		.loc 1 261 0
 825 000a 08BD     		pop	{r3, pc}
 826              		.cfi_endproc
 827              	.LFE16:
 828              		.size	evt3_setup, .-evt3_setup
 829 000c AFF30080 		.section	.text.evt3_execute,"ax",%progbits
 830              		.align	2
ARM GAS  /tmp/ccnXntFd.s 			page 16


 831              		.p2align 4,,15
 832              		.thumb
 833              		.thumb_func
 834              		.type	evt3_execute, %function
 835              	evt3_execute:
 836              	.LFB17:
 837              		.loc 1 263 0
 838              		.cfi_startproc
 839              		@ args = 0, pretend = 0, frame = 8
 840              		@ frame_needed = 0, uses_anonymous_args = 0
 841 0000 00B5     		push	{lr}
 842              	.LCFI17:
 843              		.cfi_def_cfa_offset 4
 844 0002 83B0     		sub	sp, sp, #12
 845              	.LCFI18:
 846              		.cfi_def_cfa_offset 16
 847              		.loc 1 269 0
 848 0004 4FF0FF30 		mov	r0, #-1
 849 0008 4FF00001 		mov	r1, #0
 850              		.cfi_offset 14, -4
 851 000c FFF7FEFF 		bl	chEvtWaitOneTimeout
 852 0010 0190     		str	r0, [sp, #4]
 853              		.loc 1 270 0
 854 0012 019B     		ldr	r3, [sp, #4]
 855 0014 002B     		cmp	r3, #0
 856 0016 14BF     		ite	ne
 857 0018 0023     		movne	r3, #0
 858 001a 0123     		moveq	r3, #1
 859 001c 4FF00100 		mov	r0, #1
 860 0020 1946     		mov	r1, r3
 861 0022 FFF7FEFF 		bl	_test_assert
 862 0026 0346     		mov	r3, r0
 863 0028 002B     		cmp	r3, #0
 864 002a 62D1     		bne	.L37
 865              	.L38:
 866              		.loc 1 271 0
 867 002c 4FF0FF30 		mov	r0, #-1
 868 0030 4FF00001 		mov	r1, #0
 869 0034 FFF7FEFF 		bl	chEvtWaitAnyTimeout
 870 0038 0190     		str	r0, [sp, #4]
 871              		.loc 1 272 0
 872 003a 019B     		ldr	r3, [sp, #4]
 873 003c 002B     		cmp	r3, #0
 874 003e 14BF     		ite	ne
 875 0040 0023     		movne	r3, #0
 876 0042 0123     		moveq	r3, #1
 877 0044 4FF00200 		mov	r0, #2
 878 0048 1946     		mov	r1, r3
 879 004a FFF7FEFF 		bl	_test_assert
 880 004e 0346     		mov	r3, r0
 881 0050 002B     		cmp	r3, #0
 882 0052 4ED1     		bne	.L37
 883              	.L40:
 884              		.loc 1 273 0
 885 0054 4FF0FF30 		mov	r0, #-1
 886 0058 4FF00001 		mov	r1, #0
 887 005c FFF7FEFF 		bl	chEvtWaitAllTimeout
ARM GAS  /tmp/ccnXntFd.s 			page 17


 888 0060 0190     		str	r0, [sp, #4]
 889              		.loc 1 274 0
 890 0062 019B     		ldr	r3, [sp, #4]
 891 0064 002B     		cmp	r3, #0
 892 0066 14BF     		ite	ne
 893 0068 0023     		movne	r3, #0
 894 006a 0123     		moveq	r3, #1
 895 006c 4FF00300 		mov	r0, #3
 896 0070 1946     		mov	r1, r3
 897 0072 FFF7FEFF 		bl	_test_assert
 898 0076 0346     		mov	r3, r0
 899 0078 002B     		cmp	r3, #0
 900 007a 3AD1     		bne	.L37
 901              	.L41:
 902              		.loc 1 275 0
 903 007c 4FF0FF30 		mov	r0, #-1
 904 0080 4FF00A01 		mov	r1, #10
 905 0084 FFF7FEFF 		bl	chEvtWaitOneTimeout
 906 0088 0190     		str	r0, [sp, #4]
 907              		.loc 1 276 0
 908 008a 019B     		ldr	r3, [sp, #4]
 909 008c 002B     		cmp	r3, #0
 910 008e 14BF     		ite	ne
 911 0090 0023     		movne	r3, #0
 912 0092 0123     		moveq	r3, #1
 913 0094 4FF00400 		mov	r0, #4
 914 0098 1946     		mov	r1, r3
 915 009a FFF7FEFF 		bl	_test_assert
 916 009e 0346     		mov	r3, r0
 917 00a0 002B     		cmp	r3, #0
 918 00a2 26D1     		bne	.L37
 919              	.L42:
 920              		.loc 1 277 0
 921 00a4 4FF0FF30 		mov	r0, #-1
 922 00a8 4FF00A01 		mov	r1, #10
 923 00ac FFF7FEFF 		bl	chEvtWaitAnyTimeout
 924 00b0 0190     		str	r0, [sp, #4]
 925              		.loc 1 278 0
 926 00b2 019B     		ldr	r3, [sp, #4]
 927 00b4 002B     		cmp	r3, #0
 928 00b6 14BF     		ite	ne
 929 00b8 0023     		movne	r3, #0
 930 00ba 0123     		moveq	r3, #1
 931 00bc 4FF00500 		mov	r0, #5
 932 00c0 1946     		mov	r1, r3
 933 00c2 FFF7FEFF 		bl	_test_assert
 934 00c6 0346     		mov	r3, r0
 935 00c8 002B     		cmp	r3, #0
 936 00ca 12D1     		bne	.L37
 937              	.L43:
 938              		.loc 1 279 0
 939 00cc 4FF0FF30 		mov	r0, #-1
 940 00d0 4FF00A01 		mov	r1, #10
 941 00d4 FFF7FEFF 		bl	chEvtWaitAllTimeout
 942 00d8 0190     		str	r0, [sp, #4]
 943              		.loc 1 280 0
 944 00da 019B     		ldr	r3, [sp, #4]
ARM GAS  /tmp/ccnXntFd.s 			page 18


 945 00dc 002B     		cmp	r3, #0
 946 00de 14BF     		ite	ne
 947 00e0 0023     		movne	r3, #0
 948 00e2 0123     		moveq	r3, #1
 949 00e4 4FF00600 		mov	r0, #6
 950 00e8 1946     		mov	r1, r3
 951 00ea FFF7FEFF 		bl	_test_assert
 952 00ee 0346     		mov	r3, r0
 953 00f0 002B     		cmp	r3, #0
 954              	.L37:
 955              		.loc 1 281 0
 956 00f2 03B0     		add	sp, sp, #12
 957 00f4 00BD     		pop	{pc}
 958              		.cfi_endproc
 959              	.LFE17:
 960              		.size	evt3_execute, .-evt3_execute
 961              		.global	testevt3
 962 00f6 00BFAFF3 		.section	.rodata
 962      0080AFF3 
 962      0080
 963 0047 00       		.align	2
 964              	.LC4:
 965 0048 4576656E 		.ascii	"Events, timeouts\000"
 965      74732C20 
 965      74696D65 
 965      6F757473 
 965      00
 966 0059 000000   		.section	.rodata.testevt3,"a",%progbits
 967              		.align	2
 968              		.type	testevt3, %object
 969              		.size	testevt3, 16
 970              	testevt3:
 971 0000 48000000 		.word	.LC4
 972 0004 00000000 		.word	evt3_setup
 973 0008 00000000 		.word	0
 974 000c 00000000 		.word	evt3_execute
 975              		.global	patternevt
 976              		.section	.rodata.patternevt,"a",%progbits
 977              		.align	2
 978              		.type	patternevt, %object
 979              		.size	patternevt, 16
 980              	patternevt:
 981 0000 00000000 		.word	testevt1
 982 0004 00000000 		.word	testevt2
 983 0008 00000000 		.word	testevt3
 984 000c 00000000 		.word	0
 985              		.text
 986              	.Letext0:
 987              		.section	.debug_loc,"",%progbits
 988              	.Ldebug_loc0:
 989              	.LLST0:
 990 0000 00000000 		.4byte	.LFB7
 991 0004 02000000 		.4byte	.LCFI0
 992 0008 0200     		.2byte	0x2
 993 000a 7D       		.byte	0x7d
 994 000b 00       		.sleb128 0
 995 000c 02000000 		.4byte	.LCFI0
ARM GAS  /tmp/ccnXntFd.s 			page 19


 996 0010 0C000000 		.4byte	.LFE7
 997 0014 0200     		.2byte	0x2
 998 0016 7D       		.byte	0x7d
 999 0017 08       		.sleb128 8
 1000 0018 00000000 		.4byte	0x0
 1001 001c 00000000 		.4byte	0x0
 1002              	.LLST1:
 1003 0020 00000000 		.4byte	.LFB8
 1004 0024 02000000 		.4byte	.LCFI1
 1005 0028 0200     		.2byte	0x2
 1006 002a 7D       		.byte	0x7d
 1007 002b 00       		.sleb128 0
 1008 002c 02000000 		.4byte	.LCFI1
 1009 0030 04000000 		.4byte	.LCFI2
 1010 0034 0200     		.2byte	0x2
 1011 0036 7D       		.byte	0x7d
 1012 0037 04       		.sleb128 4
 1013 0038 04000000 		.4byte	.LCFI2
 1014 003c 12000000 		.4byte	.LFE8
 1015 0040 0200     		.2byte	0x2
 1016 0042 7D       		.byte	0x7d
 1017 0043 10       		.sleb128 16
 1018 0044 00000000 		.4byte	0x0
 1019 0048 00000000 		.4byte	0x0
 1020              	.LLST2:
 1021 004c 00000000 		.4byte	.LFB9
 1022 0050 02000000 		.4byte	.LCFI3
 1023 0054 0200     		.2byte	0x2
 1024 0056 7D       		.byte	0x7d
 1025 0057 00       		.sleb128 0
 1026 0058 02000000 		.4byte	.LCFI3
 1027 005c 04000000 		.4byte	.LCFI4
 1028 0060 0200     		.2byte	0x2
 1029 0062 7D       		.byte	0x7d
 1030 0063 04       		.sleb128 4
 1031 0064 04000000 		.4byte	.LCFI4
 1032 0068 12000000 		.4byte	.LFE9
 1033 006c 0200     		.2byte	0x2
 1034 006e 7D       		.byte	0x7d
 1035 006f 10       		.sleb128 16
 1036 0070 00000000 		.4byte	0x0
 1037 0074 00000000 		.4byte	0x0
 1038              	.LLST3:
 1039 0078 00000000 		.4byte	.LFB10
 1040 007c 02000000 		.4byte	.LCFI5
 1041 0080 0200     		.2byte	0x2
 1042 0082 7D       		.byte	0x7d
 1043 0083 00       		.sleb128 0
 1044 0084 02000000 		.4byte	.LCFI5
 1045 0088 04000000 		.4byte	.LCFI6
 1046 008c 0200     		.2byte	0x2
 1047 008e 7D       		.byte	0x7d
 1048 008f 04       		.sleb128 4
 1049 0090 04000000 		.4byte	.LCFI6
 1050 0094 12000000 		.4byte	.LFE10
 1051 0098 0200     		.2byte	0x2
 1052 009a 7D       		.byte	0x7d
ARM GAS  /tmp/ccnXntFd.s 			page 20


 1053 009b 10       		.sleb128 16
 1054 009c 00000000 		.4byte	0x0
 1055 00a0 00000000 		.4byte	0x0
 1056              	.LLST4:
 1057 00a4 00000000 		.4byte	.LFB11
 1058 00a8 02000000 		.4byte	.LCFI7
 1059 00ac 0200     		.2byte	0x2
 1060 00ae 7D       		.byte	0x7d
 1061 00af 00       		.sleb128 0
 1062 00b0 02000000 		.4byte	.LCFI7
 1063 00b4 04000000 		.4byte	.LCFI8
 1064 00b8 0200     		.2byte	0x2
 1065 00ba 7D       		.byte	0x7d
 1066 00bb 04       		.sleb128 4
 1067 00bc 04000000 		.4byte	.LCFI8
 1068 00c0 BC000000 		.4byte	.LFE11
 1069 00c4 0200     		.2byte	0x2
 1070 00c6 7D       		.byte	0x7d
 1071 00c7 20       		.sleb128 32
 1072 00c8 00000000 		.4byte	0x0
 1073 00cc 00000000 		.4byte	0x0
 1074              	.LLST5:
 1075 00d0 00000000 		.4byte	.LFB12
 1076 00d4 02000000 		.4byte	.LCFI9
 1077 00d8 0200     		.2byte	0x2
 1078 00da 7D       		.byte	0x7d
 1079 00db 00       		.sleb128 0
 1080 00dc 02000000 		.4byte	.LCFI9
 1081 00e0 0C000000 		.4byte	.LFE12
 1082 00e4 0200     		.2byte	0x2
 1083 00e6 7D       		.byte	0x7d
 1084 00e7 08       		.sleb128 8
 1085 00e8 00000000 		.4byte	0x0
 1086 00ec 00000000 		.4byte	0x0
 1087              	.LLST6:
 1088 00f0 00000000 		.4byte	.LFB13
 1089 00f4 02000000 		.4byte	.LCFI10
 1090 00f8 0200     		.2byte	0x2
 1091 00fa 7D       		.byte	0x7d
 1092 00fb 00       		.sleb128 0
 1093 00fc 02000000 		.4byte	.LCFI10
 1094 0100 04000000 		.4byte	.LCFI11
 1095 0104 0200     		.2byte	0x2
 1096 0106 7D       		.byte	0x7d
 1097 0107 04       		.sleb128 4
 1098 0108 04000000 		.4byte	.LCFI11
 1099 010c 24000000 		.4byte	.LFE13
 1100 0110 0200     		.2byte	0x2
 1101 0112 7D       		.byte	0x7d
 1102 0113 10       		.sleb128 16
 1103 0114 00000000 		.4byte	0x0
 1104 0118 00000000 		.4byte	0x0
 1105              	.LLST7:
 1106 011c 00000000 		.4byte	.LFB14
 1107 0120 02000000 		.4byte	.LCFI12
 1108 0124 0200     		.2byte	0x2
 1109 0126 7D       		.byte	0x7d
ARM GAS  /tmp/ccnXntFd.s 			page 21


 1110 0127 00       		.sleb128 0
 1111 0128 02000000 		.4byte	.LCFI12
 1112 012c 04000000 		.4byte	.LCFI13
 1113 0130 0200     		.2byte	0x2
 1114 0132 7D       		.byte	0x7d
 1115 0133 04       		.sleb128 4
 1116 0134 04000000 		.4byte	.LCFI13
 1117 0138 34000000 		.4byte	.LFE14
 1118 013c 0200     		.2byte	0x2
 1119 013e 7D       		.byte	0x7d
 1120 013f 10       		.sleb128 16
 1121 0140 00000000 		.4byte	0x0
 1122 0144 00000000 		.4byte	0x0
 1123              	.LLST8:
 1124 0148 00000000 		.4byte	.LFB15
 1125 014c 02000000 		.4byte	.LCFI14
 1126 0150 0200     		.2byte	0x2
 1127 0152 7D       		.byte	0x7d
 1128 0153 00       		.sleb128 0
 1129 0154 02000000 		.4byte	.LCFI14
 1130 0158 04000000 		.4byte	.LCFI15
 1131 015c 0200     		.2byte	0x2
 1132 015e 7D       		.byte	0x7d
 1133 015f 04       		.sleb128 4
 1134 0160 04000000 		.4byte	.LCFI15
 1135 0164 30030000 		.4byte	.LFE15
 1136 0168 0200     		.2byte	0x2
 1137 016a 7D       		.byte	0x7d
 1138 016b 30       		.sleb128 48
 1139 016c 00000000 		.4byte	0x0
 1140 0170 00000000 		.4byte	0x0
 1141              	.LLST9:
 1142 0174 00000000 		.4byte	.LFB16
 1143 0178 02000000 		.4byte	.LCFI16
 1144 017c 0200     		.2byte	0x2
 1145 017e 7D       		.byte	0x7d
 1146 017f 00       		.sleb128 0
 1147 0180 02000000 		.4byte	.LCFI16
 1148 0184 0C000000 		.4byte	.LFE16
 1149 0188 0200     		.2byte	0x2
 1150 018a 7D       		.byte	0x7d
 1151 018b 08       		.sleb128 8
 1152 018c 00000000 		.4byte	0x0
 1153 0190 00000000 		.4byte	0x0
 1154              	.LLST10:
 1155 0194 00000000 		.4byte	.LFB17
 1156 0198 02000000 		.4byte	.LCFI17
 1157 019c 0200     		.2byte	0x2
 1158 019e 7D       		.byte	0x7d
 1159 019f 00       		.sleb128 0
 1160 01a0 02000000 		.4byte	.LCFI17
 1161 01a4 04000000 		.4byte	.LCFI18
 1162 01a8 0200     		.2byte	0x2
 1163 01aa 7D       		.byte	0x7d
 1164 01ab 04       		.sleb128 4
 1165 01ac 04000000 		.4byte	.LCFI18
 1166 01b0 F6000000 		.4byte	.LFE17
ARM GAS  /tmp/ccnXntFd.s 			page 22


 1167 01b4 0200     		.2byte	0x2
 1168 01b6 7D       		.byte	0x7d
 1169 01b7 10       		.sleb128 16
 1170 01b8 00000000 		.4byte	0x0
 1171 01bc 00000000 		.4byte	0x0
 1172              		.file 2 "/home/z80/programs/code-sourcery/2011.03-42/bin/../lib/gcc/arm-none-eabi/4.5.2/../../../.
 1173              		.file 3 "../chibios_2.4.x/os/ports/GCC/ARMCMx/chtypes.h"
 1174              		.file 4 "../chibios_2.4.x/os/kernel/include/chlists.h"
 1175              		.file 5 "../chibios_2.4.x/os/kernel/include/chthreads.h"
 1176              		.file 6 "../chibios_2.4.x/os/ports/GCC/ARMCMx/chcore_v7m.h"
 1177              		.file 7 "../chibios_2.4.x/os/kernel/include/chvt.h"
 1178              		.file 8 "../chibios_2.4.x/os/kernel/include/chschd.h"
 1179              		.file 9 "../chibios_2.4.x/os/kernel/include/chmtx.h"
 1180              		.file 10 "../chibios_2.4.x/os/kernel/include/chevents.h"
 1181              		.file 11 "../chibios_2.4.x/test/test.h"
 1182              		.section	.debug_info
 1183 0000 ED080000 		.4byte	0x8ed
 1184 0004 0200     		.2byte	0x2
 1185 0006 00000000 		.4byte	.Ldebug_abbrev0
 1186 000a 04       		.byte	0x4
 1187 000b 01       		.uleb128 0x1
 1188 000c AE030000 		.4byte	.LASF100
 1189 0010 01       		.byte	0x1
 1190 0011 DD020000 		.4byte	.LASF101
 1191 0015 59030000 		.4byte	.LASF102
 1192 0019 00000000 		.4byte	0x0
 1193 001d 00000000 		.4byte	0x0
 1194 0021 00000000 		.4byte	.Ldebug_ranges0+0x0
 1195 0025 00000000 		.4byte	.Ldebug_line0
 1196 0029 02       		.uleb128 0x2
 1197 002a 04       		.byte	0x4
 1198 002b 05       		.byte	0x5
 1199 002c 696E7400 		.ascii	"int\000"
 1200 0030 03       		.uleb128 0x3
 1201 0031 04       		.byte	0x4
 1202 0032 07       		.byte	0x7
 1203 0033 02010000 		.4byte	.LASF0
 1204 0037 03       		.uleb128 0x3
 1205 0038 01       		.byte	0x1
 1206 0039 06       		.byte	0x6
 1207 003a 6A000000 		.4byte	.LASF1
 1208 003e 04       		.uleb128 0x4
 1209 003f 91030000 		.4byte	.LASF5
 1210 0043 02       		.byte	0x2
 1211 0044 2A       		.byte	0x2a
 1212 0045 49000000 		.4byte	0x49
 1213 0049 03       		.uleb128 0x3
 1214 004a 01       		.byte	0x1
 1215 004b 08       		.byte	0x8
 1216 004c 2C020000 		.4byte	.LASF2
 1217 0050 03       		.uleb128 0x3
 1218 0051 02       		.byte	0x2
 1219 0052 05       		.byte	0x5
 1220 0053 5D020000 		.4byte	.LASF3
 1221 0057 03       		.uleb128 0x3
 1222 0058 02       		.byte	0x2
 1223 0059 07       		.byte	0x7
ARM GAS  /tmp/ccnXntFd.s 			page 23


 1224 005a 4A010000 		.4byte	.LASF4
 1225 005e 04       		.uleb128 0x4
 1226 005f 24020000 		.4byte	.LASF6
 1227 0063 02       		.byte	0x2
 1228 0064 4F       		.byte	0x4f
 1229 0065 69000000 		.4byte	0x69
 1230 0069 03       		.uleb128 0x3
 1231 006a 04       		.byte	0x4
 1232 006b 05       		.byte	0x5
 1233 006c 7E000000 		.4byte	.LASF7
 1234 0070 04       		.uleb128 0x4
 1235 0071 BF020000 		.4byte	.LASF8
 1236 0075 02       		.byte	0x2
 1237 0076 50       		.byte	0x50
 1238 0077 7B000000 		.4byte	0x7b
 1239 007b 03       		.uleb128 0x3
 1240 007c 04       		.byte	0x4
 1241 007d 07       		.byte	0x7
 1242 007e 17010000 		.4byte	.LASF9
 1243 0082 03       		.uleb128 0x3
 1244 0083 08       		.byte	0x8
 1245 0084 05       		.byte	0x5
 1246 0085 5C000000 		.4byte	.LASF10
 1247 0089 04       		.uleb128 0x4
 1248 008a 18000000 		.4byte	.LASF11
 1249 008e 02       		.byte	0x2
 1250 008f 78       		.byte	0x78
 1251 0090 94000000 		.4byte	0x94
 1252 0094 03       		.uleb128 0x3
 1253 0095 08       		.byte	0x8
 1254 0096 07       		.byte	0x7
 1255 0097 28000000 		.4byte	.LASF12
 1256 009b 04       		.uleb128 0x4
 1257 009c 6B010000 		.4byte	.LASF13
 1258 00a0 03       		.byte	0x3
 1259 00a1 2F       		.byte	0x2f
 1260 00a2 3E000000 		.4byte	0x3e
 1261 00a6 04       		.uleb128 0x4
 1262 00a7 93000000 		.4byte	.LASF14
 1263 00ab 03       		.byte	0x3
 1264 00ac 30       		.byte	0x30
 1265 00ad 3E000000 		.4byte	0x3e
 1266 00b1 04       		.uleb128 0x4
 1267 00b2 1C020000 		.4byte	.LASF15
 1268 00b6 03       		.byte	0x3
 1269 00b7 32       		.byte	0x32
 1270 00b8 70000000 		.4byte	0x70
 1271 00bc 04       		.uleb128 0x4
 1272 00bd 5D010000 		.4byte	.LASF16
 1273 00c1 03       		.byte	0x3
 1274 00c2 33       		.byte	0x33
 1275 00c3 5E000000 		.4byte	0x5e
 1276 00c7 04       		.uleb128 0x4
 1277 00c8 CF000000 		.4byte	.LASF17
 1278 00cc 03       		.byte	0x3
 1279 00cd 34       		.byte	0x34
 1280 00ce 5E000000 		.4byte	0x5e
ARM GAS  /tmp/ccnXntFd.s 			page 24


 1281 00d2 04       		.uleb128 0x4
 1282 00d3 7F010000 		.4byte	.LASF18
 1283 00d7 03       		.byte	0x3
 1284 00d8 35       		.byte	0x35
 1285 00d9 70000000 		.4byte	0x70
 1286 00dd 04       		.uleb128 0x4
 1287 00de 09030000 		.4byte	.LASF19
 1288 00e2 03       		.byte	0x3
 1289 00e3 36       		.byte	0x36
 1290 00e4 70000000 		.4byte	0x70
 1291 00e8 04       		.uleb128 0x4
 1292 00e9 F1000000 		.4byte	.LASF20
 1293 00ed 03       		.byte	0x3
 1294 00ee 37       		.byte	0x37
 1295 00ef 5E000000 		.4byte	0x5e
 1296 00f3 04       		.uleb128 0x4
 1297 00f4 94020000 		.4byte	.LASF21
 1298 00f8 04       		.byte	0x4
 1299 00f9 2A       		.byte	0x2a
 1300 00fa FE000000 		.4byte	0xfe
 1301 00fe 05       		.uleb128 0x5
 1302 00ff 94020000 		.4byte	.LASF21
 1303 0103 48       		.byte	0x48
 1304 0104 05       		.byte	0x5
 1305 0105 5E       		.byte	0x5e
 1306 0106 07020000 		.4byte	0x207
 1307 010a 06       		.uleb128 0x6
 1308 010b 85020000 		.4byte	.LASF22
 1309 010f 05       		.byte	0x5
 1310 0110 5F       		.byte	0x5f
 1311 0111 2C020000 		.4byte	0x22c
 1312 0115 02       		.byte	0x2
 1313 0116 23       		.byte	0x23
 1314 0117 00       		.uleb128 0x0
 1315 0118 06       		.uleb128 0x6
 1316 0119 0D020000 		.4byte	.LASF23
 1317 011d 05       		.byte	0x5
 1318 011e 61       		.byte	0x61
 1319 011f 2C020000 		.4byte	0x22c
 1320 0123 02       		.byte	0x2
 1321 0124 23       		.byte	0x23
 1322 0125 04       		.uleb128 0x4
 1323 0126 06       		.uleb128 0x6
 1324 0127 48000000 		.4byte	.LASF24
 1325 012b 05       		.byte	0x5
 1326 012c 63       		.byte	0x63
 1327 012d B1000000 		.4byte	0xb1
 1328 0131 02       		.byte	0x2
 1329 0132 23       		.byte	0x23
 1330 0133 08       		.uleb128 0x8
 1331 0134 06       		.uleb128 0x6
 1332 0135 F2030000 		.4byte	.LASF25
 1333 0139 05       		.byte	0x5
 1334 013a 64       		.byte	0x64
 1335 013b 04030000 		.4byte	0x304
 1336 013f 02       		.byte	0x2
 1337 0140 23       		.byte	0x23
ARM GAS  /tmp/ccnXntFd.s 			page 25


 1338 0141 0C       		.uleb128 0xc
 1339 0142 06       		.uleb128 0x6
 1340 0143 AE000000 		.4byte	.LASF26
 1341 0147 05       		.byte	0x5
 1342 0148 66       		.byte	0x66
 1343 0149 2C020000 		.4byte	0x22c
 1344 014d 02       		.byte	0x2
 1345 014e 23       		.byte	0x23
 1346 014f 10       		.uleb128 0x10
 1347 0150 06       		.uleb128 0x6
 1348 0151 C2010000 		.4byte	.LASF27
 1349 0155 05       		.byte	0x5
 1350 0156 67       		.byte	0x67
 1351 0157 2C020000 		.4byte	0x22c
 1352 015b 02       		.byte	0x2
 1353 015c 23       		.byte	0x23
 1354 015d 14       		.uleb128 0x14
 1355 015e 06       		.uleb128 0x6
 1356 015f BA030000 		.4byte	.LASF28
 1357 0163 05       		.byte	0x5
 1358 0164 6E       		.byte	0x6e
 1359 0165 77050000 		.4byte	0x577
 1360 0169 02       		.byte	0x2
 1361 016a 23       		.byte	0x23
 1362 016b 18       		.uleb128 0x18
 1363 016c 06       		.uleb128 0x6
 1364 016d F7000000 		.4byte	.LASF29
 1365 0171 05       		.byte	0x5
 1366 0172 74       		.byte	0x74
 1367 0173 89050000 		.4byte	0x589
 1368 0177 02       		.byte	0x2
 1369 0178 23       		.byte	0x23
 1370 0179 1C       		.uleb128 0x1c
 1371 017a 06       		.uleb128 0x6
 1372 017b 67020000 		.4byte	.LASF30
 1373 017f 05       		.byte	0x5
 1374 0180 79       		.byte	0x79
 1375 0181 A6000000 		.4byte	0xa6
 1376 0185 02       		.byte	0x2
 1377 0186 23       		.byte	0x23
 1378 0187 20       		.uleb128 0x20
 1379 0188 06       		.uleb128 0x6
 1380 0189 8C020000 		.4byte	.LASF31
 1381 018d 05       		.byte	0x5
 1382 018e 7D       		.byte	0x7d
 1383 018f 9B000000 		.4byte	0x9b
 1384 0193 02       		.byte	0x2
 1385 0194 23       		.byte	0x23
 1386 0195 21       		.uleb128 0x21
 1387 0196 06       		.uleb128 0x6
 1388 0197 27030000 		.4byte	.LASF32
 1389 019b 05       		.byte	0x5
 1390 019c 89       		.byte	0x89
 1391 019d E9030000 		.4byte	0x3e9
 1392 01a1 02       		.byte	0x2
 1393 01a2 23       		.byte	0x23
 1394 01a3 24       		.uleb128 0x24
ARM GAS  /tmp/ccnXntFd.s 			page 26


 1395 01a4 07       		.uleb128 0x7
 1396 01a5 705F7500 		.ascii	"p_u\000"
 1397 01a9 05       		.byte	0x5
 1398 01aa AE       		.byte	0xae
 1399 01ab 42050000 		.4byte	0x542
 1400 01af 02       		.byte	0x2
 1401 01b0 23       		.byte	0x23
 1402 01b1 28       		.uleb128 0x28
 1403 01b2 06       		.uleb128 0x6
 1404 01b3 F8030000 		.4byte	.LASF33
 1405 01b7 05       		.byte	0x5
 1406 01b8 B3       		.byte	0xb3
 1407 01b9 54020000 		.4byte	0x254
 1408 01bd 02       		.byte	0x2
 1409 01be 23       		.byte	0x23
 1410 01bf 2C       		.uleb128 0x2c
 1411 01c0 06       		.uleb128 0x6
 1412 01c1 35030000 		.4byte	.LASF34
 1413 01c5 05       		.byte	0x5
 1414 01c6 B9       		.byte	0xb9
 1415 01c7 32020000 		.4byte	0x232
 1416 01cb 02       		.byte	0x2
 1417 01cc 23       		.byte	0x23
 1418 01cd 30       		.uleb128 0x30
 1419 01ce 06       		.uleb128 0x6
 1420 01cf 0B000000 		.4byte	.LASF35
 1421 01d3 05       		.byte	0x5
 1422 01d4 BD       		.byte	0xbd
 1423 01d5 BC000000 		.4byte	0xbc
 1424 01d9 02       		.byte	0x2
 1425 01da 23       		.byte	0x23
 1426 01db 38       		.uleb128 0x38
 1427 01dc 06       		.uleb128 0x6
 1428 01dd A4020000 		.4byte	.LASF36
 1429 01e1 05       		.byte	0x5
 1430 01e2 C3       		.byte	0xc3
 1431 01e3 D2000000 		.4byte	0xd2
 1432 01e7 02       		.byte	0x2
 1433 01e8 23       		.byte	0x23
 1434 01e9 3C       		.uleb128 0x3c
 1435 01ea 06       		.uleb128 0x6
 1436 01eb 53020000 		.4byte	.LASF37
 1437 01ef 05       		.byte	0x5
 1438 01f0 CA       		.byte	0xca
 1439 01f1 8F050000 		.4byte	0x58f
 1440 01f5 02       		.byte	0x2
 1441 01f6 23       		.byte	0x23
 1442 01f7 40       		.uleb128 0x40
 1443 01f8 06       		.uleb128 0x6
 1444 01f9 13030000 		.4byte	.LASF38
 1445 01fd 05       		.byte	0x5
 1446 01fe CE       		.byte	0xce
 1447 01ff B1000000 		.4byte	0xb1
 1448 0203 02       		.byte	0x2
 1449 0204 23       		.byte	0x23
 1450 0205 44       		.uleb128 0x44
 1451 0206 00       		.byte	0x0
ARM GAS  /tmp/ccnXntFd.s 			page 27


 1452 0207 08       		.uleb128 0x8
 1453 0208 08       		.byte	0x8
 1454 0209 04       		.byte	0x4
 1455 020a 61       		.byte	0x61
 1456 020b 2C020000 		.4byte	0x22c
 1457 020f 06       		.uleb128 0x6
 1458 0210 85020000 		.4byte	.LASF22
 1459 0214 04       		.byte	0x4
 1460 0215 62       		.byte	0x62
 1461 0216 2C020000 		.4byte	0x22c
 1462 021a 02       		.byte	0x2
 1463 021b 23       		.byte	0x23
 1464 021c 00       		.uleb128 0x0
 1465 021d 06       		.uleb128 0x6
 1466 021e 0D020000 		.4byte	.LASF23
 1467 0222 04       		.byte	0x4
 1468 0223 64       		.byte	0x64
 1469 0224 2C020000 		.4byte	0x22c
 1470 0228 02       		.byte	0x2
 1471 0229 23       		.byte	0x23
 1472 022a 04       		.uleb128 0x4
 1473 022b 00       		.byte	0x0
 1474 022c 09       		.uleb128 0x9
 1475 022d 04       		.byte	0x4
 1476 022e F3000000 		.4byte	0xf3
 1477 0232 04       		.uleb128 0x4
 1478 0233 E0010000 		.4byte	.LASF39
 1479 0237 04       		.byte	0x4
 1480 0238 66       		.byte	0x66
 1481 0239 07020000 		.4byte	0x207
 1482 023d 08       		.uleb128 0x8
 1483 023e 04       		.byte	0x4
 1484 023f 04       		.byte	0x4
 1485 0240 6B       		.byte	0x6b
 1486 0241 54020000 		.4byte	0x254
 1487 0245 06       		.uleb128 0x6
 1488 0246 85020000 		.4byte	.LASF22
 1489 024a 04       		.byte	0x4
 1490 024b 6D       		.byte	0x6d
 1491 024c 2C020000 		.4byte	0x22c
 1492 0250 02       		.byte	0x2
 1493 0251 23       		.byte	0x23
 1494 0252 00       		.uleb128 0x0
 1495 0253 00       		.byte	0x0
 1496 0254 04       		.uleb128 0x4
 1497 0255 73010000 		.4byte	.LASF40
 1498 0259 04       		.byte	0x4
 1499 025a 70       		.byte	0x70
 1500 025b 3D020000 		.4byte	0x23d
 1501 025f 04       		.uleb128 0x4
 1502 0260 BE000000 		.4byte	.LASF41
 1503 0264 06       		.byte	0x6
 1504 0265 D7       		.byte	0xd7
 1505 0266 6A020000 		.4byte	0x26a
 1506 026a 0A       		.uleb128 0xa
 1507 026b 04       		.byte	0x4
 1508 026c 04       		.uleb128 0x4
ARM GAS  /tmp/ccnXntFd.s 			page 28


 1509 026d 91010000 		.4byte	.LASF42
 1510 0271 06       		.byte	0x6
 1511 0272 DD       		.byte	0xdd
 1512 0273 89000000 		.4byte	0x89
 1513 0277 05       		.uleb128 0x5
 1514 0278 2E030000 		.4byte	.LASF43
 1515 027c 24       		.byte	0x24
 1516 027d 06       		.byte	0x6
 1517 027e FE       		.byte	0xfe
 1518 027f 04030000 		.4byte	0x304
 1519 0283 0B       		.uleb128 0xb
 1520 0284 723400   		.ascii	"r4\000"
 1521 0287 06       		.byte	0x6
 1522 0288 1101     		.2byte	0x111
 1523 028a 5F020000 		.4byte	0x25f
 1524 028e 02       		.byte	0x2
 1525 028f 23       		.byte	0x23
 1526 0290 00       		.uleb128 0x0
 1527 0291 0B       		.uleb128 0xb
 1528 0292 723500   		.ascii	"r5\000"
 1529 0295 06       		.byte	0x6
 1530 0296 1201     		.2byte	0x112
 1531 0298 5F020000 		.4byte	0x25f
 1532 029c 02       		.byte	0x2
 1533 029d 23       		.byte	0x23
 1534 029e 04       		.uleb128 0x4
 1535 029f 0B       		.uleb128 0xb
 1536 02a0 723600   		.ascii	"r6\000"
 1537 02a3 06       		.byte	0x6
 1538 02a4 1301     		.2byte	0x113
 1539 02a6 5F020000 		.4byte	0x25f
 1540 02aa 02       		.byte	0x2
 1541 02ab 23       		.byte	0x23
 1542 02ac 08       		.uleb128 0x8
 1543 02ad 0B       		.uleb128 0xb
 1544 02ae 723700   		.ascii	"r7\000"
 1545 02b1 06       		.byte	0x6
 1546 02b2 1401     		.2byte	0x114
 1547 02b4 5F020000 		.4byte	0x25f
 1548 02b8 02       		.byte	0x2
 1549 02b9 23       		.byte	0x23
 1550 02ba 0C       		.uleb128 0xc
 1551 02bb 0B       		.uleb128 0xb
 1552 02bc 723800   		.ascii	"r8\000"
 1553 02bf 06       		.byte	0x6
 1554 02c0 1501     		.2byte	0x115
 1555 02c2 5F020000 		.4byte	0x25f
 1556 02c6 02       		.byte	0x2
 1557 02c7 23       		.byte	0x23
 1558 02c8 10       		.uleb128 0x10
 1559 02c9 0B       		.uleb128 0xb
 1560 02ca 723900   		.ascii	"r9\000"
 1561 02cd 06       		.byte	0x6
 1562 02ce 1601     		.2byte	0x116
 1563 02d0 5F020000 		.4byte	0x25f
 1564 02d4 02       		.byte	0x2
 1565 02d5 23       		.byte	0x23
ARM GAS  /tmp/ccnXntFd.s 			page 29


 1566 02d6 14       		.uleb128 0x14
 1567 02d7 0B       		.uleb128 0xb
 1568 02d8 72313000 		.ascii	"r10\000"
 1569 02dc 06       		.byte	0x6
 1570 02dd 1701     		.2byte	0x117
 1571 02df 5F020000 		.4byte	0x25f
 1572 02e3 02       		.byte	0x2
 1573 02e4 23       		.byte	0x23
 1574 02e5 18       		.uleb128 0x18
 1575 02e6 0B       		.uleb128 0xb
 1576 02e7 72313100 		.ascii	"r11\000"
 1577 02eb 06       		.byte	0x6
 1578 02ec 1801     		.2byte	0x118
 1579 02ee 5F020000 		.4byte	0x25f
 1580 02f2 02       		.byte	0x2
 1581 02f3 23       		.byte	0x23
 1582 02f4 1C       		.uleb128 0x1c
 1583 02f5 0B       		.uleb128 0xb
 1584 02f6 6C7200   		.ascii	"lr\000"
 1585 02f9 06       		.byte	0x6
 1586 02fa 1901     		.2byte	0x119
 1587 02fc 5F020000 		.4byte	0x25f
 1588 0300 02       		.byte	0x2
 1589 0301 23       		.byte	0x23
 1590 0302 20       		.uleb128 0x20
 1591 0303 00       		.byte	0x0
 1592 0304 0C       		.uleb128 0xc
 1593 0305 42010000 		.4byte	.LASF44
 1594 0309 04       		.byte	0x4
 1595 030a 06       		.byte	0x6
 1596 030b 2301     		.2byte	0x123
 1597 030d 21030000 		.4byte	0x321
 1598 0311 0B       		.uleb128 0xb
 1599 0312 72313300 		.ascii	"r13\000"
 1600 0316 06       		.byte	0x6
 1601 0317 2401     		.2byte	0x124
 1602 0319 21030000 		.4byte	0x321
 1603 031d 02       		.byte	0x2
 1604 031e 23       		.byte	0x23
 1605 031f 00       		.uleb128 0x0
 1606 0320 00       		.byte	0x0
 1607 0321 09       		.uleb128 0x9
 1608 0322 04       		.byte	0x4
 1609 0323 77020000 		.4byte	0x277
 1610 0327 04       		.uleb128 0x4
 1611 0328 1E030000 		.4byte	.LASF45
 1612 032c 07       		.byte	0x7
 1613 032d 53       		.byte	0x53
 1614 032e 32030000 		.4byte	0x332
 1615 0332 09       		.uleb128 0x9
 1616 0333 04       		.byte	0x4
 1617 0334 38030000 		.4byte	0x338
 1618 0338 0D       		.uleb128 0xd
 1619 0339 01       		.byte	0x1
 1620 033a 44030000 		.4byte	0x344
 1621 033e 0E       		.uleb128 0xe
 1622 033f 6A020000 		.4byte	0x26a
ARM GAS  /tmp/ccnXntFd.s 			page 30


 1623 0343 00       		.byte	0x0
 1624 0344 04       		.uleb128 0x4
 1625 0345 D0020000 		.4byte	.LASF46
 1626 0349 07       		.byte	0x7
 1627 034a 58       		.byte	0x58
 1628 034b 4F030000 		.4byte	0x34f
 1629 034f 05       		.uleb128 0x5
 1630 0350 D0020000 		.4byte	.LASF46
 1631 0354 14       		.byte	0x14
 1632 0355 07       		.byte	0x7
 1633 0356 5F       		.byte	0x5f
 1634 0357 A2030000 		.4byte	0x3a2
 1635 035b 06       		.uleb128 0x6
 1636 035c 0F010000 		.4byte	.LASF47
 1637 0360 07       		.byte	0x7
 1638 0361 60       		.byte	0x60
 1639 0362 A2030000 		.4byte	0x3a2
 1640 0366 02       		.byte	0x2
 1641 0367 23       		.byte	0x23
 1642 0368 00       		.uleb128 0x0
 1643 0369 06       		.uleb128 0x6
 1644 036a C7000000 		.4byte	.LASF48
 1645 036e 07       		.byte	0x7
 1646 036f 62       		.byte	0x62
 1647 0370 A2030000 		.4byte	0x3a2
 1648 0374 02       		.byte	0x2
 1649 0375 23       		.byte	0x23
 1650 0376 04       		.uleb128 0x4
 1651 0377 06       		.uleb128 0x6
 1652 0378 9C010000 		.4byte	.LASF49
 1653 037c 07       		.byte	0x7
 1654 037d 64       		.byte	0x64
 1655 037e DD000000 		.4byte	0xdd
 1656 0382 02       		.byte	0x2
 1657 0383 23       		.byte	0x23
 1658 0384 08       		.uleb128 0x8
 1659 0385 06       		.uleb128 0x6
 1660 0386 AF010000 		.4byte	.LASF50
 1661 038a 07       		.byte	0x7
 1662 038b 65       		.byte	0x65
 1663 038c 27030000 		.4byte	0x327
 1664 0390 02       		.byte	0x2
 1665 0391 23       		.byte	0x23
 1666 0392 0C       		.uleb128 0xc
 1667 0393 06       		.uleb128 0x6
 1668 0394 40030000 		.4byte	.LASF51
 1669 0398 07       		.byte	0x7
 1670 0399 67       		.byte	0x67
 1671 039a 6A020000 		.4byte	0x26a
 1672 039e 02       		.byte	0x2
 1673 039f 23       		.byte	0x23
 1674 03a0 10       		.uleb128 0x10
 1675 03a1 00       		.byte	0x0
 1676 03a2 09       		.uleb128 0x9
 1677 03a3 04       		.byte	0x4
 1678 03a4 44030000 		.4byte	0x344
 1679 03a8 08       		.uleb128 0x8
ARM GAS  /tmp/ccnXntFd.s 			page 31


 1680 03a9 10       		.byte	0x10
 1681 03aa 07       		.byte	0x7
 1682 03ab 71       		.byte	0x71
 1683 03ac E9030000 		.4byte	0x3e9
 1684 03b0 06       		.uleb128 0x6
 1685 03b1 0F010000 		.4byte	.LASF47
 1686 03b5 07       		.byte	0x7
 1687 03b6 72       		.byte	0x72
 1688 03b7 A2030000 		.4byte	0x3a2
 1689 03bb 02       		.byte	0x2
 1690 03bc 23       		.byte	0x23
 1691 03bd 00       		.uleb128 0x0
 1692 03be 06       		.uleb128 0x6
 1693 03bf C7000000 		.4byte	.LASF48
 1694 03c3 07       		.byte	0x7
 1695 03c4 74       		.byte	0x74
 1696 03c5 A2030000 		.4byte	0x3a2
 1697 03c9 02       		.byte	0x2
 1698 03ca 23       		.byte	0x23
 1699 03cb 04       		.uleb128 0x4
 1700 03cc 06       		.uleb128 0x6
 1701 03cd 9C010000 		.4byte	.LASF49
 1702 03d1 07       		.byte	0x7
 1703 03d2 76       		.byte	0x76
 1704 03d3 DD000000 		.4byte	0xdd
 1705 03d7 02       		.byte	0x2
 1706 03d8 23       		.byte	0x23
 1707 03d9 08       		.uleb128 0x8
 1708 03da 06       		.uleb128 0x6
 1709 03db C1030000 		.4byte	.LASF52
 1710 03df 07       		.byte	0x7
 1711 03e0 77       		.byte	0x77
 1712 03e1 E9030000 		.4byte	0x3e9
 1713 03e5 02       		.byte	0x2
 1714 03e6 23       		.byte	0x23
 1715 03e7 0C       		.uleb128 0xc
 1716 03e8 00       		.byte	0x0
 1717 03e9 0F       		.uleb128 0xf
 1718 03ea DD000000 		.4byte	0xdd
 1719 03ee 04       		.uleb128 0x4
 1720 03ef CC030000 		.4byte	.LASF53
 1721 03f3 07       		.byte	0x7
 1722 03f4 78       		.byte	0x78
 1723 03f5 A8030000 		.4byte	0x3a8
 1724 03f9 08       		.uleb128 0x8
 1725 03fa 20       		.byte	0x20
 1726 03fb 08       		.byte	0x8
 1727 03fc 5E       		.byte	0x5e
 1728 03fd 64040000 		.4byte	0x464
 1729 0401 06       		.uleb128 0x6
 1730 0402 C8020000 		.4byte	.LASF54
 1731 0406 08       		.byte	0x8
 1732 0407 5F       		.byte	0x5f
 1733 0408 32020000 		.4byte	0x232
 1734 040c 02       		.byte	0x2
 1735 040d 23       		.byte	0x23
 1736 040e 00       		.uleb128 0x0
ARM GAS  /tmp/ccnXntFd.s 			page 32


 1737 040f 06       		.uleb128 0x6
 1738 0410 77020000 		.4byte	.LASF55
 1739 0414 08       		.byte	0x8
 1740 0415 60       		.byte	0x60
 1741 0416 B1000000 		.4byte	0xb1
 1742 041a 02       		.byte	0x2
 1743 041b 23       		.byte	0x23
 1744 041c 08       		.uleb128 0x8
 1745 041d 06       		.uleb128 0x6
 1746 041e DA010000 		.4byte	.LASF56
 1747 0422 08       		.byte	0x8
 1748 0423 62       		.byte	0x62
 1749 0424 04030000 		.4byte	0x304
 1750 0428 02       		.byte	0x2
 1751 0429 23       		.byte	0x23
 1752 042a 0C       		.uleb128 0xc
 1753 042b 06       		.uleb128 0x6
 1754 042c B6000000 		.4byte	.LASF57
 1755 0430 08       		.byte	0x8
 1756 0431 65       		.byte	0x65
 1757 0432 2C020000 		.4byte	0x22c
 1758 0436 02       		.byte	0x2
 1759 0437 23       		.byte	0x23
 1760 0438 10       		.uleb128 0x10
 1761 0439 06       		.uleb128 0x6
 1762 043a FD010000 		.4byte	.LASF58
 1763 043e 08       		.byte	0x8
 1764 043f 66       		.byte	0x66
 1765 0440 2C020000 		.4byte	0x22c
 1766 0444 02       		.byte	0x2
 1767 0445 23       		.byte	0x23
 1768 0446 14       		.uleb128 0x14
 1769 0447 06       		.uleb128 0x6
 1770 0448 D3030000 		.4byte	.LASF59
 1771 044c 08       		.byte	0x8
 1772 044d 6A       		.byte	0x6a
 1773 044e E8000000 		.4byte	0xe8
 1774 0452 02       		.byte	0x2
 1775 0453 23       		.byte	0x23
 1776 0454 18       		.uleb128 0x18
 1777 0455 06       		.uleb128 0x6
 1778 0456 F3010000 		.4byte	.LASF60
 1779 045a 08       		.byte	0x8
 1780 045b 6C       		.byte	0x6c
 1781 045c 2C020000 		.4byte	0x22c
 1782 0460 02       		.byte	0x2
 1783 0461 23       		.byte	0x23
 1784 0462 1C       		.uleb128 0x1c
 1785 0463 00       		.byte	0x0
 1786 0464 04       		.uleb128 0x4
 1787 0465 4F030000 		.4byte	.LASF61
 1788 0469 08       		.byte	0x8
 1789 046a 6E       		.byte	0x6e
 1790 046b F9030000 		.4byte	0x3f9
 1791 046f 05       		.uleb128 0x5
 1792 0470 8B010000 		.4byte	.LASF62
 1793 0474 10       		.byte	0x10
ARM GAS  /tmp/ccnXntFd.s 			page 33


 1794 0475 09       		.byte	0x9
 1795 0476 2C       		.byte	0x2c
 1796 0477 A6040000 		.4byte	0x4a6
 1797 047b 06       		.uleb128 0x6
 1798 047c 76000000 		.4byte	.LASF63
 1799 0480 09       		.byte	0x9
 1800 0481 2D       		.byte	0x2d
 1801 0482 32020000 		.4byte	0x232
 1802 0486 02       		.byte	0x2
 1803 0487 23       		.byte	0x23
 1804 0488 00       		.uleb128 0x0
 1805 0489 06       		.uleb128 0x6
 1806 048a DD030000 		.4byte	.LASF64
 1807 048e 09       		.byte	0x9
 1808 048f 2F       		.byte	0x2f
 1809 0490 2C020000 		.4byte	0x22c
 1810 0494 02       		.byte	0x2
 1811 0495 23       		.byte	0x23
 1812 0496 08       		.uleb128 0x8
 1813 0497 06       		.uleb128 0x6
 1814 0498 02030000 		.4byte	.LASF65
 1815 049c 09       		.byte	0x9
 1816 049d 31       		.byte	0x31
 1817 049e A6040000 		.4byte	0x4a6
 1818 04a2 02       		.byte	0x2
 1819 04a3 23       		.byte	0x23
 1820 04a4 0C       		.uleb128 0xc
 1821 04a5 00       		.byte	0x0
 1822 04a6 09       		.uleb128 0x9
 1823 04a7 04       		.byte	0x4
 1824 04a8 6F040000 		.4byte	0x46f
 1825 04ac 04       		.uleb128 0x4
 1826 04ad 8B010000 		.4byte	.LASF62
 1827 04b1 09       		.byte	0x9
 1828 04b2 33       		.byte	0x33
 1829 04b3 6F040000 		.4byte	0x46f
 1830 04b7 04       		.uleb128 0x4
 1831 04b8 99030000 		.4byte	.LASF66
 1832 04bc 0A       		.byte	0xa
 1833 04bd 29       		.byte	0x29
 1834 04be C2040000 		.4byte	0x4c2
 1835 04c2 05       		.uleb128 0x5
 1836 04c3 99030000 		.4byte	.LASF66
 1837 04c7 0C       		.byte	0xc
 1838 04c8 0A       		.byte	0xa
 1839 04c9 2E       		.byte	0x2e
 1840 04ca F9040000 		.4byte	0x4f9
 1841 04ce 06       		.uleb128 0x6
 1842 04cf 63010000 		.4byte	.LASF67
 1843 04d3 0A       		.byte	0xa
 1844 04d4 2F       		.byte	0x2f
 1845 04d5 F9040000 		.4byte	0x4f9
 1846 04d9 02       		.byte	0x2
 1847 04da 23       		.byte	0x23
 1848 04db 00       		.uleb128 0x0
 1849 04dc 06       		.uleb128 0x6
 1850 04dd 3A020000 		.4byte	.LASF68
ARM GAS  /tmp/ccnXntFd.s 			page 34


 1851 04e1 0A       		.byte	0xa
 1852 04e2 32       		.byte	0x32
 1853 04e3 2C020000 		.4byte	0x22c
 1854 04e7 02       		.byte	0x2
 1855 04e8 23       		.byte	0x23
 1856 04e9 04       		.uleb128 0x4
 1857 04ea 06       		.uleb128 0x6
 1858 04eb 05020000 		.4byte	.LASF69
 1859 04ef 0A       		.byte	0xa
 1860 04f0 34       		.byte	0x34
 1861 04f1 D2000000 		.4byte	0xd2
 1862 04f5 02       		.byte	0x2
 1863 04f6 23       		.byte	0x23
 1864 04f7 08       		.uleb128 0x8
 1865 04f8 00       		.byte	0x0
 1866 04f9 09       		.uleb128 0x9
 1867 04fa 04       		.byte	0x4
 1868 04fb B7040000 		.4byte	0x4b7
 1869 04ff 05       		.uleb128 0x5
 1870 0500 D9000000 		.4byte	.LASF70
 1871 0504 04       		.byte	0x4
 1872 0505 0A       		.byte	0xa
 1873 0506 3C       		.byte	0x3c
 1874 0507 1A050000 		.4byte	0x51a
 1875 050b 06       		.uleb128 0x6
 1876 050c 47030000 		.4byte	.LASF71
 1877 0510 0A       		.byte	0xa
 1878 0511 3D       		.byte	0x3d
 1879 0512 F9040000 		.4byte	0x4f9
 1880 0516 02       		.byte	0x2
 1881 0517 23       		.byte	0x23
 1882 0518 00       		.uleb128 0x0
 1883 0519 00       		.byte	0x0
 1884 051a 04       		.uleb128 0x4
 1885 051b D9000000 		.4byte	.LASF70
 1886 051f 0A       		.byte	0xa
 1887 0520 40       		.byte	0x40
 1888 0521 FF040000 		.4byte	0x4ff
 1889 0525 04       		.uleb128 0x4
 1890 0526 E5000000 		.4byte	.LASF72
 1891 052a 0A       		.byte	0xa
 1892 052b 45       		.byte	0x45
 1893 052c 30050000 		.4byte	0x530
 1894 0530 09       		.uleb128 0x9
 1895 0531 04       		.byte	0x4
 1896 0532 36050000 		.4byte	0x536
 1897 0536 0D       		.uleb128 0xd
 1898 0537 01       		.byte	0x1
 1899 0538 42050000 		.4byte	0x542
 1900 053c 0E       		.uleb128 0xe
 1901 053d C7000000 		.4byte	0xc7
 1902 0541 00       		.byte	0x0
 1903 0542 10       		.uleb128 0x10
 1904 0543 04       		.byte	0x4
 1905 0544 05       		.byte	0x5
 1906 0545 90       		.byte	0x90
 1907 0546 77050000 		.4byte	0x577
ARM GAS  /tmp/ccnXntFd.s 			page 35


 1908 054a 11       		.uleb128 0x11
 1909 054b 11000000 		.4byte	.LASF73
 1910 054f 05       		.byte	0x5
 1911 0550 97       		.byte	0x97
 1912 0551 BC000000 		.4byte	0xbc
 1913 0555 11       		.uleb128 0x11
 1914 0556 3F000000 		.4byte	.LASF74
 1915 055a 05       		.byte	0x5
 1916 055b 9E       		.byte	0x9e
 1917 055c BC000000 		.4byte	0xbc
 1918 0560 11       		.uleb128 0x11
 1919 0561 A7030000 		.4byte	.LASF75
 1920 0565 05       		.byte	0x5
 1921 0566 A5       		.byte	0xa5
 1922 0567 6A020000 		.4byte	0x26a
 1923 056b 11       		.uleb128 0x11
 1924 056c 7E020000 		.4byte	.LASF76
 1925 0570 05       		.byte	0x5
 1926 0571 AC       		.byte	0xac
 1927 0572 D2000000 		.4byte	0xd2
 1928 0576 00       		.byte	0x0
 1929 0577 09       		.uleb128 0x9
 1930 0578 04       		.byte	0x4
 1931 0579 7D050000 		.4byte	0x57d
 1932 057d 12       		.uleb128 0x12
 1933 057e 82050000 		.4byte	0x582
 1934 0582 03       		.uleb128 0x3
 1935 0583 01       		.byte	0x1
 1936 0584 08       		.byte	0x8
 1937 0585 FD020000 		.4byte	.LASF77
 1938 0589 09       		.uleb128 0x9
 1939 058a 04       		.byte	0x4
 1940 058b 6C020000 		.4byte	0x26c
 1941 058f 09       		.uleb128 0x9
 1942 0590 04       		.byte	0x4
 1943 0591 AC040000 		.4byte	0x4ac
 1944 0595 05       		.uleb128 0x5
 1945 0596 9B020000 		.4byte	.LASF78
 1946 059a 10       		.byte	0x10
 1947 059b 0B       		.byte	0xb
 1948 059c 46       		.byte	0x46
 1949 059d DA050000 		.4byte	0x5da
 1950 05a1 06       		.uleb128 0x6
 1951 05a2 3D010000 		.4byte	.LASF79
 1952 05a6 0B       		.byte	0xb
 1953 05a7 47       		.byte	0x47
 1954 05a8 77050000 		.4byte	0x577
 1955 05ac 02       		.byte	0x2
 1956 05ad 23       		.byte	0x23
 1957 05ae 00       		.uleb128 0x0
 1958 05af 06       		.uleb128 0x6
 1959 05b0 ED010000 		.4byte	.LASF80
 1960 05b4 0B       		.byte	0xb
 1961 05b5 48       		.byte	0x48
 1962 05b6 DC050000 		.4byte	0x5dc
 1963 05ba 02       		.byte	0x2
 1964 05bb 23       		.byte	0x23
ARM GAS  /tmp/ccnXntFd.s 			page 36


 1965 05bc 04       		.uleb128 0x4
 1966 05bd 06       		.uleb128 0x6
 1967 05be 29010000 		.4byte	.LASF81
 1968 05c2 0B       		.byte	0xb
 1969 05c3 49       		.byte	0x49
 1970 05c4 DC050000 		.4byte	0x5dc
 1971 05c8 02       		.byte	0x2
 1972 05c9 23       		.byte	0x23
 1973 05ca 08       		.uleb128 0x8
 1974 05cb 06       		.uleb128 0x6
 1975 05cc 14020000 		.4byte	.LASF82
 1976 05d0 0B       		.byte	0xb
 1977 05d1 4A       		.byte	0x4a
 1978 05d2 DC050000 		.4byte	0x5dc
 1979 05d6 02       		.byte	0x2
 1980 05d7 23       		.byte	0x23
 1981 05d8 0C       		.uleb128 0xc
 1982 05d9 00       		.byte	0x0
 1983 05da 13       		.uleb128 0x13
 1984 05db 01       		.byte	0x1
 1985 05dc 09       		.uleb128 0x9
 1986 05dd 04       		.byte	0x4
 1987 05de DA050000 		.4byte	0x5da
 1988 05e2 14       		.uleb128 0x14
 1989 05e3 A4010000 		.4byte	.LASF84
 1990 05e7 01       		.byte	0x1
 1991 05e8 56       		.byte	0x56
 1992 05e9 01       		.byte	0x1
 1993 05ea 00000000 		.4byte	.LFB7
 1994 05ee 0C000000 		.4byte	.LFE7
 1995 05f2 00000000 		.4byte	.LLST0
 1996 05f6 15       		.uleb128 0x15
 1997 05f7 683100   		.ascii	"h1\000"
 1998 05fa 01       		.byte	0x1
 1999 05fb 5B       		.byte	0x5b
 2000 05fc 01       		.byte	0x1
 2001 05fd 00000000 		.4byte	.LFB8
 2002 0601 12000000 		.4byte	.LFE8
 2003 0605 20000000 		.4byte	.LLST1
 2004 0609 1B060000 		.4byte	0x61b
 2005 060d 16       		.uleb128 0x16
 2006 060e 696400   		.ascii	"id\000"
 2007 0611 01       		.byte	0x1
 2008 0612 5B       		.byte	0x5b
 2009 0613 C7000000 		.4byte	0xc7
 2010 0617 02       		.byte	0x2
 2011 0618 91       		.byte	0x91
 2012 0619 74       		.sleb128 -12
 2013 061a 00       		.byte	0x0
 2014 061b 15       		.uleb128 0x15
 2015 061c 683200   		.ascii	"h2\000"
 2016 061f 01       		.byte	0x1
 2017 0620 5C       		.byte	0x5c
 2018 0621 01       		.byte	0x1
 2019 0622 00000000 		.4byte	.LFB9
 2020 0626 12000000 		.4byte	.LFE9
 2021 062a 4C000000 		.4byte	.LLST2
ARM GAS  /tmp/ccnXntFd.s 			page 37


 2022 062e 40060000 		.4byte	0x640
 2023 0632 16       		.uleb128 0x16
 2024 0633 696400   		.ascii	"id\000"
 2025 0636 01       		.byte	0x1
 2026 0637 5C       		.byte	0x5c
 2027 0638 C7000000 		.4byte	0xc7
 2028 063c 02       		.byte	0x2
 2029 063d 91       		.byte	0x91
 2030 063e 74       		.sleb128 -12
 2031 063f 00       		.byte	0x0
 2032 0640 15       		.uleb128 0x15
 2033 0641 683300   		.ascii	"h3\000"
 2034 0644 01       		.byte	0x1
 2035 0645 5D       		.byte	0x5d
 2036 0646 01       		.byte	0x1
 2037 0647 00000000 		.4byte	.LFB10
 2038 064b 12000000 		.4byte	.LFE10
 2039 064f 78000000 		.4byte	.LLST3
 2040 0653 65060000 		.4byte	0x665
 2041 0657 16       		.uleb128 0x16
 2042 0658 696400   		.ascii	"id\000"
 2043 065b 01       		.byte	0x1
 2044 065c 5D       		.byte	0x5d
 2045 065d C7000000 		.4byte	0xc7
 2046 0661 02       		.byte	0x2
 2047 0662 91       		.byte	0x91
 2048 0663 74       		.sleb128 -12
 2049 0664 00       		.byte	0x0
 2050 0665 17       		.uleb128 0x17
 2051 0666 E5030000 		.4byte	.LASF83
 2052 066a 01       		.byte	0x1
 2053 066b 60       		.byte	0x60
 2054 066c 01       		.byte	0x1
 2055 066d 00000000 		.4byte	.LFB11
 2056 0671 BC000000 		.4byte	.LFE11
 2057 0675 A4000000 		.4byte	.LLST4
 2058 0679 9A060000 		.4byte	0x69a
 2059 067d 18       		.uleb128 0x18
 2060 067e 656C3100 		.ascii	"el1\000"
 2061 0682 01       		.byte	0x1
 2062 0683 61       		.byte	0x61
 2063 0684 B7040000 		.4byte	0x4b7
 2064 0688 02       		.byte	0x2
 2065 0689 91       		.byte	0x91
 2066 068a 6C       		.sleb128 -20
 2067 068b 18       		.uleb128 0x18
 2068 068c 656C3200 		.ascii	"el2\000"
 2069 0690 01       		.byte	0x1
 2070 0691 61       		.byte	0x61
 2071 0692 B7040000 		.4byte	0x4b7
 2072 0696 02       		.byte	0x2
 2073 0697 91       		.byte	0x91
 2074 0698 60       		.sleb128 -32
 2075 0699 00       		.byte	0x0
 2076 069a 14       		.uleb128 0x14
 2077 069b 00000000 		.4byte	.LASF85
 2078 069f 01       		.byte	0x1
ARM GAS  /tmp/ccnXntFd.s 			page 38


 2079 06a0 8B       		.byte	0x8b
 2080 06a1 01       		.byte	0x1
 2081 06a2 00000000 		.4byte	.LFB12
 2082 06a6 0C000000 		.4byte	.LFE12
 2083 06aa D0000000 		.4byte	.LLST5
 2084 06ae 19       		.uleb128 0x19
 2085 06af CA010000 		.4byte	.LASF86
 2086 06b3 01       		.byte	0x1
 2087 06b4 90       		.byte	0x90
 2088 06b5 01       		.byte	0x1
 2089 06b6 BC000000 		.4byte	0xbc
 2090 06ba 00000000 		.4byte	.LFB13
 2091 06be 24000000 		.4byte	.LFE13
 2092 06c2 F0000000 		.4byte	.LLST6
 2093 06c6 D7060000 		.4byte	0x6d7
 2094 06ca 16       		.uleb128 0x16
 2095 06cb 7000     		.ascii	"p\000"
 2096 06cd 01       		.byte	0x1
 2097 06ce 90       		.byte	0x90
 2098 06cf 6A020000 		.4byte	0x26a
 2099 06d3 02       		.byte	0x2
 2100 06d4 91       		.byte	0x91
 2101 06d5 74       		.sleb128 -12
 2102 06d6 00       		.byte	0x0
 2103 06d7 19       		.uleb128 0x19
 2104 06d8 D2010000 		.4byte	.LASF87
 2105 06dc 01       		.byte	0x1
 2106 06dd 97       		.byte	0x97
 2107 06de 01       		.byte	0x1
 2108 06df BC000000 		.4byte	0xbc
 2109 06e3 00000000 		.4byte	.LFB14
 2110 06e7 34000000 		.4byte	.LFE14
 2111 06eb 1C010000 		.4byte	.LLST7
 2112 06ef 00070000 		.4byte	0x700
 2113 06f3 16       		.uleb128 0x16
 2114 06f4 7000     		.ascii	"p\000"
 2115 06f6 01       		.byte	0x1
 2116 06f7 97       		.byte	0x97
 2117 06f8 6A020000 		.4byte	0x26a
 2118 06fc 02       		.byte	0x2
 2119 06fd 91       		.byte	0x91
 2120 06fe 74       		.sleb128 -12
 2121 06ff 00       		.byte	0x0
 2122 0700 17       		.uleb128 0x17
 2123 0701 4F000000 		.4byte	.LASF88
 2124 0705 01       		.byte	0x1
 2125 0706 A0       		.byte	0xa0
 2126 0707 01       		.byte	0x1
 2127 0708 00000000 		.4byte	.LFB15
 2128 070c 30030000 		.4byte	.LFE15
 2129 0710 48010000 		.4byte	.LLST8
 2130 0714 4F070000 		.4byte	0x74f
 2131 0718 18       		.uleb128 0x18
 2132 0719 6D00     		.ascii	"m\000"
 2133 071b 01       		.byte	0x1
 2134 071c A1       		.byte	0xa1
 2135 071d D2000000 		.4byte	0xd2
ARM GAS  /tmp/ccnXntFd.s 			page 39


 2136 0721 02       		.byte	0x2
 2137 0722 91       		.byte	0x91
 2138 0723 74       		.sleb128 -12
 2139 0724 18       		.uleb128 0x18
 2140 0725 656C3100 		.ascii	"el1\000"
 2141 0729 01       		.byte	0x1
 2142 072a A2       		.byte	0xa2
 2143 072b B7040000 		.4byte	0x4b7
 2144 072f 02       		.byte	0x2
 2145 0730 91       		.byte	0x91
 2146 0731 64       		.sleb128 -28
 2147 0732 18       		.uleb128 0x18
 2148 0733 656C3200 		.ascii	"el2\000"
 2149 0737 01       		.byte	0x1
 2150 0738 A2       		.byte	0xa2
 2151 0739 B7040000 		.4byte	0x4b7
 2152 073d 02       		.byte	0x2
 2153 073e 91       		.byte	0x91
 2154 073f 58       		.sleb128 -40
 2155 0740 1A       		.uleb128 0x1a
 2156 0741 87000000 		.4byte	.LASF89
 2157 0745 01       		.byte	0x1
 2158 0746 A3       		.byte	0xa3
 2159 0747 DD000000 		.4byte	0xdd
 2160 074b 02       		.byte	0x2
 2161 074c 91       		.byte	0x91
 2162 074d 70       		.sleb128 -16
 2163 074e 00       		.byte	0x0
 2164 074f 1B       		.uleb128 0x1b
 2165 0750 B7010000 		.4byte	.LASF90
 2166 0754 01       		.byte	0x1
 2167 0755 0201     		.2byte	0x102
 2168 0757 01       		.byte	0x1
 2169 0758 00000000 		.4byte	.LFB16
 2170 075c 0C000000 		.4byte	.LFE16
 2171 0760 74010000 		.4byte	.LLST9
 2172 0764 1C       		.uleb128 0x1c
 2173 0765 46020000 		.4byte	.LASF91
 2174 0769 01       		.byte	0x1
 2175 076a 0701     		.2byte	0x107
 2176 076c 01       		.byte	0x1
 2177 076d 00000000 		.4byte	.LFB17
 2178 0771 F6000000 		.4byte	.LFE17
 2179 0775 94010000 		.4byte	.LLST10
 2180 0779 8B070000 		.4byte	0x78b
 2181 077d 1D       		.uleb128 0x1d
 2182 077e 6D00     		.ascii	"m\000"
 2183 0780 01       		.byte	0x1
 2184 0781 0801     		.2byte	0x108
 2185 0783 D2000000 		.4byte	0xd2
 2186 0787 02       		.byte	0x2
 2187 0788 91       		.byte	0x91
 2188 0789 74       		.sleb128 -12
 2189 078a 00       		.byte	0x0
 2190 078b 1E       		.uleb128 0x1e
 2191 078c 21000000 		.4byte	.LASF92
 2192 0790 07       		.byte	0x7
ARM GAS  /tmp/ccnXntFd.s 			page 40


 2193 0791 7A       		.byte	0x7a
 2194 0792 EE030000 		.4byte	0x3ee
 2195 0796 01       		.byte	0x1
 2196 0797 01       		.byte	0x1
 2197 0798 1E       		.uleb128 0x1e
 2198 0799 8B030000 		.4byte	.LASF93
 2199 079d 08       		.byte	0x8
 2200 079e 72       		.byte	0x72
 2201 079f 64040000 		.4byte	0x464
 2202 07a3 01       		.byte	0x1
 2203 07a4 01       		.byte	0x1
 2204 07a5 1F       		.uleb128 0x1f
 2205 07a6 2C020000 		.4byte	0x22c
 2206 07aa B5070000 		.4byte	0x7b5
 2207 07ae 20       		.uleb128 0x20
 2208 07af 30000000 		.4byte	0x30
 2209 07b3 04       		.byte	0x4
 2210 07b4 00       		.byte	0x0
 2211 07b5 1E       		.uleb128 0x1e
 2212 07b6 6F020000 		.4byte	.LASF94
 2213 07ba 0B       		.byte	0xb
 2214 07bb B0       		.byte	0xb0
 2215 07bc A5070000 		.4byte	0x7a5
 2216 07c0 01       		.byte	0x1
 2217 07c1 01       		.byte	0x1
 2218 07c2 1F       		.uleb128 0x1f
 2219 07c3 6A020000 		.4byte	0x26a
 2220 07c7 CD070000 		.4byte	0x7cd
 2221 07cb 21       		.uleb128 0x21
 2222 07cc 00       		.byte	0x0
 2223 07cd 22       		.uleb128 0x22
 2224 07ce 776100   		.ascii	"wa\000"
 2225 07d1 0B       		.byte	0xb
 2226 07d2 B2       		.byte	0xb2
 2227 07d3 D9070000 		.4byte	0x7d9
 2228 07d7 01       		.byte	0x1
 2229 07d8 01       		.byte	0x1
 2230 07d9 12       		.uleb128 0x12
 2231 07da C2070000 		.4byte	0x7c2
 2232 07de 18       		.uleb128 0x18
 2233 07df 65733100 		.ascii	"es1\000"
 2234 07e3 01       		.byte	0x1
 2235 07e4 46       		.byte	0x46
 2236 07e5 1A050000 		.4byte	0x51a
 2237 07e9 05       		.byte	0x5
 2238 07ea 03       		.byte	0x3
 2239 07eb 00000000 		.4byte	es1
 2240 07ef 18       		.uleb128 0x18
 2241 07f0 65733200 		.ascii	"es2\000"
 2242 07f4 01       		.byte	0x1
 2243 07f5 47       		.byte	0x47
 2244 07f6 1A050000 		.4byte	0x51a
 2245 07fa 05       		.byte	0x5
 2246 07fb 03       		.byte	0x3
 2247 07fc 00000000 		.4byte	es2
 2248 0800 1F       		.uleb128 0x1f
 2249 0801 25050000 		.4byte	0x525
ARM GAS  /tmp/ccnXntFd.s 			page 41


 2250 0805 10080000 		.4byte	0x810
 2251 0809 20       		.uleb128 0x20
 2252 080a 30000000 		.4byte	0x30
 2253 080e 02       		.byte	0x2
 2254 080f 00       		.byte	0x0
 2255 0810 1A       		.uleb128 0x1a
 2256 0811 B8020000 		.4byte	.LASF95
 2257 0815 01       		.byte	0x1
 2258 0816 5E       		.byte	0x5e
 2259 0817 21080000 		.4byte	0x821
 2260 081b 05       		.byte	0x5
 2261 081c 03       		.byte	0x3
 2262 081d 00000000 		.4byte	evhndl
 2263 0821 12       		.uleb128 0x12
 2264 0822 00080000 		.4byte	0x800
 2265 0826 1E       		.uleb128 0x1e
 2266 0827 AF020000 		.4byte	.LASF96
 2267 082b 01       		.byte	0x1
 2268 082c 76       		.byte	0x76
 2269 082d 33080000 		.4byte	0x833
 2270 0831 01       		.byte	0x1
 2271 0832 01       		.byte	0x1
 2272 0833 12       		.uleb128 0x12
 2273 0834 95050000 		.4byte	0x595
 2274 0838 1E       		.uleb128 0x1e
 2275 0839 9C000000 		.4byte	.LASF97
 2276 083d 01       		.byte	0x1
 2277 083e EB       		.byte	0xeb
 2278 083f 33080000 		.4byte	0x833
 2279 0843 01       		.byte	0x1
 2280 0844 01       		.byte	0x1
 2281 0845 23       		.uleb128 0x23
 2282 0846 A5000000 		.4byte	.LASF98
 2283 084a 01       		.byte	0x1
 2284 084b 1B01     		.2byte	0x11b
 2285 084d 33080000 		.4byte	0x833
 2286 0851 01       		.byte	0x1
 2287 0852 01       		.byte	0x1
 2288 0853 1E       		.uleb128 0x1e
 2289 0854 21000000 		.4byte	.LASF92
 2290 0858 07       		.byte	0x7
 2291 0859 7A       		.byte	0x7a
 2292 085a EE030000 		.4byte	0x3ee
 2293 085e 01       		.byte	0x1
 2294 085f 01       		.byte	0x1
 2295 0860 1E       		.uleb128 0x1e
 2296 0861 8B030000 		.4byte	.LASF93
 2297 0865 08       		.byte	0x8
 2298 0866 72       		.byte	0x72
 2299 0867 64040000 		.4byte	0x464
 2300 086b 01       		.byte	0x1
 2301 086c 01       		.byte	0x1
 2302 086d 1E       		.uleb128 0x1e
 2303 086e 6F020000 		.4byte	.LASF94
 2304 0872 0B       		.byte	0xb
 2305 0873 B0       		.byte	0xb0
 2306 0874 A5070000 		.4byte	0x7a5
ARM GAS  /tmp/ccnXntFd.s 			page 42


 2307 0878 01       		.byte	0x1
 2308 0879 01       		.byte	0x1
 2309 087a 22       		.uleb128 0x22
 2310 087b 776100   		.ascii	"wa\000"
 2311 087e 0B       		.byte	0xb
 2312 087f B2       		.byte	0xb2
 2313 0880 86080000 		.4byte	0x886
 2314 0884 01       		.byte	0x1
 2315 0885 01       		.byte	0x1
 2316 0886 12       		.uleb128 0x12
 2317 0887 C2070000 		.4byte	0x7c2
 2318 088b 24       		.uleb128 0x24
 2319 088c AF020000 		.4byte	.LASF96
 2320 0890 01       		.byte	0x1
 2321 0891 76       		.byte	0x76
 2322 0892 33080000 		.4byte	0x833
 2323 0896 01       		.byte	0x1
 2324 0897 05       		.byte	0x5
 2325 0898 03       		.byte	0x3
 2326 0899 00000000 		.4byte	testevt1
 2327 089d 24       		.uleb128 0x24
 2328 089e 9C000000 		.4byte	.LASF97
 2329 08a2 01       		.byte	0x1
 2330 08a3 EB       		.byte	0xeb
 2331 08a4 33080000 		.4byte	0x833
 2332 08a8 01       		.byte	0x1
 2333 08a9 05       		.byte	0x5
 2334 08aa 03       		.byte	0x3
 2335 08ab 00000000 		.4byte	testevt2
 2336 08af 25       		.uleb128 0x25
 2337 08b0 A5000000 		.4byte	.LASF98
 2338 08b4 01       		.byte	0x1
 2339 08b5 1B01     		.2byte	0x11b
 2340 08b7 33080000 		.4byte	0x833
 2341 08bb 01       		.byte	0x1
 2342 08bc 05       		.byte	0x5
 2343 08bd 03       		.byte	0x3
 2344 08be 00000000 		.4byte	testevt3
 2345 08c2 1F       		.uleb128 0x1f
 2346 08c3 D2080000 		.4byte	0x8d2
 2347 08c7 D2080000 		.4byte	0x8d2
 2348 08cb 20       		.uleb128 0x20
 2349 08cc 30000000 		.4byte	0x30
 2350 08d0 03       		.byte	0x3
 2351 08d1 00       		.byte	0x0
 2352 08d2 09       		.uleb128 0x9
 2353 08d3 04       		.byte	0x4
 2354 08d4 33080000 		.4byte	0x833
 2355 08d8 25       		.uleb128 0x25
 2356 08d9 32010000 		.4byte	.LASF99
 2357 08dd 01       		.byte	0x1
 2358 08de 2601     		.2byte	0x126
 2359 08e0 EB080000 		.4byte	0x8eb
 2360 08e4 01       		.byte	0x1
 2361 08e5 05       		.byte	0x5
 2362 08e6 03       		.byte	0x3
 2363 08e7 00000000 		.4byte	patternevt
ARM GAS  /tmp/ccnXntFd.s 			page 43


 2364 08eb 12       		.uleb128 0x12
 2365 08ec C2080000 		.4byte	0x8c2
 2366 08f0 00       		.byte	0x0
 2367              		.section	.debug_abbrev
 2368 0000 01       		.uleb128 0x1
 2369 0001 11       		.uleb128 0x11
 2370 0002 01       		.byte	0x1
 2371 0003 25       		.uleb128 0x25
 2372 0004 0E       		.uleb128 0xe
 2373 0005 13       		.uleb128 0x13
 2374 0006 0B       		.uleb128 0xb
 2375 0007 03       		.uleb128 0x3
 2376 0008 0E       		.uleb128 0xe
 2377 0009 1B       		.uleb128 0x1b
 2378 000a 0E       		.uleb128 0xe
 2379 000b 11       		.uleb128 0x11
 2380 000c 01       		.uleb128 0x1
 2381 000d 52       		.uleb128 0x52
 2382 000e 01       		.uleb128 0x1
 2383 000f 55       		.uleb128 0x55
 2384 0010 06       		.uleb128 0x6
 2385 0011 10       		.uleb128 0x10
 2386 0012 06       		.uleb128 0x6
 2387 0013 00       		.byte	0x0
 2388 0014 00       		.byte	0x0
 2389 0015 02       		.uleb128 0x2
 2390 0016 24       		.uleb128 0x24
 2391 0017 00       		.byte	0x0
 2392 0018 0B       		.uleb128 0xb
 2393 0019 0B       		.uleb128 0xb
 2394 001a 3E       		.uleb128 0x3e
 2395 001b 0B       		.uleb128 0xb
 2396 001c 03       		.uleb128 0x3
 2397 001d 08       		.uleb128 0x8
 2398 001e 00       		.byte	0x0
 2399 001f 00       		.byte	0x0
 2400 0020 03       		.uleb128 0x3
 2401 0021 24       		.uleb128 0x24
 2402 0022 00       		.byte	0x0
 2403 0023 0B       		.uleb128 0xb
 2404 0024 0B       		.uleb128 0xb
 2405 0025 3E       		.uleb128 0x3e
 2406 0026 0B       		.uleb128 0xb
 2407 0027 03       		.uleb128 0x3
 2408 0028 0E       		.uleb128 0xe
 2409 0029 00       		.byte	0x0
 2410 002a 00       		.byte	0x0
 2411 002b 04       		.uleb128 0x4
 2412 002c 16       		.uleb128 0x16
 2413 002d 00       		.byte	0x0
 2414 002e 03       		.uleb128 0x3
 2415 002f 0E       		.uleb128 0xe
 2416 0030 3A       		.uleb128 0x3a
 2417 0031 0B       		.uleb128 0xb
 2418 0032 3B       		.uleb128 0x3b
 2419 0033 0B       		.uleb128 0xb
 2420 0034 49       		.uleb128 0x49
ARM GAS  /tmp/ccnXntFd.s 			page 44


 2421 0035 13       		.uleb128 0x13
 2422 0036 00       		.byte	0x0
 2423 0037 00       		.byte	0x0
 2424 0038 05       		.uleb128 0x5
 2425 0039 13       		.uleb128 0x13
 2426 003a 01       		.byte	0x1
 2427 003b 03       		.uleb128 0x3
 2428 003c 0E       		.uleb128 0xe
 2429 003d 0B       		.uleb128 0xb
 2430 003e 0B       		.uleb128 0xb
 2431 003f 3A       		.uleb128 0x3a
 2432 0040 0B       		.uleb128 0xb
 2433 0041 3B       		.uleb128 0x3b
 2434 0042 0B       		.uleb128 0xb
 2435 0043 01       		.uleb128 0x1
 2436 0044 13       		.uleb128 0x13
 2437 0045 00       		.byte	0x0
 2438 0046 00       		.byte	0x0
 2439 0047 06       		.uleb128 0x6
 2440 0048 0D       		.uleb128 0xd
 2441 0049 00       		.byte	0x0
 2442 004a 03       		.uleb128 0x3
 2443 004b 0E       		.uleb128 0xe
 2444 004c 3A       		.uleb128 0x3a
 2445 004d 0B       		.uleb128 0xb
 2446 004e 3B       		.uleb128 0x3b
 2447 004f 0B       		.uleb128 0xb
 2448 0050 49       		.uleb128 0x49
 2449 0051 13       		.uleb128 0x13
 2450 0052 38       		.uleb128 0x38
 2451 0053 0A       		.uleb128 0xa
 2452 0054 00       		.byte	0x0
 2453 0055 00       		.byte	0x0
 2454 0056 07       		.uleb128 0x7
 2455 0057 0D       		.uleb128 0xd
 2456 0058 00       		.byte	0x0
 2457 0059 03       		.uleb128 0x3
 2458 005a 08       		.uleb128 0x8
 2459 005b 3A       		.uleb128 0x3a
 2460 005c 0B       		.uleb128 0xb
 2461 005d 3B       		.uleb128 0x3b
 2462 005e 0B       		.uleb128 0xb
 2463 005f 49       		.uleb128 0x49
 2464 0060 13       		.uleb128 0x13
 2465 0061 38       		.uleb128 0x38
 2466 0062 0A       		.uleb128 0xa
 2467 0063 00       		.byte	0x0
 2468 0064 00       		.byte	0x0
 2469 0065 08       		.uleb128 0x8
 2470 0066 13       		.uleb128 0x13
 2471 0067 01       		.byte	0x1
 2472 0068 0B       		.uleb128 0xb
 2473 0069 0B       		.uleb128 0xb
 2474 006a 3A       		.uleb128 0x3a
 2475 006b 0B       		.uleb128 0xb
 2476 006c 3B       		.uleb128 0x3b
 2477 006d 0B       		.uleb128 0xb
ARM GAS  /tmp/ccnXntFd.s 			page 45


 2478 006e 01       		.uleb128 0x1
 2479 006f 13       		.uleb128 0x13
 2480 0070 00       		.byte	0x0
 2481 0071 00       		.byte	0x0
 2482 0072 09       		.uleb128 0x9
 2483 0073 0F       		.uleb128 0xf
 2484 0074 00       		.byte	0x0
 2485 0075 0B       		.uleb128 0xb
 2486 0076 0B       		.uleb128 0xb
 2487 0077 49       		.uleb128 0x49
 2488 0078 13       		.uleb128 0x13
 2489 0079 00       		.byte	0x0
 2490 007a 00       		.byte	0x0
 2491 007b 0A       		.uleb128 0xa
 2492 007c 0F       		.uleb128 0xf
 2493 007d 00       		.byte	0x0
 2494 007e 0B       		.uleb128 0xb
 2495 007f 0B       		.uleb128 0xb
 2496 0080 00       		.byte	0x0
 2497 0081 00       		.byte	0x0
 2498 0082 0B       		.uleb128 0xb
 2499 0083 0D       		.uleb128 0xd
 2500 0084 00       		.byte	0x0
 2501 0085 03       		.uleb128 0x3
 2502 0086 08       		.uleb128 0x8
 2503 0087 3A       		.uleb128 0x3a
 2504 0088 0B       		.uleb128 0xb
 2505 0089 3B       		.uleb128 0x3b
 2506 008a 05       		.uleb128 0x5
 2507 008b 49       		.uleb128 0x49
 2508 008c 13       		.uleb128 0x13
 2509 008d 38       		.uleb128 0x38
 2510 008e 0A       		.uleb128 0xa
 2511 008f 00       		.byte	0x0
 2512 0090 00       		.byte	0x0
 2513 0091 0C       		.uleb128 0xc
 2514 0092 13       		.uleb128 0x13
 2515 0093 01       		.byte	0x1
 2516 0094 03       		.uleb128 0x3
 2517 0095 0E       		.uleb128 0xe
 2518 0096 0B       		.uleb128 0xb
 2519 0097 0B       		.uleb128 0xb
 2520 0098 3A       		.uleb128 0x3a
 2521 0099 0B       		.uleb128 0xb
 2522 009a 3B       		.uleb128 0x3b
 2523 009b 05       		.uleb128 0x5
 2524 009c 01       		.uleb128 0x1
 2525 009d 13       		.uleb128 0x13
 2526 009e 00       		.byte	0x0
 2527 009f 00       		.byte	0x0
 2528 00a0 0D       		.uleb128 0xd
 2529 00a1 15       		.uleb128 0x15
 2530 00a2 01       		.byte	0x1
 2531 00a3 27       		.uleb128 0x27
 2532 00a4 0C       		.uleb128 0xc
 2533 00a5 01       		.uleb128 0x1
 2534 00a6 13       		.uleb128 0x13
ARM GAS  /tmp/ccnXntFd.s 			page 46


 2535 00a7 00       		.byte	0x0
 2536 00a8 00       		.byte	0x0
 2537 00a9 0E       		.uleb128 0xe
 2538 00aa 05       		.uleb128 0x5
 2539 00ab 00       		.byte	0x0
 2540 00ac 49       		.uleb128 0x49
 2541 00ad 13       		.uleb128 0x13
 2542 00ae 00       		.byte	0x0
 2543 00af 00       		.byte	0x0
 2544 00b0 0F       		.uleb128 0xf
 2545 00b1 35       		.uleb128 0x35
 2546 00b2 00       		.byte	0x0
 2547 00b3 49       		.uleb128 0x49
 2548 00b4 13       		.uleb128 0x13
 2549 00b5 00       		.byte	0x0
 2550 00b6 00       		.byte	0x0
 2551 00b7 10       		.uleb128 0x10
 2552 00b8 17       		.uleb128 0x17
 2553 00b9 01       		.byte	0x1
 2554 00ba 0B       		.uleb128 0xb
 2555 00bb 0B       		.uleb128 0xb
 2556 00bc 3A       		.uleb128 0x3a
 2557 00bd 0B       		.uleb128 0xb
 2558 00be 3B       		.uleb128 0x3b
 2559 00bf 0B       		.uleb128 0xb
 2560 00c0 01       		.uleb128 0x1
 2561 00c1 13       		.uleb128 0x13
 2562 00c2 00       		.byte	0x0
 2563 00c3 00       		.byte	0x0
 2564 00c4 11       		.uleb128 0x11
 2565 00c5 0D       		.uleb128 0xd
 2566 00c6 00       		.byte	0x0
 2567 00c7 03       		.uleb128 0x3
 2568 00c8 0E       		.uleb128 0xe
 2569 00c9 3A       		.uleb128 0x3a
 2570 00ca 0B       		.uleb128 0xb
 2571 00cb 3B       		.uleb128 0x3b
 2572 00cc 0B       		.uleb128 0xb
 2573 00cd 49       		.uleb128 0x49
 2574 00ce 13       		.uleb128 0x13
 2575 00cf 00       		.byte	0x0
 2576 00d0 00       		.byte	0x0
 2577 00d1 12       		.uleb128 0x12
 2578 00d2 26       		.uleb128 0x26
 2579 00d3 00       		.byte	0x0
 2580 00d4 49       		.uleb128 0x49
 2581 00d5 13       		.uleb128 0x13
 2582 00d6 00       		.byte	0x0
 2583 00d7 00       		.byte	0x0
 2584 00d8 13       		.uleb128 0x13
 2585 00d9 15       		.uleb128 0x15
 2586 00da 00       		.byte	0x0
 2587 00db 27       		.uleb128 0x27
 2588 00dc 0C       		.uleb128 0xc
 2589 00dd 00       		.byte	0x0
 2590 00de 00       		.byte	0x0
 2591 00df 14       		.uleb128 0x14
ARM GAS  /tmp/ccnXntFd.s 			page 47


 2592 00e0 2E       		.uleb128 0x2e
 2593 00e1 00       		.byte	0x0
 2594 00e2 03       		.uleb128 0x3
 2595 00e3 0E       		.uleb128 0xe
 2596 00e4 3A       		.uleb128 0x3a
 2597 00e5 0B       		.uleb128 0xb
 2598 00e6 3B       		.uleb128 0x3b
 2599 00e7 0B       		.uleb128 0xb
 2600 00e8 27       		.uleb128 0x27
 2601 00e9 0C       		.uleb128 0xc
 2602 00ea 11       		.uleb128 0x11
 2603 00eb 01       		.uleb128 0x1
 2604 00ec 12       		.uleb128 0x12
 2605 00ed 01       		.uleb128 0x1
 2606 00ee 40       		.uleb128 0x40
 2607 00ef 06       		.uleb128 0x6
 2608 00f0 00       		.byte	0x0
 2609 00f1 00       		.byte	0x0
 2610 00f2 15       		.uleb128 0x15
 2611 00f3 2E       		.uleb128 0x2e
 2612 00f4 01       		.byte	0x1
 2613 00f5 03       		.uleb128 0x3
 2614 00f6 08       		.uleb128 0x8
 2615 00f7 3A       		.uleb128 0x3a
 2616 00f8 0B       		.uleb128 0xb
 2617 00f9 3B       		.uleb128 0x3b
 2618 00fa 0B       		.uleb128 0xb
 2619 00fb 27       		.uleb128 0x27
 2620 00fc 0C       		.uleb128 0xc
 2621 00fd 11       		.uleb128 0x11
 2622 00fe 01       		.uleb128 0x1
 2623 00ff 12       		.uleb128 0x12
 2624 0100 01       		.uleb128 0x1
 2625 0101 40       		.uleb128 0x40
 2626 0102 06       		.uleb128 0x6
 2627 0103 01       		.uleb128 0x1
 2628 0104 13       		.uleb128 0x13
 2629 0105 00       		.byte	0x0
 2630 0106 00       		.byte	0x0
 2631 0107 16       		.uleb128 0x16
 2632 0108 05       		.uleb128 0x5
 2633 0109 00       		.byte	0x0
 2634 010a 03       		.uleb128 0x3
 2635 010b 08       		.uleb128 0x8
 2636 010c 3A       		.uleb128 0x3a
 2637 010d 0B       		.uleb128 0xb
 2638 010e 3B       		.uleb128 0x3b
 2639 010f 0B       		.uleb128 0xb
 2640 0110 49       		.uleb128 0x49
 2641 0111 13       		.uleb128 0x13
 2642 0112 02       		.uleb128 0x2
 2643 0113 0A       		.uleb128 0xa
 2644 0114 00       		.byte	0x0
 2645 0115 00       		.byte	0x0
 2646 0116 17       		.uleb128 0x17
 2647 0117 2E       		.uleb128 0x2e
 2648 0118 01       		.byte	0x1
ARM GAS  /tmp/ccnXntFd.s 			page 48


 2649 0119 03       		.uleb128 0x3
 2650 011a 0E       		.uleb128 0xe
 2651 011b 3A       		.uleb128 0x3a
 2652 011c 0B       		.uleb128 0xb
 2653 011d 3B       		.uleb128 0x3b
 2654 011e 0B       		.uleb128 0xb
 2655 011f 27       		.uleb128 0x27
 2656 0120 0C       		.uleb128 0xc
 2657 0121 11       		.uleb128 0x11
 2658 0122 01       		.uleb128 0x1
 2659 0123 12       		.uleb128 0x12
 2660 0124 01       		.uleb128 0x1
 2661 0125 40       		.uleb128 0x40
 2662 0126 06       		.uleb128 0x6
 2663 0127 01       		.uleb128 0x1
 2664 0128 13       		.uleb128 0x13
 2665 0129 00       		.byte	0x0
 2666 012a 00       		.byte	0x0
 2667 012b 18       		.uleb128 0x18
 2668 012c 34       		.uleb128 0x34
 2669 012d 00       		.byte	0x0
 2670 012e 03       		.uleb128 0x3
 2671 012f 08       		.uleb128 0x8
 2672 0130 3A       		.uleb128 0x3a
 2673 0131 0B       		.uleb128 0xb
 2674 0132 3B       		.uleb128 0x3b
 2675 0133 0B       		.uleb128 0xb
 2676 0134 49       		.uleb128 0x49
 2677 0135 13       		.uleb128 0x13
 2678 0136 02       		.uleb128 0x2
 2679 0137 0A       		.uleb128 0xa
 2680 0138 00       		.byte	0x0
 2681 0139 00       		.byte	0x0
 2682 013a 19       		.uleb128 0x19
 2683 013b 2E       		.uleb128 0x2e
 2684 013c 01       		.byte	0x1
 2685 013d 03       		.uleb128 0x3
 2686 013e 0E       		.uleb128 0xe
 2687 013f 3A       		.uleb128 0x3a
 2688 0140 0B       		.uleb128 0xb
 2689 0141 3B       		.uleb128 0x3b
 2690 0142 0B       		.uleb128 0xb
 2691 0143 27       		.uleb128 0x27
 2692 0144 0C       		.uleb128 0xc
 2693 0145 49       		.uleb128 0x49
 2694 0146 13       		.uleb128 0x13
 2695 0147 11       		.uleb128 0x11
 2696 0148 01       		.uleb128 0x1
 2697 0149 12       		.uleb128 0x12
 2698 014a 01       		.uleb128 0x1
 2699 014b 40       		.uleb128 0x40
 2700 014c 06       		.uleb128 0x6
 2701 014d 01       		.uleb128 0x1
 2702 014e 13       		.uleb128 0x13
 2703 014f 00       		.byte	0x0
 2704 0150 00       		.byte	0x0
 2705 0151 1A       		.uleb128 0x1a
ARM GAS  /tmp/ccnXntFd.s 			page 49


 2706 0152 34       		.uleb128 0x34
 2707 0153 00       		.byte	0x0
 2708 0154 03       		.uleb128 0x3
 2709 0155 0E       		.uleb128 0xe
 2710 0156 3A       		.uleb128 0x3a
 2711 0157 0B       		.uleb128 0xb
 2712 0158 3B       		.uleb128 0x3b
 2713 0159 0B       		.uleb128 0xb
 2714 015a 49       		.uleb128 0x49
 2715 015b 13       		.uleb128 0x13
 2716 015c 02       		.uleb128 0x2
 2717 015d 0A       		.uleb128 0xa
 2718 015e 00       		.byte	0x0
 2719 015f 00       		.byte	0x0
 2720 0160 1B       		.uleb128 0x1b
 2721 0161 2E       		.uleb128 0x2e
 2722 0162 00       		.byte	0x0
 2723 0163 03       		.uleb128 0x3
 2724 0164 0E       		.uleb128 0xe
 2725 0165 3A       		.uleb128 0x3a
 2726 0166 0B       		.uleb128 0xb
 2727 0167 3B       		.uleb128 0x3b
 2728 0168 05       		.uleb128 0x5
 2729 0169 27       		.uleb128 0x27
 2730 016a 0C       		.uleb128 0xc
 2731 016b 11       		.uleb128 0x11
 2732 016c 01       		.uleb128 0x1
 2733 016d 12       		.uleb128 0x12
 2734 016e 01       		.uleb128 0x1
 2735 016f 40       		.uleb128 0x40
 2736 0170 06       		.uleb128 0x6
 2737 0171 00       		.byte	0x0
 2738 0172 00       		.byte	0x0
 2739 0173 1C       		.uleb128 0x1c
 2740 0174 2E       		.uleb128 0x2e
 2741 0175 01       		.byte	0x1
 2742 0176 03       		.uleb128 0x3
 2743 0177 0E       		.uleb128 0xe
 2744 0178 3A       		.uleb128 0x3a
 2745 0179 0B       		.uleb128 0xb
 2746 017a 3B       		.uleb128 0x3b
 2747 017b 05       		.uleb128 0x5
 2748 017c 27       		.uleb128 0x27
 2749 017d 0C       		.uleb128 0xc
 2750 017e 11       		.uleb128 0x11
 2751 017f 01       		.uleb128 0x1
 2752 0180 12       		.uleb128 0x12
 2753 0181 01       		.uleb128 0x1
 2754 0182 40       		.uleb128 0x40
 2755 0183 06       		.uleb128 0x6
 2756 0184 01       		.uleb128 0x1
 2757 0185 13       		.uleb128 0x13
 2758 0186 00       		.byte	0x0
 2759 0187 00       		.byte	0x0
 2760 0188 1D       		.uleb128 0x1d
 2761 0189 34       		.uleb128 0x34
 2762 018a 00       		.byte	0x0
ARM GAS  /tmp/ccnXntFd.s 			page 50


 2763 018b 03       		.uleb128 0x3
 2764 018c 08       		.uleb128 0x8
 2765 018d 3A       		.uleb128 0x3a
 2766 018e 0B       		.uleb128 0xb
 2767 018f 3B       		.uleb128 0x3b
 2768 0190 05       		.uleb128 0x5
 2769 0191 49       		.uleb128 0x49
 2770 0192 13       		.uleb128 0x13
 2771 0193 02       		.uleb128 0x2
 2772 0194 0A       		.uleb128 0xa
 2773 0195 00       		.byte	0x0
 2774 0196 00       		.byte	0x0
 2775 0197 1E       		.uleb128 0x1e
 2776 0198 34       		.uleb128 0x34
 2777 0199 00       		.byte	0x0
 2778 019a 03       		.uleb128 0x3
 2779 019b 0E       		.uleb128 0xe
 2780 019c 3A       		.uleb128 0x3a
 2781 019d 0B       		.uleb128 0xb
 2782 019e 3B       		.uleb128 0x3b
 2783 019f 0B       		.uleb128 0xb
 2784 01a0 49       		.uleb128 0x49
 2785 01a1 13       		.uleb128 0x13
 2786 01a2 3F       		.uleb128 0x3f
 2787 01a3 0C       		.uleb128 0xc
 2788 01a4 3C       		.uleb128 0x3c
 2789 01a5 0C       		.uleb128 0xc
 2790 01a6 00       		.byte	0x0
 2791 01a7 00       		.byte	0x0
 2792 01a8 1F       		.uleb128 0x1f
 2793 01a9 01       		.uleb128 0x1
 2794 01aa 01       		.byte	0x1
 2795 01ab 49       		.uleb128 0x49
 2796 01ac 13       		.uleb128 0x13
 2797 01ad 01       		.uleb128 0x1
 2798 01ae 13       		.uleb128 0x13
 2799 01af 00       		.byte	0x0
 2800 01b0 00       		.byte	0x0
 2801 01b1 20       		.uleb128 0x20
 2802 01b2 21       		.uleb128 0x21
 2803 01b3 00       		.byte	0x0
 2804 01b4 49       		.uleb128 0x49
 2805 01b5 13       		.uleb128 0x13
 2806 01b6 2F       		.uleb128 0x2f
 2807 01b7 0B       		.uleb128 0xb
 2808 01b8 00       		.byte	0x0
 2809 01b9 00       		.byte	0x0
 2810 01ba 21       		.uleb128 0x21
 2811 01bb 21       		.uleb128 0x21
 2812 01bc 00       		.byte	0x0
 2813 01bd 00       		.byte	0x0
 2814 01be 00       		.byte	0x0
 2815 01bf 22       		.uleb128 0x22
 2816 01c0 34       		.uleb128 0x34
 2817 01c1 00       		.byte	0x0
 2818 01c2 03       		.uleb128 0x3
 2819 01c3 08       		.uleb128 0x8
ARM GAS  /tmp/ccnXntFd.s 			page 51


 2820 01c4 3A       		.uleb128 0x3a
 2821 01c5 0B       		.uleb128 0xb
 2822 01c6 3B       		.uleb128 0x3b
 2823 01c7 0B       		.uleb128 0xb
 2824 01c8 49       		.uleb128 0x49
 2825 01c9 13       		.uleb128 0x13
 2826 01ca 3F       		.uleb128 0x3f
 2827 01cb 0C       		.uleb128 0xc
 2828 01cc 3C       		.uleb128 0x3c
 2829 01cd 0C       		.uleb128 0xc
 2830 01ce 00       		.byte	0x0
 2831 01cf 00       		.byte	0x0
 2832 01d0 23       		.uleb128 0x23
 2833 01d1 34       		.uleb128 0x34
 2834 01d2 00       		.byte	0x0
 2835 01d3 03       		.uleb128 0x3
 2836 01d4 0E       		.uleb128 0xe
 2837 01d5 3A       		.uleb128 0x3a
 2838 01d6 0B       		.uleb128 0xb
 2839 01d7 3B       		.uleb128 0x3b
 2840 01d8 05       		.uleb128 0x5
 2841 01d9 49       		.uleb128 0x49
 2842 01da 13       		.uleb128 0x13
 2843 01db 3F       		.uleb128 0x3f
 2844 01dc 0C       		.uleb128 0xc
 2845 01dd 3C       		.uleb128 0x3c
 2846 01de 0C       		.uleb128 0xc
 2847 01df 00       		.byte	0x0
 2848 01e0 00       		.byte	0x0
 2849 01e1 24       		.uleb128 0x24
 2850 01e2 34       		.uleb128 0x34
 2851 01e3 00       		.byte	0x0
 2852 01e4 03       		.uleb128 0x3
 2853 01e5 0E       		.uleb128 0xe
 2854 01e6 3A       		.uleb128 0x3a
 2855 01e7 0B       		.uleb128 0xb
 2856 01e8 3B       		.uleb128 0x3b
 2857 01e9 0B       		.uleb128 0xb
 2858 01ea 49       		.uleb128 0x49
 2859 01eb 13       		.uleb128 0x13
 2860 01ec 3F       		.uleb128 0x3f
 2861 01ed 0C       		.uleb128 0xc
 2862 01ee 02       		.uleb128 0x2
 2863 01ef 0A       		.uleb128 0xa
 2864 01f0 00       		.byte	0x0
 2865 01f1 00       		.byte	0x0
 2866 01f2 25       		.uleb128 0x25
 2867 01f3 34       		.uleb128 0x34
 2868 01f4 00       		.byte	0x0
 2869 01f5 03       		.uleb128 0x3
 2870 01f6 0E       		.uleb128 0xe
 2871 01f7 3A       		.uleb128 0x3a
 2872 01f8 0B       		.uleb128 0xb
 2873 01f9 3B       		.uleb128 0x3b
 2874 01fa 05       		.uleb128 0x5
 2875 01fb 49       		.uleb128 0x49
 2876 01fc 13       		.uleb128 0x13
ARM GAS  /tmp/ccnXntFd.s 			page 52


 2877 01fd 3F       		.uleb128 0x3f
 2878 01fe 0C       		.uleb128 0xc
 2879 01ff 02       		.uleb128 0x2
 2880 0200 0A       		.uleb128 0xa
 2881 0201 00       		.byte	0x0
 2882 0202 00       		.byte	0x0
 2883 0203 00       		.byte	0x0
 2884              		.section	.debug_pubnames,"",%progbits
 2885 0000 44000000 		.4byte	0x44
 2886 0004 0200     		.2byte	0x2
 2887 0006 00000000 		.4byte	.Ldebug_info0
 2888 000a F1080000 		.4byte	0x8f1
 2889 000e 8B080000 		.4byte	0x88b
 2890 0012 74657374 		.ascii	"testevt1\000"
 2890      65767431 
 2890      00
 2891 001b 9D080000 		.4byte	0x89d
 2892 001f 74657374 		.ascii	"testevt2\000"
 2892      65767432 
 2892      00
 2893 0028 AF080000 		.4byte	0x8af
 2894 002c 74657374 		.ascii	"testevt3\000"
 2894      65767433 
 2894      00
 2895 0035 D8080000 		.4byte	0x8d8
 2896 0039 70617474 		.ascii	"patternevt\000"
 2896      65726E65 
 2896      767400
 2897 0044 00000000 		.4byte	0x0
 2898              		.section	.debug_pubtypes,"",%progbits
 2899 0000 CC010000 		.4byte	0x1cc
 2900 0004 0200     		.2byte	0x2
 2901 0006 00000000 		.4byte	.Ldebug_info0
 2902 000a F1080000 		.4byte	0x8f1
 2903 000e 3E000000 		.4byte	0x3e
 2904 0012 75696E74 		.ascii	"uint8_t\000"
 2904      385F7400 
 2905 001a 5E000000 		.4byte	0x5e
 2906 001e 696E7433 		.ascii	"int32_t\000"
 2906      325F7400 
 2907 0026 70000000 		.4byte	0x70
 2908 002a 75696E74 		.ascii	"uint32_t\000"
 2908      33325F74 
 2908      00
 2909 0033 89000000 		.4byte	0x89
 2910 0037 75696E74 		.ascii	"uint64_t\000"
 2910      36345F74 
 2910      00
 2911 0040 9B000000 		.4byte	0x9b
 2912 0044 746D6F64 		.ascii	"tmode_t\000"
 2912      655F7400 
 2913 004c A6000000 		.4byte	0xa6
 2914 0050 74737461 		.ascii	"tstate_t\000"
 2914      74655F74 
 2914      00
 2915 0059 B1000000 		.4byte	0xb1
 2916 005d 74707269 		.ascii	"tprio_t\000"
ARM GAS  /tmp/ccnXntFd.s 			page 53


 2916      6F5F7400 
 2917 0065 BC000000 		.4byte	0xbc
 2918 0069 6D73675F 		.ascii	"msg_t\000"
 2918      7400
 2919 006f C7000000 		.4byte	0xc7
 2920 0073 6576656E 		.ascii	"eventid_t\000"
 2920      7469645F 
 2920      7400
 2921 007d D2000000 		.4byte	0xd2
 2922 0081 6576656E 		.ascii	"eventmask_t\000"
 2922      746D6173 
 2922      6B5F7400 
 2923 008d DD000000 		.4byte	0xdd
 2924 0091 73797374 		.ascii	"systime_t\000"
 2924      696D655F 
 2924      7400
 2925 009b E8000000 		.4byte	0xe8
 2926 009f 636E745F 		.ascii	"cnt_t\000"
 2926      7400
 2927 00a5 F3000000 		.4byte	0xf3
 2928 00a9 54687265 		.ascii	"Thread\000"
 2928      616400
 2929 00b0 32020000 		.4byte	0x232
 2930 00b4 54687265 		.ascii	"ThreadsQueue\000"
 2930      61647351 
 2930      75657565 
 2930      00
 2931 00c1 54020000 		.4byte	0x254
 2932 00c5 54687265 		.ascii	"ThreadsList\000"
 2932      6164734C 
 2932      69737400 
 2933 00d1 5F020000 		.4byte	0x25f
 2934 00d5 72656761 		.ascii	"regarm_t\000"
 2934      726D5F74 
 2934      00
 2935 00de 6C020000 		.4byte	0x26c
 2936 00e2 73746B61 		.ascii	"stkalign_t\000"
 2936      6C69676E 
 2936      5F7400
 2937 00ed 77020000 		.4byte	0x277
 2938 00f1 696E7463 		.ascii	"intctx\000"
 2938      747800
 2939 00f8 04030000 		.4byte	0x304
 2940 00fc 636F6E74 		.ascii	"context\000"
 2940      65787400 
 2941 0104 27030000 		.4byte	0x327
 2942 0108 76746675 		.ascii	"vtfunc_t\000"
 2942      6E635F74 
 2942      00
 2943 0111 44030000 		.4byte	0x344
 2944 0115 56697274 		.ascii	"VirtualTimer\000"
 2944      75616C54 
 2944      696D6572 
 2944      00
 2945 0122 4F030000 		.4byte	0x34f
 2946 0126 56697274 		.ascii	"VirtualTimer\000"
 2946      75616C54 
ARM GAS  /tmp/ccnXntFd.s 			page 54


 2946      696D6572 
 2946      00
 2947 0133 EE030000 		.4byte	0x3ee
 2948 0137 56544C69 		.ascii	"VTList\000"
 2948      737400
 2949 013e 64040000 		.4byte	0x464
 2950 0142 52656164 		.ascii	"ReadyList\000"
 2950      794C6973 
 2950      7400
 2951 014c 6F040000 		.4byte	0x46f
 2952 0150 4D757465 		.ascii	"Mutex\000"
 2952      7800
 2953 0156 AC040000 		.4byte	0x4ac
 2954 015a 4D757465 		.ascii	"Mutex\000"
 2954      7800
 2955 0160 B7040000 		.4byte	0x4b7
 2956 0164 4576656E 		.ascii	"EventListener\000"
 2956      744C6973 
 2956      74656E65 
 2956      7200
 2957 0172 C2040000 		.4byte	0x4c2
 2958 0176 4576656E 		.ascii	"EventListener\000"
 2958      744C6973 
 2958      74656E65 
 2958      7200
 2959 0184 FF040000 		.4byte	0x4ff
 2960 0188 4576656E 		.ascii	"EventSource\000"
 2960      74536F75 
 2960      72636500 
 2961 0194 1A050000 		.4byte	0x51a
 2962 0198 4576656E 		.ascii	"EventSource\000"
 2962      74536F75 
 2962      72636500 
 2963 01a4 25050000 		.4byte	0x525
 2964 01a8 65766861 		.ascii	"evhandler_t\000"
 2964      6E646C65 
 2964      725F7400 
 2965 01b4 FE000000 		.4byte	0xfe
 2966 01b8 54687265 		.ascii	"Thread\000"
 2966      616400
 2967 01bf 95050000 		.4byte	0x595
 2968 01c3 74657374 		.ascii	"testcase\000"
 2968      63617365 
 2968      00
 2969 01cc 00000000 		.4byte	0x0
 2970              		.section	.debug_aranges,"",%progbits
 2971 0000 6C000000 		.4byte	0x6c
 2972 0004 0200     		.2byte	0x2
 2973 0006 00000000 		.4byte	.Ldebug_info0
 2974 000a 04       		.byte	0x4
 2975 000b 00       		.byte	0x0
 2976 000c 0000     		.2byte	0x0
 2977 000e 0000     		.2byte	0x0
 2978 0010 00000000 		.4byte	.LFB7
 2979 0014 0C000000 		.4byte	.LFE7-.LFB7
 2980 0018 00000000 		.4byte	.LFB8
 2981 001c 12000000 		.4byte	.LFE8-.LFB8
ARM GAS  /tmp/ccnXntFd.s 			page 55


 2982 0020 00000000 		.4byte	.LFB9
 2983 0024 12000000 		.4byte	.LFE9-.LFB9
 2984 0028 00000000 		.4byte	.LFB10
 2985 002c 12000000 		.4byte	.LFE10-.LFB10
 2986 0030 00000000 		.4byte	.LFB11
 2987 0034 BC000000 		.4byte	.LFE11-.LFB11
 2988 0038 00000000 		.4byte	.LFB12
 2989 003c 0C000000 		.4byte	.LFE12-.LFB12
 2990 0040 00000000 		.4byte	.LFB13
 2991 0044 24000000 		.4byte	.LFE13-.LFB13
 2992 0048 00000000 		.4byte	.LFB14
 2993 004c 34000000 		.4byte	.LFE14-.LFB14
 2994 0050 00000000 		.4byte	.LFB15
 2995 0054 30030000 		.4byte	.LFE15-.LFB15
 2996 0058 00000000 		.4byte	.LFB16
 2997 005c 0C000000 		.4byte	.LFE16-.LFB16
 2998 0060 00000000 		.4byte	.LFB17
 2999 0064 F6000000 		.4byte	.LFE17-.LFB17
 3000 0068 00000000 		.4byte	0x0
 3001 006c 00000000 		.4byte	0x0
 3002              		.section	.debug_ranges,"",%progbits
 3003              	.Ldebug_ranges0:
 3004 0000 00000000 		.4byte	.LFB7
 3005 0004 0C000000 		.4byte	.LFE7
 3006 0008 00000000 		.4byte	.LFB8
 3007 000c 12000000 		.4byte	.LFE8
 3008 0010 00000000 		.4byte	.LFB9
 3009 0014 12000000 		.4byte	.LFE9
 3010 0018 00000000 		.4byte	.LFB10
 3011 001c 12000000 		.4byte	.LFE10
 3012 0020 00000000 		.4byte	.LFB11
 3013 0024 BC000000 		.4byte	.LFE11
 3014 0028 00000000 		.4byte	.LFB12
 3015 002c 0C000000 		.4byte	.LFE12
 3016 0030 00000000 		.4byte	.LFB13
 3017 0034 24000000 		.4byte	.LFE13
 3018 0038 00000000 		.4byte	.LFB14
 3019 003c 34000000 		.4byte	.LFE14
 3020 0040 00000000 		.4byte	.LFB15
 3021 0044 30030000 		.4byte	.LFE15
 3022 0048 00000000 		.4byte	.LFB16
 3023 004c 0C000000 		.4byte	.LFE16
 3024 0050 00000000 		.4byte	.LFB17
 3025 0054 F6000000 		.4byte	.LFE17
 3026 0058 00000000 		.4byte	0x0
 3027 005c 00000000 		.4byte	0x0
 3028              		.section	.debug_str,"MS",%progbits,1
 3029              	.LASF85:
 3030 0000 65767432 		.ascii	"evt2_setup\000"
 3030      5F736574 
 3030      757000
 3031              	.LASF35:
 3032 000b 705F6D73 		.ascii	"p_msg\000"
 3032      6700
 3033              	.LASF73:
 3034 0011 7264796D 		.ascii	"rdymsg\000"
 3034      736700
ARM GAS  /tmp/ccnXntFd.s 			page 56


 3035              	.LASF11:
 3036 0018 75696E74 		.ascii	"uint64_t\000"
 3036      36345F74 
 3036      00
 3037              	.LASF92:
 3038 0021 76746C69 		.ascii	"vtlist\000"
 3038      737400
 3039              	.LASF12:
 3040 0028 6C6F6E67 		.ascii	"long long unsigned int\000"
 3040      206C6F6E 
 3040      6720756E 
 3040      7369676E 
 3040      65642069 
 3041              	.LASF74:
 3042 003f 65786974 		.ascii	"exitcode\000"
 3042      636F6465 
 3042      00
 3043              	.LASF24:
 3044 0048 705F7072 		.ascii	"p_prio\000"
 3044      696F00
 3045              	.LASF88:
 3046 004f 65767432 		.ascii	"evt2_execute\000"
 3046      5F657865 
 3046      63757465 
 3046      00
 3047              	.LASF10:
 3048 005c 6C6F6E67 		.ascii	"long long int\000"
 3048      206C6F6E 
 3048      6720696E 
 3048      7400
 3049              	.LASF1:
 3050 006a 7369676E 		.ascii	"signed char\000"
 3050      65642063 
 3050      68617200 
 3051              	.LASF63:
 3052 0076 6D5F7175 		.ascii	"m_queue\000"
 3052      65756500 
 3053              	.LASF7:
 3054 007e 6C6F6E67 		.ascii	"long int\000"
 3054      20696E74 
 3054      00
 3055              	.LASF89:
 3056 0087 74617267 		.ascii	"target_time\000"
 3056      65745F74 
 3056      696D6500 
 3057              	.LASF14:
 3058 0093 74737461 		.ascii	"tstate_t\000"
 3058      74655F74 
 3058      00
 3059              	.LASF97:
 3060 009c 74657374 		.ascii	"testevt2\000"
 3060      65767432 
 3060      00
 3061              	.LASF98:
 3062 00a5 74657374 		.ascii	"testevt3\000"
 3062      65767433 
 3062      00
ARM GAS  /tmp/ccnXntFd.s 			page 57


 3063              	.LASF26:
 3064 00ae 705F6E65 		.ascii	"p_newer\000"
 3064      77657200 
 3065              	.LASF57:
 3066 00b6 725F6E65 		.ascii	"r_newer\000"
 3066      77657200 
 3067              	.LASF41:
 3068 00be 72656761 		.ascii	"regarm_t\000"
 3068      726D5F74 
 3068      00
 3069              	.LASF48:
 3070 00c7 76745F70 		.ascii	"vt_prev\000"
 3070      72657600 
 3071              	.LASF17:
 3072 00cf 6576656E 		.ascii	"eventid_t\000"
 3072      7469645F 
 3072      7400
 3073              	.LASF70:
 3074 00d9 4576656E 		.ascii	"EventSource\000"
 3074      74536F75 
 3074      72636500 
 3075              	.LASF72:
 3076 00e5 65766861 		.ascii	"evhandler_t\000"
 3076      6E646C65 
 3076      725F7400 
 3077              	.LASF20:
 3078 00f1 636E745F 		.ascii	"cnt_t\000"
 3078      7400
 3079              	.LASF29:
 3080 00f7 705F7374 		.ascii	"p_stklimit\000"
 3080      6B6C696D 
 3080      697400
 3081              	.LASF0:
 3082 0102 756E7369 		.ascii	"unsigned int\000"
 3082      676E6564 
 3082      20696E74 
 3082      00
 3083              	.LASF47:
 3084 010f 76745F6E 		.ascii	"vt_next\000"
 3084      65787400 
 3085              	.LASF9:
 3086 0117 6C6F6E67 		.ascii	"long unsigned int\000"
 3086      20756E73 
 3086      69676E65 
 3086      6420696E 
 3086      7400
 3087              	.LASF81:
 3088 0129 74656172 		.ascii	"teardown\000"
 3088      646F776E 
 3088      00
 3089              	.LASF99:
 3090 0132 70617474 		.ascii	"patternevt\000"
 3090      65726E65 
 3090      767400
 3091              	.LASF79:
 3092 013d 6E616D65 		.ascii	"name\000"
 3092      00
ARM GAS  /tmp/ccnXntFd.s 			page 58


 3093              	.LASF44:
 3094 0142 636F6E74 		.ascii	"context\000"
 3094      65787400 
 3095              	.LASF4:
 3096 014a 73686F72 		.ascii	"short unsigned int\000"
 3096      7420756E 
 3096      7369676E 
 3096      65642069 
 3096      6E7400
 3097              	.LASF16:
 3098 015d 6D73675F 		.ascii	"msg_t\000"
 3098      7400
 3099              	.LASF67:
 3100 0163 656C5F6E 		.ascii	"el_next\000"
 3100      65787400 
 3101              	.LASF13:
 3102 016b 746D6F64 		.ascii	"tmode_t\000"
 3102      655F7400 
 3103              	.LASF40:
 3104 0173 54687265 		.ascii	"ThreadsList\000"
 3104      6164734C 
 3104      69737400 
 3105              	.LASF18:
 3106 017f 6576656E 		.ascii	"eventmask_t\000"
 3106      746D6173 
 3106      6B5F7400 
 3107              	.LASF62:
 3108 018b 4D757465 		.ascii	"Mutex\000"
 3108      7800
 3109              	.LASF42:
 3110 0191 73746B61 		.ascii	"stkalign_t\000"
 3110      6C69676E 
 3110      5F7400
 3111              	.LASF49:
 3112 019c 76745F74 		.ascii	"vt_time\000"
 3112      696D6500 
 3113              	.LASF84:
 3114 01a4 65767431 		.ascii	"evt1_setup\000"
 3114      5F736574 
 3114      757000
 3115              	.LASF50:
 3116 01af 76745F66 		.ascii	"vt_func\000"
 3116      756E6300 
 3117              	.LASF90:
 3118 01b7 65767433 		.ascii	"evt3_setup\000"
 3118      5F736574 
 3118      757000
 3119              	.LASF27:
 3120 01c2 705F6F6C 		.ascii	"p_older\000"
 3120      64657200 
 3121              	.LASF86:
 3122 01ca 74687265 		.ascii	"thread1\000"
 3122      61643100 
 3123              	.LASF87:
 3124 01d2 74687265 		.ascii	"thread2\000"
 3124      61643200 
 3125              	.LASF56:
ARM GAS  /tmp/ccnXntFd.s 			page 59


 3126 01da 725F6374 		.ascii	"r_ctx\000"
 3126      7800
 3127              	.LASF39:
 3128 01e0 54687265 		.ascii	"ThreadsQueue\000"
 3128      61647351 
 3128      75657565 
 3128      00
 3129              	.LASF80:
 3130 01ed 73657475 		.ascii	"setup\000"
 3130      7000
 3131              	.LASF60:
 3132 01f3 725F6375 		.ascii	"r_current\000"
 3132      7272656E 
 3132      7400
 3133              	.LASF58:
 3134 01fd 725F6F6C 		.ascii	"r_older\000"
 3134      64657200 
 3135              	.LASF69:
 3136 0205 656C5F6D 		.ascii	"el_mask\000"
 3136      61736B00 
 3137              	.LASF23:
 3138 020d 705F7072 		.ascii	"p_prev\000"
 3138      657600
 3139              	.LASF82:
 3140 0214 65786563 		.ascii	"execute\000"
 3140      75746500 
 3141              	.LASF15:
 3142 021c 74707269 		.ascii	"tprio_t\000"
 3142      6F5F7400 
 3143              	.LASF6:
 3144 0224 696E7433 		.ascii	"int32_t\000"
 3144      325F7400 
 3145              	.LASF2:
 3146 022c 756E7369 		.ascii	"unsigned char\000"
 3146      676E6564 
 3146      20636861 
 3146      7200
 3147              	.LASF68:
 3148 023a 656C5F6C 		.ascii	"el_listener\000"
 3148      69737465 
 3148      6E657200 
 3149              	.LASF91:
 3150 0246 65767433 		.ascii	"evt3_execute\000"
 3150      5F657865 
 3150      63757465 
 3150      00
 3151              	.LASF37:
 3152 0253 705F6D74 		.ascii	"p_mtxlist\000"
 3152      786C6973 
 3152      7400
 3153              	.LASF3:
 3154 025d 73686F72 		.ascii	"short int\000"
 3154      7420696E 
 3154      7400
 3155              	.LASF30:
 3156 0267 705F7374 		.ascii	"p_state\000"
 3156      61746500 
ARM GAS  /tmp/ccnXntFd.s 			page 60


 3157              	.LASF94:
 3158 026f 74687265 		.ascii	"threads\000"
 3158      61647300 
 3159              	.LASF55:
 3160 0277 725F7072 		.ascii	"r_prio\000"
 3160      696F00
 3161              	.LASF76:
 3162 027e 65776D61 		.ascii	"ewmask\000"
 3162      736B00
 3163              	.LASF22:
 3164 0285 705F6E65 		.ascii	"p_next\000"
 3164      787400
 3165              	.LASF31:
 3166 028c 705F666C 		.ascii	"p_flags\000"
 3166      61677300 
 3167              	.LASF21:
 3168 0294 54687265 		.ascii	"Thread\000"
 3168      616400
 3169              	.LASF78:
 3170 029b 74657374 		.ascii	"testcase\000"
 3170      63617365 
 3170      00
 3171              	.LASF36:
 3172 02a4 705F6570 		.ascii	"p_epending\000"
 3172      656E6469 
 3172      6E6700
 3173              	.LASF96:
 3174 02af 74657374 		.ascii	"testevt1\000"
 3174      65767431 
 3174      00
 3175              	.LASF95:
 3176 02b8 6576686E 		.ascii	"evhndl\000"
 3176      646C00
 3177              	.LASF8:
 3178 02bf 75696E74 		.ascii	"uint32_t\000"
 3178      33325F74 
 3178      00
 3179              	.LASF54:
 3180 02c8 725F7175 		.ascii	"r_queue\000"
 3180      65756500 
 3181              	.LASF46:
 3182 02d0 56697274 		.ascii	"VirtualTimer\000"
 3182      75616C54 
 3182      696D6572 
 3182      00
 3183              	.LASF101:
 3184 02dd 2E2E2F63 		.ascii	"../chibios_2.4.x/test/testevt.c\000"
 3184      68696269 
 3184      6F735F32 
 3184      2E342E78 
 3184      2F746573 
 3185              	.LASF77:
 3186 02fd 63686172 		.ascii	"char\000"
 3186      00
 3187              	.LASF65:
 3188 0302 6D5F6E65 		.ascii	"m_next\000"
 3188      787400
ARM GAS  /tmp/ccnXntFd.s 			page 61


 3189              	.LASF19:
 3190 0309 73797374 		.ascii	"systime_t\000"
 3190      696D655F 
 3190      7400
 3191              	.LASF38:
 3192 0313 705F7265 		.ascii	"p_realprio\000"
 3192      616C7072 
 3192      696F00
 3193              	.LASF45:
 3194 031e 76746675 		.ascii	"vtfunc_t\000"
 3194      6E635F74 
 3194      00
 3195              	.LASF32:
 3196 0327 705F7469 		.ascii	"p_time\000"
 3196      6D6500
 3197              	.LASF43:
 3198 032e 696E7463 		.ascii	"intctx\000"
 3198      747800
 3199              	.LASF34:
 3200 0335 705F6D73 		.ascii	"p_msgqueue\000"
 3200      67717565 
 3200      756500
 3201              	.LASF51:
 3202 0340 76745F70 		.ascii	"vt_par\000"
 3202      617200
 3203              	.LASF71:
 3204 0347 65735F6E 		.ascii	"es_next\000"
 3204      65787400 
 3205              	.LASF61:
 3206 034f 52656164 		.ascii	"ReadyList\000"
 3206      794C6973 
 3206      7400
 3207              	.LASF102:
 3208 0359 2F686F6D 		.ascii	"/home/z80/projects/voltamper.git/firmware/voltamp\000"
 3208      652F7A38 
 3208      302F7072 
 3208      6F6A6563 
 3208      74732F76 
 3209              	.LASF93:
 3210 038b 726C6973 		.ascii	"rlist\000"
 3210      7400
 3211              	.LASF5:
 3212 0391 75696E74 		.ascii	"uint8_t\000"
 3212      385F7400 
 3213              	.LASF66:
 3214 0399 4576656E 		.ascii	"EventListener\000"
 3214      744C6973 
 3214      74656E65 
 3214      7200
 3215              	.LASF75:
 3216 03a7 77746F62 		.ascii	"wtobjp\000"
 3216      6A7000
 3217              	.LASF100:
 3218 03ae 474E5520 		.ascii	"GNU C 4.5.2\000"
 3218      4320342E 
 3218      352E3200 
 3219              	.LASF28:
ARM GAS  /tmp/ccnXntFd.s 			page 62


 3220 03ba 705F6E61 		.ascii	"p_name\000"
 3220      6D6500
 3221              	.LASF52:
 3222 03c1 76745F73 		.ascii	"vt_systime\000"
 3222      79737469 
 3222      6D6500
 3223              	.LASF53:
 3224 03cc 56544C69 		.ascii	"VTList\000"
 3224      737400
 3225              	.LASF59:
 3226 03d3 725F7072 		.ascii	"r_preempt\000"
 3226      65656D70 
 3226      7400
 3227              	.LASF64:
 3228 03dd 6D5F6F77 		.ascii	"m_owner\000"
 3228      6E657200 
 3229              	.LASF83:
 3230 03e5 65767431 		.ascii	"evt1_execute\000"
 3230      5F657865 
 3230      63757465 
 3230      00
 3231              	.LASF25:
 3232 03f2 705F6374 		.ascii	"p_ctx\000"
 3232      7800
 3233              	.LASF33:
 3234 03f8 705F7761 		.ascii	"p_waiting\000"
 3234      6974696E 
 3234      6700
 3235              		.ident	"GCC: (Sourcery G++ Lite 2011.03-42) 4.5.2"
ARM GAS  /tmp/ccnXntFd.s 			page 63


DEFINED SYMBOLS
                            *ABS*:00000000 testevt.c
     /tmp/ccnXntFd.s:24     .data.es1:00000000 $d
     /tmp/ccnXntFd.s:27     .data.es1:00000000 es1
     /tmp/ccnXntFd.s:30     .data.es2:00000000 $d
     /tmp/ccnXntFd.s:33     .data.es2:00000000 es2
     /tmp/ccnXntFd.s:36     .text.evt1_setup:00000000 $t
     /tmp/ccnXntFd.s:41     .text.evt1_setup:00000000 evt1_setup
     /tmp/ccnXntFd.s:62     .text.h1:00000000 $t
     /tmp/ccnXntFd.s:67     .text.h1:00000000 h1
     /tmp/ccnXntFd.s:90     .text.h2:00000000 $t
     /tmp/ccnXntFd.s:95     .text.h2:00000000 h2
     /tmp/ccnXntFd.s:118    .text.h3:00000000 $t
     /tmp/ccnXntFd.s:123    .text.h3:00000000 h3
     /tmp/ccnXntFd.s:146    .rodata.evhndl:00000000 $d
     /tmp/ccnXntFd.s:149    .rodata.evhndl:00000000 evhndl
     /tmp/ccnXntFd.s:154    .rodata:00000000 $d
     /tmp/ccnXntFd.s:158    .text.evt1_execute:00000000 $t
     /tmp/ccnXntFd.s:163    .text.evt1_execute:00000000 evt1_execute
     /tmp/ccnXntFd.s:264    .text.evt1_execute:000000b0 $d
     /tmp/ccnXntFd.s:279    .rodata.testevt1:00000000 testevt1
     /tmp/ccnXntFd.s:276    .rodata.testevt1:00000000 $d
     /tmp/ccnXntFd.s:285    .text.evt2_setup:00000000 $t
     /tmp/ccnXntFd.s:290    .text.evt2_setup:00000000 evt2_setup
     /tmp/ccnXntFd.s:310    .text.thread1:00000000 $t
     /tmp/ccnXntFd.s:315    .text.thread1:00000000 thread1
     /tmp/ccnXntFd.s:347    .text.thread2:00000000 $t
     /tmp/ccnXntFd.s:352    .text.thread2:00000000 thread2
     /tmp/ccnXntFd.s:386    .text.thread2:0000002c $d
     /tmp/ccnXntFd.s:396    .text.evt2_execute:00000000 $t
     /tmp/ccnXntFd.s:401    .text.evt2_execute:00000000 evt2_execute
     /tmp/ccnXntFd.s:773    .text.evt2_execute:00000308 $d
     /tmp/ccnXntFd.s:785    .text.evt2_execute:0000032c $t
     /tmp/ccnXntFd.s:799    .rodata.testevt2:00000000 testevt2
     /tmp/ccnXntFd.s:796    .rodata.testevt2:00000000 $d
     /tmp/ccnXntFd.s:805    .text.evt3_setup:00000000 $t
     /tmp/ccnXntFd.s:810    .text.evt3_setup:00000000 evt3_setup
     /tmp/ccnXntFd.s:830    .text.evt3_execute:00000000 $t
     /tmp/ccnXntFd.s:835    .text.evt3_execute:00000000 evt3_execute
     /tmp/ccnXntFd.s:970    .rodata.testevt3:00000000 testevt3
     /tmp/ccnXntFd.s:967    .rodata.testevt3:00000000 $d
     /tmp/ccnXntFd.s:980    .rodata.patternevt:00000000 patternevt
     /tmp/ccnXntFd.s:977    .rodata.patternevt:00000000 $d
                     .debug_frame:00000010 $d
     /tmp/ccnXntFd.s:271    .text.evt1_execute:000000bc $t
     /tmp/ccnXntFd.s:391    .text.thread2:00000034 $t

UNDEFINED SYMBOLS
chEvtClearFlags
test_emit_token
chEvtRegisterMask
_test_assert
chEvtUnregister
chEvtDispatch
_test_assert_sequence
chThdSleep
chEvtSignalFlags
ARM GAS  /tmp/ccnXntFd.s 			page 64


chEvtBroadcastFlags
chEvtAddFlags
chEvtWaitOne
test_wait_tick
chThdCreateStatic
_test_assert_time_window
test_wait_threads
chEvtWaitAny
chEvtWaitAll
vtlist
wa
rlist
threads
chEvtWaitOneTimeout
chEvtWaitAnyTimeout
chEvtWaitAllTimeout
