ARM GAS  /tmp/ccYToh42.s 			page 1


   1              		.syntax unified
   2              		.cpu cortex-m3
   3              		.fpu softvfp
   4              		.eabi_attribute 20, 1
   5              		.eabi_attribute 21, 1
   6              		.eabi_attribute 23, 3
   7              		.eabi_attribute 24, 1
   8              		.eabi_attribute 25, 1
   9              		.eabi_attribute 26, 1
  10              		.eabi_attribute 30, 2
  11              		.eabi_attribute 18, 4
  12              		.thumb
  13              		.file	"testqueues.c"
  20 0000 80040000 		.text
  20      0200C901 
  20      00000201 
  20      FB0E0D00 
  20      01010101 
  21              	.Ltext0:
  22              		.cfi_sections	.debug_frame
  23              		.section	.text.notify,"ax",%progbits
  24              		.align	2
  25              		.p2align 4,,15
  26              		.thumb
  27              		.thumb_func
  28              		.type	notify, %function
  29              	notify:
  30              	.LFB7:
  31              		.file 1 "../chibios_2.4.x/test/testqueues.c"
  32              		.loc 1 68 0
  33              		.cfi_startproc
  34              		@ args = 0, pretend = 0, frame = 0
  35              		@ frame_needed = 0, uses_anonymous_args = 0
  36              		@ link register save eliminated.
  37              	.LVL0:
  38              		.loc 1 70 0
  39 0000 7047     		bx	lr
  40              		.cfi_endproc
  41              	.LFE7:
  42              		.size	notify, .-notify
  43 0002 00BFAFF3 		.section	.text.thread2,"ax",%progbits
  43      0080AFF3 
  43      0080AFF3 
  43      0080
  44              		.align	2
  45              		.p2align 4,,15
  46              		.thumb
  47              		.thumb_func
  48              		.type	thread2, %function
  49              	thread2:
  50              	.LFB12:
ARM GAS  /tmp/ccYToh42.s 			page 2


  51              		.loc 1 181 0
  52              		.cfi_startproc
  53              		@ args = 0, pretend = 0, frame = 0
  54              		@ frame_needed = 0, uses_anonymous_args = 0
  55              	.LVL1:
  56 0000 08B5     		push	{r3, lr}
  57              	.LCFI0:
  58              		.cfi_def_cfa_offset 8
  59              		.loc 1 184 0
  60 0002 0021     		movs	r1, #0
  61 0004 6422     		movs	r2, #100
  62 0006 0248     		ldr	r0, .L3
  63              	.LVL2:
  64              		.cfi_offset 14, -4
  65              		.cfi_offset 3, -8
  66 0008 FFF7FEFF 		bl	chOQPutTimeout
  67              		.loc 1 186 0
  68 000c 0020     		movs	r0, #0
  69 000e 08BD     		pop	{r3, pc}
  70              	.L4:
  71              		.align	2
  72              	.L3:
  73 0010 00000000 		.word	.LANCHOR0
  74              		.cfi_endproc
  75              	.LFE12:
  76              		.size	thread2, .-thread2
  77 0014 AFF30080 		.section	.text.queues2_execute,"ax",%progbits
  77      AFF30080 
  77      AFF30080 
  78              		.align	2
  79              		.p2align 4,,15
  80              		.thumb
  81              		.thumb_func
  82              		.type	queues2_execute, %function
  83              	queues2_execute:
  84              	.LFB13:
  85              		.loc 1 188 0
  86              		.cfi_startproc
  87              		@ args = 0, pretend = 0, frame = 0
  88              		@ frame_needed = 0, uses_anonymous_args = 0
  89 0000 2DE9F041 		push	{r4, r5, r6, r7, r8, lr}
  90              	.LCFI1:
  91              		.cfi_def_cfa_offset 24
  92              	.LBB2:
  93              		.loc 1 193 0
  94 0004 2023     		movs	r3, #32
  95              	.LVL3:
  96              	.LBE2:
  97              		.loc 1 188 0
  98 0006 82B0     		sub	sp, sp, #8
  99              	.LCFI2:
 100              		.cfi_def_cfa_offset 32
 101              	.LBB3:
 102              		.loc 1 193 0
 103              	@ 193 "../chibios_2.4.x/test/testqueues.c" 1
 104 0008 83F31188 		msr     BASEPRI, r3
 105              	@ 0 "" 2
ARM GAS  /tmp/ccYToh42.s 			page 3


 106              	.LVL4:
 107              		.thumb
 108              	.LBE3:
 109 000c C04D     		ldr	r5, .L30
 110              		.cfi_offset 14, -4
 111              		.cfi_offset 8, -8
 112              		.cfi_offset 7, -12
 113              		.cfi_offset 6, -16
 114              		.cfi_offset 5, -20
 115              		.cfi_offset 4, -24
 116 000e FFF7FEFF 		bl	dbg_check_lock
 117              	.LVL5:
 118 0012 6A69     		ldr	r2, [r5, #20]
 119 0014 AB69     		ldr	r3, [r5, #24]
 120 0016 9A42     		cmp	r2, r3
 121 0018 00F09481 		beq	.L20
 122 001c 0021     		movs	r1, #0
 123              	.L6:
 124              		.loc 1 193 0 is_stmt 0 discriminator 4
 125 001e 0120     		movs	r0, #1
 126 0020 FFF7FEFF 		bl	_test_assert
 127 0024 0646     		mov	r6, r0
 128 0026 0028     		cmp	r0, #0
 129 0028 40F08681 		bne	.L21
 130              		.loc 1 193 0 discriminator 6
 131 002c FFF7FEFF 		bl	dbg_check_unlock
 132              	.LBB4:
 133 0030 3346     		mov	r3, r6
 134              	.LVL6:
 135              	@ 193 "../chibios_2.4.x/test/testqueues.c" 1
 136 0032 83F31188 		msr     BASEPRI, r3
 137              	@ 0 "" 2
 138              	.LVL7:
 139              		.thumb
 140              	.LBE4:
 141              		.loc 1 197 0 is_stmt 1 discriminator 6
 142 0036 B64C     		ldr	r4, .L30
 143 0038 4121     		movs	r1, #65
 144 003a 2046     		mov	r0, r4
 145 003c 4FF0FF32 		mov	r2, #-1
 146 0040 FFF7FEFF 		bl	chOQPutTimeout
 147              	.LVL8:
 148 0044 4221     		movs	r1, #66
 149 0046 2046     		mov	r0, r4
 150 0048 4FF0FF32 		mov	r2, #-1
 151 004c FFF7FEFF 		bl	chOQPutTimeout
 152              	.LVL9:
 153 0050 4321     		movs	r1, #67
 154 0052 2046     		mov	r0, r4
 155 0054 4FF0FF32 		mov	r2, #-1
 156 0058 FFF7FEFF 		bl	chOQPutTimeout
 157              	.LVL10:
 158 005c 2046     		mov	r0, r4
 159 005e 4421     		movs	r1, #68
 160 0060 4FF0FF32 		mov	r2, #-1
 161 0064 FFF7FEFF 		bl	chOQPutTimeout
 162              	.LVL11:
ARM GAS  /tmp/ccYToh42.s 			page 4


 163              	.LBB5:
 164              		.loc 1 198 0 discriminator 6
 165 0068 2023     		movs	r3, #32
 166              	.LVL12:
 167              	@ 198 "../chibios_2.4.x/test/testqueues.c" 1
 168 006a 83F31188 		msr     BASEPRI, r3
 169              	@ 0 "" 2
 170              	.LVL13:
 171              		.thumb
 172              	.LBE5:
 173 006e FFF7FEFF 		bl	dbg_check_lock
 174              	.LVL14:
 175 0072 AD68     		ldr	r5, [r5, #8]
 176 0074 0220     		movs	r0, #2
 177 0076 D5F10101 		rsbs	r1, r5, #1
 178 007a 38BF     		it	cc
 179 007c 0021     		movcc	r1, #0
 180 007e FFF7FEFF 		bl	_test_assert
 181 0082 0546     		mov	r5, r0
 182 0084 0028     		cmp	r0, #0
 183 0086 40F04F81 		bne	.L22
 184              		.loc 1 198 0 is_stmt 0 discriminator 2
 185 008a FFF7FEFF 		bl	dbg_check_unlock
 186              	.LBB6:
 187 008e 2B46     		mov	r3, r5
 188              	.LVL15:
 189              	@ 198 "../chibios_2.4.x/test/testqueues.c" 1
 190 0090 83F31188 		msr     BASEPRI, r3
 191              	@ 0 "" 2
 192              	.LVL16:
 193              		.thumb
 194              	.LBE6:
 195              	.LBB7:
 196              	.LBB8:
 197              		.loc 1 204 0 is_stmt 1 discriminator 2
 198 0094 2023     		movs	r3, #32
 199              	.LVL17:
 200              	@ 204 "../chibios_2.4.x/test/testqueues.c" 1
 201 0096 83F31188 		msr     BASEPRI, r3
 202              	@ 0 "" 2
 203              	.LVL18:
 204              		.thumb
 205              	.LBE8:
 206 009a FFF7FEFF 		bl	dbg_check_lock
 207              	.LVL19:
 208              		.loc 1 205 0 discriminator 2
 209 009e 2046     		mov	r0, r4
 210 00a0 FFF7FEFF 		bl	chOQGetI
 211 00a4 0646     		mov	r6, r0
 212              	.LVL20:
 213              		.loc 1 206 0 discriminator 2
 214 00a6 FFF7FEFF 		bl	dbg_check_unlock
 215              	.LVL21:
 216              	.LBB9:
 217 00aa 2B46     		mov	r3, r5
 218              	.LVL22:
 219              	@ 206 "../chibios_2.4.x/test/testqueues.c" 1
ARM GAS  /tmp/ccYToh42.s 			page 5


 220 00ac 83F31188 		msr     BASEPRI, r3
 221              	@ 0 "" 2
 222              	.LVL23:
 223              		.thumb
 224              	.LBE9:
 225              		.loc 1 207 0 discriminator 2
 226 00b0 F0B2     		uxtb	r0, r6
 227 00b2 FFF7FEFF 		bl	test_emit_token
 228              	.LVL24:
 229              	.LBB10:
 230              		.loc 1 204 0 discriminator 2
 231 00b6 2023     		movs	r3, #32
 232              	@ 204 "../chibios_2.4.x/test/testqueues.c" 1
 233 00b8 83F31188 		msr     BASEPRI, r3
 234              	@ 0 "" 2
 235              	.LVL25:
 236              		.thumb
 237              	.LBE10:
 238 00bc FFF7FEFF 		bl	dbg_check_lock
 239              	.LVL26:
 240              		.loc 1 205 0 discriminator 2
 241 00c0 2046     		mov	r0, r4
 242 00c2 FFF7FEFF 		bl	chOQGetI
 243 00c6 0646     		mov	r6, r0
 244              	.LVL27:
 245              		.loc 1 206 0 discriminator 2
 246 00c8 FFF7FEFF 		bl	dbg_check_unlock
 247              	.LVL28:
 248              	.LBB11:
 249 00cc 2B46     		mov	r3, r5
 250              	@ 206 "../chibios_2.4.x/test/testqueues.c" 1
 251 00ce 83F31188 		msr     BASEPRI, r3
 252              	@ 0 "" 2
 253              	.LVL29:
 254              		.thumb
 255              	.LBE11:
 256              		.loc 1 207 0 discriminator 2
 257 00d2 F0B2     		uxtb	r0, r6
 258 00d4 FFF7FEFF 		bl	test_emit_token
 259              	.LVL30:
 260              	.LBB12:
 261              		.loc 1 204 0 discriminator 2
 262 00d8 2023     		movs	r3, #32
 263              	@ 204 "../chibios_2.4.x/test/testqueues.c" 1
 264 00da 83F31188 		msr     BASEPRI, r3
 265              	@ 0 "" 2
 266              	.LVL31:
 267              		.thumb
 268              	.LBE12:
 269 00de FFF7FEFF 		bl	dbg_check_lock
 270              	.LVL32:
 271              		.loc 1 205 0 discriminator 2
 272 00e2 2046     		mov	r0, r4
 273 00e4 FFF7FEFF 		bl	chOQGetI
 274 00e8 0646     		mov	r6, r0
 275              	.LVL33:
 276              		.loc 1 206 0 discriminator 2
ARM GAS  /tmp/ccYToh42.s 			page 6


 277 00ea FFF7FEFF 		bl	dbg_check_unlock
 278              	.LVL34:
 279              	.LBB13:
 280 00ee 2B46     		mov	r3, r5
 281              	@ 206 "../chibios_2.4.x/test/testqueues.c" 1
 282 00f0 83F31188 		msr     BASEPRI, r3
 283              	@ 0 "" 2
 284              	.LVL35:
 285              		.thumb
 286              	.LBE13:
 287              		.loc 1 207 0 discriminator 2
 288 00f4 F0B2     		uxtb	r0, r6
 289 00f6 FFF7FEFF 		bl	test_emit_token
 290              	.LVL36:
 291              	.LBB14:
 292              		.loc 1 204 0 discriminator 2
 293 00fa 2023     		movs	r3, #32
 294              	@ 204 "../chibios_2.4.x/test/testqueues.c" 1
 295 00fc 83F31188 		msr     BASEPRI, r3
 296              	@ 0 "" 2
 297              	.LVL37:
 298              		.thumb
 299              	.LBE14:
 300 0100 FFF7FEFF 		bl	dbg_check_lock
 301              	.LVL38:
 302              		.loc 1 205 0 discriminator 2
 303 0104 2046     		mov	r0, r4
 304 0106 FFF7FEFF 		bl	chOQGetI
 305 010a 0646     		mov	r6, r0
 306              	.LVL39:
 307              		.loc 1 206 0 discriminator 2
 308 010c FFF7FEFF 		bl	dbg_check_unlock
 309              	.LVL40:
 310              	.LBB15:
 311 0110 2B46     		mov	r3, r5
 312              	@ 206 "../chibios_2.4.x/test/testqueues.c" 1
 313 0112 83F31188 		msr     BASEPRI, r3
 314              	@ 0 "" 2
 315              	.LVL41:
 316              		.thumb
 317              	.LBE15:
 318              		.loc 1 207 0 discriminator 2
 319 0116 F0B2     		uxtb	r0, r6
 320 0118 FFF7FEFF 		bl	test_emit_token
 321              	.LVL42:
 322              	.LBE7:
 323              	.LBB16:
 324              		.loc 1 209 0 discriminator 2
 325 011c 2023     		movs	r3, #32
 326              	.LVL43:
 327              	@ 209 "../chibios_2.4.x/test/testqueues.c" 1
 328 011e 83F31188 		msr     BASEPRI, r3
 329              	@ 0 "" 2
 330              	.LVL44:
 331              		.thumb
 332              	.LBE16:
 333 0122 FFF7FEFF 		bl	dbg_check_lock
ARM GAS  /tmp/ccYToh42.s 			page 7


 334              	.LVL45:
 335 0126 6069     		ldr	r0, [r4, #20]
 336 0128 A269     		ldr	r2, [r4, #24]
 337 012a 9042     		cmp	r0, r2
 338 012c 00F01581 		beq	.L23
 339              		.loc 1 209 0 is_stmt 0
 340 0130 2946     		mov	r1, r5
 341              	.L10:
 342              		.loc 1 209 0 discriminator 4
 343 0132 0320     		movs	r0, #3
 344 0134 FFF7FEFF 		bl	_test_assert
 345 0138 0446     		mov	r4, r0
 346 013a 0028     		cmp	r0, #0
 347 013c 40F00781 		bne	.L24
 348              		.loc 1 209 0 discriminator 6
 349 0140 FFF7FEFF 		bl	dbg_check_unlock
 350              	.LBB17:
 351 0144 2346     		mov	r3, r4
 352              	.LVL46:
 353              	@ 209 "../chibios_2.4.x/test/testqueues.c" 1
 354 0146 83F31188 		msr     BASEPRI, r3
 355              	@ 0 "" 2
 356              	.LVL47:
 357              		.thumb
 358              	.LBE17:
 359              		.loc 1 210 0 is_stmt 1 discriminator 6
 360 014a 0420     		movs	r0, #4
 361 014c 7149     		ldr	r1, .L30+4
 362 014e FFF7FEFF 		bl	_test_assert_sequence
 363              	.LVL48:
 364 0152 0546     		mov	r5, r0
 365 0154 0028     		cmp	r0, #0
 366 0156 40F0EC80 		bne	.L5
 367              	.LBB18:
 368              		.loc 1 211 0
 369 015a 2023     		movs	r3, #32
 370              	.LVL49:
 371              	@ 211 "../chibios_2.4.x/test/testqueues.c" 1
 372 015c 83F31188 		msr     BASEPRI, r3
 373              	@ 0 "" 2
 374              	.LVL50:
 375              		.thumb
 376              	.LBE18:
 377 0160 6B4C     		ldr	r4, .L30
 378 0162 FFF7FEFF 		bl	dbg_check_lock
 379              	.LVL51:
 380 0166 2046     		mov	r0, r4
 381 0168 FFF7FEFF 		bl	chOQGetI
 382 016c 10F1030F 		cmn	r0, #3
 383 0170 14BF     		ite	ne
 384 0172 0021     		movne	r1, #0
 385 0174 0121     		moveq	r1, #1
 386 0176 0520     		movs	r0, #5
 387 0178 FFF7FEFF 		bl	_test_assert
 388 017c 0646     		mov	r6, r0
 389              	.LVL52:
 390 017e 0028     		cmp	r0, #0
ARM GAS  /tmp/ccYToh42.s 			page 8


 391 0180 40F0F080 		bne	.L25
 392              		.loc 1 211 0 is_stmt 0 discriminator 2
 393 0184 FFF7FEFF 		bl	dbg_check_unlock
 394              	.LBB19:
 395 0188 3346     		mov	r3, r6
 396              	.LVL53:
 397              	@ 211 "../chibios_2.4.x/test/testqueues.c" 1
 398 018a 83F31188 		msr     BASEPRI, r3
 399              	@ 0 "" 2
 400              	.LVL54:
 401              		.thumb
 402              	.LBE19:
 403              		.loc 1 214 0 is_stmt 1 discriminator 2
 404 018e 624D     		ldr	r5, .L30+8
 405 0190 0822     		movs	r2, #8
 406 0192 6E68     		ldr	r6, [r5, #4]
 407 0194 2046     		mov	r0, r4
 408 0196 3146     		mov	r1, r6
 409 0198 FFF7FEFF 		bl	chOQWriteTimeout
 410              	.LVL55:
 411              		.loc 1 215 0 discriminator 2
 412 019c A0F1040C 		sub	ip, r0, #4
 413 01a0 DCF10008 		rsbs	r8, ip, #0
 414 01a4 48EB0C01 		adc	r1, r8, ip
 415 01a8 0620     		movs	r0, #6
 416              	.LVL56:
 417 01aa FFF7FEFF 		bl	_test_assert
 418              	.LVL57:
 419 01ae 8046     		mov	r8, r0
 420 01b0 0028     		cmp	r0, #0
 421 01b2 40F0BE80 		bne	.L5
 422              	.LBB20:
 423              		.loc 1 216 0
 424 01b6 2023     		movs	r3, #32
 425              	.LVL58:
 426              	@ 216 "../chibios_2.4.x/test/testqueues.c" 1
 427 01b8 83F31188 		msr     BASEPRI, r3
 428              	@ 0 "" 2
 429              	.LVL59:
 430              		.thumb
 431              	.LBE20:
 432 01bc FFF7FEFF 		bl	dbg_check_lock
 433              	.LVL60:
 434 01c0 A768     		ldr	r7, [r4, #8]
 435 01c2 0720     		movs	r0, #7
 436 01c4 D7F10101 		rsbs	r1, r7, #1
 437 01c8 38BF     		it	cc
 438 01ca 0021     		movcc	r1, #0
 439 01cc FFF7FEFF 		bl	_test_assert
 440 01d0 0746     		mov	r7, r0
 441 01d2 0028     		cmp	r0, #0
 442 01d4 40F0CC80 		bne	.L26
 443              		.loc 1 216 0 is_stmt 0 discriminator 2
 444 01d8 FFF7FEFF 		bl	dbg_check_unlock
 445              	.LBB21:
 446 01dc 3B46     		mov	r3, r7
 447              	.LVL61:
ARM GAS  /tmp/ccYToh42.s 			page 9


 448              	@ 216 "../chibios_2.4.x/test/testqueues.c" 1
 449 01de 83F31188 		msr     BASEPRI, r3
 450              	@ 0 "" 2
 451              	.LVL62:
 452              		.thumb
 453              	.LBE21:
 454              		.loc 1 217 0 is_stmt 1 discriminator 2
 455 01e2 4E4A     		ldr	r2, .L30+12
 456 01e4 2868     		ldr	r0, [r5, #0]
 457 01e6 D369     		ldr	r3, [r2, #28]
 458              	.LVL63:
 459 01e8 4FF49871 		mov	r1, #304
 460 01ec 9D68     		ldr	r5, [r3, #8]
 461 01ee 4C4B     		ldr	r3, .L30+16
 462 01f0 6A1C     		adds	r2, r5, #1
 463 01f2 0097     		str	r7, [sp, #0]
 464 01f4 FFF7FEFF 		bl	chThdCreateStatic
 465 01f8 4A49     		ldr	r1, .L30+20
 466              	.LBB22:
 467              		.loc 1 218 0 discriminator 2
 468 01fa 2023     		movs	r3, #32
 469              	.LVL64:
 470              	.LBE22:
 471              		.loc 1 217 0 discriminator 2
 472 01fc 0860     		str	r0, [r1, #0]
 473              	.LBB23:
 474              		.loc 1 218 0 discriminator 2
 475              	@ 218 "../chibios_2.4.x/test/testqueues.c" 1
 476 01fe 83F31188 		msr     BASEPRI, r3
 477              	@ 0 "" 2
 478              	.LVL65:
 479              		.thumb
 480              	.LBE23:
 481 0202 FFF7FEFF 		bl	dbg_check_lock
 482              	.LVL66:
 483 0206 2369     		ldr	r3, [r4, #16]
 484 0208 E268     		ldr	r2, [r4, #12]
 485 020a A068     		ldr	r0, [r4, #8]
 486 020c 9D1A     		subs	r5, r3, r2
 487 020e 291A     		subs	r1, r5, r0
 488 0210 A1F1040E 		sub	lr, r1, #4
 489 0214 0820     		movs	r0, #8
 490 0216 DEF10003 		rsbs	r3, lr, #0
 491 021a 43EB0E01 		adc	r1, r3, lr
 492 021e FFF7FEFF 		bl	_test_assert
 493 0222 0546     		mov	r5, r0
 494 0224 0028     		cmp	r0, #0
 495 0226 40F0A980 		bne	.L27
 496 022a FFF7FEFF 		bl	dbg_check_unlock
 497              	.LBB24:
 498 022e 2B46     		mov	r3, r5
 499              	.LVL67:
 500              	@ 218 "../chibios_2.4.x/test/testqueues.c" 1
 501 0230 83F31188 		msr     BASEPRI, r3
 502              	@ 0 "" 2
 503              	.LVL68:
 504              		.thumb
ARM GAS  /tmp/ccYToh42.s 			page 10


 505              	.LBE24:
 506              		.loc 1 219 0 discriminator 2
 507 0234 FFF7FEFF 		bl	test_wait_threads
 508              	.LVL69:
 509              	.LBB25:
 510              		.loc 1 222 0 discriminator 2
 511 0238 2023     		movs	r3, #32
 512              	.LVL70:
 513              	@ 222 "../chibios_2.4.x/test/testqueues.c" 1
 514 023a 83F31188 		msr     BASEPRI, r3
 515              	@ 0 "" 2
 516              	.LVL71:
 517              		.thumb
 518              	.LBE25:
 519 023e FFF7FEFF 		bl	dbg_check_lock
 520              	.LVL72:
 521              		.loc 1 223 0 discriminator 2
 522 0242 2046     		mov	r0, r4
 523 0244 FFF7FEFF 		bl	chOQResetI
 524              		.loc 1 224 0 discriminator 2
 525 0248 FFF7FEFF 		bl	dbg_check_unlock
 526              	.LBB26:
 527 024c 2B46     		mov	r3, r5
 528              	.LVL73:
 529              	@ 224 "../chibios_2.4.x/test/testqueues.c" 1
 530 024e 83F31188 		msr     BASEPRI, r3
 531              	@ 0 "" 2
 532              	.LVL74:
 533              		.thumb
 534              	.LBE26:
 535              	.LBB27:
 536              		.loc 1 225 0 discriminator 2
 537 0252 2023     		movs	r3, #32
 538              	.LVL75:
 539              	@ 225 "../chibios_2.4.x/test/testqueues.c" 1
 540 0254 83F31188 		msr     BASEPRI, r3
 541              	@ 0 "" 2
 542              	.LVL76:
 543              		.thumb
 544              	.LBE27:
 545 0258 FFF7FEFF 		bl	dbg_check_lock
 546              	.LVL77:
 547 025c 2069     		ldr	r0, [r4, #16]
 548 025e E268     		ldr	r2, [r4, #12]
 549 0260 A368     		ldr	r3, [r4, #8]
 550 0262 811A     		subs	r1, r0, r2
 551 0264 CF1A     		subs	r7, r1, r3
 552 0266 0920     		movs	r0, #9
 553 0268 D7F1000C 		rsbs	ip, r7, #0
 554 026c 4CEB0701 		adc	r1, ip, r7
 555 0270 FFF7FEFF 		bl	_test_assert
 556 0274 0746     		mov	r7, r0
 557 0276 0028     		cmp	r0, #0
 558 0278 40F08680 		bne	.L28
 559 027c FFF7FEFF 		bl	dbg_check_unlock
 560              	.LBB28:
 561 0280 3B46     		mov	r3, r7
ARM GAS  /tmp/ccYToh42.s 			page 11


 562              	.LVL78:
 563              	@ 225 "../chibios_2.4.x/test/testqueues.c" 1
 564 0282 83F31188 		msr     BASEPRI, r3
 565              	@ 0 "" 2
 566              	.LVL79:
 567              		.thumb
 568              	.LBE28:
 569              		.loc 1 228 0 discriminator 2
 570 0286 0222     		movs	r2, #2
 571 0288 3146     		mov	r1, r6
 572 028a 2046     		mov	r0, r4
 573 028c FFF7FEFF 		bl	chOQWriteTimeout
 574              	.LVL80:
 575              		.loc 1 229 0 discriminator 2
 576 0290 A0F10201 		sub	r1, r0, #2
 577 0294 D1F1000C 		rsbs	ip, r1, #0
 578 0298 4CEB0101 		adc	r1, ip, r1
 579 029c 0A20     		movs	r0, #10
 580              	.LVL81:
 581 029e FFF7FEFF 		bl	_test_assert
 582 02a2 0346     		mov	r3, r0
 583 02a4 0028     		cmp	r0, #0
 584 02a6 44D1     		bne	.L5
 585              		.loc 1 230 0
 586 02a8 3146     		mov	r1, r6
 587 02aa 0222     		movs	r2, #2
 588 02ac 2046     		mov	r0, r4
 589 02ae FFF7FEFF 		bl	chOQWriteTimeout
 590              	.LVL82:
 591              		.loc 1 231 0
 592 02b2 A0F10200 		sub	r0, r0, #2
 593              	.LVL83:
 594 02b6 4342     		rsbs	r3, r0, #0
 595 02b8 43EB0001 		adc	r1, r3, r0
 596 02bc 0B20     		movs	r0, #11
 597              	.LVL84:
 598 02be FFF7FEFF 		bl	_test_assert
 599 02c2 0028     		cmp	r0, #0
 600 02c4 35D1     		bne	.L5
 601              	.LBB29:
 602              		.loc 1 232 0
 603 02c6 2023     		movs	r3, #32
 604              	.LVL85:
 605              	@ 232 "../chibios_2.4.x/test/testqueues.c" 1
 606 02c8 83F31188 		msr     BASEPRI, r3
 607              	@ 0 "" 2
 608              	.LVL86:
 609              		.thumb
 610              	.LBE29:
 611 02cc FFF7FEFF 		bl	dbg_check_lock
 612              	.LVL87:
 613 02d0 A268     		ldr	r2, [r4, #8]
 614 02d2 0C20     		movs	r0, #12
 615 02d4 D2F10101 		rsbs	r1, r2, #1
 616 02d8 38BF     		it	cc
 617 02da 0021     		movcc	r1, #0
 618 02dc FFF7FEFF 		bl	_test_assert
ARM GAS  /tmp/ccYToh42.s 			page 12


 619 02e0 0028     		cmp	r0, #0
 620 02e2 57D1     		bne	.L29
 621              		.loc 1 232 0 is_stmt 0 discriminator 2
 622 02e4 FFF7FEFF 		bl	dbg_check_unlock
 623              	.LBB30:
 624 02e8 0023     		movs	r3, #0
 625              	.LVL88:
 626              	@ 232 "../chibios_2.4.x/test/testqueues.c" 1
 627 02ea 83F31188 		msr     BASEPRI, r3
 628              	@ 0 "" 2
 629              	.LVL89:
 630              		.thumb
 631              	.LBE30:
 632              		.loc 1 235 0 is_stmt 1 discriminator 2
 633 02ee 0A22     		movs	r2, #10
 634 02f0 1946     		mov	r1, r3
 635 02f2 0748     		ldr	r0, .L30
 636 02f4 FFF7FEFF 		bl	chOQPutTimeout
 637              	.LVL90:
 638 02f8 A0F1FF31 		sub	r1, r0, #-1
 639 02fc D1F1000C 		rsbs	ip, r1, #0
 640 0300 4CEB0101 		adc	r1, ip, r1
 641 0304 0D20     		movs	r0, #13
 642              		.loc 1 236 0 discriminator 2
 643 0306 02B0     		add	sp, sp, #8
 644 0308 BDE8F041 		pop	{r4, r5, r6, r7, r8, lr}
 645              		.loc 1 235 0 discriminator 2
 646 030c FFF7FEBF 		b	_test_assert
 647              	.L31:
 648              		.align	2
 649              	.L30:
 650 0310 00000000 		.word	.LANCHOR0
 651 0314 00000000 		.word	.LC0
 652 0318 00000000 		.word	wa
 653 031c 00000000 		.word	rlist
 654 0320 00000000 		.word	thread2
 655 0324 00000000 		.word	threads
 656              	.L22:
 657              		.loc 1 198 0 discriminator 1
 658 0328 FFF7FEFF 		bl	dbg_check_unlock
 659              	.LBB31:
 660 032c 3346     		mov	r3, r6
 661              	.LVL91:
 662              	@ 198 "../chibios_2.4.x/test/testqueues.c" 1
 663 032e 83F31188 		msr     BASEPRI, r3
 664              	@ 0 "" 2
 665              	.LVL92:
 666              		.thumb
 667              	.L5:
 668              	.LBE31:
 669              		.loc 1 236 0
 670 0332 02B0     		add	sp, sp, #8
 671 0334 BDE8F081 		pop	{r4, r5, r6, r7, r8, pc}
 672              	.LVL93:
 673              	.L21:
 674              		.loc 1 193 0 discriminator 5
 675 0338 FFF7FEFF 		bl	dbg_check_unlock
ARM GAS  /tmp/ccYToh42.s 			page 13


 676              	.LBB32:
 677 033c 0023     		movs	r3, #0
 678              	@ 193 "../chibios_2.4.x/test/testqueues.c" 1
 679 033e 83F31188 		msr     BASEPRI, r3
 680              	@ 0 "" 2
 681              	.LVL94:
 682              		.thumb
 683              	.LBE32:
 684 0342 F6E7     		b	.L5
 685              	.LVL95:
 686              	.L20:
 687              		.loc 1 188 0 discriminator 1
 688 0344 A968     		ldr	r1, [r5, #8]
 689 0346 0039     		subs	r1, r1, #0
 690 0348 18BF     		it	ne
 691 034a 0121     		movne	r1, #1
 692 034c 67E6     		b	.L6
 693              	.LVL96:
 694              	.L24:
 695              		.loc 1 209 0 discriminator 5
 696 034e FFF7FEFF 		bl	dbg_check_unlock
 697              	.LBB33:
 698 0352 0023     		movs	r3, #0
 699              	@ 209 "../chibios_2.4.x/test/testqueues.c" 1
 700 0354 83F31188 		msr     BASEPRI, r3
 701              	@ 0 "" 2
 702              	.LVL97:
 703              		.thumb
 704              	.LBE33:
 705 0358 EBE7     		b	.L5
 706              	.LVL98:
 707              	.L23:
 708              		.loc 1 188 0 discriminator 1
 709 035a A468     		ldr	r4, [r4, #8]
 710 035c 211E     		subs	r1, r4, #0
 711 035e 18BF     		it	ne
 712 0360 0121     		movne	r1, #1
 713 0362 E6E6     		b	.L10
 714              	.LVL99:
 715              	.L25:
 716              		.loc 1 211 0 discriminator 1
 717 0364 FFF7FEFF 		bl	dbg_check_unlock
 718              	.LBB34:
 719 0368 2B46     		mov	r3, r5
 720              	@ 211 "../chibios_2.4.x/test/testqueues.c" 1
 721 036a 83F31188 		msr     BASEPRI, r3
 722              	@ 0 "" 2
 723              	.LVL100:
 724              		.thumb
 725              	.LBE34:
 726 036e E0E7     		b	.L5
 727              	.LVL101:
 728              	.L26:
 729              		.loc 1 216 0 discriminator 1
 730 0370 FFF7FEFF 		bl	dbg_check_unlock
 731              	.LBB35:
 732 0374 4346     		mov	r3, r8
ARM GAS  /tmp/ccYToh42.s 			page 14


 733              	@ 216 "../chibios_2.4.x/test/testqueues.c" 1
 734 0376 83F31188 		msr     BASEPRI, r3
 735              	@ 0 "" 2
 736              	.LVL102:
 737              		.thumb
 738              	.LBE35:
 739 037a DAE7     		b	.L5
 740              	.LVL103:
 741              	.L27:
 742              		.loc 1 218 0 discriminator 1
 743 037c FFF7FEFF 		bl	dbg_check_unlock
 744              	.LBB36:
 745 0380 3B46     		mov	r3, r7
 746              	@ 218 "../chibios_2.4.x/test/testqueues.c" 1
 747 0382 83F31188 		msr     BASEPRI, r3
 748              	@ 0 "" 2
 749              	.LVL104:
 750              		.thumb
 751              	.LBE36:
 752 0386 D4E7     		b	.L5
 753              	.LVL105:
 754              	.L28:
 755              		.loc 1 225 0 discriminator 1
 756 0388 FFF7FEFF 		bl	dbg_check_unlock
 757              	.LBB37:
 758 038c 2B46     		mov	r3, r5
 759              	@ 225 "../chibios_2.4.x/test/testqueues.c" 1
 760 038e 83F31188 		msr     BASEPRI, r3
 761              	@ 0 "" 2
 762              	.LVL106:
 763              		.thumb
 764              	.LBE37:
 765 0392 CEE7     		b	.L5
 766              	.LVL107:
 767              	.L29:
 768              		.loc 1 232 0 discriminator 1
 769 0394 FFF7FEFF 		bl	dbg_check_unlock
 770              	.LBB38:
 771 0398 0023     		movs	r3, #0
 772              	@ 232 "../chibios_2.4.x/test/testqueues.c" 1
 773 039a 83F31188 		msr     BASEPRI, r3
 774              	@ 0 "" 2
 775              	.LVL108:
 776              		.thumb
 777 039e C8E7     		b	.L5
 778              	.LBE38:
 779              		.cfi_endproc
 780              	.LFE13:
 781              		.size	queues2_execute, .-queues2_execute
 782              		.section	.text.queues2_setup,"ax",%progbits
 783              		.align	2
 784              		.p2align 4,,15
 785              		.thumb
 786              		.thumb_func
 787              		.type	queues2_setup, %function
 788              	queues2_setup:
 789              	.LFB11:
ARM GAS  /tmp/ccYToh42.s 			page 15


 790              		.loc 1 176 0
 791              		.cfi_startproc
 792              		@ args = 0, pretend = 0, frame = 0
 793              		@ frame_needed = 0, uses_anonymous_args = 0
 794              		@ link register save eliminated.
 795              		.loc 1 178 0
 796 0000 034B     		ldr	r3, .L33
 797 0002 0448     		ldr	r0, .L33+4
 798 0004 1968     		ldr	r1, [r3, #0]
 799 0006 044B     		ldr	r3, .L33+8
 800 0008 0422     		movs	r2, #4
 801              		.loc 1 179 0
 802              		.loc 1 178 0
 803 000a FFF7FEBF 		b	chOQInit
 804              	.L34:
 805 000e 00BF     		.align	2
 806              	.L33:
 807 0010 00000000 		.word	wa
 808 0014 00000000 		.word	.LANCHOR0
 809 0018 00000000 		.word	notify
 810              		.cfi_endproc
 811              	.LFE11:
 812              		.size	queues2_setup, .-queues2_setup
 813 001c AFF30080 		.section	.text.thread1,"ax",%progbits
 814              		.align	2
 815              		.p2align 4,,15
 816              		.thumb
 817              		.thumb_func
 818              		.type	thread1, %function
 819              	thread1:
 820              	.LFB9:
 821              		.loc 1 94 0
 822              		.cfi_startproc
 823              		@ args = 0, pretend = 0, frame = 0
 824              		@ frame_needed = 0, uses_anonymous_args = 0
 825              	.LVL109:
 826 0000 08B5     		push	{r3, lr}
 827              	.LCFI3:
 828              		.cfi_def_cfa_offset 8
 829              		.loc 1 97 0
 830 0002 6421     		movs	r1, #100
 831 0004 0248     		ldr	r0, .L36
 832              	.LVL110:
 833              		.cfi_offset 14, -4
 834              		.cfi_offset 3, -8
 835 0006 FFF7FEFF 		bl	chIQGetTimeout
 836              		.loc 1 99 0
 837 000a 0020     		movs	r0, #0
 838 000c 08BD     		pop	{r3, pc}
 839              	.L37:
 840 000e 00BF     		.align	2
 841              	.L36:
 842 0010 00000000 		.word	.LANCHOR1
 843              		.cfi_endproc
 844              	.LFE9:
 845              		.size	thread1, .-thread1
 846 0014 AFF30080 		.section	.text.queues1_execute,"ax",%progbits
ARM GAS  /tmp/ccYToh42.s 			page 16


 846      AFF30080 
 846      AFF30080 
 847              		.align	2
 848              		.p2align 4,,15
 849              		.thumb
 850              		.thumb_func
 851              		.type	queues1_execute, %function
 852              	queues1_execute:
 853              	.LFB10:
 854              		.loc 1 101 0
 855              		.cfi_startproc
 856              		@ args = 0, pretend = 0, frame = 0
 857              		@ frame_needed = 0, uses_anonymous_args = 0
 858 0000 2DE9F043 		push	{r4, r5, r6, r7, r8, r9, lr}
 859              	.LCFI4:
 860              		.cfi_def_cfa_offset 28
 861              	.LBB39:
 862              		.loc 1 106 0
 863 0004 2023     		movs	r3, #32
 864              	.LVL111:
 865              	.LBE39:
 866              		.loc 1 101 0
 867 0006 83B0     		sub	sp, sp, #12
 868              	.LCFI5:
 869              		.cfi_def_cfa_offset 40
 870              	.LBB40:
 871              		.loc 1 106 0
 872              	@ 106 "../chibios_2.4.x/test/testqueues.c" 1
 873 0008 83F31188 		msr     BASEPRI, r3
 874              	@ 0 "" 2
 875              	.LVL112:
 876              		.thumb
 877              	.LBE40:
 878 000c C64C     		ldr	r4, .L59
 879              		.cfi_offset 14, -4
 880              		.cfi_offset 9, -8
 881              		.cfi_offset 8, -12
 882              		.cfi_offset 7, -16
 883              		.cfi_offset 6, -20
 884              		.cfi_offset 5, -24
 885              		.cfi_offset 4, -28
 886 000e FFF7FEFF 		bl	dbg_check_lock
 887              	.LVL113:
 888 0012 A168     		ldr	r1, [r4, #8]
 889 0014 0120     		movs	r0, #1
 890 0016 D1F10101 		rsbs	r1, r1, #1
 891 001a 38BF     		it	cc
 892 001c 0021     		movcc	r1, #0
 893 001e FFF7FEFF 		bl	_test_assert
 894 0022 0546     		mov	r5, r0
 895 0024 0028     		cmp	r0, #0
 896 0026 40F09881 		bne	.L50
 897              		.loc 1 106 0 is_stmt 0 discriminator 2
 898 002a FFF7FEFF 		bl	dbg_check_unlock
 899              	.LBB41:
 900 002e 2B46     		mov	r3, r5
 901              	.LVL114:
ARM GAS  /tmp/ccYToh42.s 			page 17


 902              	@ 106 "../chibios_2.4.x/test/testqueues.c" 1
 903 0030 83F31188 		msr     BASEPRI, r3
 904              	@ 0 "" 2
 905              	.LVL115:
 906              		.thumb
 907              	.LBE41:
 908              	.LBB42:
 909              		.loc 1 109 0 is_stmt 1 discriminator 2
 910 0034 2023     		movs	r3, #32
 911              	.LVL116:
 912              	@ 109 "../chibios_2.4.x/test/testqueues.c" 1
 913 0036 83F31188 		msr     BASEPRI, r3
 914              	@ 0 "" 2
 915              	.LVL117:
 916              		.thumb
 917              	.LBE42:
 918 003a FFF7FEFF 		bl	dbg_check_lock
 919              	.LVL118:
 920              		.loc 1 111 0 discriminator 2
 921 003e 4121     		movs	r1, #65
 922 0040 2046     		mov	r0, r4
 923 0042 FFF7FEFF 		bl	chIQPutI
 924              	.LVL119:
 925 0046 4221     		movs	r1, #66
 926 0048 2046     		mov	r0, r4
 927 004a FFF7FEFF 		bl	chIQPutI
 928              	.LVL120:
 929 004e 4321     		movs	r1, #67
 930 0050 2046     		mov	r0, r4
 931 0052 FFF7FEFF 		bl	chIQPutI
 932              	.LVL121:
 933 0056 4421     		movs	r1, #68
 934 0058 2046     		mov	r0, r4
 935 005a FFF7FEFF 		bl	chIQPutI
 936              	.LVL122:
 937              		.loc 1 112 0 discriminator 2
 938 005e FFF7FEFF 		bl	dbg_check_unlock
 939              	.LBB43:
 940 0062 2B46     		mov	r3, r5
 941              	.LVL123:
 942              	@ 112 "../chibios_2.4.x/test/testqueues.c" 1
 943 0064 83F31188 		msr     BASEPRI, r3
 944              	@ 0 "" 2
 945              	.LVL124:
 946              		.thumb
 947              	.LBE43:
 948              	.LBB44:
 949              		.loc 1 113 0 discriminator 2
 950 0068 2023     		movs	r3, #32
 951              	.LVL125:
 952              	@ 113 "../chibios_2.4.x/test/testqueues.c" 1
 953 006a 83F31188 		msr     BASEPRI, r3
 954              	@ 0 "" 2
 955              	.LVL126:
 956              		.thumb
 957              	.LBE44:
 958 006e FFF7FEFF 		bl	dbg_check_lock
ARM GAS  /tmp/ccYToh42.s 			page 18


 959              	.LVL127:
 960 0072 6269     		ldr	r2, [r4, #20]
 961 0074 A369     		ldr	r3, [r4, #24]
 962 0076 9A42     		cmp	r2, r3
 963 0078 00F08181 		beq	.L51
 964              		.loc 1 113 0 is_stmt 0
 965 007c 2946     		mov	r1, r5
 966              	.L41:
 967              		.loc 1 113 0 discriminator 4
 968 007e 0220     		movs	r0, #2
 969 0080 FFF7FEFF 		bl	_test_assert
 970 0084 0646     		mov	r6, r0
 971 0086 0028     		cmp	r0, #0
 972 0088 40F05F81 		bne	.L52
 973              		.loc 1 113 0 discriminator 6
 974 008c FFF7FEFF 		bl	dbg_check_unlock
 975              	.LBB45:
 976 0090 3346     		mov	r3, r6
 977              	.LVL128:
 978              	@ 113 "../chibios_2.4.x/test/testqueues.c" 1
 979 0092 83F31188 		msr     BASEPRI, r3
 980              	@ 0 "" 2
 981              	.LVL129:
 982              		.thumb
 983              	.LBE45:
 984              	.LBB46:
 985              		.loc 1 114 0 is_stmt 1 discriminator 6
 986 0096 2023     		movs	r3, #32
 987              	.LVL130:
 988              	@ 114 "../chibios_2.4.x/test/testqueues.c" 1
 989 0098 83F31188 		msr     BASEPRI, r3
 990              	@ 0 "" 2
 991              	.LVL131:
 992              		.thumb
 993              	.LBE46:
 994 009c A24D     		ldr	r5, .L59
 995 009e FFF7FEFF 		bl	dbg_check_lock
 996              	.LVL132:
 997 00a2 3146     		mov	r1, r6
 998 00a4 2846     		mov	r0, r5
 999 00a6 FFF7FEFF 		bl	chIQPutI
 1000 00aa 10F1040F 		cmn	r0, #4
 1001 00ae 14BF     		ite	ne
 1002 00b0 0021     		movne	r1, #0
 1003 00b2 0121     		moveq	r1, #1
 1004 00b4 0320     		movs	r0, #3
 1005 00b6 FFF7FEFF 		bl	_test_assert
 1006 00ba 0746     		mov	r7, r0
 1007 00bc 0028     		cmp	r0, #0
 1008 00be 40F05881 		bne	.L53
 1009              		.loc 1 114 0 is_stmt 0 discriminator 2
 1010 00c2 FFF7FEFF 		bl	dbg_check_unlock
 1011              	.LBB47:
 1012 00c6 3B46     		mov	r3, r7
 1013              	.LVL133:
 1014              	@ 114 "../chibios_2.4.x/test/testqueues.c" 1
 1015 00c8 83F31188 		msr     BASEPRI, r3
ARM GAS  /tmp/ccYToh42.s 			page 19


 1016              	@ 0 "" 2
 1017              	.LVL134:
 1018              		.thumb
 1019              	.LBE47:
 1020              		.loc 1 118 0 is_stmt 1 discriminator 2
 1021 00cc 4FF0FF31 		mov	r1, #-1
 1022 00d0 2846     		mov	r0, r5
 1023 00d2 FFF7FEFF 		bl	chIQGetTimeout
 1024              	.LVL135:
 1025 00d6 C0B2     		uxtb	r0, r0
 1026 00d8 FFF7FEFF 		bl	test_emit_token
 1027              	.LVL136:
 1028 00dc 4FF0FF31 		mov	r1, #-1
 1029 00e0 2846     		mov	r0, r5
 1030 00e2 FFF7FEFF 		bl	chIQGetTimeout
 1031 00e6 C0B2     		uxtb	r0, r0
 1032 00e8 FFF7FEFF 		bl	test_emit_token
 1033              	.LVL137:
 1034 00ec 4FF0FF31 		mov	r1, #-1
 1035 00f0 2846     		mov	r0, r5
 1036 00f2 FFF7FEFF 		bl	chIQGetTimeout
 1037 00f6 C0B2     		uxtb	r0, r0
 1038 00f8 FFF7FEFF 		bl	test_emit_token
 1039              	.LVL138:
 1040 00fc 4FF0FF31 		mov	r1, #-1
 1041 0100 2846     		mov	r0, r5
 1042 0102 FFF7FEFF 		bl	chIQGetTimeout
 1043 0106 C0B2     		uxtb	r0, r0
 1044 0108 FFF7FEFF 		bl	test_emit_token
 1045              	.LVL139:
 1046              	.LBB48:
 1047              		.loc 1 119 0 discriminator 2
 1048 010c 2023     		movs	r3, #32
 1049              	.LVL140:
 1050              	@ 119 "../chibios_2.4.x/test/testqueues.c" 1
 1051 010e 83F31188 		msr     BASEPRI, r3
 1052              	@ 0 "" 2
 1053              	.LVL141:
 1054              		.thumb
 1055              	.LBE48:
 1056 0112 FFF7FEFF 		bl	dbg_check_lock
 1057              	.LVL142:
 1058 0116 AE68     		ldr	r6, [r5, #8]
 1059 0118 0420     		movs	r0, #4
 1060 011a D6F10101 		rsbs	r1, r6, #1
 1061 011e 38BF     		it	cc
 1062 0120 0021     		movcc	r1, #0
 1063 0122 FFF7FEFF 		bl	_test_assert
 1064 0126 0646     		mov	r6, r0
 1065 0128 0028     		cmp	r0, #0
 1066 012a 40F01C81 		bne	.L54
 1067 012e FFF7FEFF 		bl	dbg_check_unlock
 1068              	.LBB49:
 1069 0132 3346     		mov	r3, r6
 1070              	.LVL143:
 1071              	@ 119 "../chibios_2.4.x/test/testqueues.c" 1
 1072 0134 83F31188 		msr     BASEPRI, r3
ARM GAS  /tmp/ccYToh42.s 			page 20


 1073              	@ 0 "" 2
 1074              	.LVL144:
 1075              		.thumb
 1076              	.LBE49:
 1077              		.loc 1 120 0 discriminator 2
 1078 0138 0520     		movs	r0, #5
 1079 013a 7C49     		ldr	r1, .L59+4
 1080 013c FFF7FEFF 		bl	_test_assert_sequence
 1081              	.LVL145:
 1082 0140 0646     		mov	r6, r0
 1083 0142 0028     		cmp	r0, #0
 1084 0144 40F00681 		bne	.L38
 1085              	.LBB50:
 1086              		.loc 1 123 0
 1087 0148 2023     		movs	r3, #32
 1088              	.LVL146:
 1089              	@ 123 "../chibios_2.4.x/test/testqueues.c" 1
 1090 014a 83F31188 		msr     BASEPRI, r3
 1091              	@ 0 "" 2
 1092              	.LVL147:
 1093              		.thumb
 1094              	.LBE50:
 1095 014e FFF7FEFF 		bl	dbg_check_lock
 1096              	.LVL148:
 1097              		.loc 1 125 0
 1098 0152 4121     		movs	r1, #65
 1099 0154 2846     		mov	r0, r5
 1100 0156 FFF7FEFF 		bl	chIQPutI
 1101              	.LVL149:
 1102 015a 4221     		movs	r1, #66
 1103 015c 2846     		mov	r0, r5
 1104 015e FFF7FEFF 		bl	chIQPutI
 1105              	.LVL150:
 1106 0162 4321     		movs	r1, #67
 1107 0164 2846     		mov	r0, r5
 1108 0166 FFF7FEFF 		bl	chIQPutI
 1109              	.LVL151:
 1110 016a 4421     		movs	r1, #68
 1111 016c 2846     		mov	r0, r5
 1112 016e FFF7FEFF 		bl	chIQPutI
 1113              	.LVL152:
 1114              		.loc 1 126 0
 1115 0172 FFF7FEFF 		bl	dbg_check_unlock
 1116              	.LBB51:
 1117 0176 3346     		mov	r3, r6
 1118              	.LVL153:
 1119              	@ 126 "../chibios_2.4.x/test/testqueues.c" 1
 1120 0178 83F31188 		msr     BASEPRI, r3
 1121              	@ 0 "" 2
 1122              	.LVL154:
 1123              		.thumb
 1124              	.LBE51:
 1125              		.loc 1 129 0
 1126 017c 6C4F     		ldr	r7, .L59+8
 1127 017e 0822     		movs	r2, #8
 1128 0180 7E68     		ldr	r6, [r7, #4]
 1129 0182 2846     		mov	r0, r5
ARM GAS  /tmp/ccYToh42.s 			page 21


 1130 0184 3146     		mov	r1, r6
 1131 0186 FFF7FEFF 		bl	chIQReadTimeout
 1132              	.LVL155:
 1133              		.loc 1 130 0
 1134 018a A0F1040C 		sub	ip, r0, #4
 1135 018e DCF10008 		rsbs	r8, ip, #0
 1136 0192 48EB0C01 		adc	r1, r8, ip
 1137 0196 0620     		movs	r0, #6
 1138              	.LVL156:
 1139 0198 FFF7FEFF 		bl	_test_assert
 1140              	.LVL157:
 1141 019c 8046     		mov	r8, r0
 1142 019e 0028     		cmp	r0, #0
 1143 01a0 40F0D880 		bne	.L38
 1144              	.LBB52:
 1145              		.loc 1 131 0
 1146 01a4 2023     		movs	r3, #32
 1147              	.LVL158:
 1148              	@ 131 "../chibios_2.4.x/test/testqueues.c" 1
 1149 01a6 83F31188 		msr     BASEPRI, r3
 1150              	@ 0 "" 2
 1151              	.LVL159:
 1152              		.thumb
 1153              	.LBE52:
 1154 01aa FFF7FEFF 		bl	dbg_check_lock
 1155              	.LVL160:
 1156 01ae A968     		ldr	r1, [r5, #8]
 1157 01b0 0720     		movs	r0, #7
 1158 01b2 D1F10101 		rsbs	r1, r1, #1
 1159 01b6 38BF     		it	cc
 1160 01b8 0021     		movcc	r1, #0
 1161 01ba FFF7FEFF 		bl	_test_assert
 1162 01be 8146     		mov	r9, r0
 1163 01c0 0028     		cmp	r0, #0
 1164 01c2 40F0E180 		bne	.L55
 1165              		.loc 1 131 0 is_stmt 0 discriminator 2
 1166 01c6 FFF7FEFF 		bl	dbg_check_unlock
 1167              	.LBB53:
 1168 01ca 4B46     		mov	r3, r9
 1169              	.LVL161:
 1170              	@ 131 "../chibios_2.4.x/test/testqueues.c" 1
 1171 01cc 83F31188 		msr     BASEPRI, r3
 1172              	@ 0 "" 2
 1173              	.LVL162:
 1174              		.thumb
 1175              	.LBE53:
 1176              	.LBB54:
 1177              		.loc 1 134 0 is_stmt 1 discriminator 2
 1178 01d0 2023     		movs	r3, #32
 1179              	.LVL163:
 1180              	@ 134 "../chibios_2.4.x/test/testqueues.c" 1
 1181 01d2 83F31188 		msr     BASEPRI, r3
 1182              	@ 0 "" 2
 1183              	.LVL164:
 1184              		.thumb
 1185              	.LBE54:
 1186 01d6 FFF7FEFF 		bl	dbg_check_lock
ARM GAS  /tmp/ccYToh42.s 			page 22


 1187              	.LVL165:
 1188              		.loc 1 136 0 discriminator 2
 1189 01da 4121     		movs	r1, #65
 1190 01dc 2846     		mov	r0, r5
 1191 01de FFF7FEFF 		bl	chIQPutI
 1192              	.LVL166:
 1193 01e2 4221     		movs	r1, #66
 1194 01e4 2846     		mov	r0, r5
 1195 01e6 FFF7FEFF 		bl	chIQPutI
 1196              	.LVL167:
 1197 01ea 4321     		movs	r1, #67
 1198 01ec 2846     		mov	r0, r5
 1199 01ee FFF7FEFF 		bl	chIQPutI
 1200              	.LVL168:
 1201 01f2 4421     		movs	r1, #68
 1202 01f4 2846     		mov	r0, r5
 1203 01f6 FFF7FEFF 		bl	chIQPutI
 1204              	.LVL169:
 1205              		.loc 1 137 0 discriminator 2
 1206 01fa FFF7FEFF 		bl	dbg_check_unlock
 1207              	.LBB55:
 1208 01fe 4B46     		mov	r3, r9
 1209              	.LVL170:
 1210              	@ 137 "../chibios_2.4.x/test/testqueues.c" 1
 1211 0200 83F31188 		msr     BASEPRI, r3
 1212              	@ 0 "" 2
 1213              	.LVL171:
 1214              		.thumb
 1215              	.LBE55:
 1216              		.loc 1 140 0 discriminator 2
 1217 0204 0222     		movs	r2, #2
 1218 0206 3146     		mov	r1, r6
 1219 0208 2846     		mov	r0, r5
 1220 020a FFF7FEFF 		bl	chIQReadTimeout
 1221              	.LVL172:
 1222              		.loc 1 141 0 discriminator 2
 1223 020e A0F1020E 		sub	lr, r0, #2
 1224 0212 DEF10002 		rsbs	r2, lr, #0
 1225 0216 42EB0E01 		adc	r1, r2, lr
 1226 021a 0820     		movs	r0, #8
 1227              	.LVL173:
 1228 021c FFF7FEFF 		bl	_test_assert
 1229              	.LVL174:
 1230 0220 0028     		cmp	r0, #0
 1231 0222 40F09780 		bne	.L38
 1232              		.loc 1 142 0
 1233 0226 0222     		movs	r2, #2
 1234 0228 0346     		mov	r3, r0
 1235 022a 3146     		mov	r1, r6
 1236 022c 2846     		mov	r0, r5
 1237 022e FFF7FEFF 		bl	chIQReadTimeout
 1238              	.LVL175:
 1239              		.loc 1 143 0
 1240 0232 A0F10200 		sub	r0, r0, #2
 1241              	.LVL176:
 1242 0236 4342     		rsbs	r3, r0, #0
 1243 0238 43EB0001 		adc	r1, r3, r0
ARM GAS  /tmp/ccYToh42.s 			page 23


 1244 023c 0920     		movs	r0, #9
 1245              	.LVL177:
 1246 023e FFF7FEFF 		bl	_test_assert
 1247 0242 8046     		mov	r8, r0
 1248 0244 0028     		cmp	r0, #0
 1249 0246 40F08580 		bne	.L38
 1250              	.LBB56:
 1251              		.loc 1 144 0
 1252 024a 2023     		movs	r3, #32
 1253              	.LVL178:
 1254              	@ 144 "../chibios_2.4.x/test/testqueues.c" 1
 1255 024c 83F31188 		msr     BASEPRI, r3
 1256              	@ 0 "" 2
 1257              	.LVL179:
 1258              		.thumb
 1259              	.LBE56:
 1260 0250 FFF7FEFF 		bl	dbg_check_lock
 1261              	.LVL180:
 1262 0254 AE68     		ldr	r6, [r5, #8]
 1263 0256 0A20     		movs	r0, #10
 1264 0258 D6F10101 		rsbs	r1, r6, #1
 1265 025c 38BF     		it	cc
 1266 025e 0021     		movcc	r1, #0
 1267 0260 FFF7FEFF 		bl	_test_assert
 1268 0264 0646     		mov	r6, r0
 1269 0266 0028     		cmp	r0, #0
 1270 0268 40F09A80 		bne	.L56
 1271              		.loc 1 144 0 is_stmt 0 discriminator 2
 1272 026c FFF7FEFF 		bl	dbg_check_unlock
 1273              	.LBB57:
 1274 0270 3346     		mov	r3, r6
 1275              	.LVL181:
 1276              	@ 144 "../chibios_2.4.x/test/testqueues.c" 1
 1277 0272 83F31188 		msr     BASEPRI, r3
 1278              	@ 0 "" 2
 1279              	.LVL182:
 1280              		.thumb
 1281              	.LBE57:
 1282              	.LBB58:
 1283              		.loc 1 147 0 is_stmt 1 discriminator 2
 1284 0276 2023     		movs	r3, #32
 1285              	.LVL183:
 1286              	@ 147 "../chibios_2.4.x/test/testqueues.c" 1
 1287 0278 83F31188 		msr     BASEPRI, r3
 1288              	@ 0 "" 2
 1289              	.LVL184:
 1290              		.thumb
 1291              	.LBE58:
 1292 027c FFF7FEFF 		bl	dbg_check_lock
 1293              	.LVL185:
 1294              		.loc 1 148 0 discriminator 2
 1295 0280 3146     		mov	r1, r6
 1296 0282 2846     		mov	r0, r5
 1297 0284 FFF7FEFF 		bl	chIQPutI
 1298              		.loc 1 149 0 discriminator 2
 1299 0288 2846     		mov	r0, r5
 1300 028a FFF7FEFF 		bl	chIQResetI
ARM GAS  /tmp/ccYToh42.s 			page 24


 1301              		.loc 1 150 0 discriminator 2
 1302 028e FFF7FEFF 		bl	dbg_check_unlock
 1303              	.LBB59:
 1304 0292 3346     		mov	r3, r6
 1305              	.LVL186:
 1306              	@ 150 "../chibios_2.4.x/test/testqueues.c" 1
 1307 0294 83F31188 		msr     BASEPRI, r3
 1308              	@ 0 "" 2
 1309              	.LVL187:
 1310              		.thumb
 1311              	.LBE59:
 1312              	.LBB60:
 1313              		.loc 1 151 0 discriminator 2
 1314 0298 2023     		movs	r3, #32
 1315              	.LVL188:
 1316              	@ 151 "../chibios_2.4.x/test/testqueues.c" 1
 1317 029a 83F31188 		msr     BASEPRI, r3
 1318              	@ 0 "" 2
 1319              	.LVL189:
 1320              		.thumb
 1321              	.LBE60:
 1322 029e FFF7FEFF 		bl	dbg_check_lock
 1323              	.LVL190:
 1324 02a2 A968     		ldr	r1, [r5, #8]
 1325 02a4 0B20     		movs	r0, #11
 1326 02a6 D1F10101 		rsbs	r1, r1, #1
 1327 02aa 38BF     		it	cc
 1328 02ac 0021     		movcc	r1, #0
 1329 02ae FFF7FEFF 		bl	_test_assert
 1330 02b2 0028     		cmp	r0, #0
 1331 02b4 6ED1     		bne	.L57
 1332 02b6 FFF7FEFF 		bl	dbg_check_unlock
 1333              	.LBB61:
 1334 02ba 0023     		movs	r3, #0
 1335              	.LVL191:
 1336              	@ 151 "../chibios_2.4.x/test/testqueues.c" 1
 1337 02bc 83F31188 		msr     BASEPRI, r3
 1338              	@ 0 "" 2
 1339              	.LVL192:
 1340              		.thumb
 1341              	.LBE61:
 1342              		.loc 1 152 0 discriminator 2
 1343 02c0 1C48     		ldr	r0, .L59+12
 1344 02c2 1D46     		mov	r5, r3
 1345 02c4 C269     		ldr	r2, [r0, #28]
 1346 02c6 4FF49871 		mov	r1, #304
 1347 02ca 9368     		ldr	r3, [r2, #8]
 1348              	.LVL193:
 1349 02cc 3868     		ldr	r0, [r7, #0]
 1350 02ce 5A1C     		adds	r2, r3, #1
 1351 02d0 194B     		ldr	r3, .L59+16
 1352 02d2 0095     		str	r5, [sp, #0]
 1353 02d4 FFF7FEFF 		bl	chThdCreateStatic
 1354 02d8 1849     		ldr	r1, .L59+20
 1355              	.LBB62:
 1356              		.loc 1 153 0 discriminator 2
 1357 02da 2023     		movs	r3, #32
ARM GAS  /tmp/ccYToh42.s 			page 25


 1358              	.LVL194:
 1359              	.LBE62:
 1360              		.loc 1 152 0 discriminator 2
 1361 02dc 0860     		str	r0, [r1, #0]
 1362              	.LBB63:
 1363              		.loc 1 153 0 discriminator 2
 1364              	@ 153 "../chibios_2.4.x/test/testqueues.c" 1
 1365 02de 83F31188 		msr     BASEPRI, r3
 1366              	@ 0 "" 2
 1367              	.LVL195:
 1368              		.thumb
 1369              	.LBE63:
 1370 02e2 FFF7FEFF 		bl	dbg_check_lock
 1371              	.LVL196:
 1372 02e6 A268     		ldr	r2, [r4, #8]
 1373 02e8 0C20     		movs	r0, #12
 1374 02ea C5EB020C 		rsb	ip, r5, r2
 1375 02ee DCF10004 		rsbs	r4, ip, #0
 1376 02f2 44EB0C01 		adc	r1, r4, ip
 1377 02f6 FFF7FEFF 		bl	_test_assert
 1378 02fa 0446     		mov	r4, r0
 1379 02fc 0028     		cmp	r0, #0
 1380 02fe 55D1     		bne	.L58
 1381 0300 FFF7FEFF 		bl	dbg_check_unlock
 1382              	.LBB64:
 1383 0304 2346     		mov	r3, r4
 1384              	.LVL197:
 1385              	@ 153 "../chibios_2.4.x/test/testqueues.c" 1
 1386 0306 83F31188 		msr     BASEPRI, r3
 1387              	@ 0 "" 2
 1388              	.LVL198:
 1389              		.thumb
 1390              	.LBE64:
 1391              		.loc 1 154 0 discriminator 2
 1392 030a FFF7FEFF 		bl	test_wait_threads
 1393              	.LVL199:
 1394              		.loc 1 157 0 discriminator 2
 1395 030e 0A21     		movs	r1, #10
 1396 0310 0548     		ldr	r0, .L59
 1397 0312 FFF7FEFF 		bl	chIQGetTimeout
 1398 0316 A0F1FF31 		sub	r1, r0, #-1
 1399 031a D1F1000C 		rsbs	ip, r1, #0
 1400 031e 4CEB0101 		adc	r1, ip, r1
 1401 0322 0D20     		movs	r0, #13
 1402 0324 0CE0     		b	.L60
 1403              	.L61:
 1404 0326 00BF     		.align	2
 1405              	.L59:
 1406 0328 00000000 		.word	.LANCHOR1
 1407 032c 00000000 		.word	.LC0
 1408 0330 00000000 		.word	wa
 1409 0334 00000000 		.word	rlist
 1410 0338 00000000 		.word	thread1
 1411 033c 00000000 		.word	threads
 1412              	.L60:
 1413              		.loc 1 158 0 discriminator 2
 1414 0340 03B0     		add	sp, sp, #12
ARM GAS  /tmp/ccYToh42.s 			page 26


 1415 0342 BDE8F043 		pop	{r4, r5, r6, r7, r8, r9, lr}
 1416              		.loc 1 157 0 discriminator 2
 1417 0346 FFF7FEBF 		b	_test_assert
 1418              	.L52:
 1419              		.loc 1 113 0 discriminator 5
 1420 034a FFF7FEFF 		bl	dbg_check_unlock
 1421              	.LBB65:
 1422 034e 0023     		movs	r3, #0
 1423              	.LVL200:
 1424              	@ 113 "../chibios_2.4.x/test/testqueues.c" 1
 1425 0350 83F31188 		msr     BASEPRI, r3
 1426              	@ 0 "" 2
 1427              	.LVL201:
 1428              		.thumb
 1429              	.L38:
 1430              	.LBE65:
 1431              		.loc 1 158 0
 1432 0354 03B0     		add	sp, sp, #12
 1433 0356 BDE8F083 		pop	{r4, r5, r6, r7, r8, r9, pc}
 1434              	.LVL202:
 1435              	.L50:
 1436              		.loc 1 106 0 discriminator 1
 1437 035a FFF7FEFF 		bl	dbg_check_unlock
 1438              	.LBB66:
 1439 035e 0023     		movs	r3, #0
 1440              	@ 106 "../chibios_2.4.x/test/testqueues.c" 1
 1441 0360 83F31188 		msr     BASEPRI, r3
 1442              	@ 0 "" 2
 1443              	.LVL203:
 1444              		.thumb
 1445              	.LBE66:
 1446 0364 F6E7     		b	.L38
 1447              	.LVL204:
 1448              	.L54:
 1449              		.loc 1 119 0 discriminator 1
 1450 0366 FFF7FEFF 		bl	dbg_check_unlock
 1451              	.LBB67:
 1452 036a 3B46     		mov	r3, r7
 1453              	@ 119 "../chibios_2.4.x/test/testqueues.c" 1
 1454 036c 83F31188 		msr     BASEPRI, r3
 1455              	@ 0 "" 2
 1456              	.LVL205:
 1457              		.thumb
 1458              	.LBE67:
 1459 0370 F0E7     		b	.L38
 1460              	.LVL206:
 1461              	.L53:
 1462              		.loc 1 114 0 discriminator 1
 1463 0372 FFF7FEFF 		bl	dbg_check_unlock
 1464              	.LBB68:
 1465 0376 3346     		mov	r3, r6
 1466              	@ 114 "../chibios_2.4.x/test/testqueues.c" 1
 1467 0378 83F31188 		msr     BASEPRI, r3
 1468              	@ 0 "" 2
 1469              	.LVL207:
 1470              		.thumb
 1471              	.LBE68:
ARM GAS  /tmp/ccYToh42.s 			page 27


 1472 037c EAE7     		b	.L38
 1473              	.LVL208:
 1474              	.L51:
 1475              		.loc 1 101 0 discriminator 1
 1476 037e A068     		ldr	r0, [r4, #8]
 1477 0380 011E     		subs	r1, r0, #0
 1478 0382 18BF     		it	ne
 1479 0384 0121     		movne	r1, #1
 1480 0386 7AE6     		b	.L41
 1481              	.L55:
 1482              		.loc 1 131 0 discriminator 1
 1483 0388 FFF7FEFF 		bl	dbg_check_unlock
 1484              	.LBB69:
 1485 038c 4346     		mov	r3, r8
 1486              	@ 131 "../chibios_2.4.x/test/testqueues.c" 1
 1487 038e 83F31188 		msr     BASEPRI, r3
 1488              	@ 0 "" 2
 1489              	.LVL209:
 1490              		.thumb
 1491              	.LBE69:
 1492 0392 DFE7     		b	.L38
 1493              	.LVL210:
 1494              	.L57:
 1495              		.loc 1 151 0 discriminator 1
 1496 0394 FFF7FEFF 		bl	dbg_check_unlock
 1497              	.LBB70:
 1498 0398 0023     		movs	r3, #0
 1499              	@ 151 "../chibios_2.4.x/test/testqueues.c" 1
 1500 039a 83F31188 		msr     BASEPRI, r3
 1501              	@ 0 "" 2
 1502              	.LVL211:
 1503              		.thumb
 1504              	.LBE70:
 1505 039e D9E7     		b	.L38
 1506              	.LVL212:
 1507              	.L56:
 1508              		.loc 1 144 0 discriminator 1
 1509 03a0 FFF7FEFF 		bl	dbg_check_unlock
 1510              	.LBB71:
 1511 03a4 4346     		mov	r3, r8
 1512              	@ 144 "../chibios_2.4.x/test/testqueues.c" 1
 1513 03a6 83F31188 		msr     BASEPRI, r3
 1514              	@ 0 "" 2
 1515              	.LVL213:
 1516              		.thumb
 1517              	.LBE71:
 1518 03aa D3E7     		b	.L38
 1519              	.LVL214:
 1520              	.L58:
 1521              		.loc 1 153 0 discriminator 1
 1522 03ac FFF7FEFF 		bl	dbg_check_unlock
 1523              	.LBB72:
 1524 03b0 2B46     		mov	r3, r5
 1525              	@ 153 "../chibios_2.4.x/test/testqueues.c" 1
 1526 03b2 83F31188 		msr     BASEPRI, r3
 1527              	@ 0 "" 2
 1528              	.LVL215:
ARM GAS  /tmp/ccYToh42.s 			page 28


 1529              		.thumb
 1530 03b6 CDE7     		b	.L38
 1531              	.LBE72:
 1532              		.cfi_endproc
 1533              	.LFE10:
 1534              		.size	queues1_execute, .-queues1_execute
 1535 03b8 AFF30080 		.section	.text.queues1_setup,"ax",%progbits
 1535      AFF30080 
 1536              		.align	2
 1537              		.p2align 4,,15
 1538              		.thumb
 1539              		.thumb_func
 1540              		.type	queues1_setup, %function
 1541              	queues1_setup:
 1542              	.LFB8:
 1543              		.loc 1 89 0
 1544              		.cfi_startproc
 1545              		@ args = 0, pretend = 0, frame = 0
 1546              		@ frame_needed = 0, uses_anonymous_args = 0
 1547              		@ link register save eliminated.
 1548              		.loc 1 91 0
 1549 0000 034B     		ldr	r3, .L63
 1550 0002 0448     		ldr	r0, .L63+4
 1551 0004 1968     		ldr	r1, [r3, #0]
 1552 0006 044B     		ldr	r3, .L63+8
 1553 0008 0422     		movs	r2, #4
 1554              		.loc 1 92 0
 1555              		.loc 1 91 0
 1556 000a FFF7FEBF 		b	chIQInit
 1557              	.L64:
 1558 000e 00BF     		.align	2
 1559              	.L63:
 1560 0010 00000000 		.word	wa
 1561 0014 00000000 		.word	.LANCHOR1
 1562 0018 00000000 		.word	notify
 1563              		.cfi_endproc
 1564              	.LFE8:
 1565              		.size	queues1_setup, .-queues1_setup
 1566              		.global	testqueues1
 1567              		.global	testqueues2
 1568              		.global	patternqueues
 1569 001c AFF30080 		.section	.rodata.testqueues1,"a",%progbits
 1570              		.align	2
 1571              		.type	testqueues1, %object
 1572              		.size	testqueues1, 16
 1573              	testqueues1:
 1574 0000 08000000 		.word	.LC1
 1575 0004 00000000 		.word	queues1_setup
 1576 0008 00000000 		.word	0
 1577 000c 00000000 		.word	queues1_execute
 1578              		.section	.rodata.testqueues2,"a",%progbits
 1579              		.align	2
 1580              		.type	testqueues2, %object
 1581              		.size	testqueues2, 16
 1582              	testqueues2:
 1583 0000 20000000 		.word	.LC2
 1584 0004 00000000 		.word	queues2_setup
ARM GAS  /tmp/ccYToh42.s 			page 29


 1585 0008 00000000 		.word	0
 1586 000c 00000000 		.word	queues2_execute
 1587              		.section	.rodata.str1.4,"aMS",%progbits,1
 1588              		.align	2
 1589              	.LC0:
 1590 0000 41424344 		.ascii	"ABCD\000"
 1590      00
 1591 0005 000000   		.space	3
 1592              	.LC1:
 1593 0008 51756575 		.ascii	"Queues, input queues\000"
 1593      65732C20 
 1593      696E7075 
 1593      74207175 
 1593      65756573 
 1594 001d 000000   		.space	3
 1595              	.LC2:
 1596 0020 51756575 		.ascii	"Queues, output queues\000"
 1596      65732C20 
 1596      6F757470 
 1596      75742071 
 1596      75657565 
 1597 0036 0000     		.section	.rodata.patternqueues,"a",%progbits
 1598              		.align	2
 1599              		.type	patternqueues, %object
 1600              		.size	patternqueues, 12
 1601              	patternqueues:
 1602 0000 00000000 		.word	testqueues1
 1603 0004 00000000 		.word	testqueues2
 1604 0008 00000000 		.word	0
 1605              		.section	.data.oq,"aw",%progbits
 1606              		.align	2
 1607              		.set	.LANCHOR0,. + 0
 1608              		.type	oq, %object
 1609              		.size	oq, 32
 1610              	oq:
 1611 0000 00000000 		.word	oq
 1612 0004 00000000 		.word	oq
 1613 0008 04000000 		.word	4
 1614 000c 30010000 		.word	test+304
 1615 0010 34010000 		.word	test+308
 1616 0014 30010000 		.word	test+304
 1617 0018 30010000 		.word	test+304
 1618 001c 00000000 		.word	notify
 1619              		.section	.data.iq,"aw",%progbits
 1620              		.align	2
 1621              		.set	.LANCHOR1,. + 0
 1622              		.type	iq, %object
 1623              		.size	iq, 32
 1624              	iq:
 1625 0000 00000000 		.word	iq
 1626 0004 00000000 		.word	iq
 1627 0008 00000000 		.word	0
 1628 000c 00000000 		.word	test
 1629 0010 04000000 		.word	test+4
 1630 0014 00000000 		.word	test
 1631 0018 00000000 		.word	test
 1632 001c 00000000 		.word	notify
ARM GAS  /tmp/ccYToh42.s 			page 30


 1633              		.text
 1634              	.Letext0: