ARM GAS  C:\Users\z80\AppData\Local\Temp\ccUW7U7p.s 			page 1


   1              		.syntax unified
   2              		.cpu cortex-m3
   3              		.fpu softvfp
   4              		.eabi_attribute 20, 1
   5              		.eabi_attribute 21, 1
   6              		.eabi_attribute 23, 3
   7              		.eabi_attribute 24, 1
   8              		.eabi_attribute 25, 1
   9              		.eabi_attribute 26, 1
  10              		.eabi_attribute 30, 2
  11              		.eabi_attribute 18, 4
  12              		.thumb
  13              		.file	"testthd.c"
  14              		.section	.debug_abbrev,"",%progbits
  15              	.Ldebug_abbrev0:
  16              		.section	.debug_info,"",%progbits
  17              	.Ldebug_info0:
  18              		.section	.debug_line,"",%progbits
  19              	.Ldebug_line0:
  20 0000 E6010000 		.text
  20      02002A01 
  20      00000201 
  20      FB0E0D00 
  20      01010101 
  21              	.Ltext0:
  22              		.cfi_sections	.debug_frame
  23              		.section	.text.thd4_execute,"ax",%progbits
  24              		.align	2
  25              		.p2align 4,,15
  26              		.thumb
  27              		.thumb_func
  28              		.type	thd4_execute, %function
  29              	thd4_execute:
  30              	.LFB11:
  31              		.file 1 "../chibios_2.4.x/test/testthd.c"
  32              		.loc 1 200 0
  33              		.cfi_startproc
  34              		@ args = 0, pretend = 0, frame = 0
  35              		@ frame_needed = 0, uses_anonymous_args = 0
  36 0000 38B5     		push	{r3, r4, r5, lr}
  37              	.LCFI0:
  38              		.cfi_def_cfa_offset 16
  39              		.loc 1 206 0
  40 0002 1B4C     		ldr	r4, .L5
  41              		.cfi_offset 14, -4
  42              		.cfi_offset 5, -8
  43              		.cfi_offset 4, -12
  44              		.cfi_offset 3, -16
  45              		.loc 1 203 0
  46 0004 FFF7FEFF 		bl	test_wait_tick
  47              		.loc 1 206 0
  48 0008 E568     		ldr	r5, [r4, #12]
  49              	.LVL0:
  50              		.loc 1 207 0
  51 000a 3220     		movs	r0, #50
  52 000c FFF7FEFF 		bl	chThdSleep
  53              		.loc 1 208 0
ARM GAS  C:\Users\z80\AppData\Local\Temp\ccUW7U7p.s 			page 2


  54 0010 05F13201 		add	r1, r5, #50
  55 0014 05F13302 		add	r2, r5, #51
  56 0018 0120     		movs	r0, #1
  57 001a FFF7FEFF 		bl	_test_assert_time_window
  58 001e 00B1     		cbz	r0, .L4
  59              	.LVL1:
  60              	.L1:
  61              		.loc 1 224 0
  62 0020 38BD     		pop	{r3, r4, r5, pc}
  63              	.LVL2:
  64              	.L4:
  65              		.loc 1 211 0
  66 0022 E568     		ldr	r5, [r4, #12]
  67              	.LVL3:
  68              		.loc 1 212 0
  69 0024 3220     		movs	r0, #50
  70 0026 FFF7FEFF 		bl	chThdSleep
  71              		.loc 1 213 0
  72 002a 05F13201 		add	r1, r5, #50
  73 002e 05F13302 		add	r2, r5, #51
  74 0032 0220     		movs	r0, #2
  75 0034 FFF7FEFF 		bl	_test_assert_time_window
  76 0038 0028     		cmp	r0, #0
  77 003a F1D1     		bne	.L1
  78              		.loc 1 216 0
  79 003c E568     		ldr	r5, [r4, #12]
  80              	.LVL4:
  81              		.loc 1 217 0
  82 003e 4FF4FA70 		mov	r0, #500
  83 0042 FFF7FEFF 		bl	chThdSleep
  84              		.loc 1 218 0
  85 0046 05F5FA71 		add	r1, r5, #500
  86 004a 4A1C     		adds	r2, r1, #1
  87 004c 0320     		movs	r0, #3
  88 004e FFF7FEFF 		bl	_test_assert_time_window
  89 0052 0028     		cmp	r0, #0
  90 0054 E4D1     		bne	.L1
  91              		.loc 1 221 0
  92 0056 E568     		ldr	r5, [r4, #12]
  93              	.LVL5:
  94 0058 05F13204 		add	r4, r5, #50
  95              	.LVL6:
  96              		.loc 1 222 0
  97 005c 2046     		mov	r0, r4
  98 005e FFF7FEFF 		bl	chThdSleepUntil
  99              		.loc 1 223 0
 100 0062 05F13302 		add	r2, r5, #51
 101 0066 0420     		movs	r0, #4
 102 0068 2146     		mov	r1, r4
 103 006a FFF7FEFF 		bl	_test_assert_time_window
 104 006e D7E7     		b	.L1
 105              	.L6:
 106              		.align	2
 107              	.L5:
 108 0070 00000000 		.word	vtlist
 109              		.cfi_endproc
 110              	.LFE11:
ARM GAS  C:\Users\z80\AppData\Local\Temp\ccUW7U7p.s 			page 3


 111              		.size	thd4_execute, .-thd4_execute
 112 0074 AFF30080 		.section	.text.thd3_execute,"ax",%progbits
 112      AFF30080 
 112      AFF30080 
 113              		.align	2
 114              		.p2align 4,,15
 115              		.thumb
 116              		.thumb_func
 117              		.type	thd3_execute, %function
 118              	thd3_execute:
 119              	.LFB10:
 120              		.loc 1 137 0
 121              		.cfi_startproc
 122              		@ args = 0, pretend = 0, frame = 0
 123              		@ frame_needed = 0, uses_anonymous_args = 0
 124 0000 F8B5     		push	{r3, r4, r5, r6, r7, lr}
 125              	.LCFI1:
 126              		.cfi_def_cfa_offset 24
 127              		.loc 1 140 0
 128 0002 514E     		ldr	r6, .L10
 129              		.cfi_offset 14, -4
 130              		.cfi_offset 7, -8
 131              		.cfi_offset 6, -12
 132              		.cfi_offset 5, -16
 133              		.cfi_offset 4, -20
 134              		.cfi_offset 3, -24
 135 0004 F369     		ldr	r3, [r6, #28]
 136 0006 9C68     		ldr	r4, [r3, #8]
 137              	.LVL7:
 138              		.loc 1 141 0
 139 0008 651C     		adds	r5, r4, #1
 140 000a 2846     		mov	r0, r5
 141 000c FFF7FEFF 		bl	chThdSetPriority
 142              	.LVL8:
 143 0010 0746     		mov	r7, r0
 144              	.LVL9:
 145              		.loc 1 142 0
 146 0012 A042     		cmp	r0, r4
 147 0014 14BF     		ite	ne
 148 0016 0021     		movne	r1, #0
 149 0018 0121     		moveq	r1, #1
 150 001a 0120     		movs	r0, #1
 151              	.LVL10:
 152 001c FFF7FEFF 		bl	_test_assert
 153 0020 00B1     		cbz	r0, .L9
 154              	.LVL11:
 155              	.L7:
 156              		.loc 1 183 0
 157 0022 F8BD     		pop	{r3, r4, r5, r6, r7, pc}
 158              	.LVL12:
 159              	.L9:
 160              		.loc 1 144 0
 161 0024 F369     		ldr	r3, [r6, #28]
 162 0026 0220     		movs	r0, #2
 163 0028 9968     		ldr	r1, [r3, #8]
 164 002a 8D42     		cmp	r5, r1
 165 002c 14BF     		ite	ne
ARM GAS  C:\Users\z80\AppData\Local\Temp\ccUW7U7p.s 			page 4


 166 002e 0021     		movne	r1, #0
 167 0030 0121     		moveq	r1, #1
 168 0032 FFF7FEFF 		bl	_test_assert
 169 0036 0028     		cmp	r0, #0
 170 0038 F3D1     		bne	.L7
 171              		.loc 1 146 0
 172 003a 3846     		mov	r0, r7
 173 003c FFF7FEFF 		bl	chThdSetPriority
 174              	.LVL13:
 175              		.loc 1 147 0
 176 0040 8542     		cmp	r5, r0
 177 0042 14BF     		ite	ne
 178 0044 0021     		movne	r1, #0
 179 0046 0121     		moveq	r1, #1
 180 0048 0320     		movs	r0, #3
 181              	.LVL14:
 182 004a FFF7FEFF 		bl	_test_assert
 183 004e 0028     		cmp	r0, #0
 184 0050 E7D1     		bne	.L7
 185              		.loc 1 149 0
 186 0052 F369     		ldr	r3, [r6, #28]
 187 0054 0420     		movs	r0, #4
 188 0056 9968     		ldr	r1, [r3, #8]
 189 0058 A142     		cmp	r1, r4
 190 005a 14BF     		ite	ne
 191 005c 0021     		movne	r1, #0
 192 005e 0121     		moveq	r1, #1
 193 0060 FFF7FEFF 		bl	_test_assert
 194 0064 0746     		mov	r7, r0
 195 0066 0028     		cmp	r0, #0
 196 0068 DBD1     		bne	.L7
 197              	.LBB2:
 198              		.loc 1 154 0
 199 006a 2023     		movs	r3, #32
 200              	.LVL15:
 201              	@ 154 "../chibios_2.4.x/test/testthd.c" 1
 202 006c 83F31188 		msr     BASEPRI, r3
 203              	@ 0 "" 2
 204              	.LVL16:
 205              		.thumb
 206              	.LBE2:
 207 0070 FFF7FEFF 		bl	dbg_check_lock
 208              	.LVL17:
 209              		.loc 1 155 0
 210 0074 F369     		ldr	r3, [r6, #28]
 211 0076 9A68     		ldr	r2, [r3, #8]
 212 0078 0232     		adds	r2, r2, #2
 213 007a 9A60     		str	r2, [r3, #8]
 214              		.loc 1 156 0
 215 007c FFF7FEFF 		bl	dbg_check_unlock
 216              	.LBB3:
 217 0080 3B46     		mov	r3, r7
 218              	.LVL18:
 219              	@ 156 "../chibios_2.4.x/test/testthd.c" 1
 220 0082 83F31188 		msr     BASEPRI, r3
 221              	@ 0 "" 2
 222              	.LVL19:
ARM GAS  C:\Users\z80\AppData\Local\Temp\ccUW7U7p.s 			page 5


 223              		.thumb
 224              	.LBE3:
 225              		.loc 1 157 0
 226 0086 F369     		ldr	r3, [r6, #28]
 227              	.LVL20:
 228 0088 A71C     		adds	r7, r4, #2
 229 008a 9968     		ldr	r1, [r3, #8]
 230 008c 0520     		movs	r0, #5
 231 008e B942     		cmp	r1, r7
 232 0090 14BF     		ite	ne
 233 0092 0021     		movne	r1, #0
 234 0094 0121     		moveq	r1, #1
 235 0096 FFF7FEFF 		bl	_test_assert
 236 009a 0028     		cmp	r0, #0
 237 009c C1D1     		bne	.L7
 238              		.loc 1 161 0
 239 009e 2846     		mov	r0, r5
 240 00a0 FFF7FEFF 		bl	chThdSetPriority
 241              	.LVL21:
 242              		.loc 1 162 0
 243 00a4 A042     		cmp	r0, r4
 244 00a6 14BF     		ite	ne
 245 00a8 0021     		movne	r1, #0
 246 00aa 0121     		moveq	r1, #1
 247 00ac 0620     		movs	r0, #6
 248              	.LVL22:
 249 00ae FFF7FEFF 		bl	_test_assert
 250 00b2 0028     		cmp	r0, #0
 251 00b4 B5D1     		bne	.L7
 252              		.loc 1 164 0
 253 00b6 F369     		ldr	r3, [r6, #28]
 254 00b8 0720     		movs	r0, #7
 255 00ba 9968     		ldr	r1, [r3, #8]
 256 00bc 8F42     		cmp	r7, r1
 257 00be 14BF     		ite	ne
 258 00c0 0021     		movne	r1, #0
 259 00c2 0121     		moveq	r1, #1
 260 00c4 FFF7FEFF 		bl	_test_assert
 261 00c8 0028     		cmp	r0, #0
 262 00ca AAD1     		bne	.L7
 263              		.loc 1 166 0
 264 00cc F369     		ldr	r3, [r6, #28]
 265 00ce 0820     		movs	r0, #8
 266 00d0 596C     		ldr	r1, [r3, #68]
 267 00d2 8D42     		cmp	r5, r1
 268 00d4 14BF     		ite	ne
 269 00d6 0021     		movne	r1, #0
 270 00d8 0121     		moveq	r1, #1
 271 00da FFF7FEFF 		bl	_test_assert
 272 00de 0028     		cmp	r0, #0
 273 00e0 9FD1     		bne	.L7
 274              		.loc 1 170 0
 275 00e2 E71C     		adds	r7, r4, #3
 276 00e4 3846     		mov	r0, r7
 277 00e6 FFF7FEFF 		bl	chThdSetPriority
 278              	.LVL23:
 279              		.loc 1 171 0
ARM GAS  C:\Users\z80\AppData\Local\Temp\ccUW7U7p.s 			page 6


 280 00ea 8542     		cmp	r5, r0
 281 00ec 14BF     		ite	ne
 282 00ee 0021     		movne	r1, #0
 283 00f0 0121     		moveq	r1, #1
 284 00f2 0920     		movs	r0, #9
 285              	.LVL24:
 286 00f4 FFF7FEFF 		bl	_test_assert
 287 00f8 0028     		cmp	r0, #0
 288 00fa 92D1     		bne	.L7
 289              		.loc 1 173 0
 290 00fc F369     		ldr	r3, [r6, #28]
 291 00fe 0A30     		adds	r0, r0, #10
 292 0100 9968     		ldr	r1, [r3, #8]
 293 0102 8F42     		cmp	r7, r1
 294 0104 14BF     		ite	ne
 295 0106 0021     		movne	r1, #0
 296 0108 0121     		moveq	r1, #1
 297 010a FFF7FEFF 		bl	_test_assert
 298 010e 0028     		cmp	r0, #0
 299 0110 87D1     		bne	.L7
 300              		.loc 1 175 0
 301 0112 F369     		ldr	r3, [r6, #28]
 302 0114 0B30     		adds	r0, r0, #11
 303 0116 596C     		ldr	r1, [r3, #68]
 304 0118 8F42     		cmp	r7, r1
 305 011a 14BF     		ite	ne
 306 011c 0021     		movne	r1, #0
 307 011e 0121     		moveq	r1, #1
 308 0120 FFF7FEFF 		bl	_test_assert
 309 0124 0546     		mov	r5, r0
 310 0126 0028     		cmp	r0, #0
 311 0128 7FF47BAF 		bne	.L7
 312              	.LBB4:
 313              		.loc 1 178 0
 314 012c 2023     		movs	r3, #32
 315              	.LVL25:
 316              	@ 178 "../chibios_2.4.x/test/testthd.c" 1
 317 012e 83F31188 		msr     BASEPRI, r3
 318              	@ 0 "" 2
 319              	.LVL26:
 320              		.thumb
 321              	.LBE4:
 322 0132 FFF7FEFF 		bl	dbg_check_lock
 323              	.LVL27:
 324              		.loc 1 179 0
 325 0136 F369     		ldr	r3, [r6, #28]
 326 0138 9C60     		str	r4, [r3, #8]
 327              		.loc 1 180 0
 328 013a 5C64     		str	r4, [r3, #68]
 329              		.loc 1 181 0
 330 013c FFF7FEFF 		bl	dbg_check_unlock
 331              	.LBB5:
 332 0140 2B46     		mov	r3, r5
 333              	@ 181 "../chibios_2.4.x/test/testthd.c" 1
 334 0142 83F31188 		msr     BASEPRI, r3
 335              	@ 0 "" 2
 336              	.LVL28:
ARM GAS  C:\Users\z80\AppData\Local\Temp\ccUW7U7p.s 			page 7


 337              		.thumb
 338 0146 6CE7     		b	.L7
 339              	.L11:
 340              		.align	2
 341              	.L10:
 342 0148 00000000 		.word	rlist
 343              	.LBE5:
 344              		.cfi_endproc
 345              	.LFE10:
 346              		.size	thd3_execute, .-thd3_execute
 347 014c AFF30080 		.section	.text.thd2_execute,"ax",%progbits
 348              		.align	2
 349              		.p2align 4,,15
 350              		.thumb
 351              		.thumb_func
 352              		.type	thd2_execute, %function
 353              	thd2_execute:
 354              	.LFB9:
 355              		.loc 1 105 0
 356              		.cfi_startproc
 357              		@ args = 0, pretend = 0, frame = 0
 358              		@ frame_needed = 0, uses_anonymous_args = 0
 359 0000 F0B5     		push	{r4, r5, r6, r7, lr}
 360              	.LCFI2:
 361              		.cfi_def_cfa_offset 20
 362              		.loc 1 107 0
 363 0002 40F20007 		movw	r7, #:lower16:rlist
 364              		.cfi_offset 14, -4
 365              		.cfi_offset 7, -8
 366              		.cfi_offset 6, -12
 367              		.cfi_offset 5, -16
 368              		.cfi_offset 4, -20
 369 0006 C0F20007 		movt	r7, #:upper16:rlist
 370 000a FB69     		ldr	r3, [r7, #28]
 371 000c 40F20006 		movw	r6, #:lower16:wa
 372 0010 9A68     		ldr	r2, [r3, #8]
 373 0012 40F20005 		movw	r5, #:lower16:thread
 374 0016 C0F20006 		movt	r6, #:upper16:wa
 375 001a C0F20005 		movt	r5, #:upper16:thread
 376 001e 40F2000C 		movw	ip, #:lower16:.LC0
 377              		.loc 1 105 0
 378 0022 83B0     		sub	sp, sp, #12
 379              	.LCFI3:
 380              		.cfi_def_cfa_offset 32
 381              		.loc 1 107 0
 382 0024 043A     		subs	r2, r2, #4
 383 0026 2B46     		mov	r3, r5
 384 0028 C0F2000C 		movt	ip, #:upper16:.LC0
 385 002c 7068     		ldr	r0, [r6, #4]
 386 002e 4FF49871 		mov	r1, #304
 387 0032 CDF800C0 		str	ip, [sp, #0]
 388 0036 FFF7FEFF 		bl	chThdCreateStatic
 389              		.loc 1 108 0
 390 003a FB69     		ldr	r3, [r7, #28]
 391              		.loc 1 107 0
 392 003c 40F20004 		movw	r4, #:lower16:threads
 393              		.loc 1 108 0
ARM GAS  C:\Users\z80\AppData\Local\Temp\ccUW7U7p.s 			page 8


 394 0040 9A68     		ldr	r2, [r3, #8]
 395              		.loc 1 107 0
 396 0042 C0F20004 		movt	r4, #:upper16:threads
 397 0046 8446     		mov	ip, r0
 398 0048 C4F804C0 		str	ip, [r4, #4]
 399              		.loc 1 108 0
 400 004c 40F2000C 		movw	ip, #:lower16:.LC1
 401 0050 053A     		subs	r2, r2, #5
 402 0052 2B46     		mov	r3, r5
 403 0054 C0F2000C 		movt	ip, #:upper16:.LC1
 404 0058 3068     		ldr	r0, [r6, #0]
 405 005a 4FF49871 		mov	r1, #304
 406 005e CDF800C0 		str	ip, [sp, #0]
 407 0062 FFF7FEFF 		bl	chThdCreateStatic
 408              		.loc 1 109 0
 409 0066 FB69     		ldr	r3, [r7, #28]
 410              		.loc 1 108 0
 411 0068 8446     		mov	ip, r0
 412              		.loc 1 109 0
 413 006a 9A68     		ldr	r2, [r3, #8]
 414              		.loc 1 108 0
 415 006c C4F800C0 		str	ip, [r4, #0]
 416              		.loc 1 109 0
 417 0070 40F2000C 		movw	ip, #:lower16:.LC2
 418 0074 2B46     		mov	r3, r5
 419 0076 013A     		subs	r2, r2, #1
 420 0078 C0F2000C 		movt	ip, #:upper16:.LC2
 421 007c 3069     		ldr	r0, [r6, #16]
 422 007e 4FF49871 		mov	r1, #304
 423 0082 CDF800C0 		str	ip, [sp, #0]
 424 0086 FFF7FEFF 		bl	chThdCreateStatic
 425              		.loc 1 110 0
 426 008a FB69     		ldr	r3, [r7, #28]
 427              		.loc 1 109 0
 428 008c 8446     		mov	ip, r0
 429              		.loc 1 110 0
 430 008e 9A68     		ldr	r2, [r3, #8]
 431              		.loc 1 109 0
 432 0090 C4F810C0 		str	ip, [r4, #16]
 433              		.loc 1 110 0
 434 0094 40F2000C 		movw	ip, #:lower16:.LC3
 435 0098 2B46     		mov	r3, r5
 436 009a C0F2000C 		movt	ip, #:upper16:.LC3
 437 009e F068     		ldr	r0, [r6, #12]
 438 00a0 023A     		subs	r2, r2, #2
 439 00a2 4FF49871 		mov	r1, #304
 440 00a6 CDF800C0 		str	ip, [sp, #0]
 441 00aa FFF7FEFF 		bl	chThdCreateStatic
 442              	.LBB6:
 443              		.loc 1 112 0
 444 00ae 2023     		movs	r3, #32
 445              	.LVL29:
 446              	.LBE6:
 447              		.loc 1 110 0
 448 00b0 E060     		str	r0, [r4, #12]
 449              	.LBB7:
 450              		.loc 1 112 0
ARM GAS  C:\Users\z80\AppData\Local\Temp\ccUW7U7p.s 			page 9


 451              	@ 112 "../chibios_2.4.x/test/testthd.c" 1
 452 00b2 83F31188 		msr     BASEPRI, r3
 453              	@ 0 "" 2
 454              	.LVL30:
 455              		.thumb
 456              	.LBE7:
 457 00b6 FFF7FEFF 		bl	dbg_check_lock
 458              	.LVL31:
 459              		.loc 1 113 0
 460 00ba FB69     		ldr	r3, [r7, #28]
 461 00bc 40F2000C 		movw	ip, #:lower16:.LC4
 462 00c0 9A68     		ldr	r2, [r3, #8]
 463 00c2 C0F2000C 		movt	ip, #:upper16:.LC4
 464 00c6 2B46     		mov	r3, r5
 465 00c8 033A     		subs	r2, r2, #3
 466 00ca 4FF49871 		mov	r1, #304
 467 00ce B068     		ldr	r0, [r6, #8]
 468 00d0 CDF800C0 		str	ip, [sp, #0]
 469 00d4 FFF7FEFF 		bl	chThdCreateI
 470 00d8 A060     		str	r0, [r4, #8]
 471              		.loc 1 114 0
 472 00da FFF7FEFF 		bl	dbg_check_unlock
 473              	.LBB8:
 474 00de 0023     		movs	r3, #0
 475              	.LVL32:
 476              	@ 114 "../chibios_2.4.x/test/testthd.c" 1
 477 00e0 83F31188 		msr     BASEPRI, r3
 478              	@ 0 "" 2
 479              	.LVL33:
 480              		.thumb
 481              	.LBE8:
 482              		.loc 1 115 0
 483 00e4 A068     		ldr	r0, [r4, #8]
 484 00e6 FFF7FEFF 		bl	chThdResume
 485              	.LVL34:
 486              		.loc 1 116 0
 487 00ea FFF7FEFF 		bl	test_wait_threads
 488              		.loc 1 117 0
 489 00ee 40F20001 		movw	r1, #:lower16:.LC5
 490 00f2 C0F20001 		movt	r1, #:upper16:.LC5
 491 00f6 0120     		movs	r0, #1
 492 00f8 FFF7FEFF 		bl	_test_assert_sequence
 493              		.loc 1 118 0
 494 00fc 03B0     		add	sp, sp, #12
 495 00fe F0BD     		pop	{r4, r5, r6, r7, pc}
 496              		.cfi_endproc
 497              	.LFE9:
 498              		.size	thd2_execute, .-thd2_execute
 499              		.section	.text.thd1_execute,"ax",%progbits
 500              		.align	2
 501              		.p2align 4,,15
 502              		.thumb
 503              		.thumb_func
 504              		.type	thd1_execute, %function
 505              	thd1_execute:
 506              	.LFB8:
 507              		.loc 1 77 0
ARM GAS  C:\Users\z80\AppData\Local\Temp\ccUW7U7p.s 			page 10


 508              		.cfi_startproc
 509              		@ args = 0, pretend = 0, frame = 0
 510              		@ frame_needed = 0, uses_anonymous_args = 0
 511 0000 F0B5     		push	{r4, r5, r6, r7, lr}
 512              	.LCFI4:
 513              		.cfi_def_cfa_offset 20
 514              		.loc 1 79 0
 515 0002 40F20007 		movw	r7, #:lower16:rlist
 516              		.cfi_offset 14, -4
 517              		.cfi_offset 7, -8
 518              		.cfi_offset 6, -12
 519              		.cfi_offset 5, -16
 520              		.cfi_offset 4, -20
 521 0006 C0F20007 		movt	r7, #:upper16:rlist
 522 000a FB69     		ldr	r3, [r7, #28]
 523 000c 40F20006 		movw	r6, #:lower16:wa
 524 0010 9A68     		ldr	r2, [r3, #8]
 525 0012 40F20005 		movw	r5, #:lower16:thread
 526 0016 C0F20006 		movt	r6, #:upper16:wa
 527 001a C0F20005 		movt	r5, #:upper16:thread
 528 001e 40F2000C 		movw	ip, #:lower16:.LC1
 529              		.loc 1 77 0
 530 0022 83B0     		sub	sp, sp, #12
 531              	.LCFI5:
 532              		.cfi_def_cfa_offset 32
 533              		.loc 1 79 0
 534 0024 053A     		subs	r2, r2, #5
 535 0026 2B46     		mov	r3, r5
 536 0028 C0F2000C 		movt	ip, #:upper16:.LC1
 537 002c 3068     		ldr	r0, [r6, #0]
 538 002e 4FF49871 		mov	r1, #304
 539 0032 CDF800C0 		str	ip, [sp, #0]
 540 0036 FFF7FEFF 		bl	chThdCreateStatic
 541              		.loc 1 80 0
 542 003a FB69     		ldr	r3, [r7, #28]
 543              		.loc 1 79 0
 544 003c 40F20004 		movw	r4, #:lower16:threads
 545 0040 C0F20004 		movt	r4, #:upper16:threads
 546              		.loc 1 80 0
 547 0044 9A68     		ldr	r2, [r3, #8]
 548              		.loc 1 79 0
 549 0046 8446     		mov	ip, r0
 550 0048 C4F800C0 		str	ip, [r4, #0]
 551              		.loc 1 80 0
 552 004c 40F2000C 		movw	ip, #:lower16:.LC0
 553 0050 043A     		subs	r2, r2, #4
 554 0052 2B46     		mov	r3, r5
 555 0054 C0F2000C 		movt	ip, #:upper16:.LC0
 556 0058 7068     		ldr	r0, [r6, #4]
 557 005a 4FF49871 		mov	r1, #304
 558 005e CDF800C0 		str	ip, [sp, #0]
 559 0062 FFF7FEFF 		bl	chThdCreateStatic
 560              		.loc 1 81 0
 561 0066 FB69     		ldr	r3, [r7, #28]
 562              		.loc 1 80 0
 563 0068 8446     		mov	ip, r0
 564              		.loc 1 81 0
ARM GAS  C:\Users\z80\AppData\Local\Temp\ccUW7U7p.s 			page 11


 565 006a 9A68     		ldr	r2, [r3, #8]
 566              		.loc 1 80 0
 567 006c C4F804C0 		str	ip, [r4, #4]
 568              		.loc 1 81 0
 569 0070 40F2000C 		movw	ip, #:lower16:.LC4
 570 0074 033A     		subs	r2, r2, #3
 571 0076 2B46     		mov	r3, r5
 572 0078 C0F2000C 		movt	ip, #:upper16:.LC4
 573 007c B068     		ldr	r0, [r6, #8]
 574 007e 4FF49871 		mov	r1, #304
 575 0082 CDF800C0 		str	ip, [sp, #0]
 576 0086 FFF7FEFF 		bl	chThdCreateStatic
 577              		.loc 1 82 0
 578 008a FB69     		ldr	r3, [r7, #28]
 579              		.loc 1 81 0
 580 008c 8446     		mov	ip, r0
 581              		.loc 1 82 0
 582 008e 9A68     		ldr	r2, [r3, #8]
 583              		.loc 1 81 0
 584 0090 C4F808C0 		str	ip, [r4, #8]
 585              		.loc 1 82 0
 586 0094 40F2000C 		movw	ip, #:lower16:.LC3
 587 0098 023A     		subs	r2, r2, #2
 588 009a 2B46     		mov	r3, r5
 589 009c C0F2000C 		movt	ip, #:upper16:.LC3
 590 00a0 F068     		ldr	r0, [r6, #12]
 591 00a2 4FF49871 		mov	r1, #304
 592 00a6 CDF800C0 		str	ip, [sp, #0]
 593 00aa FFF7FEFF 		bl	chThdCreateStatic
 594              		.loc 1 83 0
 595 00ae FB69     		ldr	r3, [r7, #28]
 596              		.loc 1 82 0
 597 00b0 8446     		mov	ip, r0
 598              		.loc 1 83 0
 599 00b2 9A68     		ldr	r2, [r3, #8]
 600              		.loc 1 82 0
 601 00b4 C4F80CC0 		str	ip, [r4, #12]
 602              		.loc 1 83 0
 603 00b8 40F2000C 		movw	ip, #:lower16:.LC2
 604 00bc C0F2000C 		movt	ip, #:upper16:.LC2
 605 00c0 4FF49871 		mov	r1, #304
 606 00c4 013A     		subs	r2, r2, #1
 607 00c6 2B46     		mov	r3, r5
 608 00c8 3069     		ldr	r0, [r6, #16]
 609 00ca CDF800C0 		str	ip, [sp, #0]
 610 00ce FFF7FEFF 		bl	chThdCreateStatic
 611 00d2 2061     		str	r0, [r4, #16]
 612              		.loc 1 84 0
 613 00d4 FFF7FEFF 		bl	test_wait_threads
 614              		.loc 1 85 0
 615 00d8 40F20001 		movw	r1, #:lower16:.LC5
 616 00dc C0F20001 		movt	r1, #:upper16:.LC5
 617 00e0 0120     		movs	r0, #1
 618 00e2 FFF7FEFF 		bl	_test_assert_sequence
 619              		.loc 1 86 0
 620 00e6 03B0     		add	sp, sp, #12
 621 00e8 F0BD     		pop	{r4, r5, r6, r7, pc}
ARM GAS  C:\Users\z80\AppData\Local\Temp\ccUW7U7p.s 			page 12


 622              		.cfi_endproc
 623              	.LFE8:
 624              		.size	thd1_execute, .-thd1_execute
 625 00ea 00BFAFF3 		.section	.text.thread,"ax",%progbits
 625      0080
 626              		.align	2
 627              		.p2align 4,,15
 628              		.thumb
 629              		.thumb_func
 630              		.type	thread, %function
 631              	thread:
 632              	.LFB7:
 633              		.loc 1 71 0
 634              		.cfi_startproc
 635              		@ args = 0, pretend = 0, frame = 0
 636              		@ frame_needed = 0, uses_anonymous_args = 0
 637              	.LVL35:
 638 0000 08B5     		push	{r3, lr}
 639              	.LCFI6:
 640              		.cfi_def_cfa_offset 8
 641              		.loc 1 73 0
 642 0002 0078     		ldrb	r0, [r0, #0]	@ zero_extendqisi2
 643              	.LVL36:
 644              		.cfi_offset 14, -4
 645              		.cfi_offset 3, -8
 646 0004 FFF7FEFF 		bl	test_emit_token
 647              		.loc 1 75 0
 648 0008 0020     		movs	r0, #0
 649 000a 08BD     		pop	{r3, pc}
 650              		.cfi_endproc
 651              	.LFE7:
 652              		.size	thread, .-thread
 653              		.global	testthd1
 654              		.global	testthd2
 655              		.global	testthd3
 656              		.global	testthd4
 657              		.global	patternthd
 658 000c AFF30080 		.section	.rodata.testthd1,"a",%progbits
 659              		.align	2
 660              		.type	testthd1, %object
 661              		.size	testthd1, 16
 662              	testthd1:
 663 0000 1C000000 		.word	.LC6
 664 0004 00000000 		.word	0
 665 0008 00000000 		.word	0
 666 000c 00000000 		.word	thd1_execute
 667              		.section	.rodata.testthd2,"a",%progbits
 668              		.align	2
 669              		.type	testthd2, %object
 670              		.size	testthd2, 16
 671              	testthd2:
 672 0000 38000000 		.word	.LC7
 673 0004 00000000 		.word	0
 674 0008 00000000 		.word	0
 675 000c 00000000 		.word	thd2_execute
 676              		.section	.rodata.testthd3,"a",%progbits
 677              		.align	2
ARM GAS  C:\Users\z80\AppData\Local\Temp\ccUW7U7p.s 			page 13


 678              		.type	testthd3, %object
 679              		.size	testthd3, 16
 680              	testthd3:
 681 0000 54000000 		.word	.LC8
 682 0004 00000000 		.word	0
 683 0008 00000000 		.word	0
 684 000c 00000000 		.word	thd3_execute
 685              		.section	.rodata.testthd4,"a",%progbits
 686              		.align	2
 687              		.type	testthd4, %object
 688              		.size	testthd4, 16
 689              	testthd4:
 690 0000 70000000 		.word	.LC9
 691 0004 00000000 		.word	0
 692 0008 00000000 		.word	0
 693 000c 00000000 		.word	thd4_execute
 694              		.section	.rodata.patternthd,"a",%progbits
 695              		.align	2
 696              		.type	patternthd, %object
 697              		.size	patternthd, 20
 698              	patternthd:
 699 0000 00000000 		.word	testthd1
 700 0004 00000000 		.word	testthd2
 701 0008 00000000 		.word	testthd3
 702 000c 00000000 		.word	testthd4
 703 0010 00000000 		.word	0
 704              		.section	.rodata.str1.4,"aMS",%progbits,1
 705              		.align	2
 706              	.LC0:
 707 0000 4400     		.ascii	"D\000"
 708 0002 0000     		.space	2
 709              	.LC1:
 710 0004 4500     		.ascii	"E\000"
 711 0006 0000     		.space	2
 712              	.LC2:
 713 0008 4100     		.ascii	"A\000"
 714 000a 0000     		.space	2
 715              	.LC3:
 716 000c 4200     		.ascii	"B\000"
 717 000e 0000     		.space	2
 718              	.LC4:
 719 0010 4300     		.ascii	"C\000"
 720 0012 0000     		.space	2
 721              	.LC5:
 722 0014 41424344 		.ascii	"ABCDE\000"
 722      4500
 723 001a 0000     		.space	2
 724              	.LC6:
 725 001c 54687265 		.ascii	"Threads, enqueuing test #1\000"
 725      6164732C 
 725      20656E71 
 725      75657569 
 725      6E672074 
 726 0037 00       		.space	1
 727              	.LC7:
 728 0038 54687265 		.ascii	"Threads, enqueuing test #2\000"
 728      6164732C 
ARM GAS  C:\Users\z80\AppData\Local\Temp\ccUW7U7p.s 			page 14


 728      20656E71 
 728      75657569 
 728      6E672074 
 729 0053 00       		.space	1
 730              	.LC8:
 731 0054 54687265 		.ascii	"Threads, priority change\000"
 731      6164732C 
 731      20707269 
 731      6F726974 
 731      79206368 
 732 006d 000000   		.space	3
 733              	.LC9:
 734 0070 54687265 		.ascii	"Threads, delays\000"
 734      6164732C 
 734      2064656C 
 734      61797300 
 735              		.text
 736              	.Letext0:
 737              		.section	.debug_loc,"",%progbits
 738              	.Ldebug_loc0:
 739              	.LLST0:
 740 0000 00000000 		.4byte	.LFB11
 741 0004 02000000 		.4byte	.LCFI0
 742 0008 0200     		.2byte	0x2
 743 000a 7D       		.byte	0x7d
 744 000b 00       		.sleb128 0
 745 000c 02000000 		.4byte	.LCFI0
 746 0010 74000000 		.4byte	.LFE11
 747 0014 0200     		.2byte	0x2
 748 0016 7D       		.byte	0x7d
 749 0017 10       		.sleb128 16
 750 0018 00000000 		.4byte	0x0
 751 001c 00000000 		.4byte	0x0
 752              	.LLST1:
 753 0020 0A000000 		.4byte	.LVL0
 754 0024 20000000 		.4byte	.LVL1
 755 0028 0100     		.2byte	0x1
 756 002a 55       		.byte	0x55
 757 002b 22000000 		.4byte	.LVL2
 758 002f 24000000 		.4byte	.LVL3
 759 0033 0100     		.2byte	0x1
 760 0035 55       		.byte	0x55
 761 0036 24000000 		.4byte	.LVL3
 762 003a 3E000000 		.4byte	.LVL4
 763 003e 0100     		.2byte	0x1
 764 0040 55       		.byte	0x55
 765 0041 3E000000 		.4byte	.LVL4
 766 0045 58000000 		.4byte	.LVL5
 767 0049 0100     		.2byte	0x1
 768 004b 55       		.byte	0x55
 769 004c 5C000000 		.4byte	.LVL6
 770 0050 74000000 		.4byte	.LFE11
 771 0054 0100     		.2byte	0x1
 772 0056 54       		.byte	0x54
 773 0057 00000000 		.4byte	0x0
 774 005b 00000000 		.4byte	0x0
 775              	.LLST2:
ARM GAS  C:\Users\z80\AppData\Local\Temp\ccUW7U7p.s 			page 15


 776 005f 00000000 		.4byte	.LFB10
 777 0063 02000000 		.4byte	.LCFI1
 778 0067 0200     		.2byte	0x2
 779 0069 7D       		.byte	0x7d
 780 006a 00       		.sleb128 0
 781 006b 02000000 		.4byte	.LCFI1
 782 006f 4C010000 		.4byte	.LFE10
 783 0073 0200     		.2byte	0x2
 784 0075 7D       		.byte	0x7d
 785 0076 18       		.sleb128 24
 786 0077 00000000 		.4byte	0x0
 787 007b 00000000 		.4byte	0x0
 788              	.LLST3:
 789 007f 08000000 		.4byte	.LVL7
 790 0083 0F000000 		.4byte	.LVL8-1
 791 0087 0500     		.2byte	0x5
 792 0089 76       		.byte	0x76
 793 008a 1C       		.sleb128 28
 794 008b 06       		.byte	0x6
 795 008c 23       		.byte	0x23
 796 008d 08       		.uleb128 0x8
 797 008e 0F000000 		.4byte	.LVL8-1
 798 0092 4C010000 		.4byte	.LFE10
 799 0096 0100     		.2byte	0x1
 800 0098 54       		.byte	0x54
 801 0099 00000000 		.4byte	0x0
 802 009d 00000000 		.4byte	0x0
 803              	.LLST4:
 804 00a1 12000000 		.4byte	.LVL9
 805 00a5 1C000000 		.4byte	.LVL10
 806 00a9 0100     		.2byte	0x1
 807 00ab 50       		.byte	0x50
 808 00ac 1C000000 		.4byte	.LVL10
 809 00b0 22000000 		.4byte	.LVL11
 810 00b4 0100     		.2byte	0x1
 811 00b6 57       		.byte	0x57
 812 00b7 24000000 		.4byte	.LVL12
 813 00bb 40000000 		.4byte	.LVL13
 814 00bf 0100     		.2byte	0x1
 815 00c1 57       		.byte	0x57
 816 00c2 40000000 		.4byte	.LVL13
 817 00c6 4A000000 		.4byte	.LVL14
 818 00ca 0100     		.2byte	0x1
 819 00cc 50       		.byte	0x50
 820 00cd A4000000 		.4byte	.LVL21
 821 00d1 AE000000 		.4byte	.LVL22
 822 00d5 0100     		.2byte	0x1
 823 00d7 50       		.byte	0x50
 824 00d8 EA000000 		.4byte	.LVL23
 825 00dc F4000000 		.4byte	.LVL24
 826 00e0 0100     		.2byte	0x1
 827 00e2 50       		.byte	0x50
 828 00e3 00000000 		.4byte	0x0
 829 00e7 00000000 		.4byte	0x0
 830              	.LLST5:
 831 00eb 70000000 		.4byte	.LVL16
 832 00ef 73000000 		.4byte	.LVL17-1
ARM GAS  C:\Users\z80\AppData\Local\Temp\ccUW7U7p.s 			page 16


 833 00f3 0100     		.2byte	0x1
 834 00f5 53       		.byte	0x53
 835 00f6 00000000 		.4byte	0x0
 836 00fa 00000000 		.4byte	0x0
 837              	.LLST6:
 838 00fe 86000000 		.4byte	.LVL19
 839 0102 88000000 		.4byte	.LVL20
 840 0106 0100     		.2byte	0x1
 841 0108 53       		.byte	0x53
 842 0109 00000000 		.4byte	0x0
 843 010d 00000000 		.4byte	0x0
 844              	.LLST7:
 845 0111 32010000 		.4byte	.LVL26
 846 0115 35010000 		.4byte	.LVL27-1
 847 0119 0100     		.2byte	0x1
 848 011b 53       		.byte	0x53
 849 011c 00000000 		.4byte	0x0
 850 0120 00000000 		.4byte	0x0
 851              	.LLST8:
 852 0124 22000000 		.4byte	.LVL11
 853 0128 24000000 		.4byte	.LVL12
 854 012c 0100     		.2byte	0x1
 855 012e 53       		.byte	0x53
 856 012f 46010000 		.4byte	.LVL28
 857 0133 4C010000 		.4byte	.LFE10
 858 0137 0100     		.2byte	0x1
 859 0139 53       		.byte	0x53
 860 013a 00000000 		.4byte	0x0
 861 013e 00000000 		.4byte	0x0
 862              	.LLST9:
 863 0142 00000000 		.4byte	.LFB9
 864 0146 02000000 		.4byte	.LCFI2
 865 014a 0200     		.2byte	0x2
 866 014c 7D       		.byte	0x7d
 867 014d 00       		.sleb128 0
 868 014e 02000000 		.4byte	.LCFI2
 869 0152 24000000 		.4byte	.LCFI3
 870 0156 0200     		.2byte	0x2
 871 0158 7D       		.byte	0x7d
 872 0159 14       		.sleb128 20
 873 015a 24000000 		.4byte	.LCFI3
 874 015e 00010000 		.4byte	.LFE9
 875 0162 0200     		.2byte	0x2
 876 0164 7D       		.byte	0x7d
 877 0165 20       		.sleb128 32
 878 0166 00000000 		.4byte	0x0
 879 016a 00000000 		.4byte	0x0
 880              	.LLST10:
 881 016e B6000000 		.4byte	.LVL30
 882 0172 B9000000 		.4byte	.LVL31-1
 883 0176 0100     		.2byte	0x1
 884 0178 53       		.byte	0x53
 885 0179 00000000 		.4byte	0x0
 886 017d 00000000 		.4byte	0x0
 887              	.LLST11:
 888 0181 E4000000 		.4byte	.LVL33
 889 0185 E9000000 		.4byte	.LVL34-1
ARM GAS  C:\Users\z80\AppData\Local\Temp\ccUW7U7p.s 			page 17


 890 0189 0100     		.2byte	0x1
 891 018b 53       		.byte	0x53
 892 018c 00000000 		.4byte	0x0
 893 0190 00000000 		.4byte	0x0
 894              	.LLST12:
 895 0194 00000000 		.4byte	.LFB8
 896 0198 02000000 		.4byte	.LCFI4
 897 019c 0200     		.2byte	0x2
 898 019e 7D       		.byte	0x7d
 899 019f 00       		.sleb128 0
 900 01a0 02000000 		.4byte	.LCFI4
 901 01a4 24000000 		.4byte	.LCFI5
 902 01a8 0200     		.2byte	0x2
 903 01aa 7D       		.byte	0x7d
 904 01ab 14       		.sleb128 20
 905 01ac 24000000 		.4byte	.LCFI5
 906 01b0 EA000000 		.4byte	.LFE8
 907 01b4 0200     		.2byte	0x2
 908 01b6 7D       		.byte	0x7d
 909 01b7 20       		.sleb128 32
 910 01b8 00000000 		.4byte	0x0
 911 01bc 00000000 		.4byte	0x0
 912              	.LLST13:
 913 01c0 00000000 		.4byte	.LFB7
 914 01c4 02000000 		.4byte	.LCFI6
 915 01c8 0200     		.2byte	0x2
 916 01ca 7D       		.byte	0x7d
 917 01cb 00       		.sleb128 0
 918 01cc 02000000 		.4byte	.LCFI6
 919 01d0 0C000000 		.4byte	.LFE7
 920 01d4 0200     		.2byte	0x2
 921 01d6 7D       		.byte	0x7d
 922 01d7 08       		.sleb128 8
 923 01d8 00000000 		.4byte	0x0
 924 01dc 00000000 		.4byte	0x0
 925              	.LLST14:
 926 01e0 00000000 		.4byte	.LVL35
 927 01e4 04000000 		.4byte	.LVL36
 928 01e8 0100     		.2byte	0x1
 929 01ea 50       		.byte	0x50
 930 01eb 00000000 		.4byte	0x0
 931 01ef 00000000 		.4byte	0x0
 932              		.file 2 "c:/programs/yagarto/lib/gcc/../../arm-none-eabi/sys-include/stdint.h"
 933              		.file 3 "../chibios_2.4.x/os/ports/GCC/ARMCMx/chtypes.h"
 934              		.file 4 "../chibios_2.4.x/os/kernel/include/chlists.h"
 935              		.file 5 "../chibios_2.4.x/os/kernel/include/chthreads.h"
 936              		.file 6 "../chibios_2.4.x/os/ports/GCC/ARMCMx/chcore_v7m.h"
 937              		.file 7 "../chibios_2.4.x/os/kernel/include/chvt.h"
 938              		.file 8 "../chibios_2.4.x/os/kernel/include/chschd.h"
 939              		.file 9 "../chibios_2.4.x/os/kernel/include/chmtx.h"
 940              		.file 10 "../chibios_2.4.x/test/test.h"
 941              		.section	.debug_info
 942 0000 DC070000 		.4byte	0x7dc
 943 0004 0200     		.2byte	0x2
 944 0006 00000000 		.4byte	.Ldebug_abbrev0
 945 000a 04       		.byte	0x4
 946 000b 01       		.uleb128 0x1
ARM GAS  C:\Users\z80\AppData\Local\Temp\ccUW7U7p.s 			page 18


 947 000c 3C030000 		.4byte	.LASF88
 948 0010 01       		.byte	0x1
 949 0011 F4010000 		.4byte	.LASF89
 950 0015 A5010000 		.4byte	.LASF90
 951 0019 00000000 		.4byte	0x0
 952 001d 00000000 		.4byte	0x0
 953 0021 18000000 		.4byte	.Ldebug_ranges0+0x18
 954 0025 00000000 		.4byte	.Ldebug_line0
 955 0029 02       		.uleb128 0x2
 956 002a 04       		.byte	0x4
 957 002b 05       		.byte	0x5
 958 002c 696E7400 		.ascii	"int\000"
 959 0030 03       		.uleb128 0x3
 960 0031 04       		.byte	0x4
 961 0032 07       		.byte	0x7
 962 0033 BC000000 		.4byte	.LASF0
 963 0037 03       		.uleb128 0x3
 964 0038 01       		.byte	0x1
 965 0039 06       		.byte	0x6
 966 003a 57000000 		.4byte	.LASF1
 967 003e 04       		.uleb128 0x4
 968 003f 34030000 		.4byte	.LASF5
 969 0043 02       		.byte	0x2
 970 0044 2A       		.byte	0x2a
 971 0045 49000000 		.4byte	0x49
 972 0049 03       		.uleb128 0x3
 973 004a 01       		.byte	0x1
 974 004b 08       		.byte	0x8
 975 004c 3A020000 		.4byte	.LASF2
 976 0050 03       		.uleb128 0x3
 977 0051 02       		.byte	0x2
 978 0052 05       		.byte	0x5
 979 0053 52020000 		.4byte	.LASF3
 980 0057 03       		.uleb128 0x3
 981 0058 02       		.byte	0x2
 982 0059 07       		.byte	0x7
 983 005a F9000000 		.4byte	.LASF4
 984 005e 04       		.uleb128 0x4
 985 005f 32020000 		.4byte	.LASF6
 986 0063 02       		.byte	0x2
 987 0064 4F       		.byte	0x4f
 988 0065 69000000 		.4byte	0x69
 989 0069 03       		.uleb128 0x3
 990 006a 04       		.byte	0x4
 991 006b 05       		.byte	0x5
 992 006c 6B000000 		.4byte	.LASF7
 993 0070 04       		.uleb128 0x4
 994 0071 A4020000 		.4byte	.LASF8
 995 0075 02       		.byte	0x2
 996 0076 50       		.byte	0x50
 997 0077 7B000000 		.4byte	0x7b
 998 007b 03       		.uleb128 0x3
 999 007c 04       		.byte	0x4
 1000 007d 07       		.byte	0x7
 1001 007e D1000000 		.4byte	.LASF9
 1002 0082 03       		.uleb128 0x3
 1003 0083 08       		.byte	0x8
ARM GAS  C:\Users\z80\AppData\Local\Temp\ccUW7U7p.s 			page 19


 1004 0084 05       		.byte	0x5
 1005 0085 49000000 		.4byte	.LASF10
 1006 0089 04       		.uleb128 0x4
 1007 008a 12000000 		.4byte	.LASF11
 1008 008e 02       		.byte	0x2
 1009 008f 78       		.byte	0x78
 1010 0090 94000000 		.4byte	0x94
 1011 0094 03       		.uleb128 0x3
 1012 0095 08       		.byte	0x8
 1013 0096 07       		.byte	0x7
 1014 0097 22000000 		.4byte	.LASF12
 1015 009b 04       		.uleb128 0x4
 1016 009c 1F010000 		.4byte	.LASF13
 1017 00a0 03       		.byte	0x3
 1018 00a1 2F       		.byte	0x2f
 1019 00a2 3E000000 		.4byte	0x3e
 1020 00a6 04       		.uleb128 0x4
 1021 00a7 74000000 		.4byte	.LASF14
 1022 00ab 03       		.byte	0x3
 1023 00ac 30       		.byte	0x30
 1024 00ad 3E000000 		.4byte	0x3e
 1025 00b1 04       		.uleb128 0x4
 1026 00b2 23020000 		.4byte	.LASF15
 1027 00b6 03       		.byte	0x3
 1028 00b7 32       		.byte	0x32
 1029 00b8 70000000 		.4byte	0x70
 1030 00bc 04       		.uleb128 0x4
 1031 00bd 19010000 		.4byte	.LASF16
 1032 00c1 03       		.byte	0x3
 1033 00c2 33       		.byte	0x33
 1034 00c3 5E000000 		.4byte	0x5e
 1035 00c7 04       		.uleb128 0x4
 1036 00c8 33010000 		.4byte	.LASF17
 1037 00cc 03       		.byte	0x3
 1038 00cd 35       		.byte	0x35
 1039 00ce 70000000 		.4byte	0x70
 1040 00d2 04       		.uleb128 0x4
 1041 00d3 E6020000 		.4byte	.LASF18
 1042 00d7 03       		.byte	0x3
 1043 00d8 36       		.byte	0x36
 1044 00d9 70000000 		.4byte	0x70
 1045 00dd 04       		.uleb128 0x4
 1046 00de AB000000 		.4byte	.LASF19
 1047 00e2 03       		.byte	0x3
 1048 00e3 37       		.byte	0x37
 1049 00e4 5E000000 		.4byte	0x5e
 1050 00e8 04       		.uleb128 0x4
 1051 00e9 89020000 		.4byte	.LASF20
 1052 00ed 04       		.byte	0x4
 1053 00ee 2A       		.byte	0x2a
 1054 00ef F3000000 		.4byte	0xf3
 1055 00f3 05       		.uleb128 0x5
 1056 00f4 89020000 		.4byte	.LASF20
 1057 00f8 48       		.byte	0x48
 1058 00f9 05       		.byte	0x5
 1059 00fa 5E       		.byte	0x5e
 1060 00fb FC010000 		.4byte	0x1fc
ARM GAS  C:\Users\z80\AppData\Local\Temp\ccUW7U7p.s 			page 20


 1061 00ff 06       		.uleb128 0x6
 1062 0100 7A020000 		.4byte	.LASF21
 1063 0104 05       		.byte	0x5
 1064 0105 5F       		.byte	0x5f
 1065 0106 21020000 		.4byte	0x221
 1066 010a 02       		.byte	0x2
 1067 010b 23       		.byte	0x23
 1068 010c 00       		.uleb128 0x0
 1069 010d 06       		.uleb128 0x6
 1070 010e 14020000 		.4byte	.LASF22
 1071 0112 05       		.byte	0x5
 1072 0113 61       		.byte	0x61
 1073 0114 21020000 		.4byte	0x221
 1074 0118 02       		.byte	0x2
 1075 0119 23       		.byte	0x23
 1076 011a 04       		.uleb128 0x4
 1077 011b 06       		.uleb128 0x6
 1078 011c 42000000 		.4byte	.LASF23
 1079 0120 05       		.byte	0x5
 1080 0121 63       		.byte	0x63
 1081 0122 B1000000 		.4byte	0xb1
 1082 0126 02       		.byte	0x2
 1083 0127 23       		.byte	0x23
 1084 0128 08       		.uleb128 0x8
 1085 0129 06       		.uleb128 0x6
 1086 012a 7A030000 		.4byte	.LASF24
 1087 012e 05       		.byte	0x5
 1088 012f 64       		.byte	0x64
 1089 0130 F9020000 		.4byte	0x2f9
 1090 0134 02       		.byte	0x2
 1091 0135 23       		.byte	0x23
 1092 0136 0C       		.uleb128 0xc
 1093 0137 06       		.uleb128 0x6
 1094 0138 7D000000 		.4byte	.LASF25
 1095 013c 05       		.byte	0x5
 1096 013d 66       		.byte	0x66
 1097 013e 21020000 		.4byte	0x221
 1098 0142 02       		.byte	0x2
 1099 0143 23       		.byte	0x23
 1100 0144 10       		.uleb128 0x10
 1101 0145 06       		.uleb128 0x6
 1102 0146 84010000 		.4byte	.LASF26
 1103 014a 05       		.byte	0x5
 1104 014b 67       		.byte	0x67
 1105 014c 21020000 		.4byte	0x221
 1106 0150 02       		.byte	0x2
 1107 0151 23       		.byte	0x23
 1108 0152 14       		.uleb128 0x14
 1109 0153 06       		.uleb128 0x6
 1110 0154 4F030000 		.4byte	.LASF27
 1111 0158 05       		.byte	0x5
 1112 0159 6E       		.byte	0x6e
 1113 015a E4040000 		.4byte	0x4e4
 1114 015e 02       		.byte	0x2
 1115 015f 23       		.byte	0x23
 1116 0160 18       		.uleb128 0x18
 1117 0161 06       		.uleb128 0x6
ARM GAS  C:\Users\z80\AppData\Local\Temp\ccUW7U7p.s 			page 21


 1118 0162 B1000000 		.4byte	.LASF28
 1119 0166 05       		.byte	0x5
 1120 0167 74       		.byte	0x74
 1121 0168 F6040000 		.4byte	0x4f6
 1122 016c 02       		.byte	0x2
 1123 016d 23       		.byte	0x23
 1124 016e 1C       		.uleb128 0x1c
 1125 016f 06       		.uleb128 0x6
 1126 0170 5C020000 		.4byte	.LASF29
 1127 0174 05       		.byte	0x5
 1128 0175 79       		.byte	0x79
 1129 0176 A6000000 		.4byte	0xa6
 1130 017a 02       		.byte	0x2
 1131 017b 23       		.byte	0x23
 1132 017c 20       		.uleb128 0x20
 1133 017d 06       		.uleb128 0x6
 1134 017e 81020000 		.4byte	.LASF30
 1135 0182 05       		.byte	0x5
 1136 0183 7D       		.byte	0x7d
 1137 0184 9B000000 		.4byte	0x9b
 1138 0188 02       		.byte	0x2
 1139 0189 23       		.byte	0x23
 1140 018a 21       		.uleb128 0x21
 1141 018b 06       		.uleb128 0x6
 1142 018c 04030000 		.4byte	.LASF31
 1143 0190 05       		.byte	0x5
 1144 0191 89       		.byte	0x89
 1145 0192 E1030000 		.4byte	0x3e1
 1146 0196 02       		.byte	0x2
 1147 0197 23       		.byte	0x23
 1148 0198 24       		.uleb128 0x24
 1149 0199 07       		.uleb128 0x7
 1150 019a 705F7500 		.ascii	"p_u\000"
 1151 019e 05       		.byte	0x5
 1152 019f AE       		.byte	0xae
 1153 01a0 AF040000 		.4byte	0x4af
 1154 01a4 02       		.byte	0x2
 1155 01a5 23       		.byte	0x23
 1156 01a6 28       		.uleb128 0x28
 1157 01a7 06       		.uleb128 0x6
 1158 01a8 80030000 		.4byte	.LASF32
 1159 01ac 05       		.byte	0x5
 1160 01ad B3       		.byte	0xb3
 1161 01ae 49020000 		.4byte	0x249
 1162 01b2 02       		.byte	0x2
 1163 01b3 23       		.byte	0x23
 1164 01b4 2C       		.uleb128 0x2c
 1165 01b5 06       		.uleb128 0x6
 1166 01b6 12030000 		.4byte	.LASF33
 1167 01ba 05       		.byte	0x5
 1168 01bb B9       		.byte	0xb9
 1169 01bc 27020000 		.4byte	0x227
 1170 01c0 02       		.byte	0x2
 1171 01c1 23       		.byte	0x23
 1172 01c2 30       		.uleb128 0x30
 1173 01c3 06       		.uleb128 0x6
 1174 01c4 00000000 		.4byte	.LASF34
ARM GAS  C:\Users\z80\AppData\Local\Temp\ccUW7U7p.s 			page 22


 1175 01c8 05       		.byte	0x5
 1176 01c9 BD       		.byte	0xbd
 1177 01ca BC000000 		.4byte	0xbc
 1178 01ce 02       		.byte	0x2
 1179 01cf 23       		.byte	0x23
 1180 01d0 38       		.uleb128 0x38
 1181 01d1 06       		.uleb128 0x6
 1182 01d2 99020000 		.4byte	.LASF35
 1183 01d6 05       		.byte	0x5
 1184 01d7 C3       		.byte	0xc3
 1185 01d8 C7000000 		.4byte	0xc7
 1186 01dc 02       		.byte	0x2
 1187 01dd 23       		.byte	0x23
 1188 01de 3C       		.uleb128 0x3c
 1189 01df 06       		.uleb128 0x6
 1190 01e0 48020000 		.4byte	.LASF36
 1191 01e4 05       		.byte	0x5
 1192 01e5 CA       		.byte	0xca
 1193 01e6 FC040000 		.4byte	0x4fc
 1194 01ea 02       		.byte	0x2
 1195 01eb 23       		.byte	0x23
 1196 01ec 40       		.uleb128 0x40
 1197 01ed 06       		.uleb128 0x6
 1198 01ee F0020000 		.4byte	.LASF37
 1199 01f2 05       		.byte	0x5
 1200 01f3 CE       		.byte	0xce
 1201 01f4 B1000000 		.4byte	0xb1
 1202 01f8 02       		.byte	0x2
 1203 01f9 23       		.byte	0x23
 1204 01fa 44       		.uleb128 0x44
 1205 01fb 00       		.byte	0x0
 1206 01fc 08       		.uleb128 0x8
 1207 01fd 08       		.byte	0x8
 1208 01fe 04       		.byte	0x4
 1209 01ff 61       		.byte	0x61
 1210 0200 21020000 		.4byte	0x221
 1211 0204 06       		.uleb128 0x6
 1212 0205 7A020000 		.4byte	.LASF21
 1213 0209 04       		.byte	0x4
 1214 020a 62       		.byte	0x62
 1215 020b 21020000 		.4byte	0x221
 1216 020f 02       		.byte	0x2
 1217 0210 23       		.byte	0x23
 1218 0211 00       		.uleb128 0x0
 1219 0212 06       		.uleb128 0x6
 1220 0213 14020000 		.4byte	.LASF22
 1221 0217 04       		.byte	0x4
 1222 0218 64       		.byte	0x64
 1223 0219 21020000 		.4byte	0x221
 1224 021d 02       		.byte	0x2
 1225 021e 23       		.byte	0x23
 1226 021f 04       		.uleb128 0x4
 1227 0220 00       		.byte	0x0
 1228 0221 09       		.uleb128 0x9
 1229 0222 04       		.byte	0x4
 1230 0223 E8000000 		.4byte	0xe8
 1231 0227 04       		.uleb128 0x4
ARM GAS  C:\Users\z80\AppData\Local\Temp\ccUW7U7p.s 			page 23


 1232 0228 92010000 		.4byte	.LASF38
 1233 022c 04       		.byte	0x4
 1234 022d 66       		.byte	0x66
 1235 022e FC010000 		.4byte	0x1fc
 1236 0232 08       		.uleb128 0x8
 1237 0233 04       		.byte	0x4
 1238 0234 04       		.byte	0x4
 1239 0235 6B       		.byte	0x6b
 1240 0236 49020000 		.4byte	0x249
 1241 023a 06       		.uleb128 0x6
 1242 023b 7A020000 		.4byte	.LASF21
 1243 023f 04       		.byte	0x4
 1244 0240 6D       		.byte	0x6d
 1245 0241 21020000 		.4byte	0x221
 1246 0245 02       		.byte	0x2
 1247 0246 23       		.byte	0x23
 1248 0247 00       		.uleb128 0x0
 1249 0248 00       		.byte	0x0
 1250 0249 04       		.uleb128 0x4
 1251 024a 27010000 		.4byte	.LASF39
 1252 024e 04       		.byte	0x4
 1253 024f 70       		.byte	0x70
 1254 0250 32020000 		.4byte	0x232
 1255 0254 04       		.uleb128 0x4
 1256 0255 8D000000 		.4byte	.LASF40
 1257 0259 06       		.byte	0x6
 1258 025a D7       		.byte	0xd7
 1259 025b 5F020000 		.4byte	0x25f
 1260 025f 0A       		.uleb128 0xa
 1261 0260 04       		.byte	0x4
 1262 0261 04       		.uleb128 0x4
 1263 0262 45010000 		.4byte	.LASF41
 1264 0266 06       		.byte	0x6
 1265 0267 DD       		.byte	0xdd
 1266 0268 89000000 		.4byte	0x89
 1267 026c 05       		.uleb128 0x5
 1268 026d 0B030000 		.4byte	.LASF42
 1269 0271 24       		.byte	0x24
 1270 0272 06       		.byte	0x6
 1271 0273 FE       		.byte	0xfe
 1272 0274 F9020000 		.4byte	0x2f9
 1273 0278 0B       		.uleb128 0xb
 1274 0279 723400   		.ascii	"r4\000"
 1275 027c 06       		.byte	0x6
 1276 027d 1101     		.2byte	0x111
 1277 027f 54020000 		.4byte	0x254
 1278 0283 02       		.byte	0x2
 1279 0284 23       		.byte	0x23
 1280 0285 00       		.uleb128 0x0
 1281 0286 0B       		.uleb128 0xb
 1282 0287 723500   		.ascii	"r5\000"
 1283 028a 06       		.byte	0x6
 1284 028b 1201     		.2byte	0x112
 1285 028d 54020000 		.4byte	0x254
 1286 0291 02       		.byte	0x2
 1287 0292 23       		.byte	0x23
 1288 0293 04       		.uleb128 0x4
ARM GAS  C:\Users\z80\AppData\Local\Temp\ccUW7U7p.s 			page 24


 1289 0294 0B       		.uleb128 0xb
 1290 0295 723600   		.ascii	"r6\000"
 1291 0298 06       		.byte	0x6
 1292 0299 1301     		.2byte	0x113
 1293 029b 54020000 		.4byte	0x254
 1294 029f 02       		.byte	0x2
 1295 02a0 23       		.byte	0x23
 1296 02a1 08       		.uleb128 0x8
 1297 02a2 0B       		.uleb128 0xb
 1298 02a3 723700   		.ascii	"r7\000"
 1299 02a6 06       		.byte	0x6
 1300 02a7 1401     		.2byte	0x114
 1301 02a9 54020000 		.4byte	0x254
 1302 02ad 02       		.byte	0x2
 1303 02ae 23       		.byte	0x23
 1304 02af 0C       		.uleb128 0xc
 1305 02b0 0B       		.uleb128 0xb
 1306 02b1 723800   		.ascii	"r8\000"
 1307 02b4 06       		.byte	0x6
 1308 02b5 1501     		.2byte	0x115
 1309 02b7 54020000 		.4byte	0x254
 1310 02bb 02       		.byte	0x2
 1311 02bc 23       		.byte	0x23
 1312 02bd 10       		.uleb128 0x10
 1313 02be 0B       		.uleb128 0xb
 1314 02bf 723900   		.ascii	"r9\000"
 1315 02c2 06       		.byte	0x6
 1316 02c3 1601     		.2byte	0x116
 1317 02c5 54020000 		.4byte	0x254
 1318 02c9 02       		.byte	0x2
 1319 02ca 23       		.byte	0x23
 1320 02cb 14       		.uleb128 0x14
 1321 02cc 0B       		.uleb128 0xb
 1322 02cd 72313000 		.ascii	"r10\000"
 1323 02d1 06       		.byte	0x6
 1324 02d2 1701     		.2byte	0x117
 1325 02d4 54020000 		.4byte	0x254
 1326 02d8 02       		.byte	0x2
 1327 02d9 23       		.byte	0x23
 1328 02da 18       		.uleb128 0x18
 1329 02db 0B       		.uleb128 0xb
 1330 02dc 72313100 		.ascii	"r11\000"
 1331 02e0 06       		.byte	0x6
 1332 02e1 1801     		.2byte	0x118
 1333 02e3 54020000 		.4byte	0x254
 1334 02e7 02       		.byte	0x2
 1335 02e8 23       		.byte	0x23
 1336 02e9 1C       		.uleb128 0x1c
 1337 02ea 0B       		.uleb128 0xb
 1338 02eb 6C7200   		.ascii	"lr\000"
 1339 02ee 06       		.byte	0x6
 1340 02ef 1901     		.2byte	0x119
 1341 02f1 54020000 		.4byte	0x254
 1342 02f5 02       		.byte	0x2
 1343 02f6 23       		.byte	0x23
 1344 02f7 20       		.uleb128 0x20
 1345 02f8 00       		.byte	0x0
ARM GAS  C:\Users\z80\AppData\Local\Temp\ccUW7U7p.s 			page 25


 1346 02f9 0C       		.uleb128 0xc
 1347 02fa F1000000 		.4byte	.LASF43
 1348 02fe 04       		.byte	0x4
 1349 02ff 06       		.byte	0x6
 1350 0300 2301     		.2byte	0x123
 1351 0302 16030000 		.4byte	0x316
 1352 0306 0B       		.uleb128 0xb
 1353 0307 72313300 		.ascii	"r13\000"
 1354 030b 06       		.byte	0x6
 1355 030c 2401     		.2byte	0x124
 1356 030e 16030000 		.4byte	0x316
 1357 0312 02       		.byte	0x2
 1358 0313 23       		.byte	0x23
 1359 0314 00       		.uleb128 0x0
 1360 0315 00       		.byte	0x0
 1361 0316 09       		.uleb128 0x9
 1362 0317 04       		.byte	0x4
 1363 0318 6C020000 		.4byte	0x26c
 1364 031c 0D       		.uleb128 0xd
 1365 031d 04       		.byte	0x4
 1366 031e 07       		.byte	0x7
 1367 031f 04       		.uleb128 0x4
 1368 0320 FB020000 		.4byte	.LASF44
 1369 0324 07       		.byte	0x7
 1370 0325 53       		.byte	0x53
 1371 0326 2A030000 		.4byte	0x32a
 1372 032a 09       		.uleb128 0x9
 1373 032b 04       		.byte	0x4
 1374 032c 30030000 		.4byte	0x330
 1375 0330 0E       		.uleb128 0xe
 1376 0331 01       		.byte	0x1
 1377 0332 3C030000 		.4byte	0x33c
 1378 0336 0F       		.uleb128 0xf
 1379 0337 5F020000 		.4byte	0x25f
 1380 033b 00       		.byte	0x0
 1381 033c 04       		.uleb128 0x4
 1382 033d B5020000 		.4byte	.LASF45
 1383 0341 07       		.byte	0x7
 1384 0342 58       		.byte	0x58
 1385 0343 47030000 		.4byte	0x347
 1386 0347 05       		.uleb128 0x5
 1387 0348 B5020000 		.4byte	.LASF45
 1388 034c 14       		.byte	0x14
 1389 034d 07       		.byte	0x7
 1390 034e 5F       		.byte	0x5f
 1391 034f 9A030000 		.4byte	0x39a
 1392 0353 06       		.uleb128 0x6
 1393 0354 C9000000 		.4byte	.LASF46
 1394 0358 07       		.byte	0x7
 1395 0359 60       		.byte	0x60
 1396 035a 9A030000 		.4byte	0x39a
 1397 035e 02       		.byte	0x2
 1398 035f 23       		.byte	0x23
 1399 0360 00       		.uleb128 0x0
 1400 0361 06       		.uleb128 0x6
 1401 0362 96000000 		.4byte	.LASF47
 1402 0366 07       		.byte	0x7
ARM GAS  C:\Users\z80\AppData\Local\Temp\ccUW7U7p.s 			page 26


 1403 0367 62       		.byte	0x62
 1404 0368 9A030000 		.4byte	0x39a
 1405 036c 02       		.byte	0x2
 1406 036d 23       		.byte	0x23
 1407 036e 04       		.uleb128 0x4
 1408 036f 06       		.uleb128 0x6
 1409 0370 50010000 		.4byte	.LASF48
 1410 0374 07       		.byte	0x7
 1411 0375 64       		.byte	0x64
 1412 0376 D2000000 		.4byte	0xd2
 1413 037a 02       		.byte	0x2
 1414 037b 23       		.byte	0x23
 1415 037c 08       		.uleb128 0x8
 1416 037d 06       		.uleb128 0x6
 1417 037e 7C010000 		.4byte	.LASF49
 1418 0382 07       		.byte	0x7
 1419 0383 65       		.byte	0x65
 1420 0384 1F030000 		.4byte	0x31f
 1421 0388 02       		.byte	0x2
 1422 0389 23       		.byte	0x23
 1423 038a 0C       		.uleb128 0xc
 1424 038b 06       		.uleb128 0x6
 1425 038c 1D030000 		.4byte	.LASF50
 1426 0390 07       		.byte	0x7
 1427 0391 67       		.byte	0x67
 1428 0392 5F020000 		.4byte	0x25f
 1429 0396 02       		.byte	0x2
 1430 0397 23       		.byte	0x23
 1431 0398 10       		.uleb128 0x10
 1432 0399 00       		.byte	0x0
 1433 039a 09       		.uleb128 0x9
 1434 039b 04       		.byte	0x4
 1435 039c 3C030000 		.4byte	0x33c
 1436 03a0 08       		.uleb128 0x8
 1437 03a1 10       		.byte	0x10
 1438 03a2 07       		.byte	0x7
 1439 03a3 71       		.byte	0x71
 1440 03a4 E1030000 		.4byte	0x3e1
 1441 03a8 06       		.uleb128 0x6
 1442 03a9 C9000000 		.4byte	.LASF46
 1443 03ad 07       		.byte	0x7
 1444 03ae 72       		.byte	0x72
 1445 03af 9A030000 		.4byte	0x39a
 1446 03b3 02       		.byte	0x2
 1447 03b4 23       		.byte	0x23
 1448 03b5 00       		.uleb128 0x0
 1449 03b6 06       		.uleb128 0x6
 1450 03b7 96000000 		.4byte	.LASF47
 1451 03bb 07       		.byte	0x7
 1452 03bc 74       		.byte	0x74
 1453 03bd 9A030000 		.4byte	0x39a
 1454 03c1 02       		.byte	0x2
 1455 03c2 23       		.byte	0x23
 1456 03c3 04       		.uleb128 0x4
 1457 03c4 06       		.uleb128 0x6
 1458 03c5 50010000 		.4byte	.LASF48
 1459 03c9 07       		.byte	0x7
ARM GAS  C:\Users\z80\AppData\Local\Temp\ccUW7U7p.s 			page 27


 1460 03ca 76       		.byte	0x76
 1461 03cb D2000000 		.4byte	0xd2
 1462 03cf 02       		.byte	0x2
 1463 03d0 23       		.byte	0x23
 1464 03d1 08       		.uleb128 0x8
 1465 03d2 06       		.uleb128 0x6
 1466 03d3 56030000 		.4byte	.LASF51
 1467 03d7 07       		.byte	0x7
 1468 03d8 77       		.byte	0x77
 1469 03d9 E1030000 		.4byte	0x3e1
 1470 03dd 02       		.byte	0x2
 1471 03de 23       		.byte	0x23
 1472 03df 0C       		.uleb128 0xc
 1473 03e0 00       		.byte	0x0
 1474 03e1 10       		.uleb128 0x10
 1475 03e2 D2000000 		.4byte	0xd2
 1476 03e6 04       		.uleb128 0x4
 1477 03e7 61030000 		.4byte	.LASF52
 1478 03eb 07       		.byte	0x7
 1479 03ec 78       		.byte	0x78
 1480 03ed A0030000 		.4byte	0x3a0
 1481 03f1 08       		.uleb128 0x8
 1482 03f2 20       		.byte	0x20
 1483 03f3 08       		.byte	0x8
 1484 03f4 5E       		.byte	0x5e
 1485 03f5 5C040000 		.4byte	0x45c
 1486 03f9 06       		.uleb128 0x6
 1487 03fa AD020000 		.4byte	.LASF53
 1488 03fe 08       		.byte	0x8
 1489 03ff 5F       		.byte	0x5f
 1490 0400 27020000 		.4byte	0x227
 1491 0404 02       		.byte	0x2
 1492 0405 23       		.byte	0x23
 1493 0406 00       		.uleb128 0x0
 1494 0407 06       		.uleb128 0x6
 1495 0408 6C020000 		.4byte	.LASF54
 1496 040c 08       		.byte	0x8
 1497 040d 60       		.byte	0x60
 1498 040e B1000000 		.4byte	0xb1
 1499 0412 02       		.byte	0x2
 1500 0413 23       		.byte	0x23
 1501 0414 08       		.uleb128 0x8
 1502 0415 06       		.uleb128 0x6
 1503 0416 8C010000 		.4byte	.LASF55
 1504 041a 08       		.byte	0x8
 1505 041b 62       		.byte	0x62
 1506 041c F9020000 		.4byte	0x2f9
 1507 0420 02       		.byte	0x2
 1508 0421 23       		.byte	0x23
 1509 0422 0C       		.uleb128 0xc
 1510 0423 06       		.uleb128 0x6
 1511 0424 85000000 		.4byte	.LASF56
 1512 0428 08       		.byte	0x8
 1513 0429 65       		.byte	0x65
 1514 042a 21020000 		.4byte	0x221
 1515 042e 02       		.byte	0x2
 1516 042f 23       		.byte	0x23
ARM GAS  C:\Users\z80\AppData\Local\Temp\ccUW7U7p.s 			page 28


 1517 0430 10       		.uleb128 0x10
 1518 0431 06       		.uleb128 0x6
 1519 0432 DF010000 		.4byte	.LASF57
 1520 0436 08       		.byte	0x8
 1521 0437 66       		.byte	0x66
 1522 0438 21020000 		.4byte	0x221
 1523 043c 02       		.byte	0x2
 1524 043d 23       		.byte	0x23
 1525 043e 14       		.uleb128 0x14
 1526 043f 06       		.uleb128 0x6
 1527 0440 68030000 		.4byte	.LASF58
 1528 0444 08       		.byte	0x8
 1529 0445 6A       		.byte	0x6a
 1530 0446 DD000000 		.4byte	0xdd
 1531 044a 02       		.byte	0x2
 1532 044b 23       		.byte	0x23
 1533 044c 18       		.uleb128 0x18
 1534 044d 06       		.uleb128 0x6
 1535 044e D5010000 		.4byte	.LASF59
 1536 0452 08       		.byte	0x8
 1537 0453 6C       		.byte	0x6c
 1538 0454 21020000 		.4byte	0x221
 1539 0458 02       		.byte	0x2
 1540 0459 23       		.byte	0x23
 1541 045a 1C       		.uleb128 0x1c
 1542 045b 00       		.byte	0x0
 1543 045c 04       		.uleb128 0x4
 1544 045d 24030000 		.4byte	.LASF60
 1545 0461 08       		.byte	0x8
 1546 0462 6E       		.byte	0x6e
 1547 0463 F1030000 		.4byte	0x3f1
 1548 0467 05       		.uleb128 0x5
 1549 0468 3F010000 		.4byte	.LASF61
 1550 046c 10       		.byte	0x10
 1551 046d 09       		.byte	0x9
 1552 046e 2C       		.byte	0x2c
 1553 046f 9E040000 		.4byte	0x49e
 1554 0473 06       		.uleb128 0x6
 1555 0474 63000000 		.4byte	.LASF62
 1556 0478 09       		.byte	0x9
 1557 0479 2D       		.byte	0x2d
 1558 047a 27020000 		.4byte	0x227
 1559 047e 02       		.byte	0x2
 1560 047f 23       		.byte	0x23
 1561 0480 00       		.uleb128 0x0
 1562 0481 06       		.uleb128 0x6
 1563 0482 72030000 		.4byte	.LASF63
 1564 0486 09       		.byte	0x9
 1565 0487 2F       		.byte	0x2f
 1566 0488 21020000 		.4byte	0x221
 1567 048c 02       		.byte	0x2
 1568 048d 23       		.byte	0x23
 1569 048e 08       		.uleb128 0x8
 1570 048f 06       		.uleb128 0x6
 1571 0490 DF020000 		.4byte	.LASF64
 1572 0494 09       		.byte	0x9
 1573 0495 31       		.byte	0x31
ARM GAS  C:\Users\z80\AppData\Local\Temp\ccUW7U7p.s 			page 29


 1574 0496 9E040000 		.4byte	0x49e
 1575 049a 02       		.byte	0x2
 1576 049b 23       		.byte	0x23
 1577 049c 0C       		.uleb128 0xc
 1578 049d 00       		.byte	0x0
 1579 049e 09       		.uleb128 0x9
 1580 049f 04       		.byte	0x4
 1581 04a0 67040000 		.4byte	0x467
 1582 04a4 04       		.uleb128 0x4
 1583 04a5 3F010000 		.4byte	.LASF61
 1584 04a9 09       		.byte	0x9
 1585 04aa 33       		.byte	0x33
 1586 04ab 67040000 		.4byte	0x467
 1587 04af 11       		.uleb128 0x11
 1588 04b0 04       		.byte	0x4
 1589 04b1 05       		.byte	0x5
 1590 04b2 90       		.byte	0x90
 1591 04b3 E4040000 		.4byte	0x4e4
 1592 04b7 12       		.uleb128 0x12
 1593 04b8 0B000000 		.4byte	.LASF65
 1594 04bc 05       		.byte	0x5
 1595 04bd 97       		.byte	0x97
 1596 04be BC000000 		.4byte	0xbc
 1597 04c2 12       		.uleb128 0x12
 1598 04c3 39000000 		.4byte	.LASF66
 1599 04c7 05       		.byte	0x5
 1600 04c8 9E       		.byte	0x9e
 1601 04c9 BC000000 		.4byte	0xbc
 1602 04cd 12       		.uleb128 0x12
 1603 04ce 48030000 		.4byte	.LASF67
 1604 04d2 05       		.byte	0x5
 1605 04d3 A5       		.byte	0xa5
 1606 04d4 5F020000 		.4byte	0x25f
 1607 04d8 12       		.uleb128 0x12
 1608 04d9 73020000 		.4byte	.LASF68
 1609 04dd 05       		.byte	0x5
 1610 04de AC       		.byte	0xac
 1611 04df C7000000 		.4byte	0xc7
 1612 04e3 00       		.byte	0x0
 1613 04e4 09       		.uleb128 0x9
 1614 04e5 04       		.byte	0x4
 1615 04e6 EA040000 		.4byte	0x4ea
 1616 04ea 13       		.uleb128 0x13
 1617 04eb EF040000 		.4byte	0x4ef
 1618 04ef 03       		.uleb128 0x3
 1619 04f0 01       		.byte	0x1
 1620 04f1 08       		.byte	0x8
 1621 04f2 C2020000 		.4byte	.LASF69
 1622 04f6 09       		.uleb128 0x9
 1623 04f7 04       		.byte	0x4
 1624 04f8 61020000 		.4byte	0x261
 1625 04fc 09       		.uleb128 0x9
 1626 04fd 04       		.byte	0x4
 1627 04fe A4040000 		.4byte	0x4a4
 1628 0502 05       		.uleb128 0x5
 1629 0503 90020000 		.4byte	.LASF70
 1630 0507 10       		.byte	0x10
ARM GAS  C:\Users\z80\AppData\Local\Temp\ccUW7U7p.s 			page 30


 1631 0508 0A       		.byte	0xa
 1632 0509 46       		.byte	0x46
 1633 050a 47050000 		.4byte	0x547
 1634 050e 06       		.uleb128 0x6
 1635 050f EC000000 		.4byte	.LASF71
 1636 0513 0A       		.byte	0xa
 1637 0514 47       		.byte	0x47
 1638 0515 E4040000 		.4byte	0x4e4
 1639 0519 02       		.byte	0x2
 1640 051a 23       		.byte	0x23
 1641 051b 00       		.uleb128 0x0
 1642 051c 06       		.uleb128 0x6
 1643 051d 9F010000 		.4byte	.LASF72
 1644 0521 0A       		.byte	0xa
 1645 0522 48       		.byte	0x48
 1646 0523 49050000 		.4byte	0x549
 1647 0527 02       		.byte	0x2
 1648 0528 23       		.byte	0x23
 1649 0529 04       		.uleb128 0x4
 1650 052a 06       		.uleb128 0x6
 1651 052b E3000000 		.4byte	.LASF73
 1652 052f 0A       		.byte	0xa
 1653 0530 49       		.byte	0x49
 1654 0531 49050000 		.4byte	0x549
 1655 0535 02       		.byte	0x2
 1656 0536 23       		.byte	0x23
 1657 0537 08       		.uleb128 0x8
 1658 0538 06       		.uleb128 0x6
 1659 0539 1B020000 		.4byte	.LASF74
 1660 053d 0A       		.byte	0xa
 1661 053e 4A       		.byte	0x4a
 1662 053f 49050000 		.4byte	0x549
 1663 0543 02       		.byte	0x2
 1664 0544 23       		.byte	0x23
 1665 0545 0C       		.uleb128 0xc
 1666 0546 00       		.byte	0x0
 1667 0547 14       		.uleb128 0x14
 1668 0548 01       		.byte	0x1
 1669 0549 09       		.uleb128 0x9
 1670 054a 04       		.byte	0x4
 1671 054b 47050000 		.4byte	0x547
 1672 054f 15       		.uleb128 0x15
 1673 0550 C7020000 		.4byte	.LASF75
 1674 0554 01       		.byte	0x1
 1675 0555 C8       		.byte	0xc8
 1676 0556 01       		.byte	0x1
 1677 0557 00000000 		.4byte	.LFB11
 1678 055b 74000000 		.4byte	.LFE11
 1679 055f 00000000 		.4byte	.LLST0
 1680 0563 77050000 		.4byte	0x577
 1681 0567 16       		.uleb128 0x16
 1682 0568 D0010000 		.4byte	.LASF77
 1683 056c 01       		.byte	0x1
 1684 056d C9       		.byte	0xc9
 1685 056e D2000000 		.4byte	0xd2
 1686 0572 20000000 		.4byte	.LLST1
 1687 0576 00       		.byte	0x0
ARM GAS  C:\Users\z80\AppData\Local\Temp\ccUW7U7p.s 			page 31


 1688 0577 15       		.uleb128 0x15
 1689 0578 E7010000 		.4byte	.LASF76
 1690 057c 01       		.byte	0x1
 1691 057d 89       		.byte	0x89
 1692 057e 01       		.byte	0x1
 1693 057f 00000000 		.4byte	.LFB10
 1694 0583 4C010000 		.4byte	.LFE10
 1695 0587 5F000000 		.4byte	.LLST2
 1696 058b 1D060000 		.4byte	0x61d
 1697 058f 16       		.uleb128 0x16
 1698 0590 06000000 		.4byte	.LASF78
 1699 0594 01       		.byte	0x1
 1700 0595 8A       		.byte	0x8a
 1701 0596 B1000000 		.4byte	0xb1
 1702 059a 7F000000 		.4byte	.LLST3
 1703 059e 17       		.uleb128 0x17
 1704 059f 703100   		.ascii	"p1\000"
 1705 05a2 01       		.byte	0x1
 1706 05a3 8A       		.byte	0x8a
 1707 05a4 B1000000 		.4byte	0xb1
 1708 05a8 A1000000 		.4byte	.LLST4
 1709 05ac 18       		.uleb128 0x18
 1710 05ad 6A000000 		.4byte	.LBB2
 1711 05b1 70000000 		.4byte	.LBE2
 1712 05b5 C9050000 		.4byte	0x5c9
 1713 05b9 17       		.uleb128 0x17
 1714 05ba 746D7000 		.ascii	"tmp\000"
 1715 05be 01       		.byte	0x1
 1716 05bf 9A       		.byte	0x9a
 1717 05c0 70000000 		.4byte	0x70
 1718 05c4 EB000000 		.4byte	.LLST5
 1719 05c8 00       		.byte	0x0
 1720 05c9 18       		.uleb128 0x18
 1721 05ca 80000000 		.4byte	.LBB3
 1722 05ce 86000000 		.4byte	.LBE3
 1723 05d2 E6050000 		.4byte	0x5e6
 1724 05d6 17       		.uleb128 0x17
 1725 05d7 746D7000 		.ascii	"tmp\000"
 1726 05db 01       		.byte	0x1
 1727 05dc 9C       		.byte	0x9c
 1728 05dd 70000000 		.4byte	0x70
 1729 05e1 FE000000 		.4byte	.LLST6
 1730 05e5 00       		.byte	0x0
 1731 05e6 18       		.uleb128 0x18
 1732 05e7 2C010000 		.4byte	.LBB4
 1733 05eb 32010000 		.4byte	.LBE4
 1734 05ef 03060000 		.4byte	0x603
 1735 05f3 17       		.uleb128 0x17
 1736 05f4 746D7000 		.ascii	"tmp\000"
 1737 05f8 01       		.byte	0x1
 1738 05f9 B2       		.byte	0xb2
 1739 05fa 70000000 		.4byte	0x70
 1740 05fe 11010000 		.4byte	.LLST7
 1741 0602 00       		.byte	0x0
 1742 0603 19       		.uleb128 0x19
 1743 0604 40010000 		.4byte	.LBB5
 1744 0608 4C010000 		.4byte	.LBE5
ARM GAS  C:\Users\z80\AppData\Local\Temp\ccUW7U7p.s 			page 32


 1745 060c 17       		.uleb128 0x17
 1746 060d 746D7000 		.ascii	"tmp\000"
 1747 0611 01       		.byte	0x1
 1748 0612 B5       		.byte	0xb5
 1749 0613 70000000 		.4byte	0x70
 1750 0617 24010000 		.4byte	.LLST8
 1751 061b 00       		.byte	0x0
 1752 061c 00       		.byte	0x0
 1753 061d 15       		.uleb128 0x15
 1754 061e 0C010000 		.4byte	.LASF79
 1755 0622 01       		.byte	0x1
 1756 0623 69       		.byte	0x69
 1757 0624 01       		.byte	0x1
 1758 0625 00000000 		.4byte	.LFB9
 1759 0629 00010000 		.4byte	.LFE9
 1760 062d 42010000 		.4byte	.LLST9
 1761 0631 68060000 		.4byte	0x668
 1762 0635 1A       		.uleb128 0x1a
 1763 0636 00000000 		.4byte	.Ldebug_ranges0+0x0
 1764 063a 4E060000 		.4byte	0x64e
 1765 063e 17       		.uleb128 0x17
 1766 063f 746D7000 		.ascii	"tmp\000"
 1767 0643 01       		.byte	0x1
 1768 0644 70       		.byte	0x70
 1769 0645 70000000 		.4byte	0x70
 1770 0649 6E010000 		.4byte	.LLST10
 1771 064d 00       		.byte	0x0
 1772 064e 19       		.uleb128 0x19
 1773 064f DE000000 		.4byte	.LBB8
 1774 0653 E4000000 		.4byte	.LBE8
 1775 0657 17       		.uleb128 0x17
 1776 0658 746D7000 		.ascii	"tmp\000"
 1777 065c 01       		.byte	0x1
 1778 065d 72       		.byte	0x72
 1779 065e 70000000 		.4byte	0x70
 1780 0662 81010000 		.4byte	.LLST11
 1781 0666 00       		.byte	0x0
 1782 0667 00       		.byte	0x0
 1783 0668 1B       		.uleb128 0x1b
 1784 0669 9E000000 		.4byte	.LASF91
 1785 066d 01       		.byte	0x1
 1786 066e 4D       		.byte	0x4d
 1787 066f 01       		.byte	0x1
 1788 0670 00000000 		.4byte	.LFB8
 1789 0674 EA000000 		.4byte	.LFE8
 1790 0678 94010000 		.4byte	.LLST12
 1791 067c 1C       		.uleb128 0x1c
 1792 067d 2B020000 		.4byte	.LASF92
 1793 0681 01       		.byte	0x1
 1794 0682 47       		.byte	0x47
 1795 0683 01       		.byte	0x1
 1796 0684 BC000000 		.4byte	0xbc
 1797 0688 00000000 		.4byte	.LFB7
 1798 068c 0C000000 		.4byte	.LFE7
 1799 0690 C0010000 		.4byte	.LLST13
 1800 0694 A6060000 		.4byte	0x6a6
 1801 0698 1D       		.uleb128 0x1d
ARM GAS  C:\Users\z80\AppData\Local\Temp\ccUW7U7p.s 			page 33


 1802 0699 7000     		.ascii	"p\000"
 1803 069b 01       		.byte	0x1
 1804 069c 47       		.byte	0x47
 1805 069d 5F020000 		.4byte	0x25f
 1806 06a1 E0010000 		.4byte	.LLST14
 1807 06a5 00       		.byte	0x0
 1808 06a6 1E       		.uleb128 0x1e
 1809 06a7 1B000000 		.4byte	.LASF80
 1810 06ab 07       		.byte	0x7
 1811 06ac 7A       		.byte	0x7a
 1812 06ad E6030000 		.4byte	0x3e6
 1813 06b1 01       		.byte	0x1
 1814 06b2 01       		.byte	0x1
 1815 06b3 1E       		.uleb128 0x1e
 1816 06b4 2E030000 		.4byte	.LASF81
 1817 06b8 08       		.byte	0x8
 1818 06b9 72       		.byte	0x72
 1819 06ba 5C040000 		.4byte	0x45c
 1820 06be 01       		.byte	0x1
 1821 06bf 01       		.byte	0x1
 1822 06c0 1F       		.uleb128 0x1f
 1823 06c1 21020000 		.4byte	0x221
 1824 06c5 D0060000 		.4byte	0x6d0
 1825 06c9 20       		.uleb128 0x20
 1826 06ca 1C030000 		.4byte	0x31c
 1827 06ce 04       		.byte	0x4
 1828 06cf 00       		.byte	0x0
 1829 06d0 1E       		.uleb128 0x1e
 1830 06d1 64020000 		.4byte	.LASF82
 1831 06d5 0A       		.byte	0xa
 1832 06d6 B0       		.byte	0xb0
 1833 06d7 C0060000 		.4byte	0x6c0
 1834 06db 01       		.byte	0x1
 1835 06dc 01       		.byte	0x1
 1836 06dd 1F       		.uleb128 0x1f
 1837 06de 5F020000 		.4byte	0x25f
 1838 06e2 E8060000 		.4byte	0x6e8
 1839 06e6 21       		.uleb128 0x21
 1840 06e7 00       		.byte	0x0
 1841 06e8 22       		.uleb128 0x22
 1842 06e9 776100   		.ascii	"wa\000"
 1843 06ec 0A       		.byte	0xa
 1844 06ed B2       		.byte	0xb2
 1845 06ee F4060000 		.4byte	0x6f4
 1846 06f2 01       		.byte	0x1
 1847 06f3 01       		.byte	0x1
 1848 06f4 13       		.uleb128 0x13
 1849 06f5 DD060000 		.4byte	0x6dd
 1850 06f9 1E       		.uleb128 0x1e
 1851 06fa 58010000 		.4byte	.LASF83
 1852 06fe 01       		.byte	0x1
 1853 06ff 58       		.byte	0x58
 1854 0700 06070000 		.4byte	0x706
 1855 0704 01       		.byte	0x1
 1856 0705 01       		.byte	0x1
 1857 0706 13       		.uleb128 0x13
 1858 0707 02050000 		.4byte	0x502
ARM GAS  C:\Users\z80\AppData\Local\Temp\ccUW7U7p.s 			page 34


 1859 070b 1E       		.uleb128 0x1e
 1860 070c 61010000 		.4byte	.LASF84
 1861 0710 01       		.byte	0x1
 1862 0711 78       		.byte	0x78
 1863 0712 06070000 		.4byte	0x706
 1864 0716 01       		.byte	0x1
 1865 0717 01       		.byte	0x1
 1866 0718 1E       		.uleb128 0x1e
 1867 0719 6A010000 		.4byte	.LASF85
 1868 071d 01       		.byte	0x1
 1869 071e B9       		.byte	0xb9
 1870 071f 06070000 		.4byte	0x706
 1871 0723 01       		.byte	0x1
 1872 0724 01       		.byte	0x1
 1873 0725 1E       		.uleb128 0x1e
 1874 0726 73010000 		.4byte	.LASF86
 1875 072a 01       		.byte	0x1
 1876 072b E2       		.byte	0xe2
 1877 072c 06070000 		.4byte	0x706
 1878 0730 01       		.byte	0x1
 1879 0731 01       		.byte	0x1
 1880 0732 1E       		.uleb128 0x1e
 1881 0733 1B000000 		.4byte	.LASF80
 1882 0737 07       		.byte	0x7
 1883 0738 7A       		.byte	0x7a
 1884 0739 E6030000 		.4byte	0x3e6
 1885 073d 01       		.byte	0x1
 1886 073e 01       		.byte	0x1
 1887 073f 1E       		.uleb128 0x1e
 1888 0740 2E030000 		.4byte	.LASF81
 1889 0744 08       		.byte	0x8
 1890 0745 72       		.byte	0x72
 1891 0746 5C040000 		.4byte	0x45c
 1892 074a 01       		.byte	0x1
 1893 074b 01       		.byte	0x1
 1894 074c 1E       		.uleb128 0x1e
 1895 074d 64020000 		.4byte	.LASF82
 1896 0751 0A       		.byte	0xa
 1897 0752 B0       		.byte	0xb0
 1898 0753 C0060000 		.4byte	0x6c0
 1899 0757 01       		.byte	0x1
 1900 0758 01       		.byte	0x1
 1901 0759 22       		.uleb128 0x22
 1902 075a 776100   		.ascii	"wa\000"
 1903 075d 0A       		.byte	0xa
 1904 075e B2       		.byte	0xb2
 1905 075f 65070000 		.4byte	0x765
 1906 0763 01       		.byte	0x1
 1907 0764 01       		.byte	0x1
 1908 0765 13       		.uleb128 0x13
 1909 0766 DD060000 		.4byte	0x6dd
 1910 076a 23       		.uleb128 0x23
 1911 076b 58010000 		.4byte	.LASF83
 1912 076f 01       		.byte	0x1
 1913 0770 58       		.byte	0x58
 1914 0771 06070000 		.4byte	0x706
 1915 0775 01       		.byte	0x1
ARM GAS  C:\Users\z80\AppData\Local\Temp\ccUW7U7p.s 			page 35


 1916 0776 05       		.byte	0x5
 1917 0777 03       		.byte	0x3
 1918 0778 00000000 		.4byte	testthd1
 1919 077c 23       		.uleb128 0x23
 1920 077d 61010000 		.4byte	.LASF84
 1921 0781 01       		.byte	0x1
 1922 0782 78       		.byte	0x78
 1923 0783 06070000 		.4byte	0x706
 1924 0787 01       		.byte	0x1
 1925 0788 05       		.byte	0x5
 1926 0789 03       		.byte	0x3
 1927 078a 00000000 		.4byte	testthd2
 1928 078e 23       		.uleb128 0x23
 1929 078f 6A010000 		.4byte	.LASF85
 1930 0793 01       		.byte	0x1
 1931 0794 B9       		.byte	0xb9
 1932 0795 06070000 		.4byte	0x706
 1933 0799 01       		.byte	0x1
 1934 079a 05       		.byte	0x5
 1935 079b 03       		.byte	0x3
 1936 079c 00000000 		.4byte	testthd3
 1937 07a0 23       		.uleb128 0x23
 1938 07a1 73010000 		.4byte	.LASF86
 1939 07a5 01       		.byte	0x1
 1940 07a6 E2       		.byte	0xe2
 1941 07a7 06070000 		.4byte	0x706
 1942 07ab 01       		.byte	0x1
 1943 07ac 05       		.byte	0x5
 1944 07ad 03       		.byte	0x3
 1945 07ae 00000000 		.4byte	testthd4
 1946 07b2 1F       		.uleb128 0x1f
 1947 07b3 C2070000 		.4byte	0x7c2
 1948 07b7 C2070000 		.4byte	0x7c2
 1949 07bb 20       		.uleb128 0x20
 1950 07bc 1C030000 		.4byte	0x31c
 1951 07c0 04       		.byte	0x4
 1952 07c1 00       		.byte	0x0
 1953 07c2 09       		.uleb128 0x9
 1954 07c3 04       		.byte	0x4
 1955 07c4 06070000 		.4byte	0x706
 1956 07c8 23       		.uleb128 0x23
 1957 07c9 D4020000 		.4byte	.LASF87
 1958 07cd 01       		.byte	0x1
 1959 07ce EC       		.byte	0xec
 1960 07cf DA070000 		.4byte	0x7da
 1961 07d3 01       		.byte	0x1
 1962 07d4 05       		.byte	0x5
 1963 07d5 03       		.byte	0x3
 1964 07d6 00000000 		.4byte	patternthd
 1965 07da 13       		.uleb128 0x13
 1966 07db B2070000 		.4byte	0x7b2
 1967 07df 00       		.byte	0x0
 1968              		.section	.debug_abbrev
 1969 0000 01       		.uleb128 0x1
 1970 0001 11       		.uleb128 0x11
 1971 0002 01       		.byte	0x1
 1972 0003 25       		.uleb128 0x25
ARM GAS  C:\Users\z80\AppData\Local\Temp\ccUW7U7p.s 			page 36


 1973 0004 0E       		.uleb128 0xe
 1974 0005 13       		.uleb128 0x13
 1975 0006 0B       		.uleb128 0xb
 1976 0007 03       		.uleb128 0x3
 1977 0008 0E       		.uleb128 0xe
 1978 0009 1B       		.uleb128 0x1b
 1979 000a 0E       		.uleb128 0xe
 1980 000b 11       		.uleb128 0x11
 1981 000c 01       		.uleb128 0x1
 1982 000d 52       		.uleb128 0x52
 1983 000e 01       		.uleb128 0x1
 1984 000f 55       		.uleb128 0x55
 1985 0010 06       		.uleb128 0x6
 1986 0011 10       		.uleb128 0x10
 1987 0012 06       		.uleb128 0x6
 1988 0013 00       		.byte	0x0
 1989 0014 00       		.byte	0x0
 1990 0015 02       		.uleb128 0x2
 1991 0016 24       		.uleb128 0x24
 1992 0017 00       		.byte	0x0
 1993 0018 0B       		.uleb128 0xb
 1994 0019 0B       		.uleb128 0xb
 1995 001a 3E       		.uleb128 0x3e
 1996 001b 0B       		.uleb128 0xb
 1997 001c 03       		.uleb128 0x3
 1998 001d 08       		.uleb128 0x8
 1999 001e 00       		.byte	0x0
 2000 001f 00       		.byte	0x0
 2001 0020 03       		.uleb128 0x3
 2002 0021 24       		.uleb128 0x24
 2003 0022 00       		.byte	0x0
 2004 0023 0B       		.uleb128 0xb
 2005 0024 0B       		.uleb128 0xb
 2006 0025 3E       		.uleb128 0x3e
 2007 0026 0B       		.uleb128 0xb
 2008 0027 03       		.uleb128 0x3
 2009 0028 0E       		.uleb128 0xe
 2010 0029 00       		.byte	0x0
 2011 002a 00       		.byte	0x0
 2012 002b 04       		.uleb128 0x4
 2013 002c 16       		.uleb128 0x16
 2014 002d 00       		.byte	0x0
 2015 002e 03       		.uleb128 0x3
 2016 002f 0E       		.uleb128 0xe
 2017 0030 3A       		.uleb128 0x3a
 2018 0031 0B       		.uleb128 0xb
 2019 0032 3B       		.uleb128 0x3b
 2020 0033 0B       		.uleb128 0xb
 2021 0034 49       		.uleb128 0x49
 2022 0035 13       		.uleb128 0x13
 2023 0036 00       		.byte	0x0
 2024 0037 00       		.byte	0x0
 2025 0038 05       		.uleb128 0x5
 2026 0039 13       		.uleb128 0x13
 2027 003a 01       		.byte	0x1
 2028 003b 03       		.uleb128 0x3
 2029 003c 0E       		.uleb128 0xe
ARM GAS  C:\Users\z80\AppData\Local\Temp\ccUW7U7p.s 			page 37


 2030 003d 0B       		.uleb128 0xb
 2031 003e 0B       		.uleb128 0xb
 2032 003f 3A       		.uleb128 0x3a
 2033 0040 0B       		.uleb128 0xb
 2034 0041 3B       		.uleb128 0x3b
 2035 0042 0B       		.uleb128 0xb
 2036 0043 01       		.uleb128 0x1
 2037 0044 13       		.uleb128 0x13
 2038 0045 00       		.byte	0x0
 2039 0046 00       		.byte	0x0
 2040 0047 06       		.uleb128 0x6
 2041 0048 0D       		.uleb128 0xd
 2042 0049 00       		.byte	0x0
 2043 004a 03       		.uleb128 0x3
 2044 004b 0E       		.uleb128 0xe
 2045 004c 3A       		.uleb128 0x3a
 2046 004d 0B       		.uleb128 0xb
 2047 004e 3B       		.uleb128 0x3b
 2048 004f 0B       		.uleb128 0xb
 2049 0050 49       		.uleb128 0x49
 2050 0051 13       		.uleb128 0x13
 2051 0052 38       		.uleb128 0x38
 2052 0053 0A       		.uleb128 0xa
 2053 0054 00       		.byte	0x0
 2054 0055 00       		.byte	0x0
 2055 0056 07       		.uleb128 0x7
 2056 0057 0D       		.uleb128 0xd
 2057 0058 00       		.byte	0x0
 2058 0059 03       		.uleb128 0x3
 2059 005a 08       		.uleb128 0x8
 2060 005b 3A       		.uleb128 0x3a
 2061 005c 0B       		.uleb128 0xb
 2062 005d 3B       		.uleb128 0x3b
 2063 005e 0B       		.uleb128 0xb
 2064 005f 49       		.uleb128 0x49
 2065 0060 13       		.uleb128 0x13
 2066 0061 38       		.uleb128 0x38
 2067 0062 0A       		.uleb128 0xa
 2068 0063 00       		.byte	0x0
 2069 0064 00       		.byte	0x0
 2070 0065 08       		.uleb128 0x8
 2071 0066 13       		.uleb128 0x13
 2072 0067 01       		.byte	0x1
 2073 0068 0B       		.uleb128 0xb
 2074 0069 0B       		.uleb128 0xb
 2075 006a 3A       		.uleb128 0x3a
 2076 006b 0B       		.uleb128 0xb
 2077 006c 3B       		.uleb128 0x3b
 2078 006d 0B       		.uleb128 0xb
 2079 006e 01       		.uleb128 0x1
 2080 006f 13       		.uleb128 0x13
 2081 0070 00       		.byte	0x0
 2082 0071 00       		.byte	0x0
 2083 0072 09       		.uleb128 0x9
 2084 0073 0F       		.uleb128 0xf
 2085 0074 00       		.byte	0x0
 2086 0075 0B       		.uleb128 0xb
ARM GAS  C:\Users\z80\AppData\Local\Temp\ccUW7U7p.s 			page 38


 2087 0076 0B       		.uleb128 0xb
 2088 0077 49       		.uleb128 0x49
 2089 0078 13       		.uleb128 0x13
 2090 0079 00       		.byte	0x0
 2091 007a 00       		.byte	0x0
 2092 007b 0A       		.uleb128 0xa
 2093 007c 0F       		.uleb128 0xf
 2094 007d 00       		.byte	0x0
 2095 007e 0B       		.uleb128 0xb
 2096 007f 0B       		.uleb128 0xb
 2097 0080 00       		.byte	0x0
 2098 0081 00       		.byte	0x0
 2099 0082 0B       		.uleb128 0xb
 2100 0083 0D       		.uleb128 0xd
 2101 0084 00       		.byte	0x0
 2102 0085 03       		.uleb128 0x3
 2103 0086 08       		.uleb128 0x8
 2104 0087 3A       		.uleb128 0x3a
 2105 0088 0B       		.uleb128 0xb
 2106 0089 3B       		.uleb128 0x3b
 2107 008a 05       		.uleb128 0x5
 2108 008b 49       		.uleb128 0x49
 2109 008c 13       		.uleb128 0x13
 2110 008d 38       		.uleb128 0x38
 2111 008e 0A       		.uleb128 0xa
 2112 008f 00       		.byte	0x0
 2113 0090 00       		.byte	0x0
 2114 0091 0C       		.uleb128 0xc
 2115 0092 13       		.uleb128 0x13
 2116 0093 01       		.byte	0x1
 2117 0094 03       		.uleb128 0x3
 2118 0095 0E       		.uleb128 0xe
 2119 0096 0B       		.uleb128 0xb
 2120 0097 0B       		.uleb128 0xb
 2121 0098 3A       		.uleb128 0x3a
 2122 0099 0B       		.uleb128 0xb
 2123 009a 3B       		.uleb128 0x3b
 2124 009b 05       		.uleb128 0x5
 2125 009c 01       		.uleb128 0x1
 2126 009d 13       		.uleb128 0x13
 2127 009e 00       		.byte	0x0
 2128 009f 00       		.byte	0x0
 2129 00a0 0D       		.uleb128 0xd
 2130 00a1 24       		.uleb128 0x24
 2131 00a2 00       		.byte	0x0
 2132 00a3 0B       		.uleb128 0xb
 2133 00a4 0B       		.uleb128 0xb
 2134 00a5 3E       		.uleb128 0x3e
 2135 00a6 0B       		.uleb128 0xb
 2136 00a7 00       		.byte	0x0
 2137 00a8 00       		.byte	0x0
 2138 00a9 0E       		.uleb128 0xe
 2139 00aa 15       		.uleb128 0x15
 2140 00ab 01       		.byte	0x1
 2141 00ac 27       		.uleb128 0x27
 2142 00ad 0C       		.uleb128 0xc
 2143 00ae 01       		.uleb128 0x1
ARM GAS  C:\Users\z80\AppData\Local\Temp\ccUW7U7p.s 			page 39


 2144 00af 13       		.uleb128 0x13
 2145 00b0 00       		.byte	0x0
 2146 00b1 00       		.byte	0x0
 2147 00b2 0F       		.uleb128 0xf
 2148 00b3 05       		.uleb128 0x5
 2149 00b4 00       		.byte	0x0
 2150 00b5 49       		.uleb128 0x49
 2151 00b6 13       		.uleb128 0x13
 2152 00b7 00       		.byte	0x0
 2153 00b8 00       		.byte	0x0
 2154 00b9 10       		.uleb128 0x10
 2155 00ba 35       		.uleb128 0x35
 2156 00bb 00       		.byte	0x0
 2157 00bc 49       		.uleb128 0x49
 2158 00bd 13       		.uleb128 0x13
 2159 00be 00       		.byte	0x0
 2160 00bf 00       		.byte	0x0
 2161 00c0 11       		.uleb128 0x11
 2162 00c1 17       		.uleb128 0x17
 2163 00c2 01       		.byte	0x1
 2164 00c3 0B       		.uleb128 0xb
 2165 00c4 0B       		.uleb128 0xb
 2166 00c5 3A       		.uleb128 0x3a
 2167 00c6 0B       		.uleb128 0xb
 2168 00c7 3B       		.uleb128 0x3b
 2169 00c8 0B       		.uleb128 0xb
 2170 00c9 01       		.uleb128 0x1
 2171 00ca 13       		.uleb128 0x13
 2172 00cb 00       		.byte	0x0
 2173 00cc 00       		.byte	0x0
 2174 00cd 12       		.uleb128 0x12
 2175 00ce 0D       		.uleb128 0xd
 2176 00cf 00       		.byte	0x0
 2177 00d0 03       		.uleb128 0x3
 2178 00d1 0E       		.uleb128 0xe
 2179 00d2 3A       		.uleb128 0x3a
 2180 00d3 0B       		.uleb128 0xb
 2181 00d4 3B       		.uleb128 0x3b
 2182 00d5 0B       		.uleb128 0xb
 2183 00d6 49       		.uleb128 0x49
 2184 00d7 13       		.uleb128 0x13
 2185 00d8 00       		.byte	0x0
 2186 00d9 00       		.byte	0x0
 2187 00da 13       		.uleb128 0x13
 2188 00db 26       		.uleb128 0x26
 2189 00dc 00       		.byte	0x0
 2190 00dd 49       		.uleb128 0x49
 2191 00de 13       		.uleb128 0x13
 2192 00df 00       		.byte	0x0
 2193 00e0 00       		.byte	0x0
 2194 00e1 14       		.uleb128 0x14
 2195 00e2 15       		.uleb128 0x15
 2196 00e3 00       		.byte	0x0
 2197 00e4 27       		.uleb128 0x27
 2198 00e5 0C       		.uleb128 0xc
 2199 00e6 00       		.byte	0x0
 2200 00e7 00       		.byte	0x0
ARM GAS  C:\Users\z80\AppData\Local\Temp\ccUW7U7p.s 			page 40


 2201 00e8 15       		.uleb128 0x15
 2202 00e9 2E       		.uleb128 0x2e
 2203 00ea 01       		.byte	0x1
 2204 00eb 03       		.uleb128 0x3
 2205 00ec 0E       		.uleb128 0xe
 2206 00ed 3A       		.uleb128 0x3a
 2207 00ee 0B       		.uleb128 0xb
 2208 00ef 3B       		.uleb128 0x3b
 2209 00f0 0B       		.uleb128 0xb
 2210 00f1 27       		.uleb128 0x27
 2211 00f2 0C       		.uleb128 0xc
 2212 00f3 11       		.uleb128 0x11
 2213 00f4 01       		.uleb128 0x1
 2214 00f5 12       		.uleb128 0x12
 2215 00f6 01       		.uleb128 0x1
 2216 00f7 40       		.uleb128 0x40
 2217 00f8 06       		.uleb128 0x6
 2218 00f9 01       		.uleb128 0x1
 2219 00fa 13       		.uleb128 0x13
 2220 00fb 00       		.byte	0x0
 2221 00fc 00       		.byte	0x0
 2222 00fd 16       		.uleb128 0x16
 2223 00fe 34       		.uleb128 0x34
 2224 00ff 00       		.byte	0x0
 2225 0100 03       		.uleb128 0x3
 2226 0101 0E       		.uleb128 0xe
 2227 0102 3A       		.uleb128 0x3a
 2228 0103 0B       		.uleb128 0xb
 2229 0104 3B       		.uleb128 0x3b
 2230 0105 0B       		.uleb128 0xb
 2231 0106 49       		.uleb128 0x49
 2232 0107 13       		.uleb128 0x13
 2233 0108 02       		.uleb128 0x2
 2234 0109 06       		.uleb128 0x6
 2235 010a 00       		.byte	0x0
 2236 010b 00       		.byte	0x0
 2237 010c 17       		.uleb128 0x17
 2238 010d 34       		.uleb128 0x34
 2239 010e 00       		.byte	0x0
 2240 010f 03       		.uleb128 0x3
 2241 0110 08       		.uleb128 0x8
 2242 0111 3A       		.uleb128 0x3a
 2243 0112 0B       		.uleb128 0xb
 2244 0113 3B       		.uleb128 0x3b
 2245 0114 0B       		.uleb128 0xb
 2246 0115 49       		.uleb128 0x49
 2247 0116 13       		.uleb128 0x13
 2248 0117 02       		.uleb128 0x2
 2249 0118 06       		.uleb128 0x6
 2250 0119 00       		.byte	0x0
 2251 011a 00       		.byte	0x0
 2252 011b 18       		.uleb128 0x18
 2253 011c 0B       		.uleb128 0xb
 2254 011d 01       		.byte	0x1
 2255 011e 11       		.uleb128 0x11
 2256 011f 01       		.uleb128 0x1
 2257 0120 12       		.uleb128 0x12
ARM GAS  C:\Users\z80\AppData\Local\Temp\ccUW7U7p.s 			page 41


 2258 0121 01       		.uleb128 0x1
 2259 0122 01       		.uleb128 0x1
 2260 0123 13       		.uleb128 0x13
 2261 0124 00       		.byte	0x0
 2262 0125 00       		.byte	0x0
 2263 0126 19       		.uleb128 0x19
 2264 0127 0B       		.uleb128 0xb
 2265 0128 01       		.byte	0x1
 2266 0129 11       		.uleb128 0x11
 2267 012a 01       		.uleb128 0x1
 2268 012b 12       		.uleb128 0x12
 2269 012c 01       		.uleb128 0x1
 2270 012d 00       		.byte	0x0
 2271 012e 00       		.byte	0x0
 2272 012f 1A       		.uleb128 0x1a
 2273 0130 0B       		.uleb128 0xb
 2274 0131 01       		.byte	0x1
 2275 0132 55       		.uleb128 0x55
 2276 0133 06       		.uleb128 0x6
 2277 0134 01       		.uleb128 0x1
 2278 0135 13       		.uleb128 0x13
 2279 0136 00       		.byte	0x0
 2280 0137 00       		.byte	0x0
 2281 0138 1B       		.uleb128 0x1b
 2282 0139 2E       		.uleb128 0x2e
 2283 013a 00       		.byte	0x0
 2284 013b 03       		.uleb128 0x3
 2285 013c 0E       		.uleb128 0xe
 2286 013d 3A       		.uleb128 0x3a
 2287 013e 0B       		.uleb128 0xb
 2288 013f 3B       		.uleb128 0x3b
 2289 0140 0B       		.uleb128 0xb
 2290 0141 27       		.uleb128 0x27
 2291 0142 0C       		.uleb128 0xc
 2292 0143 11       		.uleb128 0x11
 2293 0144 01       		.uleb128 0x1
 2294 0145 12       		.uleb128 0x12
 2295 0146 01       		.uleb128 0x1
 2296 0147 40       		.uleb128 0x40
 2297 0148 06       		.uleb128 0x6
 2298 0149 00       		.byte	0x0
 2299 014a 00       		.byte	0x0
 2300 014b 1C       		.uleb128 0x1c
 2301 014c 2E       		.uleb128 0x2e
 2302 014d 01       		.byte	0x1
 2303 014e 03       		.uleb128 0x3
 2304 014f 0E       		.uleb128 0xe
 2305 0150 3A       		.uleb128 0x3a
 2306 0151 0B       		.uleb128 0xb
 2307 0152 3B       		.uleb128 0x3b
 2308 0153 0B       		.uleb128 0xb
 2309 0154 27       		.uleb128 0x27
 2310 0155 0C       		.uleb128 0xc
 2311 0156 49       		.uleb128 0x49
 2312 0157 13       		.uleb128 0x13
 2313 0158 11       		.uleb128 0x11
 2314 0159 01       		.uleb128 0x1
ARM GAS  C:\Users\z80\AppData\Local\Temp\ccUW7U7p.s 			page 42


 2315 015a 12       		.uleb128 0x12
 2316 015b 01       		.uleb128 0x1
 2317 015c 40       		.uleb128 0x40
 2318 015d 06       		.uleb128 0x6
 2319 015e 01       		.uleb128 0x1
 2320 015f 13       		.uleb128 0x13
 2321 0160 00       		.byte	0x0
 2322 0161 00       		.byte	0x0
 2323 0162 1D       		.uleb128 0x1d
 2324 0163 05       		.uleb128 0x5
 2325 0164 00       		.byte	0x0
 2326 0165 03       		.uleb128 0x3
 2327 0166 08       		.uleb128 0x8
 2328 0167 3A       		.uleb128 0x3a
 2329 0168 0B       		.uleb128 0xb
 2330 0169 3B       		.uleb128 0x3b
 2331 016a 0B       		.uleb128 0xb
 2332 016b 49       		.uleb128 0x49
 2333 016c 13       		.uleb128 0x13
 2334 016d 02       		.uleb128 0x2
 2335 016e 06       		.uleb128 0x6
 2336 016f 00       		.byte	0x0
 2337 0170 00       		.byte	0x0
 2338 0171 1E       		.uleb128 0x1e
 2339 0172 34       		.uleb128 0x34
 2340 0173 00       		.byte	0x0
 2341 0174 03       		.uleb128 0x3
 2342 0175 0E       		.uleb128 0xe
 2343 0176 3A       		.uleb128 0x3a
 2344 0177 0B       		.uleb128 0xb
 2345 0178 3B       		.uleb128 0x3b
 2346 0179 0B       		.uleb128 0xb
 2347 017a 49       		.uleb128 0x49
 2348 017b 13       		.uleb128 0x13
 2349 017c 3F       		.uleb128 0x3f
 2350 017d 0C       		.uleb128 0xc
 2351 017e 3C       		.uleb128 0x3c
 2352 017f 0C       		.uleb128 0xc
 2353 0180 00       		.byte	0x0
 2354 0181 00       		.byte	0x0
 2355 0182 1F       		.uleb128 0x1f
 2356 0183 01       		.uleb128 0x1
 2357 0184 01       		.byte	0x1
 2358 0185 49       		.uleb128 0x49
 2359 0186 13       		.uleb128 0x13
 2360 0187 01       		.uleb128 0x1
 2361 0188 13       		.uleb128 0x13
 2362 0189 00       		.byte	0x0
 2363 018a 00       		.byte	0x0
 2364 018b 20       		.uleb128 0x20
 2365 018c 21       		.uleb128 0x21
 2366 018d 00       		.byte	0x0
 2367 018e 49       		.uleb128 0x49
 2368 018f 13       		.uleb128 0x13
 2369 0190 2F       		.uleb128 0x2f
 2370 0191 0B       		.uleb128 0xb
 2371 0192 00       		.byte	0x0
ARM GAS  C:\Users\z80\AppData\Local\Temp\ccUW7U7p.s 			page 43


 2372 0193 00       		.byte	0x0
 2373 0194 21       		.uleb128 0x21
 2374 0195 21       		.uleb128 0x21
 2375 0196 00       		.byte	0x0
 2376 0197 00       		.byte	0x0
 2377 0198 00       		.byte	0x0
 2378 0199 22       		.uleb128 0x22
 2379 019a 34       		.uleb128 0x34
 2380 019b 00       		.byte	0x0
 2381 019c 03       		.uleb128 0x3
 2382 019d 08       		.uleb128 0x8
 2383 019e 3A       		.uleb128 0x3a
 2384 019f 0B       		.uleb128 0xb
 2385 01a0 3B       		.uleb128 0x3b
 2386 01a1 0B       		.uleb128 0xb
 2387 01a2 49       		.uleb128 0x49
 2388 01a3 13       		.uleb128 0x13
 2389 01a4 3F       		.uleb128 0x3f
 2390 01a5 0C       		.uleb128 0xc
 2391 01a6 3C       		.uleb128 0x3c
 2392 01a7 0C       		.uleb128 0xc
 2393 01a8 00       		.byte	0x0
 2394 01a9 00       		.byte	0x0
 2395 01aa 23       		.uleb128 0x23
 2396 01ab 34       		.uleb128 0x34
 2397 01ac 00       		.byte	0x0
 2398 01ad 03       		.uleb128 0x3
 2399 01ae 0E       		.uleb128 0xe
 2400 01af 3A       		.uleb128 0x3a
 2401 01b0 0B       		.uleb128 0xb
 2402 01b1 3B       		.uleb128 0x3b
 2403 01b2 0B       		.uleb128 0xb
 2404 01b3 49       		.uleb128 0x49
 2405 01b4 13       		.uleb128 0x13
 2406 01b5 3F       		.uleb128 0x3f
 2407 01b6 0C       		.uleb128 0xc
 2408 01b7 02       		.uleb128 0x2
 2409 01b8 0A       		.uleb128 0xa
 2410 01b9 00       		.byte	0x0
 2411 01ba 00       		.byte	0x0
 2412 01bb 00       		.byte	0x0
 2413              		.section	.debug_pubnames,"",%progbits
 2414 0000 51000000 		.4byte	0x51
 2415 0004 0200     		.2byte	0x2
 2416 0006 00000000 		.4byte	.Ldebug_info0
 2417 000a E0070000 		.4byte	0x7e0
 2418 000e 6A070000 		.4byte	0x76a
 2419 0012 74657374 		.ascii	"testthd1\000"
 2419      74686431 
 2419      00
 2420 001b 7C070000 		.4byte	0x77c
 2421 001f 74657374 		.ascii	"testthd2\000"
 2421      74686432 
 2421      00
 2422 0028 8E070000 		.4byte	0x78e
 2423 002c 74657374 		.ascii	"testthd3\000"
 2423      74686433 
ARM GAS  C:\Users\z80\AppData\Local\Temp\ccUW7U7p.s 			page 44


 2423      00
 2424 0035 A0070000 		.4byte	0x7a0
 2425 0039 74657374 		.ascii	"testthd4\000"
 2425      74686434 
 2425      00
 2426 0042 C8070000 		.4byte	0x7c8
 2427 0046 70617474 		.ascii	"patternthd\000"
 2427      65726E74 
 2427      686400
 2428 0051 00000000 		.4byte	0x0
 2429              		.section	.debug_pubtypes,"",%progbits
 2430 0000 6A010000 		.4byte	0x16a
 2431 0004 0200     		.2byte	0x2
 2432 0006 00000000 		.4byte	.Ldebug_info0
 2433 000a E0070000 		.4byte	0x7e0
 2434 000e 3E000000 		.4byte	0x3e
 2435 0012 75696E74 		.ascii	"uint8_t\000"
 2435      385F7400 
 2436 001a 5E000000 		.4byte	0x5e
 2437 001e 696E7433 		.ascii	"int32_t\000"
 2437      325F7400 
 2438 0026 70000000 		.4byte	0x70
 2439 002a 75696E74 		.ascii	"uint32_t\000"
 2439      33325F74 
 2439      00
 2440 0033 89000000 		.4byte	0x89
 2441 0037 75696E74 		.ascii	"uint64_t\000"
 2441      36345F74 
 2441      00
 2442 0040 9B000000 		.4byte	0x9b
 2443 0044 746D6F64 		.ascii	"tmode_t\000"
 2443      655F7400 
 2444 004c A6000000 		.4byte	0xa6
 2445 0050 74737461 		.ascii	"tstate_t\000"
 2445      74655F74 
 2445      00
 2446 0059 B1000000 		.4byte	0xb1
 2447 005d 74707269 		.ascii	"tprio_t\000"
 2447      6F5F7400 
 2448 0065 BC000000 		.4byte	0xbc
 2449 0069 6D73675F 		.ascii	"msg_t\000"
 2449      7400
 2450 006f C7000000 		.4byte	0xc7
 2451 0073 6576656E 		.ascii	"eventmask_t\000"
 2451      746D6173 
 2451      6B5F7400 
 2452 007f D2000000 		.4byte	0xd2
 2453 0083 73797374 		.ascii	"systime_t\000"
 2453      696D655F 
 2453      7400
 2454 008d DD000000 		.4byte	0xdd
 2455 0091 636E745F 		.ascii	"cnt_t\000"
 2455      7400
 2456 0097 E8000000 		.4byte	0xe8
 2457 009b 54687265 		.ascii	"Thread\000"
 2457      616400
 2458 00a2 27020000 		.4byte	0x227
ARM GAS  C:\Users\z80\AppData\Local\Temp\ccUW7U7p.s 			page 45


 2459 00a6 54687265 		.ascii	"ThreadsQueue\000"
 2459      61647351 
 2459      75657565 
 2459      00
 2460 00b3 49020000 		.4byte	0x249
 2461 00b7 54687265 		.ascii	"ThreadsList\000"
 2461      6164734C 
 2461      69737400 
 2462 00c3 54020000 		.4byte	0x254
 2463 00c7 72656761 		.ascii	"regarm_t\000"
 2463      726D5F74 
 2463      00
 2464 00d0 61020000 		.4byte	0x261
 2465 00d4 73746B61 		.ascii	"stkalign_t\000"
 2465      6C69676E 
 2465      5F7400
 2466 00df 6C020000 		.4byte	0x26c
 2467 00e3 696E7463 		.ascii	"intctx\000"
 2467      747800
 2468 00ea F9020000 		.4byte	0x2f9
 2469 00ee 636F6E74 		.ascii	"context\000"
 2469      65787400 
 2470 00f6 1F030000 		.4byte	0x31f
 2471 00fa 76746675 		.ascii	"vtfunc_t\000"
 2471      6E635F74 
 2471      00
 2472 0103 3C030000 		.4byte	0x33c
 2473 0107 56697274 		.ascii	"VirtualTimer\000"
 2473      75616C54 
 2473      696D6572 
 2473      00
 2474 0114 47030000 		.4byte	0x347
 2475 0118 56697274 		.ascii	"VirtualTimer\000"
 2475      75616C54 
 2475      696D6572 
 2475      00
 2476 0125 E6030000 		.4byte	0x3e6
 2477 0129 56544C69 		.ascii	"VTList\000"
 2477      737400
 2478 0130 5C040000 		.4byte	0x45c
 2479 0134 52656164 		.ascii	"ReadyList\000"
 2479      794C6973 
 2479      7400
 2480 013e 67040000 		.4byte	0x467
 2481 0142 4D757465 		.ascii	"Mutex\000"
 2481      7800
 2482 0148 A4040000 		.4byte	0x4a4
 2483 014c 4D757465 		.ascii	"Mutex\000"
 2483      7800
 2484 0152 F3000000 		.4byte	0xf3
 2485 0156 54687265 		.ascii	"Thread\000"
 2485      616400
 2486 015d 02050000 		.4byte	0x502
 2487 0161 74657374 		.ascii	"testcase\000"
 2487      63617365 
 2487      00
 2488 016a 00000000 		.4byte	0x0
ARM GAS  C:\Users\z80\AppData\Local\Temp\ccUW7U7p.s 			page 46


 2489              		.section	.debug_aranges,"",%progbits
 2490 0000 3C000000 		.4byte	0x3c
 2491 0004 0200     		.2byte	0x2
 2492 0006 00000000 		.4byte	.Ldebug_info0
 2493 000a 04       		.byte	0x4
 2494 000b 00       		.byte	0x0
 2495 000c 0000     		.2byte	0x0
 2496 000e 0000     		.2byte	0x0
 2497 0010 00000000 		.4byte	.LFB11
 2498 0014 74000000 		.4byte	.LFE11-.LFB11
 2499 0018 00000000 		.4byte	.LFB10
 2500 001c 4C010000 		.4byte	.LFE10-.LFB10
 2501 0020 00000000 		.4byte	.LFB9
 2502 0024 00010000 		.4byte	.LFE9-.LFB9
 2503 0028 00000000 		.4byte	.LFB8
 2504 002c EA000000 		.4byte	.LFE8-.LFB8
 2505 0030 00000000 		.4byte	.LFB7
 2506 0034 0C000000 		.4byte	.LFE7-.LFB7
 2507 0038 00000000 		.4byte	0x0
 2508 003c 00000000 		.4byte	0x0
 2509              		.section	.debug_ranges,"",%progbits
 2510              	.Ldebug_ranges0:
 2511 0000 AE000000 		.4byte	.LBB6
 2512 0004 B0000000 		.4byte	.LBE6
 2513 0008 B2000000 		.4byte	.LBB7
 2514 000c B6000000 		.4byte	.LBE7
 2515 0010 00000000 		.4byte	0x0
 2516 0014 00000000 		.4byte	0x0
 2517 0018 00000000 		.4byte	.LFB11
 2518 001c 74000000 		.4byte	.LFE11
 2519 0020 00000000 		.4byte	.LFB10
 2520 0024 4C010000 		.4byte	.LFE10
 2521 0028 00000000 		.4byte	.LFB9
 2522 002c 00010000 		.4byte	.LFE9
 2523 0030 00000000 		.4byte	.LFB8
 2524 0034 EA000000 		.4byte	.LFE8
 2525 0038 00000000 		.4byte	.LFB7
 2526 003c 0C000000 		.4byte	.LFE7
 2527 0040 00000000 		.4byte	0x0
 2528 0044 00000000 		.4byte	0x0
 2529              		.section	.debug_str,"MS",%progbits,1
 2530              	.LASF34:
 2531 0000 705F6D73 		.ascii	"p_msg\000"
 2531      6700
 2532              	.LASF78:
 2533 0006 7072696F 		.ascii	"prio\000"
 2533      00
 2534              	.LASF65:
 2535 000b 7264796D 		.ascii	"rdymsg\000"
 2535      736700
 2536              	.LASF11:
 2537 0012 75696E74 		.ascii	"uint64_t\000"
 2537      36345F74 
 2537      00
 2538              	.LASF80:
 2539 001b 76746C69 		.ascii	"vtlist\000"
 2539      737400
ARM GAS  C:\Users\z80\AppData\Local\Temp\ccUW7U7p.s 			page 47


 2540              	.LASF12:
 2541 0022 6C6F6E67 		.ascii	"long long unsigned int\000"
 2541      206C6F6E 
 2541      6720756E 
 2541      7369676E 
 2541      65642069 
 2542              	.LASF66:
 2543 0039 65786974 		.ascii	"exitcode\000"
 2543      636F6465 
 2543      00
 2544              	.LASF23:
 2545 0042 705F7072 		.ascii	"p_prio\000"
 2545      696F00
 2546              	.LASF10:
 2547 0049 6C6F6E67 		.ascii	"long long int\000"
 2547      206C6F6E 
 2547      6720696E 
 2547      7400
 2548              	.LASF1:
 2549 0057 7369676E 		.ascii	"signed char\000"
 2549      65642063 
 2549      68617200 
 2550              	.LASF62:
 2551 0063 6D5F7175 		.ascii	"m_queue\000"
 2551      65756500 
 2552              	.LASF7:
 2553 006b 6C6F6E67 		.ascii	"long int\000"
 2553      20696E74 
 2553      00
 2554              	.LASF14:
 2555 0074 74737461 		.ascii	"tstate_t\000"
 2555      74655F74 
 2555      00
 2556              	.LASF25:
 2557 007d 705F6E65 		.ascii	"p_newer\000"
 2557      77657200 
 2558              	.LASF56:
 2559 0085 725F6E65 		.ascii	"r_newer\000"
 2559      77657200 
 2560              	.LASF40:
 2561 008d 72656761 		.ascii	"regarm_t\000"
 2561      726D5F74 
 2561      00
 2562              	.LASF47:
 2563 0096 76745F70 		.ascii	"vt_prev\000"
 2563      72657600 
 2564              	.LASF91:
 2565 009e 74686431 		.ascii	"thd1_execute\000"
 2565      5F657865 
 2565      63757465 
 2565      00
 2566              	.LASF19:
 2567 00ab 636E745F 		.ascii	"cnt_t\000"
 2567      7400
 2568              	.LASF28:
 2569 00b1 705F7374 		.ascii	"p_stklimit\000"
 2569      6B6C696D 
ARM GAS  C:\Users\z80\AppData\Local\Temp\ccUW7U7p.s 			page 48


 2569      697400
 2570              	.LASF0:
 2571 00bc 756E7369 		.ascii	"unsigned int\000"
 2571      676E6564 
 2571      20696E74 
 2571      00
 2572              	.LASF46:
 2573 00c9 76745F6E 		.ascii	"vt_next\000"
 2573      65787400 
 2574              	.LASF9:
 2575 00d1 6C6F6E67 		.ascii	"long unsigned int\000"
 2575      20756E73 
 2575      69676E65 
 2575      6420696E 
 2575      7400
 2576              	.LASF73:
 2577 00e3 74656172 		.ascii	"teardown\000"
 2577      646F776E 
 2577      00
 2578              	.LASF71:
 2579 00ec 6E616D65 		.ascii	"name\000"
 2579      00
 2580              	.LASF43:
 2581 00f1 636F6E74 		.ascii	"context\000"
 2581      65787400 
 2582              	.LASF4:
 2583 00f9 73686F72 		.ascii	"short unsigned int\000"
 2583      7420756E 
 2583      7369676E 
 2583      65642069 
 2583      6E7400
 2584              	.LASF79:
 2585 010c 74686432 		.ascii	"thd2_execute\000"
 2585      5F657865 
 2585      63757465 
 2585      00
 2586              	.LASF16:
 2587 0119 6D73675F 		.ascii	"msg_t\000"
 2587      7400
 2588              	.LASF13:
 2589 011f 746D6F64 		.ascii	"tmode_t\000"
 2589      655F7400 
 2590              	.LASF39:
 2591 0127 54687265 		.ascii	"ThreadsList\000"
 2591      6164734C 
 2591      69737400 
 2592              	.LASF17:
 2593 0133 6576656E 		.ascii	"eventmask_t\000"
 2593      746D6173 
 2593      6B5F7400 
 2594              	.LASF61:
 2595 013f 4D757465 		.ascii	"Mutex\000"
 2595      7800
 2596              	.LASF41:
 2597 0145 73746B61 		.ascii	"stkalign_t\000"
 2597      6C69676E 
 2597      5F7400
ARM GAS  C:\Users\z80\AppData\Local\Temp\ccUW7U7p.s 			page 49


 2598              	.LASF48:
 2599 0150 76745F74 		.ascii	"vt_time\000"
 2599      696D6500 
 2600              	.LASF83:
 2601 0158 74657374 		.ascii	"testthd1\000"
 2601      74686431 
 2601      00
 2602              	.LASF84:
 2603 0161 74657374 		.ascii	"testthd2\000"
 2603      74686432 
 2603      00
 2604              	.LASF85:
 2605 016a 74657374 		.ascii	"testthd3\000"
 2605      74686433 
 2605      00
 2606              	.LASF86:
 2607 0173 74657374 		.ascii	"testthd4\000"
 2607      74686434 
 2607      00
 2608              	.LASF49:
 2609 017c 76745F66 		.ascii	"vt_func\000"
 2609      756E6300 
 2610              	.LASF26:
 2611 0184 705F6F6C 		.ascii	"p_older\000"
 2611      64657200 
 2612              	.LASF55:
 2613 018c 725F6374 		.ascii	"r_ctx\000"
 2613      7800
 2614              	.LASF38:
 2615 0192 54687265 		.ascii	"ThreadsQueue\000"
 2615      61647351 
 2615      75657565 
 2615      00
 2616              	.LASF72:
 2617 019f 73657475 		.ascii	"setup\000"
 2617      7000
 2618              	.LASF90:
 2619 01a5 433A5C70 		.ascii	"C:\\projects\\voltamper.git\\firmware\\voltamp\000"
 2619      726F6A65 
 2619      6374735C 
 2619      766F6C74 
 2619      616D7065 
 2620              	.LASF77:
 2621 01d0 74696D65 		.ascii	"time\000"
 2621      00
 2622              	.LASF59:
 2623 01d5 725F6375 		.ascii	"r_current\000"
 2623      7272656E 
 2623      7400
 2624              	.LASF57:
 2625 01df 725F6F6C 		.ascii	"r_older\000"
 2625      64657200 
 2626              	.LASF76:
 2627 01e7 74686433 		.ascii	"thd3_execute\000"
 2627      5F657865 
 2627      63757465 
 2627      00
ARM GAS  C:\Users\z80\AppData\Local\Temp\ccUW7U7p.s 			page 50


 2628              	.LASF89:
 2629 01f4 2E2E2F63 		.ascii	"../chibios_2.4.x/test/testthd.c\000"
 2629      68696269 
 2629      6F735F32 
 2629      2E342E78 
 2629      2F746573 
 2630              	.LASF22:
 2631 0214 705F7072 		.ascii	"p_prev\000"
 2631      657600
 2632              	.LASF74:
 2633 021b 65786563 		.ascii	"execute\000"
 2633      75746500 
 2634              	.LASF15:
 2635 0223 74707269 		.ascii	"tprio_t\000"
 2635      6F5F7400 
 2636              	.LASF92:
 2637 022b 74687265 		.ascii	"thread\000"
 2637      616400
 2638              	.LASF6:
 2639 0232 696E7433 		.ascii	"int32_t\000"
 2639      325F7400 
 2640              	.LASF2:
 2641 023a 756E7369 		.ascii	"unsigned char\000"
 2641      676E6564 
 2641      20636861 
 2641      7200
 2642              	.LASF36:
 2643 0248 705F6D74 		.ascii	"p_mtxlist\000"
 2643      786C6973 
 2643      7400
 2644              	.LASF3:
 2645 0252 73686F72 		.ascii	"short int\000"
 2645      7420696E 
 2645      7400
 2646              	.LASF29:
 2647 025c 705F7374 		.ascii	"p_state\000"
 2647      61746500 
 2648              	.LASF82:
 2649 0264 74687265 		.ascii	"threads\000"
 2649      61647300 
 2650              	.LASF54:
 2651 026c 725F7072 		.ascii	"r_prio\000"
 2651      696F00
 2652              	.LASF68:
 2653 0273 65776D61 		.ascii	"ewmask\000"
 2653      736B00
 2654              	.LASF21:
 2655 027a 705F6E65 		.ascii	"p_next\000"
 2655      787400
 2656              	.LASF30:
 2657 0281 705F666C 		.ascii	"p_flags\000"
 2657      61677300 
 2658              	.LASF20:
 2659 0289 54687265 		.ascii	"Thread\000"
 2659      616400
 2660              	.LASF70:
 2661 0290 74657374 		.ascii	"testcase\000"
ARM GAS  C:\Users\z80\AppData\Local\Temp\ccUW7U7p.s 			page 51


 2661      63617365 
 2661      00
 2662              	.LASF35:
 2663 0299 705F6570 		.ascii	"p_epending\000"
 2663      656E6469 
 2663      6E6700
 2664              	.LASF8:
 2665 02a4 75696E74 		.ascii	"uint32_t\000"
 2665      33325F74 
 2665      00
 2666              	.LASF53:
 2667 02ad 725F7175 		.ascii	"r_queue\000"
 2667      65756500 
 2668              	.LASF45:
 2669 02b5 56697274 		.ascii	"VirtualTimer\000"
 2669      75616C54 
 2669      696D6572 
 2669      00
 2670              	.LASF69:
 2671 02c2 63686172 		.ascii	"char\000"
 2671      00
 2672              	.LASF75:
 2673 02c7 74686434 		.ascii	"thd4_execute\000"
 2673      5F657865 
 2673      63757465 
 2673      00
 2674              	.LASF87:
 2675 02d4 70617474 		.ascii	"patternthd\000"
 2675      65726E74 
 2675      686400
 2676              	.LASF64:
 2677 02df 6D5F6E65 		.ascii	"m_next\000"
 2677      787400
 2678              	.LASF18:
 2679 02e6 73797374 		.ascii	"systime_t\000"
 2679      696D655F 
 2679      7400
 2680              	.LASF37:
 2681 02f0 705F7265 		.ascii	"p_realprio\000"
 2681      616C7072 
 2681      696F00
 2682              	.LASF44:
 2683 02fb 76746675 		.ascii	"vtfunc_t\000"
 2683      6E635F74 
 2683      00
 2684              	.LASF31:
 2685 0304 705F7469 		.ascii	"p_time\000"
 2685      6D6500
 2686              	.LASF42:
 2687 030b 696E7463 		.ascii	"intctx\000"
 2687      747800
 2688              	.LASF33:
 2689 0312 705F6D73 		.ascii	"p_msgqueue\000"
 2689      67717565 
 2689      756500
 2690              	.LASF50:
 2691 031d 76745F70 		.ascii	"vt_par\000"
ARM GAS  C:\Users\z80\AppData\Local\Temp\ccUW7U7p.s 			page 52


 2691      617200
 2692              	.LASF60:
 2693 0324 52656164 		.ascii	"ReadyList\000"
 2693      794C6973 
 2693      7400
 2694              	.LASF81:
 2695 032e 726C6973 		.ascii	"rlist\000"
 2695      7400
 2696              	.LASF5:
 2697 0334 75696E74 		.ascii	"uint8_t\000"
 2697      385F7400 
 2698              	.LASF88:
 2699 033c 474E5520 		.ascii	"GNU C 4.5.0\000"
 2699      4320342E 
 2699      352E3000 
 2700              	.LASF67:
 2701 0348 77746F62 		.ascii	"wtobjp\000"
 2701      6A7000
 2702              	.LASF27:
 2703 034f 705F6E61 		.ascii	"p_name\000"
 2703      6D6500
 2704              	.LASF51:
 2705 0356 76745F73 		.ascii	"vt_systime\000"
 2705      79737469 
 2705      6D6500
 2706              	.LASF52:
 2707 0361 56544C69 		.ascii	"VTList\000"
 2707      737400
 2708              	.LASF58:
 2709 0368 725F7072 		.ascii	"r_preempt\000"
 2709      65656D70 
 2709      7400
 2710              	.LASF63:
 2711 0372 6D5F6F77 		.ascii	"m_owner\000"
 2711      6E657200 
 2712              	.LASF24:
 2713 037a 705F6374 		.ascii	"p_ctx\000"
 2713      7800
 2714              	.LASF32:
 2715 0380 705F7761 		.ascii	"p_waiting\000"
 2715      6974696E 
 2715      6700
 2716              		.ident	"GCC: (GNU) 4.5.0"
ARM GAS  C:\Users\z80\AppData\Local\Temp\ccUW7U7p.s 			page 53


DEFINED SYMBOLS
                            *ABS*:00000000 testthd.c
C:\Users\z80\AppData\Local\Temp\ccUW7U7p.s:24     .text.thd4_execute:00000000 $t
C:\Users\z80\AppData\Local\Temp\ccUW7U7p.s:29     .text.thd4_execute:00000000 thd4_execute
C:\Users\z80\AppData\Local\Temp\ccUW7U7p.s:108    .text.thd4_execute:00000070 $d
C:\Users\z80\AppData\Local\Temp\ccUW7U7p.s:113    .text.thd3_execute:00000000 $t
C:\Users\z80\AppData\Local\Temp\ccUW7U7p.s:118    .text.thd3_execute:00000000 thd3_execute
C:\Users\z80\AppData\Local\Temp\ccUW7U7p.s:342    .text.thd3_execute:00000148 $d
C:\Users\z80\AppData\Local\Temp\ccUW7U7p.s:348    .text.thd2_execute:00000000 $t
C:\Users\z80\AppData\Local\Temp\ccUW7U7p.s:353    .text.thd2_execute:00000000 thd2_execute
C:\Users\z80\AppData\Local\Temp\ccUW7U7p.s:631    .text.thread:00000000 thread
C:\Users\z80\AppData\Local\Temp\ccUW7U7p.s:706    .rodata.str1.4:00000000 .LC0
C:\Users\z80\AppData\Local\Temp\ccUW7U7p.s:709    .rodata.str1.4:00000004 .LC1
C:\Users\z80\AppData\Local\Temp\ccUW7U7p.s:712    .rodata.str1.4:00000008 .LC2
C:\Users\z80\AppData\Local\Temp\ccUW7U7p.s:715    .rodata.str1.4:0000000c .LC3
C:\Users\z80\AppData\Local\Temp\ccUW7U7p.s:718    .rodata.str1.4:00000010 .LC4
C:\Users\z80\AppData\Local\Temp\ccUW7U7p.s:721    .rodata.str1.4:00000014 .LC5
C:\Users\z80\AppData\Local\Temp\ccUW7U7p.s:500    .text.thd1_execute:00000000 $t
C:\Users\z80\AppData\Local\Temp\ccUW7U7p.s:505    .text.thd1_execute:00000000 thd1_execute
C:\Users\z80\AppData\Local\Temp\ccUW7U7p.s:626    .text.thread:00000000 $t
C:\Users\z80\AppData\Local\Temp\ccUW7U7p.s:662    .rodata.testthd1:00000000 testthd1
C:\Users\z80\AppData\Local\Temp\ccUW7U7p.s:671    .rodata.testthd2:00000000 testthd2
C:\Users\z80\AppData\Local\Temp\ccUW7U7p.s:680    .rodata.testthd3:00000000 testthd3
C:\Users\z80\AppData\Local\Temp\ccUW7U7p.s:689    .rodata.testthd4:00000000 testthd4
C:\Users\z80\AppData\Local\Temp\ccUW7U7p.s:698    .rodata.patternthd:00000000 patternthd
C:\Users\z80\AppData\Local\Temp\ccUW7U7p.s:659    .rodata.testthd1:00000000 $d
C:\Users\z80\AppData\Local\Temp\ccUW7U7p.s:668    .rodata.testthd2:00000000 $d
C:\Users\z80\AppData\Local\Temp\ccUW7U7p.s:677    .rodata.testthd3:00000000 $d
C:\Users\z80\AppData\Local\Temp\ccUW7U7p.s:686    .rodata.testthd4:00000000 $d
C:\Users\z80\AppData\Local\Temp\ccUW7U7p.s:695    .rodata.patternthd:00000000 $d
C:\Users\z80\AppData\Local\Temp\ccUW7U7p.s:705    .rodata.str1.4:00000000 $d
                     .debug_frame:00000010 $d
C:\Users\z80\AppData\Local\Temp\ccUW7U7p.s:112    .text.thd4_execute:00000074 $t
C:\Users\z80\AppData\Local\Temp\ccUW7U7p.s:347    .text.thd3_execute:0000014c $t

UNDEFINED SYMBOLS
test_wait_tick
chThdSleep
_test_assert_time_window
chThdSleepUntil
vtlist
chThdSetPriority
_test_assert
dbg_check_lock
dbg_check_unlock
rlist
wa
chThdCreateStatic
threads
chThdCreateI
chThdResume
test_wait_threads
_test_assert_sequence
test_emit_token
