ARM GAS  C:\Users\z80\AppData\Local\Temp\ccHATwr0.s 			page 1


   1              		.syntax unified
   2              		.cpu cortex-m3
   3              		.fpu softvfp
   4              		.eabi_attribute 20, 1
   5              		.eabi_attribute 21, 1
   6              		.eabi_attribute 23, 3
   7              		.eabi_attribute 24, 1
   8              		.eabi_attribute 25, 1
   9              		.eabi_attribute 26, 1
  10              		.eabi_attribute 30, 2
  11              		.eabi_attribute 18, 4
  12              		.thumb
  13              		.file	"testmbox.c"
  14              		.section	.debug_abbrev,"",%progbits
  15              	.Ldebug_abbrev0:
  16              		.section	.debug_info,"",%progbits
  17              	.Ldebug_info0:
  18              		.section	.debug_line,"",%progbits
  19              	.Ldebug_line0:
  20 0000 7F020000 		.text
  20      02002E01 
  20      00000201 
  20      FB0E0D00 
  20      01010101 
  21              	.Ltext0:
  22              		.cfi_sections	.debug_frame
  23              		.section	.text.mbox1_execute,"ax",%progbits
  24              		.align	2
  25              		.p2align 4,,15
  26              		.thumb
  27              		.thumb_func
  28              		.type	mbox1_execute, %function
  29              	mbox1_execute:
  30              	.LFB8:
  31              		.file 1 "../chibios_2.4.x/test/testmbox.c"
  32              		.loc 1 87 0
  33              		.cfi_startproc
  34              		@ args = 0, pretend = 0, frame = 16
  35              		@ frame_needed = 0, uses_anonymous_args = 0
  36 0000 F0B5     		push	{r4, r5, r6, r7, lr}
  37              	.LCFI0:
  38              		.cfi_def_cfa_offset 20
  39              		.loc 1 94 0
  40 0002 DFF85857 		ldr	r5, .L40
  41              		.cfi_offset 14, -4
  42              		.cfi_offset 7, -8
  43              		.cfi_offset 6, -12
  44              		.cfi_offset 5, -16
  45              		.cfi_offset 4, -20
  46              		.loc 1 87 0
  47 0006 85B0     		sub	sp, sp, #20
  48              	.LCFI1:
  49              		.cfi_def_cfa_offset 40
  50              		.loc 1 94 0
  51 0008 696A     		ldr	r1, [r5, #36]
  52 000a 0120     		movs	r0, #1
  53 000c 0529     		cmp	r1, #5
ARM GAS  C:\Users\z80\AppData\Local\Temp\ccHATwr0.s 			page 2


  54 000e 14BF     		ite	ne
  55 0010 0021     		movne	r1, #0
  56 0012 0121     		moveq	r1, #1
  57 0014 FFF7FEFF 		bl	_test_assert
  58 0018 08BB     		cbnz	r0, .L1
  59 001a 4226     		movs	r6, #66
  60              	.L3:
  61              		.loc 1 100 0
  62 001c DFF83C47 		ldr	r4, .L40
  63 0020 3146     		mov	r1, r6
  64 0022 4FF0FF32 		mov	r2, #-1
  65 0026 2046     		mov	r0, r4
  66 0028 FFF7FEFF 		bl	chMBPost
  67              	.LVL0:
  68              		.loc 1 101 0
  69 002c D0F10101 		rsbs	r1, r0, #1
  70 0030 38BF     		it	cc
  71 0032 0021     		movcc	r1, #0
  72 0034 0220     		movs	r0, #2
  73              	.LVL1:
  74 0036 FFF7FEFF 		bl	_test_assert
  75 003a 0136     		adds	r6, r6, #1
  76 003c 78B9     		cbnz	r0, .L1
  77              		.loc 1 99 0
  78 003e 462E     		cmp	r6, #70
  79 0040 ECD1     		bne	.L3
  80              		.loc 1 103 0
  81 0042 4121     		movs	r1, #65
  82 0044 2046     		mov	r0, r4
  83 0046 4FF0FF32 		mov	r2, #-1
  84 004a FFF7FEFF 		bl	chMBPostAhead
  85              	.LVL2:
  86              		.loc 1 104 0
  87 004e D0F10101 		rsbs	r1, r0, #1
  88 0052 38BF     		it	cc
  89 0054 0021     		movcc	r1, #0
  90 0056 0320     		movs	r0, #3
  91              	.LVL3:
  92 0058 FFF7FEFF 		bl	_test_assert
  93 005c 08B1     		cbz	r0, .L26
  94              	.LVL4:
  95              	.L1:
  96              		.loc 1 231 0
  97 005e 05B0     		add	sp, sp, #20
  98 0060 F0BD     		pop	{r4, r5, r6, r7, pc}
  99              	.LVL5:
 100              	.L26:
 101              		.loc 1 109 0
 102 0062 5821     		movs	r1, #88
 103 0064 0122     		movs	r2, #1
 104 0066 2046     		mov	r0, r4
 105 0068 FFF7FEFF 		bl	chMBPost
 106              	.LVL6:
 107              		.loc 1 110 0
 108 006c B0F1FF3F 		cmp	r0, #-1
 109 0070 14BF     		ite	ne
 110 0072 0021     		movne	r1, #0
ARM GAS  C:\Users\z80\AppData\Local\Temp\ccHATwr0.s 			page 3


 111 0074 0121     		moveq	r1, #1
 112 0076 0420     		movs	r0, #4
 113              	.LVL7:
 114 0078 FFF7FEFF 		bl	_test_assert
 115 007c 0646     		mov	r6, r0
 116 007e 0028     		cmp	r0, #0
 117 0080 EDD1     		bne	.L1
 118              	.LBB2:
 119              		.loc 1 111 0
 120 0082 2023     		movs	r3, #32
 121              	.LVL8:
 122              	@ 111 "../chibios_2.4.x/test/testmbox.c" 1
 123 0084 83F31188 		msr     BASEPRI, r3
 124              	@ 0 "" 2
 125              	.LVL9:
 126              		.thumb
 127              	.LBE2:
 128 0088 FFF7FEFF 		bl	dbg_check_lock
 129              	.LVL10:
 130              		.loc 1 112 0
 131 008c 5821     		movs	r1, #88
 132 008e 2046     		mov	r0, r4
 133 0090 FFF7FEFF 		bl	chMBPostI
 134 0094 0746     		mov	r7, r0
 135              	.LVL11:
 136              		.loc 1 113 0
 137 0096 FFF7FEFF 		bl	dbg_check_unlock
 138              	.LVL12:
 139              	.LBB3:
 140 009a 3346     		mov	r3, r6
 141              	.LVL13:
 142              	@ 113 "../chibios_2.4.x/test/testmbox.c" 1
 143 009c 83F31188 		msr     BASEPRI, r3
 144              	@ 0 "" 2
 145              	.LVL14:
 146              		.thumb
 147              	.LBE3:
 148              		.loc 1 114 0
 149 00a0 0520     		movs	r0, #5
 150 00a2 B7F1FF3F 		cmp	r7, #-1
 151 00a6 14BF     		ite	ne
 152 00a8 0021     		movne	r1, #0
 153 00aa 0121     		moveq	r1, #1
 154 00ac FFF7FEFF 		bl	_test_assert
 155              	.LVL15:
 156 00b0 0028     		cmp	r0, #0
 157 00b2 D4D1     		bne	.L1
 158              		.loc 1 115 0
 159 00b4 5821     		movs	r1, #88
 160 00b6 0122     		movs	r2, #1
 161 00b8 2046     		mov	r0, r4
 162 00ba FFF7FEFF 		bl	chMBPostAhead
 163              	.LVL16:
 164              		.loc 1 116 0
 165 00be B0F1FF3F 		cmp	r0, #-1
 166 00c2 14BF     		ite	ne
 167 00c4 0021     		movne	r1, #0
ARM GAS  C:\Users\z80\AppData\Local\Temp\ccHATwr0.s 			page 4


 168 00c6 0121     		moveq	r1, #1
 169 00c8 0620     		movs	r0, #6
 170              	.LVL17:
 171 00ca FFF7FEFF 		bl	_test_assert
 172 00ce 0646     		mov	r6, r0
 173 00d0 0028     		cmp	r0, #0
 174 00d2 C4D1     		bne	.L1
 175              	.LBB4:
 176              		.loc 1 117 0
 177 00d4 2023     		movs	r3, #32
 178              	.LVL18:
 179              	@ 117 "../chibios_2.4.x/test/testmbox.c" 1
 180 00d6 83F31188 		msr     BASEPRI, r3
 181              	@ 0 "" 2
 182              	.LVL19:
 183              		.thumb
 184              	.LBE4:
 185 00da FFF7FEFF 		bl	dbg_check_lock
 186              	.LVL20:
 187              		.loc 1 118 0
 188 00de 5821     		movs	r1, #88
 189 00e0 2046     		mov	r0, r4
 190 00e2 FFF7FEFF 		bl	chMBPostAheadI
 191 00e6 0746     		mov	r7, r0
 192              	.LVL21:
 193              		.loc 1 119 0
 194 00e8 FFF7FEFF 		bl	dbg_check_unlock
 195              	.LVL22:
 196              	.LBB5:
 197 00ec 3346     		mov	r3, r6
 198              	.LVL23:
 199              	@ 119 "../chibios_2.4.x/test/testmbox.c" 1
 200 00ee 83F31188 		msr     BASEPRI, r3
 201              	@ 0 "" 2
 202              	.LVL24:
 203              		.thumb
 204              	.LBE5:
 205              		.loc 1 120 0
 206 00f2 0720     		movs	r0, #7
 207 00f4 B7F1FF3F 		cmp	r7, #-1
 208 00f8 14BF     		ite	ne
 209 00fa 0021     		movne	r1, #0
 210 00fc 0121     		moveq	r1, #1
 211 00fe FFF7FEFF 		bl	_test_assert
 212              	.LVL25:
 213 0102 0646     		mov	r6, r0
 214 0104 0028     		cmp	r0, #0
 215 0106 AAD1     		bne	.L1
 216              	.LBB6:
 217              		.loc 1 125 0
 218 0108 2023     		movs	r3, #32
 219              	.LVL26:
 220              	@ 125 "../chibios_2.4.x/test/testmbox.c" 1
 221 010a 83F31188 		msr     BASEPRI, r3
 222              	@ 0 "" 2
 223              	.LVL27:
 224              		.thumb
ARM GAS  C:\Users\z80\AppData\Local\Temp\ccHATwr0.s 			page 5


 225              	.LBE6:
 226 010e FFF7FEFF 		bl	dbg_check_lock
 227              	.LVL28:
 228 0112 616A     		ldr	r1, [r4, #36]
 229 0114 0820     		movs	r0, #8
 230 0116 D1F10101 		rsbs	r1, r1, #1
 231 011a 38BF     		it	cc
 232 011c 0021     		movcc	r1, #0
 233 011e FFF7FEFF 		bl	_test_assert
 234 0122 0746     		mov	r7, r0
 235              	.LVL29:
 236 0124 0028     		cmp	r0, #0
 237 0126 40F0CA82 		bne	.L27
 238              		.loc 1 125 0 is_stmt 0 discriminator 2
 239 012a FFF7FEFF 		bl	dbg_check_unlock
 240              	.LBB7:
 241 012e 3B46     		mov	r3, r7
 242              	.LVL30:
 243              	@ 125 "../chibios_2.4.x/test/testmbox.c" 1
 244 0130 83F31188 		msr     BASEPRI, r3
 245              	@ 0 "" 2
 246              	.LVL31:
 247              		.thumb
 248              	.LBE7:
 249              	.LBB8:
 250              		.loc 1 126 0 is_stmt 1 discriminator 2
 251 0134 2023     		movs	r3, #32
 252              	.LVL32:
 253              	@ 126 "../chibios_2.4.x/test/testmbox.c" 1
 254 0136 83F31188 		msr     BASEPRI, r3
 255              	@ 0 "" 2
 256              	.LVL33:
 257              		.thumb
 258              	.LBE8:
 259 013a FFF7FEFF 		bl	dbg_check_lock
 260              	.LVL34:
 261 013e A169     		ldr	r1, [r4, #24]
 262 0140 0920     		movs	r0, #9
 263 0142 0529     		cmp	r1, #5
 264 0144 14BF     		ite	ne
 265 0146 0021     		movne	r1, #0
 266 0148 0121     		moveq	r1, #1
 267 014a FFF7FEFF 		bl	_test_assert
 268 014e 0646     		mov	r6, r0
 269 0150 0028     		cmp	r0, #0
 270 0152 40F0BA82 		bne	.L28
 271 0156 FFF7FEFF 		bl	dbg_check_unlock
 272              	.LBB9:
 273 015a 3346     		mov	r3, r6
 274              	.LVL35:
 275              	@ 126 "../chibios_2.4.x/test/testmbox.c" 1
 276 015c 83F31188 		msr     BASEPRI, r3
 277              	@ 0 "" 2
 278              	.LVL36:
 279              		.thumb
 280              	.LBE9:
 281              	.LBB10:
ARM GAS  C:\Users\z80\AppData\Local\Temp\ccHATwr0.s 			page 6


 282              		.loc 1 127 0 discriminator 2
 283 0160 2023     		movs	r3, #32
 284              	.LVL37:
 285              	@ 127 "../chibios_2.4.x/test/testmbox.c" 1
 286 0162 83F31188 		msr     BASEPRI, r3
 287              	@ 0 "" 2
 288              	.LVL38:
 289              		.thumb
 290              	.LBE10:
 291 0166 FFF7FEFF 		bl	dbg_check_lock
 292              	.LVL39:
 293 016a E168     		ldr	r1, [r4, #12]
 294 016c A368     		ldr	r3, [r4, #8]
 295 016e 0A20     		movs	r0, #10
 296 0170 9942     		cmp	r1, r3
 297 0172 14BF     		ite	ne
 298 0174 0021     		movne	r1, #0
 299 0176 0121     		moveq	r1, #1
 300 0178 FFF7FEFF 		bl	_test_assert
 301 017c 0028     		cmp	r0, #0
 302 017e 40F0AA82 		bne	.L29
 303 0182 FFF7FEFF 		bl	dbg_check_unlock
 304              	.LBB11:
 305 0186 0023     		movs	r3, #0
 306              	.LVL40:
 307              	@ 127 "../chibios_2.4.x/test/testmbox.c" 1
 308 0188 83F31188 		msr     BASEPRI, r3
 309              	@ 0 "" 2
 310              	.LVL41:
 311              		.loc 1 132 0 discriminator 2
 312              		.thumb
 313 018c 1F46     		mov	r7, r3
 314 018e 03AE     		add	r6, sp, #12
 315              	.LVL42:
 316              	.L7:
 317              	.LBE11:
 318              		.loc 1 133 0
 319 0190 DFF8C845 		ldr	r4, .L40
 320 0194 3146     		mov	r1, r6
 321 0196 2046     		mov	r0, r4
 322 0198 4FF0FF32 		mov	r2, #-1
 323 019c FFF7FEFF 		bl	chMBFetch
 324              	.LVL43:
 325              		.loc 1 134 0
 326 01a0 D0F10101 		rsbs	r1, r0, #1
 327 01a4 38BF     		it	cc
 328 01a6 0021     		movcc	r1, #0
 329 01a8 0B20     		movs	r0, #11
 330              	.LVL44:
 331 01aa FFF7FEFF 		bl	_test_assert
 332 01ae 0028     		cmp	r0, #0
 333 01b0 7FF455AF 		bne	.L1
 334              	.LVL45:
 335              		.loc 1 135 0
 336 01b4 9DF80C00 		ldrb	r0, [sp, #12]	@ zero_extendqisi2
 337              		.loc 1 132 0
 338 01b8 0137     		adds	r7, r7, #1
ARM GAS  C:\Users\z80\AppData\Local\Temp\ccHATwr0.s 			page 7


 339              		.loc 1 135 0
 340 01ba FFF7FEFF 		bl	test_emit_token
 341              	.LVL46:
 342              		.loc 1 132 0
 343 01be 052F     		cmp	r7, #5
 344 01c0 E6D1     		bne	.L7
 345              		.loc 1 137 0
 346 01c2 0C20     		movs	r0, #12
 347 01c4 DFF89815 		ldr	r1, .L40+4
 348 01c8 FFF7FEFF 		bl	_test_assert_sequence
 349 01cc 0028     		cmp	r0, #0
 350 01ce 7FF446AF 		bne	.L1
 351              		.loc 1 142 0
 352 01d2 4721     		movs	r1, #71
 353 01d4 2046     		mov	r0, r4
 354 01d6 4FF0FF32 		mov	r2, #-1
 355 01da FFF7FEFF 		bl	chMBPost
 356              	.LVL47:
 357              		.loc 1 143 0
 358 01de D0F10101 		rsbs	r1, r0, #1
 359 01e2 38BF     		it	cc
 360 01e4 0021     		movcc	r1, #0
 361 01e6 0D20     		movs	r0, #13
 362              	.LVL48:
 363 01e8 FFF7FEFF 		bl	_test_assert
 364 01ec 0028     		cmp	r0, #0
 365 01ee 7FF436AF 		bne	.L1
 366              		.loc 1 144 0
 367 01f2 3146     		mov	r1, r6
 368 01f4 2046     		mov	r0, r4
 369 01f6 4FF0FF32 		mov	r2, #-1
 370 01fa FFF7FEFF 		bl	chMBFetch
 371              	.LVL49:
 372              		.loc 1 145 0
 373 01fe D0F10101 		rsbs	r1, r0, #1
 374 0202 38BF     		it	cc
 375 0204 0021     		movcc	r1, #0
 376 0206 0E20     		movs	r0, #14
 377              	.LVL50:
 378 0208 FFF7FEFF 		bl	_test_assert
 379 020c 0028     		cmp	r0, #0
 380 020e 7FF426AF 		bne	.L1
 381              		.loc 1 146 0
 382 0212 2168     		ldr	r1, [r4, #0]
 383 0214 A368     		ldr	r3, [r4, #8]
 384 0216 0F30     		adds	r0, r0, #15
 385 0218 9942     		cmp	r1, r3
 386 021a 14BF     		ite	ne
 387 021c 0021     		movne	r1, #0
 388 021e 0121     		moveq	r1, #1
 389 0220 FFF7FEFF 		bl	_test_assert
 390 0224 0028     		cmp	r0, #0
 391 0226 7FF41AAF 		bne	.L1
 392              		.loc 1 147 0
 393 022a 2168     		ldr	r1, [r4, #0]
 394 022c E368     		ldr	r3, [r4, #12]
 395 022e 1030     		adds	r0, r0, #16
ARM GAS  C:\Users\z80\AppData\Local\Temp\ccHATwr0.s 			page 8


 396 0230 9942     		cmp	r1, r3
 397 0232 14BF     		ite	ne
 398 0234 0021     		movne	r1, #0
 399 0236 0121     		moveq	r1, #1
 400 0238 FFF7FEFF 		bl	_test_assert
 401 023c 0028     		cmp	r0, #0
 402 023e 7FF40EAF 		bne	.L1
 403              		.loc 1 152 0
 404 0242 3146     		mov	r1, r6
 405 0244 0122     		movs	r2, #1
 406 0246 2046     		mov	r0, r4
 407 0248 FFF7FEFF 		bl	chMBFetch
 408              	.LVL51:
 409              		.loc 1 153 0
 410 024c B0F1FF3F 		cmp	r0, #-1
 411 0250 14BF     		ite	ne
 412 0252 0021     		movne	r1, #0
 413 0254 0121     		moveq	r1, #1
 414 0256 1120     		movs	r0, #17
 415              	.LVL52:
 416 0258 FFF7FEFF 		bl	_test_assert
 417 025c 0746     		mov	r7, r0
 418              	.LVL53:
 419 025e 0028     		cmp	r0, #0
 420 0260 7FF4FDAE 		bne	.L1
 421              	.LBB12:
 422              		.loc 1 154 0
 423 0264 2023     		movs	r3, #32
 424              	.LVL54:
 425              	@ 154 "../chibios_2.4.x/test/testmbox.c" 1
 426 0266 83F31188 		msr     BASEPRI, r3
 427              	@ 0 "" 2
 428              	.LVL55:
 429              		.thumb
 430              	.LBE12:
 431 026a FFF7FEFF 		bl	dbg_check_lock
 432              	.LVL56:
 433              		.loc 1 155 0
 434 026e 3146     		mov	r1, r6
 435 0270 2046     		mov	r0, r4
 436 0272 FFF7FEFF 		bl	chMBFetchI
 437              	.LVL57:
 438              		.loc 1 156 0
 439 0276 0190     		str	r0, [sp, #4]
 440 0278 FFF7FEFF 		bl	dbg_check_unlock
 441              	.LVL58:
 442              	.LBB13:
 443 027c 3B46     		mov	r3, r7
 444              	.LVL59:
 445              	@ 156 "../chibios_2.4.x/test/testmbox.c" 1
 446 027e 83F31188 		msr     BASEPRI, r3
 447              	@ 0 "" 2
 448              	.LVL60:
 449              		.thumb
 450              	.LBE13:
 451              		.loc 1 157 0
 452 0282 0198     		ldr	r0, [sp, #4]
ARM GAS  C:\Users\z80\AppData\Local\Temp\ccHATwr0.s 			page 9


 453 0284 B0F1FF3F 		cmp	r0, #-1
 454 0288 14BF     		ite	ne
 455 028a 0021     		movne	r1, #0
 456 028c 0121     		moveq	r1, #1
 457 028e 1220     		movs	r0, #18
 458 0290 FFF7FEFF 		bl	_test_assert
 459              	.LVL61:
 460 0294 0028     		cmp	r0, #0
 461 0296 7FF4E2AE 		bne	.L1
 462              	.LBB14:
 463              		.loc 1 162 0
 464 029a 2023     		movs	r3, #32
 465              	.LVL62:
 466              	@ 162 "../chibios_2.4.x/test/testmbox.c" 1
 467 029c 83F31188 		msr     BASEPRI, r3
 468              	@ 0 "" 2
 469              	.LVL63:
 470              		.thumb
 471              	.LBE14:
 472 02a0 FFF7FEFF 		bl	dbg_check_lock
 473              	.LVL64:
 474 02a4 616A     		ldr	r1, [r4, #36]
 475 02a6 1320     		movs	r0, #19
 476 02a8 0529     		cmp	r1, #5
 477 02aa 14BF     		ite	ne
 478 02ac 0021     		movne	r1, #0
 479 02ae 0121     		moveq	r1, #1
 480 02b0 FFF7FEFF 		bl	_test_assert
 481 02b4 0028     		cmp	r0, #0
 482 02b6 40F02682 		bne	.L30
 483              		.loc 1 162 0 is_stmt 0 discriminator 2
 484 02ba FFF7FEFF 		bl	dbg_check_unlock
 485              	.LBB15:
 486 02be 0023     		movs	r3, #0
 487              	.LVL65:
 488              	@ 162 "../chibios_2.4.x/test/testmbox.c" 1
 489 02c0 83F31188 		msr     BASEPRI, r3
 490              	@ 0 "" 2
 491              	.LVL66:
 492              		.thumb
 493              	.LBE15:
 494              	.LBB16:
 495              		.loc 1 163 0 is_stmt 1 discriminator 2
 496 02c4 2033     		adds	r3, r3, #32
 497              	.LVL67:
 498              	@ 163 "../chibios_2.4.x/test/testmbox.c" 1
 499 02c6 83F31188 		msr     BASEPRI, r3
 500              	@ 0 "" 2
 501              		.thumb
 502              	.LBE16:
 503 02ca FFF7FEFF 		bl	dbg_check_lock
 504              	.LVL68:
 505 02ce A969     		ldr	r1, [r5, #24]
 506 02d0 1420     		movs	r0, #20
 507 02d2 D1F10101 		rsbs	r1, r1, #1
 508 02d6 38BF     		it	cc
 509 02d8 0021     		movcc	r1, #0
ARM GAS  C:\Users\z80\AppData\Local\Temp\ccHATwr0.s 			page 10


 510 02da FFF7FEFF 		bl	_test_assert
 511 02de DFF87C44 		ldr	r4, .L40
 512 02e2 0546     		mov	r5, r0
 513 02e4 0028     		cmp	r0, #0
 514 02e6 40F00882 		bne	.L31
 515 02ea FFF7FEFF 		bl	dbg_check_unlock
 516              	.LBB17:
 517 02ee 2B46     		mov	r3, r5
 518              	.LVL69:
 519              	@ 163 "../chibios_2.4.x/test/testmbox.c" 1
 520 02f0 83F31188 		msr     BASEPRI, r3
 521              	@ 0 "" 2
 522              	.LVL70:
 523              		.thumb
 524              	.LBE17:
 525              	.LBB18:
 526              		.loc 1 164 0 discriminator 2
 527 02f4 2023     		movs	r3, #32
 528              	.LVL71:
 529              	@ 164 "../chibios_2.4.x/test/testmbox.c" 1
 530 02f6 83F31188 		msr     BASEPRI, r3
 531              	@ 0 "" 2
 532              	.LVL72:
 533              		.thumb
 534              	.LBE18:
 535 02fa FFF7FEFF 		bl	dbg_check_lock
 536              	.LVL73:
 537 02fe E168     		ldr	r1, [r4, #12]
 538 0300 A368     		ldr	r3, [r4, #8]
 539 0302 1520     		movs	r0, #21
 540 0304 9942     		cmp	r1, r3
 541 0306 14BF     		ite	ne
 542 0308 0021     		movne	r1, #0
 543 030a 0121     		moveq	r1, #1
 544 030c FFF7FEFF 		bl	_test_assert
 545 0310 0746     		mov	r7, r0
 546 0312 0028     		cmp	r0, #0
 547 0314 40F0E581 		bne	.L32
 548 0318 FFF7FEFF 		bl	dbg_check_unlock
 549              	.LBB19:
 550 031c 3B46     		mov	r3, r7
 551              	.LVL74:
 552              	@ 164 "../chibios_2.4.x/test/testmbox.c" 1
 553 031e 83F31188 		msr     BASEPRI, r3
 554              	@ 0 "" 2
 555              	.LVL75:
 556              		.thumb
 557              	.LBE19:
 558              	.LBB20:
 559              		.loc 1 169 0 discriminator 2
 560 0322 2023     		movs	r3, #32
 561              	.LVL76:
 562              	@ 169 "../chibios_2.4.x/test/testmbox.c" 1
 563 0324 83F31188 		msr     BASEPRI, r3
 564              	@ 0 "" 2
 565              	.LVL77:
 566              		.thumb
ARM GAS  C:\Users\z80\AppData\Local\Temp\ccHATwr0.s 			page 11


 567              	.LBE20:
 568 0328 FFF7FEFF 		bl	dbg_check_lock
 569              	.LVL78:
 570              		.loc 1 170 0 discriminator 2
 571 032c 4121     		movs	r1, #65
 572 032e 2046     		mov	r0, r4
 573 0330 FFF7FEFF 		bl	chMBPostI
 574              	.LVL79:
 575              		.loc 1 171 0 discriminator 2
 576 0334 D0F10101 		rsbs	r1, r0, #1
 577 0338 38BF     		it	cc
 578 033a 0021     		movcc	r1, #0
 579 033c 1620     		movs	r0, #22
 580              	.LVL80:
 581 033e FFF7FEFF 		bl	_test_assert
 582 0342 0028     		cmp	r0, #0
 583 0344 7FF48BAE 		bne	.L1
 584              		.loc 1 172 0
 585 0348 4221     		movs	r1, #66
 586 034a 2046     		mov	r0, r4
 587 034c FFF7FEFF 		bl	chMBPostI
 588              	.LVL81:
 589              		.loc 1 173 0
 590 0350 D0F10101 		rsbs	r1, r0, #1
 591 0354 38BF     		it	cc
 592 0356 0021     		movcc	r1, #0
 593 0358 1720     		movs	r0, #23
 594              	.LVL82:
 595 035a FFF7FEFF 		bl	_test_assert
 596 035e 0028     		cmp	r0, #0
 597 0360 7FF47DAE 		bne	.L1
 598              		.loc 1 174 0
 599 0364 4321     		movs	r1, #67
 600 0366 2046     		mov	r0, r4
 601 0368 FFF7FEFF 		bl	chMBPostI
 602              	.LVL83:
 603              		.loc 1 175 0
 604 036c D0F10101 		rsbs	r1, r0, #1
 605 0370 38BF     		it	cc
 606 0372 0021     		movcc	r1, #0
 607 0374 1820     		movs	r0, #24
 608              	.LVL84:
 609 0376 FFF7FEFF 		bl	_test_assert
 610 037a 0028     		cmp	r0, #0
 611 037c 7FF46FAE 		bne	.L1
 612              		.loc 1 176 0
 613 0380 4421     		movs	r1, #68
 614 0382 2046     		mov	r0, r4
 615 0384 FFF7FEFF 		bl	chMBPostI
 616              	.LVL85:
 617              		.loc 1 177 0
 618 0388 D0F10101 		rsbs	r1, r0, #1
 619 038c 38BF     		it	cc
 620 038e 0021     		movcc	r1, #0
 621 0390 1920     		movs	r0, #25
 622              	.LVL86:
 623 0392 FFF7FEFF 		bl	_test_assert
ARM GAS  C:\Users\z80\AppData\Local\Temp\ccHATwr0.s 			page 12


 624 0396 0546     		mov	r5, r0
 625 0398 0028     		cmp	r0, #0
 626 039a 7FF460AE 		bne	.L1
 627              		.loc 1 178 0
 628 039e 4521     		movs	r1, #69
 629 03a0 2046     		mov	r0, r4
 630 03a2 FFF7FEFF 		bl	chMBPostI
 631 03a6 0746     		mov	r7, r0
 632              	.LVL87:
 633              		.loc 1 179 0
 634 03a8 FFF7FEFF 		bl	dbg_check_unlock
 635              	.LVL88:
 636              	.LBB21:
 637 03ac 2B46     		mov	r3, r5
 638              	.LVL89:
 639              	@ 179 "../chibios_2.4.x/test/testmbox.c" 1
 640 03ae 83F31188 		msr     BASEPRI, r3
 641              	@ 0 "" 2
 642              	.LVL90:
 643              		.thumb
 644              	.LBE21:
 645              		.loc 1 180 0
 646 03b2 1A20     		movs	r0, #26
 647 03b4 D7F10101 		rsbs	r1, r7, #1
 648 03b8 38BF     		it	cc
 649 03ba 0021     		movcc	r1, #0
 650 03bc FFF7FEFF 		bl	_test_assert
 651              	.LVL91:
 652 03c0 0028     		cmp	r0, #0
 653 03c2 7FF44CAE 		bne	.L1
 654              		.loc 1 181 0
 655 03c6 E168     		ldr	r1, [r4, #12]
 656 03c8 A368     		ldr	r3, [r4, #8]
 657 03ca 1B30     		adds	r0, r0, #27
 658 03cc 9942     		cmp	r1, r3
 659 03ce 14BF     		ite	ne
 660 03d0 0021     		movne	r1, #0
 661 03d2 0121     		moveq	r1, #1
 662 03d4 FFF7FEFF 		bl	_test_assert
 663 03d8 0028     		cmp	r0, #0
 664 03da 7FF440AE 		bne	.L1
 665 03de 0535     		adds	r5, r5, #5
 666              	.L11:
 667              	.LBB22:
 668              		.loc 1 183 0
 669 03e0 2023     		movs	r3, #32
 670              	.LVL92:
 671              	@ 183 "../chibios_2.4.x/test/testmbox.c" 1
 672 03e2 83F31188 		msr     BASEPRI, r3
 673              	@ 0 "" 2
 674              	.LVL93:
 675              		.thumb
 676              	.LBE22:
 677              		.loc 1 184 0
 678 03e6 DD4C     		ldr	r4, .L40
 679              		.loc 1 183 0
 680 03e8 FFF7FEFF 		bl	dbg_check_lock
ARM GAS  C:\Users\z80\AppData\Local\Temp\ccHATwr0.s 			page 13


 681              	.LVL94:
 682              		.loc 1 184 0
 683 03ec 3146     		mov	r1, r6
 684 03ee 2046     		mov	r0, r4
 685 03f0 FFF7FEFF 		bl	chMBFetchI
 686 03f4 0746     		mov	r7, r0
 687              	.LVL95:
 688              		.loc 1 185 0
 689 03f6 FFF7FEFF 		bl	dbg_check_unlock
 690              	.LVL96:
 691              	.LBB23:
 692 03fa 0023     		movs	r3, #0
 693              	.LVL97:
 694              	@ 185 "../chibios_2.4.x/test/testmbox.c" 1
 695 03fc 83F31188 		msr     BASEPRI, r3
 696              	@ 0 "" 2
 697              	.LVL98:
 698              		.thumb
 699              	.LBE23:
 700              		.loc 1 186 0
 701 0400 1C20     		movs	r0, #28
 702 0402 9F42     		cmp	r7, r3
 703 0404 14BF     		ite	ne
 704 0406 0021     		movne	r1, #0
 705 0408 0121     		moveq	r1, #1
 706              	.LVL99:
 707 040a FFF7FEFF 		bl	_test_assert
 708 040e 0028     		cmp	r0, #0
 709 0410 7FF425AE 		bne	.L1
 710              		.loc 1 187 0
 711 0414 9DF80C00 		ldrb	r0, [sp, #12]	@ zero_extendqisi2
 712 0418 FFF7FEFF 		bl	test_emit_token
 713              		.loc 1 182 0
 714 041c 15F1FF35 		adds	r5, r5, #-1
 715 0420 DED1     		bne	.L11
 716              		.loc 1 189 0
 717 0422 1D20     		movs	r0, #29
 718 0424 CE49     		ldr	r1, .L40+4
 719 0426 FFF7FEFF 		bl	_test_assert_sequence
 720 042a 0028     		cmp	r0, #0
 721 042c 7FF417AE 		bne	.L1
 722              	.LBB24:
 723              		.loc 1 190 0
 724 0430 2023     		movs	r3, #32
 725              	.LVL100:
 726              	@ 190 "../chibios_2.4.x/test/testmbox.c" 1
 727 0432 83F31188 		msr     BASEPRI, r3
 728              	@ 0 "" 2
 729              	.LVL101:
 730              		.thumb
 731              	.LBE24:
 732 0436 FFF7FEFF 		bl	dbg_check_lock
 733              	.LVL102:
 734 043a 616A     		ldr	r1, [r4, #36]
 735 043c 1E20     		movs	r0, #30
 736 043e 0529     		cmp	r1, #5
 737 0440 14BF     		ite	ne
ARM GAS  C:\Users\z80\AppData\Local\Temp\ccHATwr0.s 			page 14


 738 0442 0021     		movne	r1, #0
 739 0444 0121     		moveq	r1, #1
 740 0446 FFF7FEFF 		bl	_test_assert
 741 044a 0028     		cmp	r0, #0
 742 044c 40F06181 		bne	.L33
 743              		.loc 1 190 0 is_stmt 0 discriminator 2
 744 0450 FFF7FEFF 		bl	dbg_check_unlock
 745              	.LBB25:
 746 0454 2B46     		mov	r3, r5
 747              	.LVL103:
 748              	@ 190 "../chibios_2.4.x/test/testmbox.c" 1
 749 0456 83F31188 		msr     BASEPRI, r3
 750              	@ 0 "" 2
 751              	.LVL104:
 752              		.thumb
 753              	.LBE25:
 754              	.LBB26:
 755              		.loc 1 191 0 is_stmt 1 discriminator 2
 756 045a 2023     		movs	r3, #32
 757              	.LVL105:
 758              	@ 191 "../chibios_2.4.x/test/testmbox.c" 1
 759 045c 83F31188 		msr     BASEPRI, r3
 760              	@ 0 "" 2
 761              	.LVL106:
 762              		.thumb
 763              	.LBE26:
 764 0460 FFF7FEFF 		bl	dbg_check_lock
 765              	.LVL107:
 766 0464 A169     		ldr	r1, [r4, #24]
 767 0466 1F20     		movs	r0, #31
 768 0468 D1F10101 		rsbs	r1, r1, #1
 769 046c 38BF     		it	cc
 770 046e 0021     		movcc	r1, #0
 771 0470 FFF7FEFF 		bl	_test_assert
 772 0474 0028     		cmp	r0, #0
 773 0476 40F03A81 		bne	.L34
 774 047a FFF7FEFF 		bl	dbg_check_unlock
 775              	.LBB27:
 776 047e 2B46     		mov	r3, r5
 777              	.LVL108:
 778              	@ 191 "../chibios_2.4.x/test/testmbox.c" 1
 779 0480 83F31188 		msr     BASEPRI, r3
 780              	@ 0 "" 2
 781              	.LVL109:
 782              		.thumb
 783              	.LBE27:
 784              		.loc 1 192 0 discriminator 2
 785 0484 E168     		ldr	r1, [r4, #12]
 786 0486 A368     		ldr	r3, [r4, #8]
 787              	.LVL110:
 788 0488 2020     		movs	r0, #32
 789 048a 9942     		cmp	r1, r3
 790 048c 14BF     		ite	ne
 791 048e 0021     		movne	r1, #0
 792 0490 0121     		moveq	r1, #1
 793 0492 FFF7FEFF 		bl	_test_assert
 794 0496 0028     		cmp	r0, #0
ARM GAS  C:\Users\z80\AppData\Local\Temp\ccHATwr0.s 			page 15


 795 0498 7FF4E1AD 		bne	.L1
 796              	.LBB28:
 797              		.loc 1 194 0
 798 049c 2023     		movs	r3, #32
 799              	.LVL111:
 800              	@ 194 "../chibios_2.4.x/test/testmbox.c" 1
 801 049e 83F31188 		msr     BASEPRI, r3
 802              	@ 0 "" 2
 803              	.LVL112:
 804              		.thumb
 805              	.LBE28:
 806 04a2 FFF7FEFF 		bl	dbg_check_lock
 807              	.LVL113:
 808              		.loc 1 195 0
 809 04a6 4521     		movs	r1, #69
 810 04a8 2046     		mov	r0, r4
 811 04aa FFF7FEFF 		bl	chMBPostAheadI
 812              	.LVL114:
 813              		.loc 1 196 0
 814 04ae D0F10101 		rsbs	r1, r0, #1
 815 04b2 38BF     		it	cc
 816 04b4 0021     		movcc	r1, #0
 817 04b6 2120     		movs	r0, #33
 818              	.LVL115:
 819 04b8 FFF7FEFF 		bl	_test_assert
 820 04bc 0028     		cmp	r0, #0
 821 04be 7FF4CEAD 		bne	.L1
 822              		.loc 1 197 0
 823 04c2 4421     		movs	r1, #68
 824 04c4 2046     		mov	r0, r4
 825 04c6 FFF7FEFF 		bl	chMBPostAheadI
 826              	.LVL116:
 827              		.loc 1 198 0
 828 04ca D0F10101 		rsbs	r1, r0, #1
 829 04ce 38BF     		it	cc
 830 04d0 0021     		movcc	r1, #0
 831 04d2 2220     		movs	r0, #34
 832              	.LVL117:
 833 04d4 FFF7FEFF 		bl	_test_assert
 834 04d8 0028     		cmp	r0, #0
 835 04da 7FF4C0AD 		bne	.L1
 836              		.loc 1 199 0
 837 04de 4321     		movs	r1, #67
 838 04e0 2046     		mov	r0, r4
 839 04e2 FFF7FEFF 		bl	chMBPostAheadI
 840              	.LVL118:
 841              		.loc 1 200 0
 842 04e6 D0F10101 		rsbs	r1, r0, #1
 843 04ea 38BF     		it	cc
 844 04ec 0021     		movcc	r1, #0
 845 04ee 2320     		movs	r0, #35
 846              	.LVL119:
 847 04f0 FFF7FEFF 		bl	_test_assert
 848 04f4 0028     		cmp	r0, #0
 849 04f6 7FF4B2AD 		bne	.L1
 850              		.loc 1 201 0
 851 04fa 4221     		movs	r1, #66
ARM GAS  C:\Users\z80\AppData\Local\Temp\ccHATwr0.s 			page 16


 852 04fc 2046     		mov	r0, r4
 853 04fe FFF7FEFF 		bl	chMBPostAheadI
 854              	.LVL120:
 855              		.loc 1 202 0
 856 0502 D0F10101 		rsbs	r1, r0, #1
 857 0506 38BF     		it	cc
 858 0508 0021     		movcc	r1, #0
 859 050a 2420     		movs	r0, #36
 860              	.LVL121:
 861 050c FFF7FEFF 		bl	_test_assert
 862 0510 0028     		cmp	r0, #0
 863 0512 7FF4A4AD 		bne	.L1
 864              		.loc 1 203 0
 865 0516 914C     		ldr	r4, .L40
 866 0518 4121     		movs	r1, #65
 867 051a 2046     		mov	r0, r4
 868 051c FFF7FEFF 		bl	chMBPostAheadI
 869 0520 0546     		mov	r5, r0
 870              	.LVL122:
 871              		.loc 1 204 0
 872 0522 FFF7FEFF 		bl	dbg_check_unlock
 873              	.LVL123:
 874              	.LBB29:
 875 0526 0023     		movs	r3, #0
 876              	.LVL124:
 877              	@ 204 "../chibios_2.4.x/test/testmbox.c" 1
 878 0528 83F31188 		msr     BASEPRI, r3
 879              	@ 0 "" 2
 880              	.LVL125:
 881              		.thumb
 882              	.LBE29:
 883              		.loc 1 205 0
 884 052c 2520     		movs	r0, #37
 885 052e 9D42     		cmp	r5, r3
 886 0530 14BF     		ite	ne
 887 0532 0021     		movne	r1, #0
 888 0534 0121     		moveq	r1, #1
 889              	.LVL126:
 890 0536 FFF7FEFF 		bl	_test_assert
 891 053a 0028     		cmp	r0, #0
 892 053c 7FF48FAD 		bne	.L1
 893              		.loc 1 206 0
 894 0540 E168     		ldr	r1, [r4, #12]
 895 0542 A368     		ldr	r3, [r4, #8]
 896 0544 2630     		adds	r0, r0, #38
 897 0546 9942     		cmp	r1, r3
 898 0548 14BF     		ite	ne
 899 054a 0021     		movne	r1, #0
 900 054c 0121     		moveq	r1, #1
 901 054e FFF7FEFF 		bl	_test_assert
 902 0552 0028     		cmp	r0, #0
 903 0554 7FF483AD 		bne	.L1
 904 0558 0524     		movs	r4, #5
 905              	.LVL127:
 906              	.L14:
 907              	.LBB30:
 908              		.loc 1 208 0
ARM GAS  C:\Users\z80\AppData\Local\Temp\ccHATwr0.s 			page 17


 909 055a 2023     		movs	r3, #32
 910              	.LVL128:
 911              	@ 208 "../chibios_2.4.x/test/testmbox.c" 1
 912 055c 83F31188 		msr     BASEPRI, r3
 913              	@ 0 "" 2
 914              	.LVL129:
 915              		.thumb
 916              	.LBE30:
 917              		.loc 1 209 0
 918 0560 7E4D     		ldr	r5, .L40
 919              		.loc 1 208 0
 920 0562 FFF7FEFF 		bl	dbg_check_lock
 921              	.LVL130:
 922              		.loc 1 209 0
 923 0566 3146     		mov	r1, r6
 924 0568 2846     		mov	r0, r5
 925 056a FFF7FEFF 		bl	chMBFetchI
 926 056e 0746     		mov	r7, r0
 927              	.LVL131:
 928              		.loc 1 210 0
 929 0570 FFF7FEFF 		bl	dbg_check_unlock
 930              	.LVL132:
 931              	.LBB31:
 932 0574 0023     		movs	r3, #0
 933              	.LVL133:
 934              	@ 210 "../chibios_2.4.x/test/testmbox.c" 1
 935 0576 83F31188 		msr     BASEPRI, r3
 936              	@ 0 "" 2
 937              	.LVL134:
 938              		.thumb
 939              	.LBE31:
 940              		.loc 1 211 0
 941 057a 2720     		movs	r0, #39
 942 057c 9F42     		cmp	r7, r3
 943 057e 14BF     		ite	ne
 944 0580 0021     		movne	r1, #0
 945 0582 0121     		moveq	r1, #1
 946              	.LVL135:
 947 0584 FFF7FEFF 		bl	_test_assert
 948 0588 0028     		cmp	r0, #0
 949 058a 7FF468AD 		bne	.L1
 950              		.loc 1 212 0
 951 058e 9DF80C00 		ldrb	r0, [sp, #12]	@ zero_extendqisi2
 952 0592 FFF7FEFF 		bl	test_emit_token
 953              		.loc 1 207 0
 954 0596 14F1FF34 		adds	r4, r4, #-1
 955 059a DED1     		bne	.L14
 956              		.loc 1 214 0
 957 059c 2820     		movs	r0, #40
 958 059e 7049     		ldr	r1, .L40+4
 959 05a0 FFF7FEFF 		bl	_test_assert_sequence
 960 05a4 0028     		cmp	r0, #0
 961 05a6 7FF45AAD 		bne	.L1
 962              	.LBB32:
 963              		.loc 1 215 0
 964 05aa 2023     		movs	r3, #32
 965              	.LVL136:
ARM GAS  C:\Users\z80\AppData\Local\Temp\ccHATwr0.s 			page 18


 966              	@ 215 "../chibios_2.4.x/test/testmbox.c" 1
 967 05ac 83F31188 		msr     BASEPRI, r3
 968              	@ 0 "" 2
 969              	.LVL137:
 970              		.thumb
 971              	.LBE32:
 972 05b0 FFF7FEFF 		bl	dbg_check_lock
 973              	.LVL138:
 974 05b4 696A     		ldr	r1, [r5, #36]
 975 05b6 2920     		movs	r0, #41
 976 05b8 0529     		cmp	r1, #5
 977 05ba 14BF     		ite	ne
 978 05bc 0021     		movne	r1, #0
 979 05be 0121     		moveq	r1, #1
 980 05c0 FFF7FEFF 		bl	_test_assert
 981 05c4 0028     		cmp	r0, #0
 982 05c6 40F0C280 		bne	.L35
 983              		.loc 1 215 0 is_stmt 0 discriminator 2
 984 05ca FFF7FEFF 		bl	dbg_check_unlock
 985              	.LBB33:
 986 05ce 2346     		mov	r3, r4
 987              	.LVL139:
 988              	@ 215 "../chibios_2.4.x/test/testmbox.c" 1
 989 05d0 83F31188 		msr     BASEPRI, r3
 990              	@ 0 "" 2
 991              	.LVL140:
 992              		.thumb
 993              	.LBE33:
 994              	.LBB34:
 995              		.loc 1 216 0 is_stmt 1 discriminator 2
 996 05d4 2023     		movs	r3, #32
 997              	.LVL141:
 998              	@ 216 "../chibios_2.4.x/test/testmbox.c" 1
 999 05d6 83F31188 		msr     BASEPRI, r3
 1000              	@ 0 "" 2
 1001              	.LVL142:
 1002              		.thumb
 1003              	.LBE34:
 1004 05da FFF7FEFF 		bl	dbg_check_lock
 1005              	.LVL143:
 1006 05de A969     		ldr	r1, [r5, #24]
 1007 05e0 2A20     		movs	r0, #42
 1008 05e2 D1F10101 		rsbs	r1, r1, #1
 1009 05e6 38BF     		it	cc
 1010 05e8 0021     		movcc	r1, #0
 1011 05ea FFF7FEFF 		bl	_test_assert
 1012 05ee 0028     		cmp	r0, #0
 1013 05f0 40F0A780 		bne	.L36
 1014 05f4 FFF7FEFF 		bl	dbg_check_unlock
 1015              	.LBB35:
 1016 05f8 2346     		mov	r3, r4
 1017              	.LVL144:
 1018              	@ 216 "../chibios_2.4.x/test/testmbox.c" 1
 1019 05fa 83F31188 		msr     BASEPRI, r3
 1020              	@ 0 "" 2
 1021              	.LVL145:
 1022              		.thumb
ARM GAS  C:\Users\z80\AppData\Local\Temp\ccHATwr0.s 			page 19


 1023              	.LBE35:
 1024              		.loc 1 217 0 discriminator 2
 1025 05fe E968     		ldr	r1, [r5, #12]
 1026 0600 AB68     		ldr	r3, [r5, #8]
 1027              	.LVL146:
 1028 0602 2B20     		movs	r0, #43
 1029 0604 9942     		cmp	r1, r3
 1030 0606 14BF     		ite	ne
 1031 0608 0021     		movne	r1, #0
 1032 060a 0121     		moveq	r1, #1
 1033 060c FFF7FEFF 		bl	_test_assert
 1034 0610 0028     		cmp	r0, #0
 1035 0612 7FF424AD 		bne	.L1
 1036              		.loc 1 222 0
 1037 0616 2846     		mov	r0, r5
 1038 0618 FFF7FEFF 		bl	chMBReset
 1039              	.LBB36:
 1040              		.loc 1 227 0
 1041 061c 2023     		movs	r3, #32
 1042              	.LVL147:
 1043              	@ 227 "../chibios_2.4.x/test/testmbox.c" 1
 1044 061e 83F31188 		msr     BASEPRI, r3
 1045              	@ 0 "" 2
 1046              	.LVL148:
 1047              		.thumb
 1048              	.LBE36:
 1049 0622 FFF7FEFF 		bl	dbg_check_lock
 1050              	.LVL149:
 1051 0626 696A     		ldr	r1, [r5, #36]
 1052 0628 2C20     		movs	r0, #44
 1053 062a 0529     		cmp	r1, #5
 1054 062c 14BF     		ite	ne
 1055 062e 0021     		movne	r1, #0
 1056 0630 0121     		moveq	r1, #1
 1057 0632 FFF7FEFF 		bl	_test_assert
 1058 0636 0028     		cmp	r0, #0
 1059 0638 7DD1     		bne	.L37
 1060              		.loc 1 227 0 is_stmt 0 discriminator 2
 1061 063a FFF7FEFF 		bl	dbg_check_unlock
 1062              	.LBB37:
 1063 063e 2346     		mov	r3, r4
 1064              	.LVL150:
 1065              	@ 227 "../chibios_2.4.x/test/testmbox.c" 1
 1066 0640 83F31188 		msr     BASEPRI, r3
 1067              	@ 0 "" 2
 1068              	.LVL151:
 1069              		.thumb
 1070              	.LBE37:
 1071              	.LBB38:
 1072              		.loc 1 228 0 is_stmt 1 discriminator 2
 1073 0644 2023     		movs	r3, #32
 1074              	.LVL152:
 1075              	@ 228 "../chibios_2.4.x/test/testmbox.c" 1
 1076 0646 83F31188 		msr     BASEPRI, r3
 1077              	@ 0 "" 2
 1078              	.LVL153:
 1079              		.thumb
ARM GAS  C:\Users\z80\AppData\Local\Temp\ccHATwr0.s 			page 20


 1080              	.LBE38:
 1081 064a FFF7FEFF 		bl	dbg_check_lock
 1082              	.LVL154:
 1083 064e A969     		ldr	r1, [r5, #24]
 1084 0650 2D20     		movs	r0, #45
 1085 0652 D1F10101 		rsbs	r1, r1, #1
 1086 0656 38BF     		it	cc
 1087 0658 0021     		movcc	r1, #0
 1088 065a FFF7FEFF 		bl	_test_assert
 1089 065e 0028     		cmp	r0, #0
 1090 0660 63D1     		bne	.L38
 1091 0662 FFF7FEFF 		bl	dbg_check_unlock
 1092              	.LBB39:
 1093 0666 2346     		mov	r3, r4
 1094              	.LVL155:
 1095              	@ 228 "../chibios_2.4.x/test/testmbox.c" 1
 1096 0668 83F31188 		msr     BASEPRI, r3
 1097              	@ 0 "" 2
 1098              	.LVL156:
 1099              		.thumb
 1100              	.LBE39:
 1101              	.LBB40:
 1102              		.loc 1 229 0 discriminator 2
 1103 066c 2023     		movs	r3, #32
 1104              	.LVL157:
 1105              	@ 229 "../chibios_2.4.x/test/testmbox.c" 1
 1106 066e 83F31188 		msr     BASEPRI, r3
 1107              	@ 0 "" 2
 1108              	.LVL158:
 1109              		.thumb
 1110              	.LBE40:
 1111 0672 FFF7FEFF 		bl	dbg_check_lock
 1112              	.LVL159:
 1113 0676 2968     		ldr	r1, [r5, #0]
 1114 0678 AB68     		ldr	r3, [r5, #8]
 1115 067a 2E20     		movs	r0, #46
 1116 067c 9942     		cmp	r1, r3
 1117 067e 14BF     		ite	ne
 1118 0680 0021     		movne	r1, #0
 1119 0682 0121     		moveq	r1, #1
 1120 0684 FFF7FEFF 		bl	_test_assert
 1121 0688 0028     		cmp	r0, #0
 1122 068a 48D1     		bne	.L39
 1123 068c FFF7FEFF 		bl	dbg_check_unlock
 1124              	.LBB41:
 1125 0690 2346     		mov	r3, r4
 1126              	.LVL160:
 1127              	@ 229 "../chibios_2.4.x/test/testmbox.c" 1
 1128 0692 83F31188 		msr     BASEPRI, r3
 1129              	@ 0 "" 2
 1130              	.LVL161:
 1131              		.thumb
 1132              	.LBE41:
 1133              	.LBB42:
 1134              		.loc 1 230 0 discriminator 2
 1135 0696 2023     		movs	r3, #32
 1136              	.LVL162:
ARM GAS  C:\Users\z80\AppData\Local\Temp\ccHATwr0.s 			page 21


 1137              	@ 230 "../chibios_2.4.x/test/testmbox.c" 1
 1138 0698 83F31188 		msr     BASEPRI, r3
 1139              	@ 0 "" 2
 1140              	.LVL163:
 1141              		.thumb
 1142              	.LBE42:
 1143 069c FFF7FEFF 		bl	dbg_check_lock
 1144              	.LVL164:
 1145 06a0 EB68     		ldr	r3, [r5, #12]
 1146 06a2 2968     		ldr	r1, [r5, #0]
 1147 06a4 2F20     		movs	r0, #47
 1148 06a6 9942     		cmp	r1, r3
 1149 06a8 14BF     		ite	ne
 1150 06aa 0021     		movne	r1, #0
 1151 06ac 0121     		moveq	r1, #1
 1152 06ae FFF7FEFF 		bl	_test_assert
 1153 06b2 FFF7FEFF 		bl	dbg_check_unlock
 1154              	.LBB43:
 1155 06b6 0023     		movs	r3, #0
 1156              	@ 230 "../chibios_2.4.x/test/testmbox.c" 1
 1157 06b8 83F31188 		msr     BASEPRI, r3
 1158              	@ 0 "" 2
 1159              	.LVL165:
 1160              		.thumb
 1161 06bc CFE4     		b	.L1
 1162              	.LVL166:
 1163              	.L27:
 1164              	.LBE43:
 1165              		.loc 1 125 0 discriminator 1
 1166 06be FFF7FEFF 		bl	dbg_check_unlock
 1167              	.LBB44:
 1168 06c2 3346     		mov	r3, r6
 1169              	@ 125 "../chibios_2.4.x/test/testmbox.c" 1
 1170 06c4 83F31188 		msr     BASEPRI, r3
 1171              	@ 0 "" 2
 1172              	.LVL167:
 1173              		.thumb
 1174              	.LBE44:
 1175 06c8 C9E4     		b	.L1
 1176              	.LVL168:
 1177              	.L28:
 1178              		.loc 1 126 0 discriminator 1
 1179 06ca FFF7FEFF 		bl	dbg_check_unlock
 1180              	.LBB45:
 1181 06ce 3B46     		mov	r3, r7
 1182              	@ 126 "../chibios_2.4.x/test/testmbox.c" 1
 1183 06d0 83F31188 		msr     BASEPRI, r3
 1184              	@ 0 "" 2
 1185              	.LVL169:
 1186              		.thumb
 1187              	.LBE45:
 1188 06d4 C3E4     		b	.L1
 1189              	.LVL170:
 1190              	.L29:
 1191              		.loc 1 127 0 discriminator 1
 1192 06d6 FFF7FEFF 		bl	dbg_check_unlock
 1193              	.LBB46:
ARM GAS  C:\Users\z80\AppData\Local\Temp\ccHATwr0.s 			page 22


 1194 06da 0023     		movs	r3, #0
 1195              	@ 127 "../chibios_2.4.x/test/testmbox.c" 1
 1196 06dc 83F31188 		msr     BASEPRI, r3
 1197              	@ 0 "" 2
 1198              	.LVL171:
 1199              		.thumb
 1200              	.LBE46:
 1201 06e0 BDE4     		b	.L1
 1202              	.LVL172:
 1203              	.L32:
 1204              		.loc 1 164 0 discriminator 1
 1205 06e2 FFF7FEFF 		bl	dbg_check_unlock
 1206              	.LBB47:
 1207 06e6 2B46     		mov	r3, r5
 1208              	@ 164 "../chibios_2.4.x/test/testmbox.c" 1
 1209 06e8 83F31188 		msr     BASEPRI, r3
 1210              	@ 0 "" 2
 1211              	.LVL173:
 1212              		.thumb
 1213              	.LBE47:
 1214 06ec B7E4     		b	.L1
 1215              	.LVL174:
 1216              	.L34:
 1217              		.loc 1 191 0 discriminator 1
 1218 06ee FFF7FEFF 		bl	dbg_check_unlock
 1219              	.LBB48:
 1220 06f2 2B46     		mov	r3, r5
 1221              	@ 191 "../chibios_2.4.x/test/testmbox.c" 1
 1222 06f4 83F31188 		msr     BASEPRI, r3
 1223              	@ 0 "" 2
 1224              	.LVL175:
 1225              		.thumb
 1226              	.LBE48:
 1227 06f8 B1E4     		b	.L1
 1228              	.LVL176:
 1229              	.L31:
 1230              		.loc 1 163 0 discriminator 1
 1231 06fa FFF7FEFF 		bl	dbg_check_unlock
 1232              	.LBB49:
 1233 06fe 0023     		movs	r3, #0
 1234              	@ 163 "../chibios_2.4.x/test/testmbox.c" 1
 1235 0700 83F31188 		msr     BASEPRI, r3
 1236              	@ 0 "" 2
 1237              	.LVL177:
 1238              		.thumb
 1239              	.LBE49:
 1240 0704 ABE4     		b	.L1
 1241              	.LVL178:
 1242              	.L30:
 1243              		.loc 1 162 0 discriminator 1
 1244 0706 FFF7FEFF 		bl	dbg_check_unlock
 1245              	.LBB50:
 1246 070a 0023     		movs	r3, #0
 1247              	@ 162 "../chibios_2.4.x/test/testmbox.c" 1
 1248 070c 83F31188 		msr     BASEPRI, r3
 1249              	@ 0 "" 2
 1250              	.LVL179:
ARM GAS  C:\Users\z80\AppData\Local\Temp\ccHATwr0.s 			page 23


 1251              		.thumb
 1252              	.LBE50:
 1253 0710 A5E4     		b	.L1
 1254              	.LVL180:
 1255              	.L33:
 1256              		.loc 1 190 0 discriminator 1
 1257 0712 FFF7FEFF 		bl	dbg_check_unlock
 1258              	.LBB51:
 1259 0716 2B46     		mov	r3, r5
 1260              	@ 190 "../chibios_2.4.x/test/testmbox.c" 1
 1261 0718 83F31188 		msr     BASEPRI, r3
 1262              	@ 0 "" 2
 1263              	.LVL181:
 1264              		.thumb
 1265              	.LBE51:
 1266 071c 9FE4     		b	.L1
 1267              	.LVL182:
 1268              	.L39:
 1269              		.loc 1 229 0 discriminator 1
 1270 071e FFF7FEFF 		bl	dbg_check_unlock
 1271              	.LBB52:
 1272 0722 2346     		mov	r3, r4
 1273              	@ 229 "../chibios_2.4.x/test/testmbox.c" 1
 1274 0724 83F31188 		msr     BASEPRI, r3
 1275              	@ 0 "" 2
 1276              	.LVL183:
 1277              		.thumb
 1278              	.LBE52:
 1279 0728 99E4     		b	.L1
 1280              	.LVL184:
 1281              	.L38:
 1282              		.loc 1 228 0 discriminator 1
 1283 072a FFF7FEFF 		bl	dbg_check_unlock
 1284              	.LBB53:
 1285 072e 2346     		mov	r3, r4
 1286              	@ 228 "../chibios_2.4.x/test/testmbox.c" 1
 1287 0730 83F31188 		msr     BASEPRI, r3
 1288              	@ 0 "" 2
 1289              	.LVL185:
 1290              		.thumb
 1291              	.LBE53:
 1292 0734 93E4     		b	.L1
 1293              	.LVL186:
 1294              	.L37:
 1295              		.loc 1 227 0 discriminator 1
 1296 0736 FFF7FEFF 		bl	dbg_check_unlock
 1297              	.LBB54:
 1298 073a 2346     		mov	r3, r4
 1299              	@ 227 "../chibios_2.4.x/test/testmbox.c" 1
 1300 073c 83F31188 		msr     BASEPRI, r3
 1301              	@ 0 "" 2
 1302              	.LVL187:
 1303              		.thumb
 1304              	.LBE54:
 1305 0740 8DE4     		b	.L1
 1306              	.LVL188:
 1307              	.L36:
ARM GAS  C:\Users\z80\AppData\Local\Temp\ccHATwr0.s 			page 24


 1308              		.loc 1 216 0 discriminator 1
 1309 0742 FFF7FEFF 		bl	dbg_check_unlock
 1310              	.LBB55:
 1311 0746 2346     		mov	r3, r4
 1312              	@ 216 "../chibios_2.4.x/test/testmbox.c" 1
 1313 0748 83F31188 		msr     BASEPRI, r3
 1314              	@ 0 "" 2
 1315              	.LVL189:
 1316              		.thumb
 1317              	.LBE55:
 1318 074c 87E4     		b	.L1
 1319              	.LVL190:
 1320              	.L35:
 1321              		.loc 1 215 0 discriminator 1
 1322 074e FFF7FEFF 		bl	dbg_check_unlock
 1323              	.LBB56:
 1324 0752 2346     		mov	r3, r4
 1325              	@ 215 "../chibios_2.4.x/test/testmbox.c" 1
 1326 0754 83F31188 		msr     BASEPRI, r3
 1327              	@ 0 "" 2
 1328              	.LVL191:
 1329              		.thumb
 1330              	.LBE56:
 1331 0758 81E4     		b	.L1
 1332              	.L41:
 1333 075a 00BF     		.align	2
 1334              	.L40:
 1335 075c 00000000 		.word	.LANCHOR0
 1336 0760 00000000 		.word	.LC0
 1337              		.cfi_endproc
 1338              	.LFE8:
 1339              		.size	mbox1_execute, .-mbox1_execute
 1340 0764 AFF30080 		.section	.text.mbox1_setup,"ax",%progbits
 1340      AFF30080 
 1340      AFF30080 
 1341              		.align	2
 1342              		.p2align 4,,15
 1343              		.thumb
 1344              		.thumb_func
 1345              		.type	mbox1_setup, %function
 1346              	mbox1_setup:
 1347              	.LFB7:
 1348              		.loc 1 82 0
 1349              		.cfi_startproc
 1350              		@ args = 0, pretend = 0, frame = 0
 1351              		@ frame_needed = 0, uses_anonymous_args = 0
 1352              		.loc 1 84 0
 1353 0000 40F20000 		movw	r0, #:lower16:.LANCHOR0
 1354 0004 40F20001 		movw	r1, #:lower16:test
 1355              		.loc 1 82 0
 1356 0008 08B5     		push	{r3, lr}
 1357              	.LCFI2:
 1358              		.cfi_def_cfa_offset 8
 1359              		.loc 1 84 0
 1360 000a C0F20001 		movt	r1, #:upper16:test
 1361 000e C0F20000 		movt	r0, #:upper16:.LANCHOR0
 1362 0012 0522     		movs	r2, #5
ARM GAS  C:\Users\z80\AppData\Local\Temp\ccHATwr0.s 			page 25


 1363              		.cfi_offset 14, -4
 1364              		.cfi_offset 3, -8
 1365 0014 FFF7FEFF 		bl	chMBInit
 1366              		.loc 1 85 0
 1367 0018 08BD     		pop	{r3, pc}
 1368              		.cfi_endproc
 1369              	.LFE7:
 1370              		.size	mbox1_setup, .-mbox1_setup
 1371              		.global	testmbox1
 1372              		.global	patternmbox
 1373 001a 00BFAFF3 		.section	.data.mb1,"aw",%progbits
 1373      0080
 1374              		.align	2
 1375              		.set	.LANCHOR0,. + 0
 1376              		.type	mb1, %object
 1377              		.size	mb1, 40
 1378              	mb1:
 1379 0000 00000000 		.word	test
 1380 0004 14000000 		.word	test+20
 1381 0008 00000000 		.word	test
 1382 000c 00000000 		.word	test
 1383 0010 10000000 		.word	mb1+16
 1384 0014 10000000 		.word	mb1+16
 1385 0018 00000000 		.word	0
 1386 001c 1C000000 		.word	mb1+28
 1387 0020 1C000000 		.word	mb1+28
 1388 0024 05000000 		.word	5
 1389              		.section	.rodata.patternmbox,"a",%progbits
 1390              		.align	2
 1391              		.type	patternmbox, %object
 1392              		.size	patternmbox, 8
 1393              	patternmbox:
 1394 0000 00000000 		.word	testmbox1
 1395 0004 00000000 		.word	0
 1396              		.section	.rodata.str1.4,"aMS",%progbits,1
 1397              		.align	2
 1398              	.LC0:
 1399 0000 41424344 		.ascii	"ABCDE\000"
 1399      4500
 1400 0006 0000     		.space	2
 1401              	.LC1:
 1402 0008 4D61696C 		.ascii	"Mailboxes, queuing and timeouts\000"
 1402      626F7865 
 1402      732C2071 
 1402      75657569 
 1402      6E672061 
 1403              		.section	.rodata.testmbox1,"a",%progbits
 1404              		.align	2
 1405              		.type	testmbox1, %object
 1406              		.size	testmbox1, 16
 1407              	testmbox1:
 1408 0000 08000000 		.word	.LC1
 1409 0004 00000000 		.word	mbox1_setup
 1410 0008 00000000 		.word	0
 1411 000c 00000000 		.word	mbox1_execute
 1412              		.text
 1413              	.Letext0:
ARM GAS  C:\Users\z80\AppData\Local\Temp\ccHATwr0.s 			page 26


 1414              		.section	.debug_loc,"",%progbits
 1415              	.Ldebug_loc0:
 1416              	.LLST0:
 1417 0000 00000000 		.4byte	.LFB8
 1418 0004 02000000 		.4byte	.LCFI0
 1419 0008 0200     		.2byte	0x2
 1420 000a 7D       		.byte	0x7d
 1421 000b 00       		.sleb128 0
 1422 000c 02000000 		.4byte	.LCFI0
 1423 0010 08000000 		.4byte	.LCFI1
 1424 0014 0200     		.2byte	0x2
 1425 0016 7D       		.byte	0x7d
 1426 0017 14       		.sleb128 20
 1427 0018 08000000 		.4byte	.LCFI1
 1428 001c 64070000 		.4byte	.LFE8
 1429 0020 0200     		.2byte	0x2
 1430 0022 7D       		.byte	0x7d
 1431 0023 28       		.sleb128 40
 1432 0024 00000000 		.4byte	0x0
 1433 0028 00000000 		.4byte	0x0
 1434              	.LLST1:
 1435 002c 2C000000 		.4byte	.LVL0
 1436 0030 36000000 		.4byte	.LVL1
 1437 0034 0100     		.2byte	0x1
 1438 0036 50       		.byte	0x50
 1439 0037 4E000000 		.4byte	.LVL2
 1440 003b 58000000 		.4byte	.LVL3
 1441 003f 0100     		.2byte	0x1
 1442 0041 50       		.byte	0x50
 1443 0042 6C000000 		.4byte	.LVL6
 1444 0046 78000000 		.4byte	.LVL7
 1445 004a 0100     		.2byte	0x1
 1446 004c 50       		.byte	0x50
 1447 004d 96000000 		.4byte	.LVL11
 1448 0051 99000000 		.4byte	.LVL12-1
 1449 0055 0100     		.2byte	0x1
 1450 0057 50       		.byte	0x50
 1451 0058 99000000 		.4byte	.LVL12-1
 1452 005c BE000000 		.4byte	.LVL16
 1453 0060 0100     		.2byte	0x1
 1454 0062 57       		.byte	0x57
 1455 0063 BE000000 		.4byte	.LVL16
 1456 0067 CA000000 		.4byte	.LVL17
 1457 006b 0100     		.2byte	0x1
 1458 006d 50       		.byte	0x50
 1459 006e E8000000 		.4byte	.LVL21
 1460 0072 EB000000 		.4byte	.LVL22-1
 1461 0076 0100     		.2byte	0x1
 1462 0078 50       		.byte	0x50
 1463 0079 EB000000 		.4byte	.LVL22-1
 1464 007d 24010000 		.4byte	.LVL29
 1465 0081 0100     		.2byte	0x1
 1466 0083 57       		.byte	0x57
 1467 0084 A0010000 		.4byte	.LVL43
 1468 0088 AA010000 		.4byte	.LVL44
 1469 008c 0100     		.2byte	0x1
 1470 008e 50       		.byte	0x50
ARM GAS  C:\Users\z80\AppData\Local\Temp\ccHATwr0.s 			page 27


 1471 008f DE010000 		.4byte	.LVL47
 1472 0093 E8010000 		.4byte	.LVL48
 1473 0097 0100     		.2byte	0x1
 1474 0099 50       		.byte	0x50
 1475 009a FE010000 		.4byte	.LVL49
 1476 009e 08020000 		.4byte	.LVL50
 1477 00a2 0100     		.2byte	0x1
 1478 00a4 50       		.byte	0x50
 1479 00a5 4C020000 		.4byte	.LVL51
 1480 00a9 58020000 		.4byte	.LVL52
 1481 00ad 0100     		.2byte	0x1
 1482 00af 50       		.byte	0x50
 1483 00b0 76020000 		.4byte	.LVL57
 1484 00b4 7B020000 		.4byte	.LVL58-1
 1485 00b8 0100     		.2byte	0x1
 1486 00ba 50       		.byte	0x50
 1487 00bb 34030000 		.4byte	.LVL79
 1488 00bf 3E030000 		.4byte	.LVL80
 1489 00c3 0100     		.2byte	0x1
 1490 00c5 50       		.byte	0x50
 1491 00c6 50030000 		.4byte	.LVL81
 1492 00ca 5A030000 		.4byte	.LVL82
 1493 00ce 0100     		.2byte	0x1
 1494 00d0 50       		.byte	0x50
 1495 00d1 6C030000 		.4byte	.LVL83
 1496 00d5 76030000 		.4byte	.LVL84
 1497 00d9 0100     		.2byte	0x1
 1498 00db 50       		.byte	0x50
 1499 00dc 88030000 		.4byte	.LVL85
 1500 00e0 92030000 		.4byte	.LVL86
 1501 00e4 0100     		.2byte	0x1
 1502 00e6 50       		.byte	0x50
 1503 00e7 A8030000 		.4byte	.LVL87
 1504 00eb AB030000 		.4byte	.LVL88-1
 1505 00ef 0100     		.2byte	0x1
 1506 00f1 50       		.byte	0x50
 1507 00f2 AB030000 		.4byte	.LVL88-1
 1508 00f6 F6030000 		.4byte	.LVL95
 1509 00fa 0100     		.2byte	0x1
 1510 00fc 57       		.byte	0x57
 1511 00fd F6030000 		.4byte	.LVL95
 1512 0101 F9030000 		.4byte	.LVL96-1
 1513 0105 0100     		.2byte	0x1
 1514 0107 50       		.byte	0x50
 1515 0108 F9030000 		.4byte	.LVL96-1
 1516 010c AE040000 		.4byte	.LVL114
 1517 0110 0100     		.2byte	0x1
 1518 0112 57       		.byte	0x57
 1519 0113 AE040000 		.4byte	.LVL114
 1520 0117 B8040000 		.4byte	.LVL115
 1521 011b 0100     		.2byte	0x1
 1522 011d 50       		.byte	0x50
 1523 011e CA040000 		.4byte	.LVL116
 1524 0122 D4040000 		.4byte	.LVL117
 1525 0126 0100     		.2byte	0x1
 1526 0128 50       		.byte	0x50
 1527 0129 E6040000 		.4byte	.LVL118
ARM GAS  C:\Users\z80\AppData\Local\Temp\ccHATwr0.s 			page 28


 1528 012d F0040000 		.4byte	.LVL119
 1529 0131 0100     		.2byte	0x1
 1530 0133 50       		.byte	0x50
 1531 0134 02050000 		.4byte	.LVL120
 1532 0138 0C050000 		.4byte	.LVL121
 1533 013c 0100     		.2byte	0x1
 1534 013e 50       		.byte	0x50
 1535 013f 22050000 		.4byte	.LVL122
 1536 0143 25050000 		.4byte	.LVL123-1
 1537 0147 0100     		.2byte	0x1
 1538 0149 50       		.byte	0x50
 1539 014a 25050000 		.4byte	.LVL123-1
 1540 014e 5A050000 		.4byte	.LVL127
 1541 0152 0100     		.2byte	0x1
 1542 0154 55       		.byte	0x55
 1543 0155 70050000 		.4byte	.LVL131
 1544 0159 73050000 		.4byte	.LVL132-1
 1545 015d 0100     		.2byte	0x1
 1546 015f 50       		.byte	0x50
 1547 0160 73050000 		.4byte	.LVL132-1
 1548 0164 BE060000 		.4byte	.LVL166
 1549 0168 0100     		.2byte	0x1
 1550 016a 57       		.byte	0x57
 1551 016b EE060000 		.4byte	.LVL174
 1552 016f FA060000 		.4byte	.LVL176
 1553 0173 0100     		.2byte	0x1
 1554 0175 57       		.byte	0x57
 1555 0176 12070000 		.4byte	.LVL180
 1556 017a 64070000 		.4byte	.LFE8
 1557 017e 0100     		.2byte	0x1
 1558 0180 57       		.byte	0x57
 1559 0181 00000000 		.4byte	0x0
 1560 0185 00000000 		.4byte	0x0
 1561              	.LLST2:
 1562 0189 8C010000 		.4byte	.LVL41
 1563 018d 90010000 		.4byte	.LVL42
 1564 0191 0200     		.2byte	0x2
 1565 0193 30       		.byte	0x30
 1566 0194 9F       		.byte	0x9f
 1567 0195 BE010000 		.4byte	.LVL46
 1568 0199 5E020000 		.4byte	.LVL53
 1569 019d 0100     		.2byte	0x1
 1570 019f 57       		.byte	0x57
 1571 01a0 00000000 		.4byte	0x0
 1572 01a4 00000000 		.4byte	0x0
 1573              	.LLST3:
 1574 01a8 88000000 		.4byte	.LVL9
 1575 01ac 8B000000 		.4byte	.LVL10-1
 1576 01b0 0100     		.2byte	0x1
 1577 01b2 53       		.byte	0x53
 1578 01b3 00000000 		.4byte	0x0
 1579 01b7 00000000 		.4byte	0x0
 1580              	.LLST4:
 1581 01bb A0000000 		.4byte	.LVL14
 1582 01bf AF000000 		.4byte	.LVL15-1
 1583 01c3 0100     		.2byte	0x1
 1584 01c5 53       		.byte	0x53
ARM GAS  C:\Users\z80\AppData\Local\Temp\ccHATwr0.s 			page 29


 1585 01c6 00000000 		.4byte	0x0
 1586 01ca 00000000 		.4byte	0x0
 1587              	.LLST5:
 1588 01ce DA000000 		.4byte	.LVL19
 1589 01d2 DD000000 		.4byte	.LVL20-1
 1590 01d6 0100     		.2byte	0x1
 1591 01d8 53       		.byte	0x53
 1592 01d9 00000000 		.4byte	0x0
 1593 01dd 00000000 		.4byte	0x0
 1594              	.LLST6:
 1595 01e1 F2000000 		.4byte	.LVL24
 1596 01e5 01010000 		.4byte	.LVL25-1
 1597 01e9 0100     		.2byte	0x1
 1598 01eb 53       		.byte	0x53
 1599 01ec 00000000 		.4byte	0x0
 1600 01f0 00000000 		.4byte	0x0
 1601              	.LLST7:
 1602 01f4 0E010000 		.4byte	.LVL27
 1603 01f8 11010000 		.4byte	.LVL28-1
 1604 01fc 0100     		.2byte	0x1
 1605 01fe 53       		.byte	0x53
 1606 01ff 00000000 		.4byte	0x0
 1607 0203 00000000 		.4byte	0x0
 1608              	.LLST8:
 1609 0207 34010000 		.4byte	.LVL31
 1610 020b 36010000 		.4byte	.LVL32
 1611 020f 0100     		.2byte	0x1
 1612 0211 53       		.byte	0x53
 1613 0212 00000000 		.4byte	0x0
 1614 0216 00000000 		.4byte	0x0
 1615              	.LLST9:
 1616 021a 3A010000 		.4byte	.LVL33
 1617 021e 3D010000 		.4byte	.LVL34-1
 1618 0222 0100     		.2byte	0x1
 1619 0224 53       		.byte	0x53
 1620 0225 00000000 		.4byte	0x0
 1621 0229 00000000 		.4byte	0x0
 1622              	.LLST10:
 1623 022d 60010000 		.4byte	.LVL36
 1624 0231 62010000 		.4byte	.LVL37
 1625 0235 0100     		.2byte	0x1
 1626 0237 53       		.byte	0x53
 1627 0238 00000000 		.4byte	0x0
 1628 023c 00000000 		.4byte	0x0
 1629              	.LLST11:
 1630 0240 66010000 		.4byte	.LVL38
 1631 0244 69010000 		.4byte	.LVL39-1
 1632 0248 0100     		.2byte	0x1
 1633 024a 53       		.byte	0x53
 1634 024b 00000000 		.4byte	0x0
 1635 024f 00000000 		.4byte	0x0
 1636              	.LLST12:
 1637 0253 8C010000 		.4byte	.LVL41
 1638 0257 9F010000 		.4byte	.LVL43-1
 1639 025b 0100     		.2byte	0x1
 1640 025d 53       		.byte	0x53
 1641 025e 00000000 		.4byte	0x0
ARM GAS  C:\Users\z80\AppData\Local\Temp\ccHATwr0.s 			page 30


 1642 0262 00000000 		.4byte	0x0
 1643              	.LLST13:
 1644 0266 6A020000 		.4byte	.LVL55
 1645 026a 6D020000 		.4byte	.LVL56-1
 1646 026e 0100     		.2byte	0x1
 1647 0270 53       		.byte	0x53
 1648 0271 00000000 		.4byte	0x0
 1649 0275 00000000 		.4byte	0x0
 1650              	.LLST14:
 1651 0279 82020000 		.4byte	.LVL60
 1652 027d 93020000 		.4byte	.LVL61-1
 1653 0281 0100     		.2byte	0x1
 1654 0283 53       		.byte	0x53
 1655 0284 00000000 		.4byte	0x0
 1656 0288 00000000 		.4byte	0x0
 1657              	.LLST15:
 1658 028c A0020000 		.4byte	.LVL63
 1659 0290 A3020000 		.4byte	.LVL64-1
 1660 0294 0100     		.2byte	0x1
 1661 0296 53       		.byte	0x53
 1662 0297 00000000 		.4byte	0x0
 1663 029b 00000000 		.4byte	0x0
 1664              	.LLST16:
 1665 029f C4020000 		.4byte	.LVL66
 1666 02a3 C6020000 		.4byte	.LVL67
 1667 02a7 0100     		.2byte	0x1
 1668 02a9 53       		.byte	0x53
 1669 02aa 00000000 		.4byte	0x0
 1670 02ae 00000000 		.4byte	0x0
 1671              	.LLST17:
 1672 02b2 C6020000 		.4byte	.LVL67
 1673 02b6 CD020000 		.4byte	.LVL68-1
 1674 02ba 0100     		.2byte	0x1
 1675 02bc 53       		.byte	0x53
 1676 02bd 00000000 		.4byte	0x0
 1677 02c1 00000000 		.4byte	0x0
 1678              	.LLST18:
 1679 02c5 F4020000 		.4byte	.LVL70
 1680 02c9 F6020000 		.4byte	.LVL71
 1681 02cd 0100     		.2byte	0x1
 1682 02cf 53       		.byte	0x53
 1683 02d0 00000000 		.4byte	0x0
 1684 02d4 00000000 		.4byte	0x0
 1685              	.LLST19:
 1686 02d8 FA020000 		.4byte	.LVL72
 1687 02dc FD020000 		.4byte	.LVL73-1
 1688 02e0 0100     		.2byte	0x1
 1689 02e2 53       		.byte	0x53
 1690 02e3 00000000 		.4byte	0x0
 1691 02e7 00000000 		.4byte	0x0
 1692              	.LLST20:
 1693 02eb 22030000 		.4byte	.LVL75
 1694 02ef 24030000 		.4byte	.LVL76
 1695 02f3 0100     		.2byte	0x1
 1696 02f5 53       		.byte	0x53
 1697 02f6 00000000 		.4byte	0x0
 1698 02fa 00000000 		.4byte	0x0
ARM GAS  C:\Users\z80\AppData\Local\Temp\ccHATwr0.s 			page 31


 1699              	.LLST21:
 1700 02fe 28030000 		.4byte	.LVL77
 1701 0302 2B030000 		.4byte	.LVL78-1
 1702 0306 0100     		.2byte	0x1
 1703 0308 53       		.byte	0x53
 1704 0309 00000000 		.4byte	0x0
 1705 030d 00000000 		.4byte	0x0
 1706              	.LLST22:
 1707 0311 B2030000 		.4byte	.LVL90
 1708 0315 BF030000 		.4byte	.LVL91-1
 1709 0319 0100     		.2byte	0x1
 1710 031b 53       		.byte	0x53
 1711 031c 00000000 		.4byte	0x0
 1712 0320 00000000 		.4byte	0x0
 1713              	.LLST23:
 1714 0324 E6030000 		.4byte	.LVL93
 1715 0328 EB030000 		.4byte	.LVL94-1
 1716 032c 0100     		.2byte	0x1
 1717 032e 53       		.byte	0x53
 1718 032f 00000000 		.4byte	0x0
 1719 0333 00000000 		.4byte	0x0
 1720              	.LLST24:
 1721 0337 00040000 		.4byte	.LVL98
 1722 033b 0A040000 		.4byte	.LVL99
 1723 033f 0100     		.2byte	0x1
 1724 0341 53       		.byte	0x53
 1725 0342 00000000 		.4byte	0x0
 1726 0346 00000000 		.4byte	0x0
 1727              	.LLST25:
 1728 034a 36040000 		.4byte	.LVL101
 1729 034e 39040000 		.4byte	.LVL102-1
 1730 0352 0100     		.2byte	0x1
 1731 0354 53       		.byte	0x53
 1732 0355 00000000 		.4byte	0x0
 1733 0359 00000000 		.4byte	0x0
 1734              	.LLST26:
 1735 035d 5A040000 		.4byte	.LVL104
 1736 0361 5C040000 		.4byte	.LVL105
 1737 0365 0100     		.2byte	0x1
 1738 0367 53       		.byte	0x53
 1739 0368 00000000 		.4byte	0x0
 1740 036c 00000000 		.4byte	0x0
 1741              	.LLST27:
 1742 0370 60040000 		.4byte	.LVL106
 1743 0374 63040000 		.4byte	.LVL107-1
 1744 0378 0100     		.2byte	0x1
 1745 037a 53       		.byte	0x53
 1746 037b 00000000 		.4byte	0x0
 1747 037f 00000000 		.4byte	0x0
 1748              	.LLST28:
 1749 0383 84040000 		.4byte	.LVL109
 1750 0387 88040000 		.4byte	.LVL110
 1751 038b 0100     		.2byte	0x1
 1752 038d 53       		.byte	0x53
 1753 038e 00000000 		.4byte	0x0
 1754 0392 00000000 		.4byte	0x0
 1755              	.LLST29:
ARM GAS  C:\Users\z80\AppData\Local\Temp\ccHATwr0.s 			page 32


 1756 0396 A2040000 		.4byte	.LVL112
 1757 039a A5040000 		.4byte	.LVL113-1
 1758 039e 0100     		.2byte	0x1
 1759 03a0 53       		.byte	0x53
 1760 03a1 00000000 		.4byte	0x0
 1761 03a5 00000000 		.4byte	0x0
 1762              	.LLST30:
 1763 03a9 2C050000 		.4byte	.LVL125
 1764 03ad 36050000 		.4byte	.LVL126
 1765 03b1 0100     		.2byte	0x1
 1766 03b3 53       		.byte	0x53
 1767 03b4 00000000 		.4byte	0x0
 1768 03b8 00000000 		.4byte	0x0
 1769              	.LLST31:
 1770 03bc 60050000 		.4byte	.LVL129
 1771 03c0 65050000 		.4byte	.LVL130-1
 1772 03c4 0100     		.2byte	0x1
 1773 03c6 53       		.byte	0x53
 1774 03c7 00000000 		.4byte	0x0
 1775 03cb 00000000 		.4byte	0x0
 1776              	.LLST32:
 1777 03cf 7A050000 		.4byte	.LVL134
 1778 03d3 84050000 		.4byte	.LVL135
 1779 03d7 0100     		.2byte	0x1
 1780 03d9 53       		.byte	0x53
 1781 03da 00000000 		.4byte	0x0
 1782 03de 00000000 		.4byte	0x0
 1783              	.LLST33:
 1784 03e2 B0050000 		.4byte	.LVL137
 1785 03e6 B3050000 		.4byte	.LVL138-1
 1786 03ea 0100     		.2byte	0x1
 1787 03ec 53       		.byte	0x53
 1788 03ed 00000000 		.4byte	0x0
 1789 03f1 00000000 		.4byte	0x0
 1790              	.LLST34:
 1791 03f5 D4050000 		.4byte	.LVL140
 1792 03f9 D6050000 		.4byte	.LVL141
 1793 03fd 0100     		.2byte	0x1
 1794 03ff 53       		.byte	0x53
 1795 0400 00000000 		.4byte	0x0
 1796 0404 00000000 		.4byte	0x0
 1797              	.LLST35:
 1798 0408 DA050000 		.4byte	.LVL142
 1799 040c DD050000 		.4byte	.LVL143-1
 1800 0410 0100     		.2byte	0x1
 1801 0412 53       		.byte	0x53
 1802 0413 00000000 		.4byte	0x0
 1803 0417 00000000 		.4byte	0x0
 1804              	.LLST36:
 1805 041b FE050000 		.4byte	.LVL145
 1806 041f 02060000 		.4byte	.LVL146
 1807 0423 0100     		.2byte	0x1
 1808 0425 53       		.byte	0x53
 1809 0426 00000000 		.4byte	0x0
 1810 042a 00000000 		.4byte	0x0
 1811              	.LLST37:
 1812 042e 22060000 		.4byte	.LVL148
ARM GAS  C:\Users\z80\AppData\Local\Temp\ccHATwr0.s 			page 33


 1813 0432 25060000 		.4byte	.LVL149-1
 1814 0436 0100     		.2byte	0x1
 1815 0438 53       		.byte	0x53
 1816 0439 00000000 		.4byte	0x0
 1817 043d 00000000 		.4byte	0x0
 1818              	.LLST38:
 1819 0441 44060000 		.4byte	.LVL151
 1820 0445 46060000 		.4byte	.LVL152
 1821 0449 0100     		.2byte	0x1
 1822 044b 53       		.byte	0x53
 1823 044c 00000000 		.4byte	0x0
 1824 0450 00000000 		.4byte	0x0
 1825              	.LLST39:
 1826 0454 4A060000 		.4byte	.LVL153
 1827 0458 4D060000 		.4byte	.LVL154-1
 1828 045c 0100     		.2byte	0x1
 1829 045e 53       		.byte	0x53
 1830 045f 00000000 		.4byte	0x0
 1831 0463 00000000 		.4byte	0x0
 1832              	.LLST40:
 1833 0467 6C060000 		.4byte	.LVL156
 1834 046b 6E060000 		.4byte	.LVL157
 1835 046f 0100     		.2byte	0x1
 1836 0471 53       		.byte	0x53
 1837 0472 00000000 		.4byte	0x0
 1838 0476 00000000 		.4byte	0x0
 1839              	.LLST41:
 1840 047a 72060000 		.4byte	.LVL158
 1841 047e 75060000 		.4byte	.LVL159-1
 1842 0482 0100     		.2byte	0x1
 1843 0484 53       		.byte	0x53
 1844 0485 00000000 		.4byte	0x0
 1845 0489 00000000 		.4byte	0x0
 1846              	.LLST42:
 1847 048d 96060000 		.4byte	.LVL161
 1848 0491 98060000 		.4byte	.LVL162
 1849 0495 0100     		.2byte	0x1
 1850 0497 53       		.byte	0x53
 1851 0498 00000000 		.4byte	0x0
 1852 049c 00000000 		.4byte	0x0
 1853              	.LLST43:
 1854 04a0 9C060000 		.4byte	.LVL163
 1855 04a4 9F060000 		.4byte	.LVL164-1
 1856 04a8 0100     		.2byte	0x1
 1857 04aa 53       		.byte	0x53
 1858 04ab 00000000 		.4byte	0x0
 1859 04af 00000000 		.4byte	0x0
 1860              	.LLST44:
 1861 04b3 5E000000 		.4byte	.LVL4
 1862 04b7 62000000 		.4byte	.LVL5
 1863 04bb 0100     		.2byte	0x1
 1864 04bd 53       		.byte	0x53
 1865 04be BC060000 		.4byte	.LVL165
 1866 04c2 BE060000 		.4byte	.LVL166
 1867 04c6 0100     		.2byte	0x1
 1868 04c8 53       		.byte	0x53
 1869 04c9 00000000 		.4byte	0x0
ARM GAS  C:\Users\z80\AppData\Local\Temp\ccHATwr0.s 			page 34


 1870 04cd 00000000 		.4byte	0x0
 1871              	.LLST45:
 1872 04d1 5E000000 		.4byte	.LVL4
 1873 04d5 62000000 		.4byte	.LVL5
 1874 04d9 0100     		.2byte	0x1
 1875 04db 53       		.byte	0x53
 1876 04dc C8060000 		.4byte	.LVL167
 1877 04e0 CA060000 		.4byte	.LVL168
 1878 04e4 0100     		.2byte	0x1
 1879 04e6 53       		.byte	0x53
 1880 04e7 00000000 		.4byte	0x0
 1881 04eb 00000000 		.4byte	0x0
 1882              	.LLST46:
 1883 04ef 5E000000 		.4byte	.LVL4
 1884 04f3 62000000 		.4byte	.LVL5
 1885 04f7 0100     		.2byte	0x1
 1886 04f9 53       		.byte	0x53
 1887 04fa D4060000 		.4byte	.LVL169
 1888 04fe D6060000 		.4byte	.LVL170
 1889 0502 0100     		.2byte	0x1
 1890 0504 53       		.byte	0x53
 1891 0505 00000000 		.4byte	0x0
 1892 0509 00000000 		.4byte	0x0
 1893              	.LLST47:
 1894 050d 5E000000 		.4byte	.LVL4
 1895 0511 62000000 		.4byte	.LVL5
 1896 0515 0100     		.2byte	0x1
 1897 0517 53       		.byte	0x53
 1898 0518 E0060000 		.4byte	.LVL171
 1899 051c E2060000 		.4byte	.LVL172
 1900 0520 0100     		.2byte	0x1
 1901 0522 53       		.byte	0x53
 1902 0523 00000000 		.4byte	0x0
 1903 0527 00000000 		.4byte	0x0
 1904              	.LLST48:
 1905 052b 5E000000 		.4byte	.LVL4
 1906 052f 62000000 		.4byte	.LVL5
 1907 0533 0100     		.2byte	0x1
 1908 0535 53       		.byte	0x53
 1909 0536 EC060000 		.4byte	.LVL173
 1910 053a EE060000 		.4byte	.LVL174
 1911 053e 0100     		.2byte	0x1
 1912 0540 53       		.byte	0x53
 1913 0541 00000000 		.4byte	0x0
 1914 0545 00000000 		.4byte	0x0
 1915              	.LLST49:
 1916 0549 5E000000 		.4byte	.LVL4
 1917 054d 62000000 		.4byte	.LVL5
 1918 0551 0100     		.2byte	0x1
 1919 0553 53       		.byte	0x53
 1920 0554 F8060000 		.4byte	.LVL175
 1921 0558 FA060000 		.4byte	.LVL176
 1922 055c 0100     		.2byte	0x1
 1923 055e 53       		.byte	0x53
 1924 055f 00000000 		.4byte	0x0
 1925 0563 00000000 		.4byte	0x0
 1926              	.LLST50:
ARM GAS  C:\Users\z80\AppData\Local\Temp\ccHATwr0.s 			page 35


 1927 0567 5E000000 		.4byte	.LVL4
 1928 056b 62000000 		.4byte	.LVL5
 1929 056f 0100     		.2byte	0x1
 1930 0571 53       		.byte	0x53
 1931 0572 04070000 		.4byte	.LVL177
 1932 0576 06070000 		.4byte	.LVL178
 1933 057a 0100     		.2byte	0x1
 1934 057c 53       		.byte	0x53
 1935 057d 00000000 		.4byte	0x0
 1936 0581 00000000 		.4byte	0x0
 1937              	.LLST51:
 1938 0585 5E000000 		.4byte	.LVL4
 1939 0589 62000000 		.4byte	.LVL5
 1940 058d 0100     		.2byte	0x1
 1941 058f 53       		.byte	0x53
 1942 0590 10070000 		.4byte	.LVL179
 1943 0594 12070000 		.4byte	.LVL180
 1944 0598 0100     		.2byte	0x1
 1945 059a 53       		.byte	0x53
 1946 059b 00000000 		.4byte	0x0
 1947 059f 00000000 		.4byte	0x0
 1948              	.LLST52:
 1949 05a3 5E000000 		.4byte	.LVL4
 1950 05a7 62000000 		.4byte	.LVL5
 1951 05ab 0100     		.2byte	0x1
 1952 05ad 53       		.byte	0x53
 1953 05ae 1C070000 		.4byte	.LVL181
 1954 05b2 1E070000 		.4byte	.LVL182
 1955 05b6 0100     		.2byte	0x1
 1956 05b8 53       		.byte	0x53
 1957 05b9 00000000 		.4byte	0x0
 1958 05bd 00000000 		.4byte	0x0
 1959              	.LLST53:
 1960 05c1 5E000000 		.4byte	.LVL4
 1961 05c5 62000000 		.4byte	.LVL5
 1962 05c9 0100     		.2byte	0x1
 1963 05cb 53       		.byte	0x53
 1964 05cc 28070000 		.4byte	.LVL183
 1965 05d0 2A070000 		.4byte	.LVL184
 1966 05d4 0100     		.2byte	0x1
 1967 05d6 53       		.byte	0x53
 1968 05d7 00000000 		.4byte	0x0
 1969 05db 00000000 		.4byte	0x0
 1970              	.LLST54:
 1971 05df 5E000000 		.4byte	.LVL4
 1972 05e3 62000000 		.4byte	.LVL5
 1973 05e7 0100     		.2byte	0x1
 1974 05e9 53       		.byte	0x53
 1975 05ea 34070000 		.4byte	.LVL185
 1976 05ee 36070000 		.4byte	.LVL186
 1977 05f2 0100     		.2byte	0x1
 1978 05f4 53       		.byte	0x53
 1979 05f5 00000000 		.4byte	0x0
 1980 05f9 00000000 		.4byte	0x0
 1981              	.LLST55:
 1982 05fd 5E000000 		.4byte	.LVL4
 1983 0601 62000000 		.4byte	.LVL5
ARM GAS  C:\Users\z80\AppData\Local\Temp\ccHATwr0.s 			page 36


 1984 0605 0100     		.2byte	0x1
 1985 0607 53       		.byte	0x53
 1986 0608 40070000 		.4byte	.LVL187
 1987 060c 42070000 		.4byte	.LVL188
 1988 0610 0100     		.2byte	0x1
 1989 0612 53       		.byte	0x53
 1990 0613 00000000 		.4byte	0x0
 1991 0617 00000000 		.4byte	0x0
 1992              	.LLST56:
 1993 061b 5E000000 		.4byte	.LVL4
 1994 061f 62000000 		.4byte	.LVL5
 1995 0623 0100     		.2byte	0x1
 1996 0625 53       		.byte	0x53
 1997 0626 4C070000 		.4byte	.LVL189
 1998 062a 4E070000 		.4byte	.LVL190
 1999 062e 0100     		.2byte	0x1
 2000 0630 53       		.byte	0x53
 2001 0631 00000000 		.4byte	0x0
 2002 0635 00000000 		.4byte	0x0
 2003              	.LLST57:
 2004 0639 5E000000 		.4byte	.LVL4
 2005 063d 62000000 		.4byte	.LVL5
 2006 0641 0100     		.2byte	0x1
 2007 0643 53       		.byte	0x53
 2008 0644 58070000 		.4byte	.LVL191
 2009 0648 64070000 		.4byte	.LFE8
 2010 064c 0100     		.2byte	0x1
 2011 064e 53       		.byte	0x53
 2012 064f 00000000 		.4byte	0x0
 2013 0653 00000000 		.4byte	0x0
 2014              	.LLST58:
 2015 0657 00000000 		.4byte	.LFB7
 2016 065b 0A000000 		.4byte	.LCFI2
 2017 065f 0200     		.2byte	0x2
 2018 0661 7D       		.byte	0x7d
 2019 0662 00       		.sleb128 0
 2020 0663 0A000000 		.4byte	.LCFI2
 2021 0667 1A000000 		.4byte	.LFE7
 2022 066b 0200     		.2byte	0x2
 2023 066d 7D       		.byte	0x7d
 2024 066e 08       		.sleb128 8
 2025 066f 00000000 		.4byte	0x0
 2026 0673 00000000 		.4byte	0x0
 2027              		.file 2 "c:/programs/yagarto/lib/gcc/../../arm-none-eabi/sys-include/stdint.h"
 2028              		.file 3 "../chibios_2.4.x/os/ports/GCC/ARMCMx/chtypes.h"
 2029              		.file 4 "../chibios_2.4.x/os/kernel/include/chlists.h"
 2030              		.file 5 "../chibios_2.4.x/os/kernel/include/chthreads.h"
 2031              		.file 6 "../chibios_2.4.x/os/ports/GCC/ARMCMx/chcore_v7m.h"
 2032              		.file 7 "../chibios_2.4.x/os/kernel/include/chsem.h"
 2033              		.file 8 "../chibios_2.4.x/os/kernel/include/chmtx.h"
 2034              		.file 9 "../chibios_2.4.x/os/kernel/include/chmboxes.h"
 2035              		.file 10 "../chibios_2.4.x/test/test.h"
 2036              		.section	.debug_info
 2037 0000 6C0C0000 		.4byte	0xc6c
 2038 0004 0200     		.2byte	0x2
 2039 0006 00000000 		.4byte	.Ldebug_abbrev0
 2040 000a 04       		.byte	0x4
ARM GAS  C:\Users\z80\AppData\Local\Temp\ccHATwr0.s 			page 37


 2041 000b 01       		.uleb128 0x1
 2042 000c 02030000 		.4byte	.LASF76
 2043 0010 01       		.byte	0x1
 2044 0011 A5020000 		.4byte	.LASF77
 2045 0015 A1010000 		.4byte	.LASF78
 2046 0019 00000000 		.4byte	0x0
 2047 001d 00000000 		.4byte	0x0
 2048 0021 00000000 		.4byte	.Ldebug_ranges0+0x0
 2049 0025 00000000 		.4byte	.Ldebug_line0
 2050 0029 02       		.uleb128 0x2
 2051 002a 04       		.byte	0x4
 2052 002b 05       		.byte	0x5
 2053 002c 696E7400 		.ascii	"int\000"
 2054 0030 03       		.uleb128 0x3
 2055 0031 04       		.byte	0x4
 2056 0032 07       		.byte	0x7
 2057 0033 CC000000 		.4byte	.LASF0
 2058 0037 03       		.uleb128 0x3
 2059 0038 01       		.byte	0x1
 2060 0039 06       		.byte	0x6
 2061 003a 74000000 		.4byte	.LASF1
 2062 003e 04       		.uleb128 0x4
 2063 003f FA020000 		.4byte	.LASF5
 2064 0043 02       		.byte	0x2
 2065 0044 2A       		.byte	0x2a
 2066 0045 49000000 		.4byte	0x49
 2067 0049 03       		.uleb128 0x3
 2068 004a 01       		.byte	0x1
 2069 004b 08       		.byte	0x8
 2070 004c 0B020000 		.4byte	.LASF2
 2071 0050 03       		.uleb128 0x3
 2072 0051 02       		.byte	0x2
 2073 0052 05       		.byte	0x5
 2074 0053 2A020000 		.4byte	.LASF3
 2075 0057 03       		.uleb128 0x3
 2076 0058 02       		.byte	0x2
 2077 0059 07       		.byte	0x7
 2078 005a 1D010000 		.4byte	.LASF4
 2079 005e 04       		.uleb128 0x4
 2080 005f 03020000 		.4byte	.LASF6
 2081 0063 02       		.byte	0x2
 2082 0064 4F       		.byte	0x4f
 2083 0065 69000000 		.4byte	0x69
 2084 0069 03       		.uleb128 0x3
 2085 006a 04       		.byte	0x4
 2086 006b 05       		.byte	0x5
 2087 006c 90000000 		.4byte	.LASF7
 2088 0070 04       		.uleb128 0x4
 2089 0071 6D020000 		.4byte	.LASF8
 2090 0075 02       		.byte	0x2
 2091 0076 50       		.byte	0x50
 2092 0077 7B000000 		.4byte	0x7b
 2093 007b 03       		.uleb128 0x3
 2094 007c 04       		.byte	0x4
 2095 007d 07       		.byte	0x7
 2096 007e E3000000 		.4byte	.LASF9
 2097 0082 03       		.uleb128 0x3
ARM GAS  C:\Users\z80\AppData\Local\Temp\ccHATwr0.s 			page 38


 2098 0083 08       		.byte	0x8
 2099 0084 05       		.byte	0x5
 2100 0085 66000000 		.4byte	.LASF10
 2101 0089 04       		.uleb128 0x4
 2102 008a 14000000 		.4byte	.LASF11
 2103 008e 02       		.byte	0x2
 2104 008f 78       		.byte	0x78
 2105 0090 94000000 		.4byte	0x94
 2106 0094 03       		.uleb128 0x3
 2107 0095 08       		.byte	0x8
 2108 0096 07       		.byte	0x7
 2109 0097 25000000 		.4byte	.LASF12
 2110 009b 04       		.uleb128 0x4
 2111 009c 36010000 		.4byte	.LASF13
 2112 00a0 03       		.byte	0x3
 2113 00a1 2F       		.byte	0x2f
 2114 00a2 3E000000 		.4byte	0x3e
 2115 00a6 04       		.uleb128 0x4
 2116 00a7 99000000 		.4byte	.LASF14
 2117 00ab 03       		.byte	0x3
 2118 00ac 30       		.byte	0x30
 2119 00ad 3E000000 		.4byte	0x3e
 2120 00b1 04       		.uleb128 0x4
 2121 00b2 E4010000 		.4byte	.LASF15
 2122 00b6 03       		.byte	0x3
 2123 00b7 31       		.byte	0x31
 2124 00b8 3E000000 		.4byte	0x3e
 2125 00bc 04       		.uleb128 0x4
 2126 00bd FB010000 		.4byte	.LASF16
 2127 00c1 03       		.byte	0x3
 2128 00c2 32       		.byte	0x32
 2129 00c3 70000000 		.4byte	0x70
 2130 00c7 04       		.uleb128 0x4
 2131 00c8 30010000 		.4byte	.LASF17
 2132 00cc 03       		.byte	0x3
 2133 00cd 33       		.byte	0x33
 2134 00ce 5E000000 		.4byte	0x5e
 2135 00d2 04       		.uleb128 0x4
 2136 00d3 56010000 		.4byte	.LASF18
 2137 00d7 03       		.byte	0x3
 2138 00d8 35       		.byte	0x35
 2139 00d9 70000000 		.4byte	0x70
 2140 00dd 04       		.uleb128 0x4
 2141 00de 82020000 		.4byte	.LASF19
 2142 00e2 03       		.byte	0x3
 2143 00e3 36       		.byte	0x36
 2144 00e4 70000000 		.4byte	0x70
 2145 00e8 04       		.uleb128 0x4
 2146 00e9 BB000000 		.4byte	.LASF20
 2147 00ed 03       		.byte	0x3
 2148 00ee 37       		.byte	0x37
 2149 00ef 5E000000 		.4byte	0x5e
 2150 00f3 04       		.uleb128 0x4
 2151 00f4 52020000 		.4byte	.LASF21
 2152 00f8 04       		.byte	0x4
 2153 00f9 2A       		.byte	0x2a
 2154 00fa FE000000 		.4byte	0xfe
ARM GAS  C:\Users\z80\AppData\Local\Temp\ccHATwr0.s 			page 39


 2155 00fe 05       		.uleb128 0x5
 2156 00ff 52020000 		.4byte	.LASF21
 2157 0103 4C       		.byte	0x4c
 2158 0104 05       		.byte	0x5
 2159 0105 5E       		.byte	0x5e
 2160 0106 23020000 		.4byte	0x223
 2161 010a 06       		.uleb128 0x6
 2162 010b 43020000 		.4byte	.LASF22
 2163 010f 05       		.byte	0x5
 2164 0110 5F       		.byte	0x5f
 2165 0111 48020000 		.4byte	0x248
 2166 0115 02       		.byte	0x2
 2167 0116 23       		.byte	0x23
 2168 0117 00       		.uleb128 0x0
 2169 0118 06       		.uleb128 0x6
 2170 0119 EC010000 		.4byte	.LASF23
 2171 011d 05       		.byte	0x5
 2172 011e 61       		.byte	0x61
 2173 011f 48020000 		.4byte	0x248
 2174 0123 02       		.byte	0x2
 2175 0124 23       		.byte	0x23
 2176 0125 04       		.uleb128 0x4
 2177 0126 06       		.uleb128 0x6
 2178 0127 5F000000 		.4byte	.LASF24
 2179 012b 05       		.byte	0x5
 2180 012c 63       		.byte	0x63
 2181 012d BC000000 		.4byte	0xbc
 2182 0131 02       		.byte	0x2
 2183 0132 23       		.byte	0x23
 2184 0133 08       		.uleb128 0x8
 2185 0134 06       		.uleb128 0x6
 2186 0135 24030000 		.4byte	.LASF25
 2187 0139 05       		.byte	0x5
 2188 013a 64       		.byte	0x64
 2189 013b 20030000 		.4byte	0x320
 2190 013f 02       		.byte	0x2
 2191 0140 23       		.byte	0x23
 2192 0141 0C       		.uleb128 0xc
 2193 0142 06       		.uleb128 0x6
 2194 0143 A2000000 		.4byte	.LASF26
 2195 0147 05       		.byte	0x5
 2196 0148 66       		.byte	0x66
 2197 0149 48020000 		.4byte	0x248
 2198 014d 02       		.byte	0x2
 2199 014e 23       		.byte	0x23
 2200 014f 10       		.uleb128 0x10
 2201 0150 06       		.uleb128 0x6
 2202 0151 86010000 		.4byte	.LASF27
 2203 0155 05       		.byte	0x5
 2204 0156 67       		.byte	0x67
 2205 0157 48020000 		.4byte	0x248
 2206 015b 02       		.byte	0x2
 2207 015c 23       		.byte	0x23
 2208 015d 14       		.uleb128 0x14
 2209 015e 06       		.uleb128 0x6
 2210 015f 15030000 		.4byte	.LASF28
 2211 0163 05       		.byte	0x5
ARM GAS  C:\Users\z80\AppData\Local\Temp\ccHATwr0.s 			page 40


 2212 0164 6E       		.byte	0x6e
 2213 0165 6A040000 		.4byte	0x46a
 2214 0169 02       		.byte	0x2
 2215 016a 23       		.byte	0x23
 2216 016b 18       		.uleb128 0x18
 2217 016c 06       		.uleb128 0x6
 2218 016d C1000000 		.4byte	.LASF29
 2219 0171 05       		.byte	0x5
 2220 0172 74       		.byte	0x74
 2221 0173 7C040000 		.4byte	0x47c
 2222 0177 02       		.byte	0x2
 2223 0178 23       		.byte	0x23
 2224 0179 1C       		.uleb128 0x1c
 2225 017a 06       		.uleb128 0x6
 2226 017b 34020000 		.4byte	.LASF30
 2227 017f 05       		.byte	0x5
 2228 0180 79       		.byte	0x79
 2229 0181 A6000000 		.4byte	0xa6
 2230 0185 02       		.byte	0x2
 2231 0186 23       		.byte	0x23
 2232 0187 20       		.uleb128 0x20
 2233 0188 06       		.uleb128 0x6
 2234 0189 4A020000 		.4byte	.LASF31
 2235 018d 05       		.byte	0x5
 2236 018e 7D       		.byte	0x7d
 2237 018f 9B000000 		.4byte	0x9b
 2238 0193 02       		.byte	0x2
 2239 0194 23       		.byte	0x23
 2240 0195 21       		.uleb128 0x21
 2241 0196 06       		.uleb128 0x6
 2242 0197 F3020000 		.4byte	.LASF32
 2243 019b 05       		.byte	0x5
 2244 019c 82       		.byte	0x82
 2245 019d B1000000 		.4byte	0xb1
 2246 01a1 02       		.byte	0x2
 2247 01a2 23       		.byte	0x23
 2248 01a3 22       		.uleb128 0x22
 2249 01a4 06       		.uleb128 0x6
 2250 01a5 9E020000 		.4byte	.LASF33
 2251 01a9 05       		.byte	0x5
 2252 01aa 89       		.byte	0x89
 2253 01ab 46030000 		.4byte	0x346
 2254 01af 02       		.byte	0x2
 2255 01b0 23       		.byte	0x23
 2256 01b1 24       		.uleb128 0x24
 2257 01b2 07       		.uleb128 0x7
 2258 01b3 705F7500 		.ascii	"p_u\000"
 2259 01b7 05       		.byte	0x5
 2260 01b8 AE       		.byte	0xae
 2261 01b9 35040000 		.4byte	0x435
 2262 01bd 02       		.byte	0x2
 2263 01be 23       		.byte	0x23
 2264 01bf 28       		.uleb128 0x28
 2265 01c0 06       		.uleb128 0x6
 2266 01c1 2A030000 		.4byte	.LASF34
 2267 01c5 05       		.byte	0x5
 2268 01c6 B3       		.byte	0xb3
ARM GAS  C:\Users\z80\AppData\Local\Temp\ccHATwr0.s 			page 41


 2269 01c7 70020000 		.4byte	0x270
 2270 01cb 02       		.byte	0x2
 2271 01cc 23       		.byte	0x23
 2272 01cd 2C       		.uleb128 0x2c
 2273 01ce 06       		.uleb128 0x6
 2274 01cf C6020000 		.4byte	.LASF35
 2275 01d3 05       		.byte	0x5
 2276 01d4 B9       		.byte	0xb9
 2277 01d5 4E020000 		.4byte	0x24e
 2278 01d9 02       		.byte	0x2
 2279 01da 23       		.byte	0x23
 2280 01db 30       		.uleb128 0x30
 2281 01dc 06       		.uleb128 0x6
 2282 01dd 07000000 		.4byte	.LASF36
 2283 01e1 05       		.byte	0x5
 2284 01e2 BD       		.byte	0xbd
 2285 01e3 C7000000 		.4byte	0xc7
 2286 01e7 02       		.byte	0x2
 2287 01e8 23       		.byte	0x23
 2288 01e9 38       		.uleb128 0x38
 2289 01ea 06       		.uleb128 0x6
 2290 01eb 62020000 		.4byte	.LASF37
 2291 01ef 05       		.byte	0x5
 2292 01f0 C3       		.byte	0xc3
 2293 01f1 D2000000 		.4byte	0xd2
 2294 01f5 02       		.byte	0x2
 2295 01f6 23       		.byte	0x23
 2296 01f7 3C       		.uleb128 0x3c
 2297 01f8 06       		.uleb128 0x6
 2298 01f9 20020000 		.4byte	.LASF38
 2299 01fd 05       		.byte	0x5
 2300 01fe CA       		.byte	0xca
 2301 01ff 82040000 		.4byte	0x482
 2302 0203 02       		.byte	0x2
 2303 0204 23       		.byte	0x23
 2304 0205 40       		.uleb128 0x40
 2305 0206 06       		.uleb128 0x6
 2306 0207 8C020000 		.4byte	.LASF39
 2307 020b 05       		.byte	0x5
 2308 020c CE       		.byte	0xce
 2309 020d BC000000 		.4byte	0xbc
 2310 0211 02       		.byte	0x2
 2311 0212 23       		.byte	0x23
 2312 0213 44       		.uleb128 0x44
 2313 0214 06       		.uleb128 0x6
 2314 0215 80000000 		.4byte	.LASF40
 2315 0219 05       		.byte	0x5
 2316 021a D4       		.byte	0xd4
 2317 021b 86020000 		.4byte	0x286
 2318 021f 02       		.byte	0x2
 2319 0220 23       		.byte	0x23
 2320 0221 48       		.uleb128 0x48
 2321 0222 00       		.byte	0x0
 2322 0223 08       		.uleb128 0x8
 2323 0224 08       		.byte	0x8
 2324 0225 04       		.byte	0x4
 2325 0226 61       		.byte	0x61
ARM GAS  C:\Users\z80\AppData\Local\Temp\ccHATwr0.s 			page 42


 2326 0227 48020000 		.4byte	0x248
 2327 022b 06       		.uleb128 0x6
 2328 022c 43020000 		.4byte	.LASF22
 2329 0230 04       		.byte	0x4
 2330 0231 62       		.byte	0x62
 2331 0232 48020000 		.4byte	0x248
 2332 0236 02       		.byte	0x2
 2333 0237 23       		.byte	0x23
 2334 0238 00       		.uleb128 0x0
 2335 0239 06       		.uleb128 0x6
 2336 023a EC010000 		.4byte	.LASF23
 2337 023e 04       		.byte	0x4
 2338 023f 64       		.byte	0x64
 2339 0240 48020000 		.4byte	0x248
 2340 0244 02       		.byte	0x2
 2341 0245 23       		.byte	0x23
 2342 0246 04       		.uleb128 0x4
 2343 0247 00       		.byte	0x0
 2344 0248 09       		.uleb128 0x9
 2345 0249 04       		.byte	0x4
 2346 024a F3000000 		.4byte	0xf3
 2347 024e 04       		.uleb128 0x4
 2348 024f 8E010000 		.4byte	.LASF41
 2349 0253 04       		.byte	0x4
 2350 0254 66       		.byte	0x66
 2351 0255 23020000 		.4byte	0x223
 2352 0259 08       		.uleb128 0x8
 2353 025a 04       		.byte	0x4
 2354 025b 04       		.byte	0x4
 2355 025c 6B       		.byte	0x6b
 2356 025d 70020000 		.4byte	0x270
 2357 0261 06       		.uleb128 0x6
 2358 0262 43020000 		.4byte	.LASF22
 2359 0266 04       		.byte	0x4
 2360 0267 6D       		.byte	0x6d
 2361 0268 48020000 		.4byte	0x248
 2362 026c 02       		.byte	0x2
 2363 026d 23       		.byte	0x23
 2364 026e 00       		.uleb128 0x0
 2365 026f 00       		.byte	0x0
 2366 0270 04       		.uleb128 0x4
 2367 0271 4A010000 		.4byte	.LASF42
 2368 0275 04       		.byte	0x4
 2369 0276 70       		.byte	0x70
 2370 0277 59020000 		.4byte	0x259
 2371 027b 04       		.uleb128 0x4
 2372 027c B2000000 		.4byte	.LASF43
 2373 0280 06       		.byte	0x6
 2374 0281 D7       		.byte	0xd7
 2375 0282 86020000 		.4byte	0x286
 2376 0286 0A       		.uleb128 0xa
 2377 0287 04       		.byte	0x4
 2378 0288 04       		.uleb128 0x4
 2379 0289 72010000 		.4byte	.LASF44
 2380 028d 06       		.byte	0x6
 2381 028e DD       		.byte	0xdd
 2382 028f 89000000 		.4byte	0x89
ARM GAS  C:\Users\z80\AppData\Local\Temp\ccHATwr0.s 			page 43


 2383 0293 05       		.uleb128 0x5
 2384 0294 00000000 		.4byte	.LASF45
 2385 0298 24       		.byte	0x24
 2386 0299 06       		.byte	0x6
 2387 029a FE       		.byte	0xfe
 2388 029b 20030000 		.4byte	0x320
 2389 029f 0B       		.uleb128 0xb
 2390 02a0 723400   		.ascii	"r4\000"
 2391 02a3 06       		.byte	0x6
 2392 02a4 1101     		.2byte	0x111
 2393 02a6 7B020000 		.4byte	0x27b
 2394 02aa 02       		.byte	0x2
 2395 02ab 23       		.byte	0x23
 2396 02ac 00       		.uleb128 0x0
 2397 02ad 0B       		.uleb128 0xb
 2398 02ae 723500   		.ascii	"r5\000"
 2399 02b1 06       		.byte	0x6
 2400 02b2 1201     		.2byte	0x112
 2401 02b4 7B020000 		.4byte	0x27b
 2402 02b8 02       		.byte	0x2
 2403 02b9 23       		.byte	0x23
 2404 02ba 04       		.uleb128 0x4
 2405 02bb 0B       		.uleb128 0xb
 2406 02bc 723600   		.ascii	"r6\000"
 2407 02bf 06       		.byte	0x6
 2408 02c0 1301     		.2byte	0x113
 2409 02c2 7B020000 		.4byte	0x27b
 2410 02c6 02       		.byte	0x2
 2411 02c7 23       		.byte	0x23
 2412 02c8 08       		.uleb128 0x8
 2413 02c9 0B       		.uleb128 0xb
 2414 02ca 723700   		.ascii	"r7\000"
 2415 02cd 06       		.byte	0x6
 2416 02ce 1401     		.2byte	0x114
 2417 02d0 7B020000 		.4byte	0x27b
 2418 02d4 02       		.byte	0x2
 2419 02d5 23       		.byte	0x23
 2420 02d6 0C       		.uleb128 0xc
 2421 02d7 0B       		.uleb128 0xb
 2422 02d8 723800   		.ascii	"r8\000"
 2423 02db 06       		.byte	0x6
 2424 02dc 1501     		.2byte	0x115
 2425 02de 7B020000 		.4byte	0x27b
 2426 02e2 02       		.byte	0x2
 2427 02e3 23       		.byte	0x23
 2428 02e4 10       		.uleb128 0x10
 2429 02e5 0B       		.uleb128 0xb
 2430 02e6 723900   		.ascii	"r9\000"
 2431 02e9 06       		.byte	0x6
 2432 02ea 1601     		.2byte	0x116
 2433 02ec 7B020000 		.4byte	0x27b
 2434 02f0 02       		.byte	0x2
 2435 02f1 23       		.byte	0x23
 2436 02f2 14       		.uleb128 0x14
 2437 02f3 0B       		.uleb128 0xb
 2438 02f4 72313000 		.ascii	"r10\000"
 2439 02f8 06       		.byte	0x6
ARM GAS  C:\Users\z80\AppData\Local\Temp\ccHATwr0.s 			page 44


 2440 02f9 1701     		.2byte	0x117
 2441 02fb 7B020000 		.4byte	0x27b
 2442 02ff 02       		.byte	0x2
 2443 0300 23       		.byte	0x23
 2444 0301 18       		.uleb128 0x18
 2445 0302 0B       		.uleb128 0xb
 2446 0303 72313100 		.ascii	"r11\000"
 2447 0307 06       		.byte	0x6
 2448 0308 1801     		.2byte	0x118
 2449 030a 7B020000 		.4byte	0x27b
 2450 030e 02       		.byte	0x2
 2451 030f 23       		.byte	0x23
 2452 0310 1C       		.uleb128 0x1c
 2453 0311 0B       		.uleb128 0xb
 2454 0312 6C7200   		.ascii	"lr\000"
 2455 0315 06       		.byte	0x6
 2456 0316 1901     		.2byte	0x119
 2457 0318 7B020000 		.4byte	0x27b
 2458 031c 02       		.byte	0x2
 2459 031d 23       		.byte	0x23
 2460 031e 20       		.uleb128 0x20
 2461 031f 00       		.byte	0x0
 2462 0320 0C       		.uleb128 0xc
 2463 0321 15010000 		.4byte	.LASF46
 2464 0325 04       		.byte	0x4
 2465 0326 06       		.byte	0x6
 2466 0327 2301     		.2byte	0x123
 2467 0329 3D030000 		.4byte	0x33d
 2468 032d 0B       		.uleb128 0xb
 2469 032e 72313300 		.ascii	"r13\000"
 2470 0332 06       		.byte	0x6
 2471 0333 2401     		.2byte	0x124
 2472 0335 3D030000 		.4byte	0x33d
 2473 0339 02       		.byte	0x2
 2474 033a 23       		.byte	0x23
 2475 033b 00       		.uleb128 0x0
 2476 033c 00       		.byte	0x0
 2477 033d 09       		.uleb128 0x9
 2478 033e 04       		.byte	0x4
 2479 033f 93020000 		.4byte	0x293
 2480 0343 0D       		.uleb128 0xd
 2481 0344 04       		.byte	0x4
 2482 0345 07       		.byte	0x7
 2483 0346 0E       		.uleb128 0xe
 2484 0347 DD000000 		.4byte	0xdd
 2485 034b 05       		.uleb128 0x5
 2486 034c D1020000 		.4byte	.LASF47
 2487 0350 0C       		.byte	0xc
 2488 0351 07       		.byte	0x7
 2489 0352 2C       		.byte	0x2c
 2490 0353 74030000 		.4byte	0x374
 2491 0357 06       		.uleb128 0x6
 2492 0358 AA000000 		.4byte	.LASF48
 2493 035c 07       		.byte	0x7
 2494 035d 2D       		.byte	0x2d
 2495 035e 4E020000 		.4byte	0x24e
 2496 0362 02       		.byte	0x2
ARM GAS  C:\Users\z80\AppData\Local\Temp\ccHATwr0.s 			page 45


 2497 0363 23       		.byte	0x23
 2498 0364 00       		.uleb128 0x0
 2499 0365 06       		.uleb128 0x6
 2500 0366 0F010000 		.4byte	.LASF49
 2501 036a 07       		.byte	0x7
 2502 036b 2F       		.byte	0x2f
 2503 036c E8000000 		.4byte	0xe8
 2504 0370 02       		.byte	0x2
 2505 0371 23       		.byte	0x23
 2506 0372 08       		.uleb128 0x8
 2507 0373 00       		.byte	0x0
 2508 0374 04       		.uleb128 0x4
 2509 0375 D1020000 		.4byte	.LASF47
 2510 0379 07       		.byte	0x7
 2511 037a 30       		.byte	0x30
 2512 037b 4B030000 		.4byte	0x34b
 2513 037f 05       		.uleb128 0x5
 2514 0380 62010000 		.4byte	.LASF50
 2515 0384 10       		.byte	0x10
 2516 0385 08       		.byte	0x8
 2517 0386 2C       		.byte	0x2c
 2518 0387 B6030000 		.4byte	0x3b6
 2519 038b 06       		.uleb128 0x6
 2520 038c 88000000 		.4byte	.LASF51
 2521 0390 08       		.byte	0x8
 2522 0391 2D       		.byte	0x2d
 2523 0392 4E020000 		.4byte	0x24e
 2524 0396 02       		.byte	0x2
 2525 0397 23       		.byte	0x23
 2526 0398 00       		.uleb128 0x0
 2527 0399 06       		.uleb128 0x6
 2528 039a 1C030000 		.4byte	.LASF52
 2529 039e 08       		.byte	0x8
 2530 039f 2F       		.byte	0x2f
 2531 03a0 48020000 		.4byte	0x248
 2532 03a4 02       		.byte	0x2
 2533 03a5 23       		.byte	0x23
 2534 03a6 08       		.uleb128 0x8
 2535 03a7 06       		.uleb128 0x6
 2536 03a8 7B020000 		.4byte	.LASF53
 2537 03ac 08       		.byte	0x8
 2538 03ad 31       		.byte	0x31
 2539 03ae B6030000 		.4byte	0x3b6
 2540 03b2 02       		.byte	0x2
 2541 03b3 23       		.byte	0x23
 2542 03b4 0C       		.uleb128 0xc
 2543 03b5 00       		.byte	0x0
 2544 03b6 09       		.uleb128 0x9
 2545 03b7 04       		.byte	0x4
 2546 03b8 7F030000 		.4byte	0x37f
 2547 03bc 04       		.uleb128 0x4
 2548 03bd 62010000 		.4byte	.LASF50
 2549 03c1 08       		.byte	0x8
 2550 03c2 33       		.byte	0x33
 2551 03c3 7F030000 		.4byte	0x37f
 2552 03c7 08       		.uleb128 0x8
 2553 03c8 28       		.byte	0x28
ARM GAS  C:\Users\z80\AppData\Local\Temp\ccHATwr0.s 			page 46


 2554 03c9 09       		.byte	0x9
 2555 03ca 33       		.byte	0x33
 2556 03cb 24040000 		.4byte	0x424
 2557 03cf 06       		.uleb128 0x6
 2558 03d0 CC010000 		.4byte	.LASF54
 2559 03d4 09       		.byte	0x9
 2560 03d5 34       		.byte	0x34
 2561 03d6 24040000 		.4byte	0x424
 2562 03da 02       		.byte	0x2
 2563 03db 23       		.byte	0x23
 2564 03dc 00       		.uleb128 0x0
 2565 03dd 06       		.uleb128 0x6
 2566 03de 19020000 		.4byte	.LASF55
 2567 03e2 09       		.byte	0x9
 2568 03e3 36       		.byte	0x36
 2569 03e4 24040000 		.4byte	0x424
 2570 03e8 02       		.byte	0x2
 2571 03e9 23       		.byte	0x23
 2572 03ea 04       		.uleb128 0x4
 2573 03eb 06       		.uleb128 0x6
 2574 03ec 56000000 		.4byte	.LASF56
 2575 03f0 09       		.byte	0x9
 2576 03f1 38       		.byte	0x38
 2577 03f2 24040000 		.4byte	0x424
 2578 03f6 02       		.byte	0x2
 2579 03f7 23       		.byte	0x23
 2580 03f8 08       		.uleb128 0x8
 2581 03f9 06       		.uleb128 0x6
 2582 03fa 7D010000 		.4byte	.LASF57
 2583 03fe 09       		.byte	0x9
 2584 03ff 39       		.byte	0x39
 2585 0400 24040000 		.4byte	0x424
 2586 0404 02       		.byte	0x2
 2587 0405 23       		.byte	0x23
 2588 0406 0C       		.uleb128 0xc
 2589 0407 06       		.uleb128 0x6
 2590 0408 DB020000 		.4byte	.LASF58
 2591 040c 09       		.byte	0x9
 2592 040d 3A       		.byte	0x3a
 2593 040e 74030000 		.4byte	0x374
 2594 0412 02       		.byte	0x2
 2595 0413 23       		.byte	0x23
 2596 0414 10       		.uleb128 0x10
 2597 0415 06       		.uleb128 0x6
 2598 0416 FE000000 		.4byte	.LASF59
 2599 041a 09       		.byte	0x9
 2600 041b 3C       		.byte	0x3c
 2601 041c 74030000 		.4byte	0x374
 2602 0420 02       		.byte	0x2
 2603 0421 23       		.byte	0x23
 2604 0422 1C       		.uleb128 0x1c
 2605 0423 00       		.byte	0x0
 2606 0424 09       		.uleb128 0x9
 2607 0425 04       		.byte	0x4
 2608 0426 C7000000 		.4byte	0xc7
 2609 042a 04       		.uleb128 0x4
 2610 042b 1D000000 		.4byte	.LASF60
ARM GAS  C:\Users\z80\AppData\Local\Temp\ccHATwr0.s 			page 47


 2611 042f 09       		.byte	0x9
 2612 0430 3E       		.byte	0x3e
 2613 0431 C7030000 		.4byte	0x3c7
 2614 0435 0F       		.uleb128 0xf
 2615 0436 04       		.byte	0x4
 2616 0437 05       		.byte	0x5
 2617 0438 90       		.byte	0x90
 2618 0439 6A040000 		.4byte	0x46a
 2619 043d 10       		.uleb128 0x10
 2620 043e 0D000000 		.4byte	.LASF61
 2621 0442 05       		.byte	0x5
 2622 0443 97       		.byte	0x97
 2623 0444 C7000000 		.4byte	0xc7
 2624 0448 10       		.uleb128 0x10
 2625 0449 48000000 		.4byte	.LASF62
 2626 044d 05       		.byte	0x5
 2627 044e 9E       		.byte	0x9e
 2628 044f C7000000 		.4byte	0xc7
 2629 0453 10       		.uleb128 0x10
 2630 0454 0E030000 		.4byte	.LASF63
 2631 0458 05       		.byte	0x5
 2632 0459 A5       		.byte	0xa5
 2633 045a 86020000 		.4byte	0x286
 2634 045e 10       		.uleb128 0x10
 2635 045f 3C020000 		.4byte	.LASF64
 2636 0463 05       		.byte	0x5
 2637 0464 AC       		.byte	0xac
 2638 0465 D2000000 		.4byte	0xd2
 2639 0469 00       		.byte	0x0
 2640 046a 09       		.uleb128 0x9
 2641 046b 04       		.byte	0x4
 2642 046c 70040000 		.4byte	0x470
 2643 0470 11       		.uleb128 0x11
 2644 0471 75040000 		.4byte	0x475
 2645 0475 03       		.uleb128 0x3
 2646 0476 01       		.byte	0x1
 2647 0477 08       		.byte	0x8
 2648 0478 76020000 		.4byte	.LASF65
 2649 047c 09       		.uleb128 0x9
 2650 047d 04       		.byte	0x4
 2651 047e 88020000 		.4byte	0x288
 2652 0482 09       		.uleb128 0x9
 2653 0483 04       		.byte	0x4
 2654 0484 BC030000 		.4byte	0x3bc
 2655 0488 05       		.uleb128 0x5
 2656 0489 59020000 		.4byte	.LASF66
 2657 048d 10       		.byte	0x10
 2658 048e 0A       		.byte	0xa
 2659 048f 46       		.byte	0x46
 2660 0490 CD040000 		.4byte	0x4cd
 2661 0494 06       		.uleb128 0x6
 2662 0495 0A010000 		.4byte	.LASF67
 2663 0499 0A       		.byte	0xa
 2664 049a 47       		.byte	0x47
 2665 049b 6A040000 		.4byte	0x46a
 2666 049f 02       		.byte	0x2
 2667 04a0 23       		.byte	0x23
ARM GAS  C:\Users\z80\AppData\Local\Temp\ccHATwr0.s 			page 48


 2668 04a1 00       		.uleb128 0x0
 2669 04a2 06       		.uleb128 0x6
 2670 04a3 9B010000 		.4byte	.LASF68
 2671 04a7 0A       		.byte	0xa
 2672 04a8 48       		.byte	0x48
 2673 04a9 CF040000 		.4byte	0x4cf
 2674 04ad 02       		.byte	0x2
 2675 04ae 23       		.byte	0x23
 2676 04af 04       		.uleb128 0x4
 2677 04b0 06       		.uleb128 0x6
 2678 04b1 F5000000 		.4byte	.LASF69
 2679 04b5 0A       		.byte	0xa
 2680 04b6 49       		.byte	0x49
 2681 04b7 CF040000 		.4byte	0x4cf
 2682 04bb 02       		.byte	0x2
 2683 04bc 23       		.byte	0x23
 2684 04bd 08       		.uleb128 0x8
 2685 04be 06       		.uleb128 0x6
 2686 04bf F3010000 		.4byte	.LASF70
 2687 04c3 0A       		.byte	0xa
 2688 04c4 4A       		.byte	0x4a
 2689 04c5 CF040000 		.4byte	0x4cf
 2690 04c9 02       		.byte	0x2
 2691 04ca 23       		.byte	0x23
 2692 04cb 0C       		.uleb128 0xc
 2693 04cc 00       		.byte	0x0
 2694 04cd 12       		.uleb128 0x12
 2695 04ce 01       		.byte	0x1
 2696 04cf 09       		.uleb128 0x9
 2697 04d0 04       		.byte	0x4
 2698 04d1 CD040000 		.4byte	0x4cd
 2699 04d5 13       		.uleb128 0x13
 2700 04d6 F005     		.2byte	0x5f0
 2701 04d8 0A       		.byte	0xa
 2702 04d9 4F       		.byte	0x4f
 2703 04da 24050000 		.4byte	0x524
 2704 04de 07       		.uleb128 0x7
 2705 04df 543000   		.ascii	"T0\000"
 2706 04e2 0A       		.byte	0xa
 2707 04e3 50       		.byte	0x50
 2708 04e4 24050000 		.4byte	0x524
 2709 04e8 02       		.byte	0x2
 2710 04e9 23       		.byte	0x23
 2711 04ea 00       		.uleb128 0x0
 2712 04eb 07       		.uleb128 0x7
 2713 04ec 543100   		.ascii	"T1\000"
 2714 04ef 0A       		.byte	0xa
 2715 04f0 51       		.byte	0x51
 2716 04f1 24050000 		.4byte	0x524
 2717 04f5 03       		.byte	0x3
 2718 04f6 23       		.byte	0x23
 2719 04f7 B002     		.uleb128 0x130
 2720 04f9 07       		.uleb128 0x7
 2721 04fa 543200   		.ascii	"T2\000"
 2722 04fd 0A       		.byte	0xa
 2723 04fe 52       		.byte	0x52
 2724 04ff 24050000 		.4byte	0x524
ARM GAS  C:\Users\z80\AppData\Local\Temp\ccHATwr0.s 			page 49


 2725 0503 03       		.byte	0x3
 2726 0504 23       		.byte	0x23
 2727 0505 E004     		.uleb128 0x260
 2728 0507 07       		.uleb128 0x7
 2729 0508 543300   		.ascii	"T3\000"
 2730 050b 0A       		.byte	0xa
 2731 050c 53       		.byte	0x53
 2732 050d 24050000 		.4byte	0x524
 2733 0511 03       		.byte	0x3
 2734 0512 23       		.byte	0x23
 2735 0513 9007     		.uleb128 0x390
 2736 0515 07       		.uleb128 0x7
 2737 0516 543400   		.ascii	"T4\000"
 2738 0519 0A       		.byte	0xa
 2739 051a 54       		.byte	0x54
 2740 051b 24050000 		.4byte	0x524
 2741 051f 03       		.byte	0x3
 2742 0520 23       		.byte	0x23
 2743 0521 C009     		.uleb128 0x4c0
 2744 0523 00       		.byte	0x0
 2745 0524 14       		.uleb128 0x14
 2746 0525 88020000 		.4byte	0x288
 2747 0529 34050000 		.4byte	0x534
 2748 052d 15       		.uleb128 0x15
 2749 052e 43030000 		.4byte	0x343
 2750 0532 25       		.byte	0x25
 2751 0533 00       		.byte	0x0
 2752 0534 16       		.uleb128 0x16
 2753 0535 E6020000 		.4byte	.LASF79
 2754 0539 F005     		.2byte	0x5f0
 2755 053b 0A       		.byte	0xa
 2756 053c 4E       		.byte	0x4e
 2757 053d 57050000 		.4byte	0x557
 2758 0541 17       		.uleb128 0x17
 2759 0542 776100   		.ascii	"wa\000"
 2760 0545 0A       		.byte	0xa
 2761 0546 55       		.byte	0x55
 2762 0547 D5040000 		.4byte	0x4d5
 2763 054b 10       		.uleb128 0x10
 2764 054c 97020000 		.4byte	.LASF71
 2765 0550 0A       		.byte	0xa
 2766 0551 56       		.byte	0x56
 2767 0552 57050000 		.4byte	0x557
 2768 0556 00       		.byte	0x0
 2769 0557 14       		.uleb128 0x14
 2770 0558 3E000000 		.4byte	0x3e
 2771 055c 68050000 		.4byte	0x568
 2772 0560 18       		.uleb128 0x18
 2773 0561 43030000 		.4byte	0x343
 2774 0565 EF05     		.2byte	0x5ef
 2775 0567 00       		.byte	0x0
 2776 0568 19       		.uleb128 0x19
 2777 0569 D6010000 		.4byte	.LASF80
 2778 056d 01       		.byte	0x1
 2779 056e 57       		.byte	0x57
 2780 056f 01       		.byte	0x1
 2781 0570 00000000 		.4byte	.LFB8
ARM GAS  C:\Users\z80\AppData\Local\Temp\ccHATwr0.s 			page 50


 2782 0574 64070000 		.4byte	.LFE8
 2783 0578 00000000 		.4byte	.LLST0
 2784 057c DF0B0000 		.4byte	0xbdf
 2785 0580 1A       		.uleb128 0x1a
 2786 0581 D9000000 		.4byte	.LASF72
 2787 0585 01       		.byte	0x1
 2788 0586 58       		.byte	0x58
 2789 0587 C7000000 		.4byte	0xc7
 2790 058b 2C000000 		.4byte	.LLST1
 2791 058f 1B       		.uleb128 0x1b
 2792 0590 DE000000 		.4byte	.LASF81
 2793 0594 01       		.byte	0x1
 2794 0595 58       		.byte	0x58
 2795 0596 C7000000 		.4byte	0xc7
 2796 059a 1C       		.uleb128 0x1c
 2797 059b 6900     		.ascii	"i\000"
 2798 059d 01       		.byte	0x1
 2799 059e 59       		.byte	0x59
 2800 059f 30000000 		.4byte	0x30
 2801 05a3 89010000 		.4byte	.LLST2
 2802 05a7 1D       		.uleb128 0x1d
 2803 05a8 82000000 		.4byte	.LBB2
 2804 05ac 88000000 		.4byte	.LBE2
 2805 05b0 C4050000 		.4byte	0x5c4
 2806 05b4 1C       		.uleb128 0x1c
 2807 05b5 746D7000 		.ascii	"tmp\000"
 2808 05b9 01       		.byte	0x1
 2809 05ba 6F       		.byte	0x6f
 2810 05bb 70000000 		.4byte	0x70
 2811 05bf A8010000 		.4byte	.LLST3
 2812 05c3 00       		.byte	0x0
 2813 05c4 1D       		.uleb128 0x1d
 2814 05c5 9A000000 		.4byte	.LBB3
 2815 05c9 A0000000 		.4byte	.LBE3
 2816 05cd E1050000 		.4byte	0x5e1
 2817 05d1 1C       		.uleb128 0x1c
 2818 05d2 746D7000 		.ascii	"tmp\000"
 2819 05d6 01       		.byte	0x1
 2820 05d7 71       		.byte	0x71
 2821 05d8 70000000 		.4byte	0x70
 2822 05dc BB010000 		.4byte	.LLST4
 2823 05e0 00       		.byte	0x0
 2824 05e1 1D       		.uleb128 0x1d
 2825 05e2 D4000000 		.4byte	.LBB4
 2826 05e6 DA000000 		.4byte	.LBE4
 2827 05ea FE050000 		.4byte	0x5fe
 2828 05ee 1C       		.uleb128 0x1c
 2829 05ef 746D7000 		.ascii	"tmp\000"
 2830 05f3 01       		.byte	0x1
 2831 05f4 75       		.byte	0x75
 2832 05f5 70000000 		.4byte	0x70
 2833 05f9 CE010000 		.4byte	.LLST5
 2834 05fd 00       		.byte	0x0
 2835 05fe 1D       		.uleb128 0x1d
 2836 05ff EC000000 		.4byte	.LBB5
 2837 0603 F2000000 		.4byte	.LBE5
 2838 0607 1B060000 		.4byte	0x61b
ARM GAS  C:\Users\z80\AppData\Local\Temp\ccHATwr0.s 			page 51


 2839 060b 1C       		.uleb128 0x1c
 2840 060c 746D7000 		.ascii	"tmp\000"
 2841 0610 01       		.byte	0x1
 2842 0611 77       		.byte	0x77
 2843 0612 70000000 		.4byte	0x70
 2844 0616 E1010000 		.4byte	.LLST6
 2845 061a 00       		.byte	0x0
 2846 061b 1D       		.uleb128 0x1d
 2847 061c 08010000 		.4byte	.LBB6
 2848 0620 0E010000 		.4byte	.LBE6
 2849 0624 38060000 		.4byte	0x638
 2850 0628 1C       		.uleb128 0x1c
 2851 0629 746D7000 		.ascii	"tmp\000"
 2852 062d 01       		.byte	0x1
 2853 062e 7D       		.byte	0x7d
 2854 062f 70000000 		.4byte	0x70
 2855 0633 F4010000 		.4byte	.LLST7
 2856 0637 00       		.byte	0x0
 2857 0638 1D       		.uleb128 0x1d
 2858 0639 2E010000 		.4byte	.LBB7
 2859 063d 34010000 		.4byte	.LBE7
 2860 0641 55060000 		.4byte	0x655
 2861 0645 1C       		.uleb128 0x1c
 2862 0646 746D7000 		.ascii	"tmp\000"
 2863 064a 01       		.byte	0x1
 2864 064b 7D       		.byte	0x7d
 2865 064c 70000000 		.4byte	0x70
 2866 0650 07020000 		.4byte	.LLST8
 2867 0654 00       		.byte	0x0
 2868 0655 1D       		.uleb128 0x1d
 2869 0656 34010000 		.4byte	.LBB8
 2870 065a 3A010000 		.4byte	.LBE8
 2871 065e 72060000 		.4byte	0x672
 2872 0662 1C       		.uleb128 0x1c
 2873 0663 746D7000 		.ascii	"tmp\000"
 2874 0667 01       		.byte	0x1
 2875 0668 7E       		.byte	0x7e
 2876 0669 70000000 		.4byte	0x70
 2877 066d 1A020000 		.4byte	.LLST9
 2878 0671 00       		.byte	0x0
 2879 0672 1D       		.uleb128 0x1d
 2880 0673 5A010000 		.4byte	.LBB9
 2881 0677 60010000 		.4byte	.LBE9
 2882 067b 8F060000 		.4byte	0x68f
 2883 067f 1C       		.uleb128 0x1c
 2884 0680 746D7000 		.ascii	"tmp\000"
 2885 0684 01       		.byte	0x1
 2886 0685 7E       		.byte	0x7e
 2887 0686 70000000 		.4byte	0x70
 2888 068a 2D020000 		.4byte	.LLST10
 2889 068e 00       		.byte	0x0
 2890 068f 1D       		.uleb128 0x1d
 2891 0690 60010000 		.4byte	.LBB10
 2892 0694 66010000 		.4byte	.LBE10
 2893 0698 AC060000 		.4byte	0x6ac
 2894 069c 1C       		.uleb128 0x1c
 2895 069d 746D7000 		.ascii	"tmp\000"
ARM GAS  C:\Users\z80\AppData\Local\Temp\ccHATwr0.s 			page 52


 2896 06a1 01       		.byte	0x1
 2897 06a2 7F       		.byte	0x7f
 2898 06a3 70000000 		.4byte	0x70
 2899 06a7 40020000 		.4byte	.LLST11
 2900 06ab 00       		.byte	0x0
 2901 06ac 1D       		.uleb128 0x1d
 2902 06ad 86010000 		.4byte	.LBB11
 2903 06b1 90010000 		.4byte	.LBE11
 2904 06b5 C9060000 		.4byte	0x6c9
 2905 06b9 1C       		.uleb128 0x1c
 2906 06ba 746D7000 		.ascii	"tmp\000"
 2907 06be 01       		.byte	0x1
 2908 06bf 7F       		.byte	0x7f
 2909 06c0 70000000 		.4byte	0x70
 2910 06c4 53020000 		.4byte	.LLST12
 2911 06c8 00       		.byte	0x0
 2912 06c9 1D       		.uleb128 0x1d
 2913 06ca 64020000 		.4byte	.LBB12
 2914 06ce 6A020000 		.4byte	.LBE12
 2915 06d2 E6060000 		.4byte	0x6e6
 2916 06d6 1C       		.uleb128 0x1c
 2917 06d7 746D7000 		.ascii	"tmp\000"
 2918 06db 01       		.byte	0x1
 2919 06dc 9A       		.byte	0x9a
 2920 06dd 70000000 		.4byte	0x70
 2921 06e1 66020000 		.4byte	.LLST13
 2922 06e5 00       		.byte	0x0
 2923 06e6 1D       		.uleb128 0x1d
 2924 06e7 7C020000 		.4byte	.LBB13
 2925 06eb 82020000 		.4byte	.LBE13
 2926 06ef 03070000 		.4byte	0x703
 2927 06f3 1C       		.uleb128 0x1c
 2928 06f4 746D7000 		.ascii	"tmp\000"
 2929 06f8 01       		.byte	0x1
 2930 06f9 9C       		.byte	0x9c
 2931 06fa 70000000 		.4byte	0x70
 2932 06fe 79020000 		.4byte	.LLST14
 2933 0702 00       		.byte	0x0
 2934 0703 1D       		.uleb128 0x1d
 2935 0704 9A020000 		.4byte	.LBB14
 2936 0708 A0020000 		.4byte	.LBE14
 2937 070c 20070000 		.4byte	0x720
 2938 0710 1C       		.uleb128 0x1c
 2939 0711 746D7000 		.ascii	"tmp\000"
 2940 0715 01       		.byte	0x1
 2941 0716 A2       		.byte	0xa2
 2942 0717 70000000 		.4byte	0x70
 2943 071b 8C020000 		.4byte	.LLST15
 2944 071f 00       		.byte	0x0
 2945 0720 1D       		.uleb128 0x1d
 2946 0721 BE020000 		.4byte	.LBB15
 2947 0725 C4020000 		.4byte	.LBE15
 2948 0729 3D070000 		.4byte	0x73d
 2949 072d 1C       		.uleb128 0x1c
 2950 072e 746D7000 		.ascii	"tmp\000"
 2951 0732 01       		.byte	0x1
 2952 0733 A2       		.byte	0xa2
ARM GAS  C:\Users\z80\AppData\Local\Temp\ccHATwr0.s 			page 53


 2953 0734 70000000 		.4byte	0x70
 2954 0738 9F020000 		.4byte	.LLST16
 2955 073c 00       		.byte	0x0
 2956 073d 1D       		.uleb128 0x1d
 2957 073e C4020000 		.4byte	.LBB16
 2958 0742 CA020000 		.4byte	.LBE16
 2959 0746 5A070000 		.4byte	0x75a
 2960 074a 1C       		.uleb128 0x1c
 2961 074b 746D7000 		.ascii	"tmp\000"
 2962 074f 01       		.byte	0x1
 2963 0750 A3       		.byte	0xa3
 2964 0751 70000000 		.4byte	0x70
 2965 0755 B2020000 		.4byte	.LLST17
 2966 0759 00       		.byte	0x0
 2967 075a 1D       		.uleb128 0x1d
 2968 075b EE020000 		.4byte	.LBB17
 2969 075f F4020000 		.4byte	.LBE17
 2970 0763 77070000 		.4byte	0x777
 2971 0767 1C       		.uleb128 0x1c
 2972 0768 746D7000 		.ascii	"tmp\000"
 2973 076c 01       		.byte	0x1
 2974 076d A3       		.byte	0xa3
 2975 076e 70000000 		.4byte	0x70
 2976 0772 C5020000 		.4byte	.LLST18
 2977 0776 00       		.byte	0x0
 2978 0777 1D       		.uleb128 0x1d
 2979 0778 F4020000 		.4byte	.LBB18
 2980 077c FA020000 		.4byte	.LBE18
 2981 0780 94070000 		.4byte	0x794
 2982 0784 1C       		.uleb128 0x1c
 2983 0785 746D7000 		.ascii	"tmp\000"
 2984 0789 01       		.byte	0x1
 2985 078a A4       		.byte	0xa4
 2986 078b 70000000 		.4byte	0x70
 2987 078f D8020000 		.4byte	.LLST19
 2988 0793 00       		.byte	0x0
 2989 0794 1D       		.uleb128 0x1d
 2990 0795 1C030000 		.4byte	.LBB19
 2991 0799 22030000 		.4byte	.LBE19
 2992 079d B1070000 		.4byte	0x7b1
 2993 07a1 1C       		.uleb128 0x1c
 2994 07a2 746D7000 		.ascii	"tmp\000"
 2995 07a6 01       		.byte	0x1
 2996 07a7 A4       		.byte	0xa4
 2997 07a8 70000000 		.4byte	0x70
 2998 07ac EB020000 		.4byte	.LLST20
 2999 07b0 00       		.byte	0x0
 3000 07b1 1D       		.uleb128 0x1d
 3001 07b2 22030000 		.4byte	.LBB20
 3002 07b6 28030000 		.4byte	.LBE20
 3003 07ba CE070000 		.4byte	0x7ce
 3004 07be 1C       		.uleb128 0x1c
 3005 07bf 746D7000 		.ascii	"tmp\000"
 3006 07c3 01       		.byte	0x1
 3007 07c4 A9       		.byte	0xa9
 3008 07c5 70000000 		.4byte	0x70
 3009 07c9 FE020000 		.4byte	.LLST21
ARM GAS  C:\Users\z80\AppData\Local\Temp\ccHATwr0.s 			page 54


 3010 07cd 00       		.byte	0x0
 3011 07ce 1D       		.uleb128 0x1d
 3012 07cf AC030000 		.4byte	.LBB21
 3013 07d3 B2030000 		.4byte	.LBE21
 3014 07d7 EB070000 		.4byte	0x7eb
 3015 07db 1C       		.uleb128 0x1c
 3016 07dc 746D7000 		.ascii	"tmp\000"
 3017 07e0 01       		.byte	0x1
 3018 07e1 B3       		.byte	0xb3
 3019 07e2 70000000 		.4byte	0x70
 3020 07e6 11030000 		.4byte	.LLST22
 3021 07ea 00       		.byte	0x0
 3022 07eb 1D       		.uleb128 0x1d
 3023 07ec E0030000 		.4byte	.LBB22
 3024 07f0 E6030000 		.4byte	.LBE22
 3025 07f4 08080000 		.4byte	0x808
 3026 07f8 1C       		.uleb128 0x1c
 3027 07f9 746D7000 		.ascii	"tmp\000"
 3028 07fd 01       		.byte	0x1
 3029 07fe B7       		.byte	0xb7
 3030 07ff 70000000 		.4byte	0x70
 3031 0803 24030000 		.4byte	.LLST23
 3032 0807 00       		.byte	0x0
 3033 0808 1D       		.uleb128 0x1d
 3034 0809 FA030000 		.4byte	.LBB23
 3035 080d 00040000 		.4byte	.LBE23
 3036 0811 25080000 		.4byte	0x825
 3037 0815 1C       		.uleb128 0x1c
 3038 0816 746D7000 		.ascii	"tmp\000"
 3039 081a 01       		.byte	0x1
 3040 081b B9       		.byte	0xb9
 3041 081c 70000000 		.4byte	0x70
 3042 0820 37030000 		.4byte	.LLST24
 3043 0824 00       		.byte	0x0
 3044 0825 1D       		.uleb128 0x1d
 3045 0826 30040000 		.4byte	.LBB24
 3046 082a 36040000 		.4byte	.LBE24
 3047 082e 42080000 		.4byte	0x842
 3048 0832 1C       		.uleb128 0x1c
 3049 0833 746D7000 		.ascii	"tmp\000"
 3050 0837 01       		.byte	0x1
 3051 0838 BE       		.byte	0xbe
 3052 0839 70000000 		.4byte	0x70
 3053 083d 4A030000 		.4byte	.LLST25
 3054 0841 00       		.byte	0x0
 3055 0842 1D       		.uleb128 0x1d
 3056 0843 54040000 		.4byte	.LBB25
 3057 0847 5A040000 		.4byte	.LBE25
 3058 084b 5F080000 		.4byte	0x85f
 3059 084f 1C       		.uleb128 0x1c
 3060 0850 746D7000 		.ascii	"tmp\000"
 3061 0854 01       		.byte	0x1
 3062 0855 BE       		.byte	0xbe
 3063 0856 70000000 		.4byte	0x70
 3064 085a 5D030000 		.4byte	.LLST26
 3065 085e 00       		.byte	0x0
 3066 085f 1D       		.uleb128 0x1d
ARM GAS  C:\Users\z80\AppData\Local\Temp\ccHATwr0.s 			page 55


 3067 0860 5A040000 		.4byte	.LBB26
 3068 0864 60040000 		.4byte	.LBE26
 3069 0868 7C080000 		.4byte	0x87c
 3070 086c 1C       		.uleb128 0x1c
 3071 086d 746D7000 		.ascii	"tmp\000"
 3072 0871 01       		.byte	0x1
 3073 0872 BF       		.byte	0xbf
 3074 0873 70000000 		.4byte	0x70
 3075 0877 70030000 		.4byte	.LLST27
 3076 087b 00       		.byte	0x0
 3077 087c 1D       		.uleb128 0x1d
 3078 087d 7E040000 		.4byte	.LBB27
 3079 0881 84040000 		.4byte	.LBE27
 3080 0885 99080000 		.4byte	0x899
 3081 0889 1C       		.uleb128 0x1c
 3082 088a 746D7000 		.ascii	"tmp\000"
 3083 088e 01       		.byte	0x1
 3084 088f BF       		.byte	0xbf
 3085 0890 70000000 		.4byte	0x70
 3086 0894 83030000 		.4byte	.LLST28
 3087 0898 00       		.byte	0x0
 3088 0899 1D       		.uleb128 0x1d
 3089 089a 9C040000 		.4byte	.LBB28
 3090 089e A2040000 		.4byte	.LBE28
 3091 08a2 B6080000 		.4byte	0x8b6
 3092 08a6 1C       		.uleb128 0x1c
 3093 08a7 746D7000 		.ascii	"tmp\000"
 3094 08ab 01       		.byte	0x1
 3095 08ac C2       		.byte	0xc2
 3096 08ad 70000000 		.4byte	0x70
 3097 08b1 96030000 		.4byte	.LLST29
 3098 08b5 00       		.byte	0x0
 3099 08b6 1D       		.uleb128 0x1d
 3100 08b7 26050000 		.4byte	.LBB29
 3101 08bb 2C050000 		.4byte	.LBE29
 3102 08bf D3080000 		.4byte	0x8d3
 3103 08c3 1C       		.uleb128 0x1c
 3104 08c4 746D7000 		.ascii	"tmp\000"
 3105 08c8 01       		.byte	0x1
 3106 08c9 CC       		.byte	0xcc
 3107 08ca 70000000 		.4byte	0x70
 3108 08ce A9030000 		.4byte	.LLST30
 3109 08d2 00       		.byte	0x0
 3110 08d3 1D       		.uleb128 0x1d
 3111 08d4 5A050000 		.4byte	.LBB30
 3112 08d8 60050000 		.4byte	.LBE30
 3113 08dc F0080000 		.4byte	0x8f0
 3114 08e0 1C       		.uleb128 0x1c
 3115 08e1 746D7000 		.ascii	"tmp\000"
 3116 08e5 01       		.byte	0x1
 3117 08e6 D0       		.byte	0xd0
 3118 08e7 70000000 		.4byte	0x70
 3119 08eb BC030000 		.4byte	.LLST31
 3120 08ef 00       		.byte	0x0
 3121 08f0 1D       		.uleb128 0x1d
 3122 08f1 74050000 		.4byte	.LBB31
 3123 08f5 7A050000 		.4byte	.LBE31
ARM GAS  C:\Users\z80\AppData\Local\Temp\ccHATwr0.s 			page 56


 3124 08f9 0D090000 		.4byte	0x90d
 3125 08fd 1C       		.uleb128 0x1c
 3126 08fe 746D7000 		.ascii	"tmp\000"
 3127 0902 01       		.byte	0x1
 3128 0903 D2       		.byte	0xd2
 3129 0904 70000000 		.4byte	0x70
 3130 0908 CF030000 		.4byte	.LLST32
 3131 090c 00       		.byte	0x0
 3132 090d 1D       		.uleb128 0x1d
 3133 090e AA050000 		.4byte	.LBB32
 3134 0912 B0050000 		.4byte	.LBE32
 3135 0916 2A090000 		.4byte	0x92a
 3136 091a 1C       		.uleb128 0x1c
 3137 091b 746D7000 		.ascii	"tmp\000"
 3138 091f 01       		.byte	0x1
 3139 0920 D7       		.byte	0xd7
 3140 0921 70000000 		.4byte	0x70
 3141 0925 E2030000 		.4byte	.LLST33
 3142 0929 00       		.byte	0x0
 3143 092a 1D       		.uleb128 0x1d
 3144 092b CE050000 		.4byte	.LBB33
 3145 092f D4050000 		.4byte	.LBE33
 3146 0933 47090000 		.4byte	0x947
 3147 0937 1C       		.uleb128 0x1c
 3148 0938 746D7000 		.ascii	"tmp\000"
 3149 093c 01       		.byte	0x1
 3150 093d D7       		.byte	0xd7
 3151 093e 70000000 		.4byte	0x70
 3152 0942 F5030000 		.4byte	.LLST34
 3153 0946 00       		.byte	0x0
 3154 0947 1D       		.uleb128 0x1d
 3155 0948 D4050000 		.4byte	.LBB34
 3156 094c DA050000 		.4byte	.LBE34
 3157 0950 64090000 		.4byte	0x964
 3158 0954 1C       		.uleb128 0x1c
 3159 0955 746D7000 		.ascii	"tmp\000"
 3160 0959 01       		.byte	0x1
 3161 095a D8       		.byte	0xd8
 3162 095b 70000000 		.4byte	0x70
 3163 095f 08040000 		.4byte	.LLST35
 3164 0963 00       		.byte	0x0
 3165 0964 1D       		.uleb128 0x1d
 3166 0965 F8050000 		.4byte	.LBB35
 3167 0969 FE050000 		.4byte	.LBE35
 3168 096d 81090000 		.4byte	0x981
 3169 0971 1C       		.uleb128 0x1c
 3170 0972 746D7000 		.ascii	"tmp\000"
 3171 0976 01       		.byte	0x1
 3172 0977 D8       		.byte	0xd8
 3173 0978 70000000 		.4byte	0x70
 3174 097c 1B040000 		.4byte	.LLST36
 3175 0980 00       		.byte	0x0
 3176 0981 1D       		.uleb128 0x1d
 3177 0982 1C060000 		.4byte	.LBB36
 3178 0986 22060000 		.4byte	.LBE36
 3179 098a 9E090000 		.4byte	0x99e
 3180 098e 1C       		.uleb128 0x1c
ARM GAS  C:\Users\z80\AppData\Local\Temp\ccHATwr0.s 			page 57


 3181 098f 746D7000 		.ascii	"tmp\000"
 3182 0993 01       		.byte	0x1
 3183 0994 E3       		.byte	0xe3
 3184 0995 70000000 		.4byte	0x70
 3185 0999 2E040000 		.4byte	.LLST37
 3186 099d 00       		.byte	0x0
 3187 099e 1D       		.uleb128 0x1d
 3188 099f 3E060000 		.4byte	.LBB37
 3189 09a3 44060000 		.4byte	.LBE37
 3190 09a7 BB090000 		.4byte	0x9bb
 3191 09ab 1C       		.uleb128 0x1c
 3192 09ac 746D7000 		.ascii	"tmp\000"
 3193 09b0 01       		.byte	0x1
 3194 09b1 E3       		.byte	0xe3
 3195 09b2 70000000 		.4byte	0x70
 3196 09b6 41040000 		.4byte	.LLST38
 3197 09ba 00       		.byte	0x0
 3198 09bb 1D       		.uleb128 0x1d
 3199 09bc 44060000 		.4byte	.LBB38
 3200 09c0 4A060000 		.4byte	.LBE38
 3201 09c4 D8090000 		.4byte	0x9d8
 3202 09c8 1C       		.uleb128 0x1c
 3203 09c9 746D7000 		.ascii	"tmp\000"
 3204 09cd 01       		.byte	0x1
 3205 09ce E4       		.byte	0xe4
 3206 09cf 70000000 		.4byte	0x70
 3207 09d3 54040000 		.4byte	.LLST39
 3208 09d7 00       		.byte	0x0
 3209 09d8 1D       		.uleb128 0x1d
 3210 09d9 66060000 		.4byte	.LBB39
 3211 09dd 6C060000 		.4byte	.LBE39
 3212 09e1 F5090000 		.4byte	0x9f5
 3213 09e5 1C       		.uleb128 0x1c
 3214 09e6 746D7000 		.ascii	"tmp\000"
 3215 09ea 01       		.byte	0x1
 3216 09eb E4       		.byte	0xe4
 3217 09ec 70000000 		.4byte	0x70
 3218 09f0 67040000 		.4byte	.LLST40
 3219 09f4 00       		.byte	0x0
 3220 09f5 1D       		.uleb128 0x1d
 3221 09f6 6C060000 		.4byte	.LBB40
 3222 09fa 72060000 		.4byte	.LBE40
 3223 09fe 120A0000 		.4byte	0xa12
 3224 0a02 1C       		.uleb128 0x1c
 3225 0a03 746D7000 		.ascii	"tmp\000"
 3226 0a07 01       		.byte	0x1
 3227 0a08 E5       		.byte	0xe5
 3228 0a09 70000000 		.4byte	0x70
 3229 0a0d 7A040000 		.4byte	.LLST41
 3230 0a11 00       		.byte	0x0
 3231 0a12 1D       		.uleb128 0x1d
 3232 0a13 90060000 		.4byte	.LBB41
 3233 0a17 96060000 		.4byte	.LBE41
 3234 0a1b 2F0A0000 		.4byte	0xa2f
 3235 0a1f 1C       		.uleb128 0x1c
 3236 0a20 746D7000 		.ascii	"tmp\000"
 3237 0a24 01       		.byte	0x1
ARM GAS  C:\Users\z80\AppData\Local\Temp\ccHATwr0.s 			page 58


 3238 0a25 E5       		.byte	0xe5
 3239 0a26 70000000 		.4byte	0x70
 3240 0a2a 8D040000 		.4byte	.LLST42
 3241 0a2e 00       		.byte	0x0
 3242 0a2f 1D       		.uleb128 0x1d
 3243 0a30 96060000 		.4byte	.LBB42
 3244 0a34 9C060000 		.4byte	.LBE42
 3245 0a38 4C0A0000 		.4byte	0xa4c
 3246 0a3c 1C       		.uleb128 0x1c
 3247 0a3d 746D7000 		.ascii	"tmp\000"
 3248 0a41 01       		.byte	0x1
 3249 0a42 E6       		.byte	0xe6
 3250 0a43 70000000 		.4byte	0x70
 3251 0a47 A0040000 		.4byte	.LLST43
 3252 0a4b 00       		.byte	0x0
 3253 0a4c 1D       		.uleb128 0x1d
 3254 0a4d B6060000 		.4byte	.LBB43
 3255 0a51 BE060000 		.4byte	.LBE43
 3256 0a55 690A0000 		.4byte	0xa69
 3257 0a59 1C       		.uleb128 0x1c
 3258 0a5a 746D7000 		.ascii	"tmp\000"
 3259 0a5e 01       		.byte	0x1
 3260 0a5f E6       		.byte	0xe6
 3261 0a60 70000000 		.4byte	0x70
 3262 0a64 B3040000 		.4byte	.LLST44
 3263 0a68 00       		.byte	0x0
 3264 0a69 1D       		.uleb128 0x1d
 3265 0a6a C2060000 		.4byte	.LBB44
 3266 0a6e C8060000 		.4byte	.LBE44
 3267 0a72 860A0000 		.4byte	0xa86
 3268 0a76 1C       		.uleb128 0x1c
 3269 0a77 746D7000 		.ascii	"tmp\000"
 3270 0a7b 01       		.byte	0x1
 3271 0a7c 7D       		.byte	0x7d
 3272 0a7d 70000000 		.4byte	0x70
 3273 0a81 D1040000 		.4byte	.LLST45
 3274 0a85 00       		.byte	0x0
 3275 0a86 1D       		.uleb128 0x1d
 3276 0a87 CE060000 		.4byte	.LBB45
 3277 0a8b D4060000 		.4byte	.LBE45
 3278 0a8f A30A0000 		.4byte	0xaa3
 3279 0a93 1C       		.uleb128 0x1c
 3280 0a94 746D7000 		.ascii	"tmp\000"
 3281 0a98 01       		.byte	0x1
 3282 0a99 7E       		.byte	0x7e
 3283 0a9a 70000000 		.4byte	0x70
 3284 0a9e EF040000 		.4byte	.LLST46
 3285 0aa2 00       		.byte	0x0
 3286 0aa3 1D       		.uleb128 0x1d
 3287 0aa4 DA060000 		.4byte	.LBB46
 3288 0aa8 E0060000 		.4byte	.LBE46
 3289 0aac C00A0000 		.4byte	0xac0
 3290 0ab0 1C       		.uleb128 0x1c
 3291 0ab1 746D7000 		.ascii	"tmp\000"
 3292 0ab5 01       		.byte	0x1
 3293 0ab6 7F       		.byte	0x7f
 3294 0ab7 70000000 		.4byte	0x70
ARM GAS  C:\Users\z80\AppData\Local\Temp\ccHATwr0.s 			page 59


 3295 0abb 0D050000 		.4byte	.LLST47
 3296 0abf 00       		.byte	0x0
 3297 0ac0 1D       		.uleb128 0x1d
 3298 0ac1 E6060000 		.4byte	.LBB47
 3299 0ac5 EC060000 		.4byte	.LBE47
 3300 0ac9 DD0A0000 		.4byte	0xadd
 3301 0acd 1C       		.uleb128 0x1c
 3302 0ace 746D7000 		.ascii	"tmp\000"
 3303 0ad2 01       		.byte	0x1
 3304 0ad3 A4       		.byte	0xa4
 3305 0ad4 70000000 		.4byte	0x70
 3306 0ad8 2B050000 		.4byte	.LLST48
 3307 0adc 00       		.byte	0x0
 3308 0add 1D       		.uleb128 0x1d
 3309 0ade F2060000 		.4byte	.LBB48
 3310 0ae2 F8060000 		.4byte	.LBE48
 3311 0ae6 FA0A0000 		.4byte	0xafa
 3312 0aea 1C       		.uleb128 0x1c
 3313 0aeb 746D7000 		.ascii	"tmp\000"
 3314 0aef 01       		.byte	0x1
 3315 0af0 BF       		.byte	0xbf
 3316 0af1 70000000 		.4byte	0x70
 3317 0af5 49050000 		.4byte	.LLST49
 3318 0af9 00       		.byte	0x0
 3319 0afa 1D       		.uleb128 0x1d
 3320 0afb FE060000 		.4byte	.LBB49
 3321 0aff 04070000 		.4byte	.LBE49
 3322 0b03 170B0000 		.4byte	0xb17
 3323 0b07 1C       		.uleb128 0x1c
 3324 0b08 746D7000 		.ascii	"tmp\000"
 3325 0b0c 01       		.byte	0x1
 3326 0b0d A3       		.byte	0xa3
 3327 0b0e 70000000 		.4byte	0x70
 3328 0b12 67050000 		.4byte	.LLST50
 3329 0b16 00       		.byte	0x0
 3330 0b17 1D       		.uleb128 0x1d
 3331 0b18 0A070000 		.4byte	.LBB50
 3332 0b1c 10070000 		.4byte	.LBE50
 3333 0b20 340B0000 		.4byte	0xb34
 3334 0b24 1C       		.uleb128 0x1c
 3335 0b25 746D7000 		.ascii	"tmp\000"
 3336 0b29 01       		.byte	0x1
 3337 0b2a A2       		.byte	0xa2
 3338 0b2b 70000000 		.4byte	0x70
 3339 0b2f 85050000 		.4byte	.LLST51
 3340 0b33 00       		.byte	0x0
 3341 0b34 1D       		.uleb128 0x1d
 3342 0b35 16070000 		.4byte	.LBB51
 3343 0b39 1C070000 		.4byte	.LBE51
 3344 0b3d 510B0000 		.4byte	0xb51
 3345 0b41 1C       		.uleb128 0x1c
 3346 0b42 746D7000 		.ascii	"tmp\000"
 3347 0b46 01       		.byte	0x1
 3348 0b47 BE       		.byte	0xbe
 3349 0b48 70000000 		.4byte	0x70
 3350 0b4c A3050000 		.4byte	.LLST52
 3351 0b50 00       		.byte	0x0
ARM GAS  C:\Users\z80\AppData\Local\Temp\ccHATwr0.s 			page 60


 3352 0b51 1D       		.uleb128 0x1d
 3353 0b52 22070000 		.4byte	.LBB52
 3354 0b56 28070000 		.4byte	.LBE52
 3355 0b5a 6E0B0000 		.4byte	0xb6e
 3356 0b5e 1C       		.uleb128 0x1c
 3357 0b5f 746D7000 		.ascii	"tmp\000"
 3358 0b63 01       		.byte	0x1
 3359 0b64 E5       		.byte	0xe5
 3360 0b65 70000000 		.4byte	0x70
 3361 0b69 C1050000 		.4byte	.LLST53
 3362 0b6d 00       		.byte	0x0
 3363 0b6e 1D       		.uleb128 0x1d
 3364 0b6f 2E070000 		.4byte	.LBB53
 3365 0b73 34070000 		.4byte	.LBE53
 3366 0b77 8B0B0000 		.4byte	0xb8b
 3367 0b7b 1C       		.uleb128 0x1c
 3368 0b7c 746D7000 		.ascii	"tmp\000"
 3369 0b80 01       		.byte	0x1
 3370 0b81 E4       		.byte	0xe4
 3371 0b82 70000000 		.4byte	0x70
 3372 0b86 DF050000 		.4byte	.LLST54
 3373 0b8a 00       		.byte	0x0
 3374 0b8b 1D       		.uleb128 0x1d
 3375 0b8c 3A070000 		.4byte	.LBB54
 3376 0b90 40070000 		.4byte	.LBE54
 3377 0b94 A80B0000 		.4byte	0xba8
 3378 0b98 1C       		.uleb128 0x1c
 3379 0b99 746D7000 		.ascii	"tmp\000"
 3380 0b9d 01       		.byte	0x1
 3381 0b9e E3       		.byte	0xe3
 3382 0b9f 70000000 		.4byte	0x70
 3383 0ba3 FD050000 		.4byte	.LLST55
 3384 0ba7 00       		.byte	0x0
 3385 0ba8 1D       		.uleb128 0x1d
 3386 0ba9 46070000 		.4byte	.LBB55
 3387 0bad 4C070000 		.4byte	.LBE55
 3388 0bb1 C50B0000 		.4byte	0xbc5
 3389 0bb5 1C       		.uleb128 0x1c
 3390 0bb6 746D7000 		.ascii	"tmp\000"
 3391 0bba 01       		.byte	0x1
 3392 0bbb D8       		.byte	0xd8
 3393 0bbc 70000000 		.4byte	0x70
 3394 0bc0 1B060000 		.4byte	.LLST56
 3395 0bc4 00       		.byte	0x0
 3396 0bc5 1E       		.uleb128 0x1e
 3397 0bc6 52070000 		.4byte	.LBB56
 3398 0bca 58070000 		.4byte	.LBE56
 3399 0bce 1C       		.uleb128 0x1c
 3400 0bcf 746D7000 		.ascii	"tmp\000"
 3401 0bd3 01       		.byte	0x1
 3402 0bd4 D7       		.byte	0xd7
 3403 0bd5 70000000 		.4byte	0x70
 3404 0bd9 39060000 		.4byte	.LLST57
 3405 0bdd 00       		.byte	0x0
 3406 0bde 00       		.byte	0x0
 3407 0bdf 1F       		.uleb128 0x1f
 3408 0be0 3E010000 		.4byte	.LASF82
ARM GAS  C:\Users\z80\AppData\Local\Temp\ccHATwr0.s 			page 61


 3409 0be4 01       		.byte	0x1
 3410 0be5 52       		.byte	0x52
 3411 0be6 01       		.byte	0x1
 3412 0be7 00000000 		.4byte	.LFB7
 3413 0beb 1A000000 		.4byte	.LFE7
 3414 0bef 57060000 		.4byte	.LLST58
 3415 0bf3 20       		.uleb128 0x20
 3416 0bf4 51000000 		.4byte	.LASF73
 3417 0bf8 0A       		.byte	0xa
 3418 0bf9 B1       		.byte	0xb1
 3419 0bfa 34050000 		.4byte	0x534
 3420 0bfe 01       		.byte	0x1
 3421 0bff 01       		.byte	0x1
 3422 0c00 21       		.uleb128 0x21
 3423 0c01 6D623100 		.ascii	"mb1\000"
 3424 0c05 01       		.byte	0x1
 3425 0c06 47       		.byte	0x47
 3426 0c07 2A040000 		.4byte	0x42a
 3427 0c0b 05       		.byte	0x5
 3428 0c0c 03       		.byte	0x3
 3429 0c0d 00000000 		.4byte	mb1
 3430 0c11 20       		.uleb128 0x20
 3431 0c12 68010000 		.4byte	.LASF74
 3432 0c16 01       		.byte	0x1
 3433 0c17 E9       		.byte	0xe9
 3434 0c18 1E0C0000 		.4byte	0xc1e
 3435 0c1c 01       		.byte	0x1
 3436 0c1d 01       		.byte	0x1
 3437 0c1e 11       		.uleb128 0x11
 3438 0c1f 88040000 		.4byte	0x488
 3439 0c23 20       		.uleb128 0x20
 3440 0c24 51000000 		.4byte	.LASF73
 3441 0c28 0A       		.byte	0xa
 3442 0c29 B1       		.byte	0xb1
 3443 0c2a 34050000 		.4byte	0x534
 3444 0c2e 01       		.byte	0x1
 3445 0c2f 01       		.byte	0x1
 3446 0c30 22       		.uleb128 0x22
 3447 0c31 68010000 		.4byte	.LASF74
 3448 0c35 01       		.byte	0x1
 3449 0c36 E9       		.byte	0xe9
 3450 0c37 1E0C0000 		.4byte	0xc1e
 3451 0c3b 01       		.byte	0x1
 3452 0c3c 05       		.byte	0x5
 3453 0c3d 03       		.byte	0x3
 3454 0c3e 00000000 		.4byte	testmbox1
 3455 0c42 14       		.uleb128 0x14
 3456 0c43 520C0000 		.4byte	0xc52
 3457 0c47 520C0000 		.4byte	0xc52
 3458 0c4b 15       		.uleb128 0x15
 3459 0c4c 43030000 		.4byte	0x343
 3460 0c50 01       		.byte	0x1
 3461 0c51 00       		.byte	0x0
 3462 0c52 09       		.uleb128 0x9
 3463 0c53 04       		.byte	0x4
 3464 0c54 1E0C0000 		.4byte	0xc1e
 3465 0c58 22       		.uleb128 0x22
ARM GAS  C:\Users\z80\AppData\Local\Temp\ccHATwr0.s 			page 62


 3466 0c59 3C000000 		.4byte	.LASF75
 3467 0c5d 01       		.byte	0x1
 3468 0c5e F5       		.byte	0xf5
 3469 0c5f 6A0C0000 		.4byte	0xc6a
 3470 0c63 01       		.byte	0x1
 3471 0c64 05       		.byte	0x5
 3472 0c65 03       		.byte	0x3
 3473 0c66 00000000 		.4byte	patternmbox
 3474 0c6a 11       		.uleb128 0x11
 3475 0c6b 420C0000 		.4byte	0xc42
 3476 0c6f 00       		.byte	0x0
 3477              		.section	.debug_abbrev
 3478 0000 01       		.uleb128 0x1
 3479 0001 11       		.uleb128 0x11
 3480 0002 01       		.byte	0x1
 3481 0003 25       		.uleb128 0x25
 3482 0004 0E       		.uleb128 0xe
 3483 0005 13       		.uleb128 0x13
 3484 0006 0B       		.uleb128 0xb
 3485 0007 03       		.uleb128 0x3
 3486 0008 0E       		.uleb128 0xe
 3487 0009 1B       		.uleb128 0x1b
 3488 000a 0E       		.uleb128 0xe
 3489 000b 11       		.uleb128 0x11
 3490 000c 01       		.uleb128 0x1
 3491 000d 52       		.uleb128 0x52
 3492 000e 01       		.uleb128 0x1
 3493 000f 55       		.uleb128 0x55
 3494 0010 06       		.uleb128 0x6
 3495 0011 10       		.uleb128 0x10
 3496 0012 06       		.uleb128 0x6
 3497 0013 00       		.byte	0x0
 3498 0014 00       		.byte	0x0
 3499 0015 02       		.uleb128 0x2
 3500 0016 24       		.uleb128 0x24
 3501 0017 00       		.byte	0x0
 3502 0018 0B       		.uleb128 0xb
 3503 0019 0B       		.uleb128 0xb
 3504 001a 3E       		.uleb128 0x3e
 3505 001b 0B       		.uleb128 0xb
 3506 001c 03       		.uleb128 0x3
 3507 001d 08       		.uleb128 0x8
 3508 001e 00       		.byte	0x0
 3509 001f 00       		.byte	0x0
 3510 0020 03       		.uleb128 0x3
 3511 0021 24       		.uleb128 0x24
 3512 0022 00       		.byte	0x0
 3513 0023 0B       		.uleb128 0xb
 3514 0024 0B       		.uleb128 0xb
 3515 0025 3E       		.uleb128 0x3e
 3516 0026 0B       		.uleb128 0xb
 3517 0027 03       		.uleb128 0x3
 3518 0028 0E       		.uleb128 0xe
 3519 0029 00       		.byte	0x0
 3520 002a 00       		.byte	0x0
 3521 002b 04       		.uleb128 0x4
 3522 002c 16       		.uleb128 0x16
ARM GAS  C:\Users\z80\AppData\Local\Temp\ccHATwr0.s 			page 63


 3523 002d 00       		.byte	0x0
 3524 002e 03       		.uleb128 0x3
 3525 002f 0E       		.uleb128 0xe
 3526 0030 3A       		.uleb128 0x3a
 3527 0031 0B       		.uleb128 0xb
 3528 0032 3B       		.uleb128 0x3b
 3529 0033 0B       		.uleb128 0xb
 3530 0034 49       		.uleb128 0x49
 3531 0035 13       		.uleb128 0x13
 3532 0036 00       		.byte	0x0
 3533 0037 00       		.byte	0x0
 3534 0038 05       		.uleb128 0x5
 3535 0039 13       		.uleb128 0x13
 3536 003a 01       		.byte	0x1
 3537 003b 03       		.uleb128 0x3
 3538 003c 0E       		.uleb128 0xe
 3539 003d 0B       		.uleb128 0xb
 3540 003e 0B       		.uleb128 0xb
 3541 003f 3A       		.uleb128 0x3a
 3542 0040 0B       		.uleb128 0xb
 3543 0041 3B       		.uleb128 0x3b
 3544 0042 0B       		.uleb128 0xb
 3545 0043 01       		.uleb128 0x1
 3546 0044 13       		.uleb128 0x13
 3547 0045 00       		.byte	0x0
 3548 0046 00       		.byte	0x0
 3549 0047 06       		.uleb128 0x6
 3550 0048 0D       		.uleb128 0xd
 3551 0049 00       		.byte	0x0
 3552 004a 03       		.uleb128 0x3
 3553 004b 0E       		.uleb128 0xe
 3554 004c 3A       		.uleb128 0x3a
 3555 004d 0B       		.uleb128 0xb
 3556 004e 3B       		.uleb128 0x3b
 3557 004f 0B       		.uleb128 0xb
 3558 0050 49       		.uleb128 0x49
 3559 0051 13       		.uleb128 0x13
 3560 0052 38       		.uleb128 0x38
 3561 0053 0A       		.uleb128 0xa
 3562 0054 00       		.byte	0x0
 3563 0055 00       		.byte	0x0
 3564 0056 07       		.uleb128 0x7
 3565 0057 0D       		.uleb128 0xd
 3566 0058 00       		.byte	0x0
 3567 0059 03       		.uleb128 0x3
 3568 005a 08       		.uleb128 0x8
 3569 005b 3A       		.uleb128 0x3a
 3570 005c 0B       		.uleb128 0xb
 3571 005d 3B       		.uleb128 0x3b
 3572 005e 0B       		.uleb128 0xb
 3573 005f 49       		.uleb128 0x49
 3574 0060 13       		.uleb128 0x13
 3575 0061 38       		.uleb128 0x38
 3576 0062 0A       		.uleb128 0xa
 3577 0063 00       		.byte	0x0
 3578 0064 00       		.byte	0x0
 3579 0065 08       		.uleb128 0x8
ARM GAS  C:\Users\z80\AppData\Local\Temp\ccHATwr0.s 			page 64


 3580 0066 13       		.uleb128 0x13
 3581 0067 01       		.byte	0x1
 3582 0068 0B       		.uleb128 0xb
 3583 0069 0B       		.uleb128 0xb
 3584 006a 3A       		.uleb128 0x3a
 3585 006b 0B       		.uleb128 0xb
 3586 006c 3B       		.uleb128 0x3b
 3587 006d 0B       		.uleb128 0xb
 3588 006e 01       		.uleb128 0x1
 3589 006f 13       		.uleb128 0x13
 3590 0070 00       		.byte	0x0
 3591 0071 00       		.byte	0x0
 3592 0072 09       		.uleb128 0x9
 3593 0073 0F       		.uleb128 0xf
 3594 0074 00       		.byte	0x0
 3595 0075 0B       		.uleb128 0xb
 3596 0076 0B       		.uleb128 0xb
 3597 0077 49       		.uleb128 0x49
 3598 0078 13       		.uleb128 0x13
 3599 0079 00       		.byte	0x0
 3600 007a 00       		.byte	0x0
 3601 007b 0A       		.uleb128 0xa
 3602 007c 0F       		.uleb128 0xf
 3603 007d 00       		.byte	0x0
 3604 007e 0B       		.uleb128 0xb
 3605 007f 0B       		.uleb128 0xb
 3606 0080 00       		.byte	0x0
 3607 0081 00       		.byte	0x0
 3608 0082 0B       		.uleb128 0xb
 3609 0083 0D       		.uleb128 0xd
 3610 0084 00       		.byte	0x0
 3611 0085 03       		.uleb128 0x3
 3612 0086 08       		.uleb128 0x8
 3613 0087 3A       		.uleb128 0x3a
 3614 0088 0B       		.uleb128 0xb
 3615 0089 3B       		.uleb128 0x3b
 3616 008a 05       		.uleb128 0x5
 3617 008b 49       		.uleb128 0x49
 3618 008c 13       		.uleb128 0x13
 3619 008d 38       		.uleb128 0x38
 3620 008e 0A       		.uleb128 0xa
 3621 008f 00       		.byte	0x0
 3622 0090 00       		.byte	0x0
 3623 0091 0C       		.uleb128 0xc
 3624 0092 13       		.uleb128 0x13
 3625 0093 01       		.byte	0x1
 3626 0094 03       		.uleb128 0x3
 3627 0095 0E       		.uleb128 0xe
 3628 0096 0B       		.uleb128 0xb
 3629 0097 0B       		.uleb128 0xb
 3630 0098 3A       		.uleb128 0x3a
 3631 0099 0B       		.uleb128 0xb
 3632 009a 3B       		.uleb128 0x3b
 3633 009b 05       		.uleb128 0x5
 3634 009c 01       		.uleb128 0x1
 3635 009d 13       		.uleb128 0x13
 3636 009e 00       		.byte	0x0
ARM GAS  C:\Users\z80\AppData\Local\Temp\ccHATwr0.s 			page 65


 3637 009f 00       		.byte	0x0
 3638 00a0 0D       		.uleb128 0xd
 3639 00a1 24       		.uleb128 0x24
 3640 00a2 00       		.byte	0x0
 3641 00a3 0B       		.uleb128 0xb
 3642 00a4 0B       		.uleb128 0xb
 3643 00a5 3E       		.uleb128 0x3e
 3644 00a6 0B       		.uleb128 0xb
 3645 00a7 00       		.byte	0x0
 3646 00a8 00       		.byte	0x0
 3647 00a9 0E       		.uleb128 0xe
 3648 00aa 35       		.uleb128 0x35
 3649 00ab 00       		.byte	0x0
 3650 00ac 49       		.uleb128 0x49
 3651 00ad 13       		.uleb128 0x13
 3652 00ae 00       		.byte	0x0
 3653 00af 00       		.byte	0x0
 3654 00b0 0F       		.uleb128 0xf
 3655 00b1 17       		.uleb128 0x17
 3656 00b2 01       		.byte	0x1
 3657 00b3 0B       		.uleb128 0xb
 3658 00b4 0B       		.uleb128 0xb
 3659 00b5 3A       		.uleb128 0x3a
 3660 00b6 0B       		.uleb128 0xb
 3661 00b7 3B       		.uleb128 0x3b
 3662 00b8 0B       		.uleb128 0xb
 3663 00b9 01       		.uleb128 0x1
 3664 00ba 13       		.uleb128 0x13
 3665 00bb 00       		.byte	0x0
 3666 00bc 00       		.byte	0x0
 3667 00bd 10       		.uleb128 0x10
 3668 00be 0D       		.uleb128 0xd
 3669 00bf 00       		.byte	0x0
 3670 00c0 03       		.uleb128 0x3
 3671 00c1 0E       		.uleb128 0xe
 3672 00c2 3A       		.uleb128 0x3a
 3673 00c3 0B       		.uleb128 0xb
 3674 00c4 3B       		.uleb128 0x3b
 3675 00c5 0B       		.uleb128 0xb
 3676 00c6 49       		.uleb128 0x49
 3677 00c7 13       		.uleb128 0x13
 3678 00c8 00       		.byte	0x0
 3679 00c9 00       		.byte	0x0
 3680 00ca 11       		.uleb128 0x11
 3681 00cb 26       		.uleb128 0x26
 3682 00cc 00       		.byte	0x0
 3683 00cd 49       		.uleb128 0x49
 3684 00ce 13       		.uleb128 0x13
 3685 00cf 00       		.byte	0x0
 3686 00d0 00       		.byte	0x0
 3687 00d1 12       		.uleb128 0x12
 3688 00d2 15       		.uleb128 0x15
 3689 00d3 00       		.byte	0x0
 3690 00d4 27       		.uleb128 0x27
 3691 00d5 0C       		.uleb128 0xc
 3692 00d6 00       		.byte	0x0
 3693 00d7 00       		.byte	0x0
ARM GAS  C:\Users\z80\AppData\Local\Temp\ccHATwr0.s 			page 66


 3694 00d8 13       		.uleb128 0x13
 3695 00d9 13       		.uleb128 0x13
 3696 00da 01       		.byte	0x1
 3697 00db 0B       		.uleb128 0xb
 3698 00dc 05       		.uleb128 0x5
 3699 00dd 3A       		.uleb128 0x3a
 3700 00de 0B       		.uleb128 0xb
 3701 00df 3B       		.uleb128 0x3b
 3702 00e0 0B       		.uleb128 0xb
 3703 00e1 01       		.uleb128 0x1
 3704 00e2 13       		.uleb128 0x13
 3705 00e3 00       		.byte	0x0
 3706 00e4 00       		.byte	0x0
 3707 00e5 14       		.uleb128 0x14
 3708 00e6 01       		.uleb128 0x1
 3709 00e7 01       		.byte	0x1
 3710 00e8 49       		.uleb128 0x49
 3711 00e9 13       		.uleb128 0x13
 3712 00ea 01       		.uleb128 0x1
 3713 00eb 13       		.uleb128 0x13
 3714 00ec 00       		.byte	0x0
 3715 00ed 00       		.byte	0x0
 3716 00ee 15       		.uleb128 0x15
 3717 00ef 21       		.uleb128 0x21
 3718 00f0 00       		.byte	0x0
 3719 00f1 49       		.uleb128 0x49
 3720 00f2 13       		.uleb128 0x13
 3721 00f3 2F       		.uleb128 0x2f
 3722 00f4 0B       		.uleb128 0xb
 3723 00f5 00       		.byte	0x0
 3724 00f6 00       		.byte	0x0
 3725 00f7 16       		.uleb128 0x16
 3726 00f8 17       		.uleb128 0x17
 3727 00f9 01       		.byte	0x1
 3728 00fa 03       		.uleb128 0x3
 3729 00fb 0E       		.uleb128 0xe
 3730 00fc 0B       		.uleb128 0xb
 3731 00fd 05       		.uleb128 0x5
 3732 00fe 3A       		.uleb128 0x3a
 3733 00ff 0B       		.uleb128 0xb
 3734 0100 3B       		.uleb128 0x3b
 3735 0101 0B       		.uleb128 0xb
 3736 0102 01       		.uleb128 0x1
 3737 0103 13       		.uleb128 0x13
 3738 0104 00       		.byte	0x0
 3739 0105 00       		.byte	0x0
 3740 0106 17       		.uleb128 0x17
 3741 0107 0D       		.uleb128 0xd
 3742 0108 00       		.byte	0x0
 3743 0109 03       		.uleb128 0x3
 3744 010a 08       		.uleb128 0x8
 3745 010b 3A       		.uleb128 0x3a
 3746 010c 0B       		.uleb128 0xb
 3747 010d 3B       		.uleb128 0x3b
 3748 010e 0B       		.uleb128 0xb
 3749 010f 49       		.uleb128 0x49
 3750 0110 13       		.uleb128 0x13
ARM GAS  C:\Users\z80\AppData\Local\Temp\ccHATwr0.s 			page 67


 3751 0111 00       		.byte	0x0
 3752 0112 00       		.byte	0x0
 3753 0113 18       		.uleb128 0x18
 3754 0114 21       		.uleb128 0x21
 3755 0115 00       		.byte	0x0
 3756 0116 49       		.uleb128 0x49
 3757 0117 13       		.uleb128 0x13
 3758 0118 2F       		.uleb128 0x2f
 3759 0119 05       		.uleb128 0x5
 3760 011a 00       		.byte	0x0
 3761 011b 00       		.byte	0x0
 3762 011c 19       		.uleb128 0x19
 3763 011d 2E       		.uleb128 0x2e
 3764 011e 01       		.byte	0x1
 3765 011f 03       		.uleb128 0x3
 3766 0120 0E       		.uleb128 0xe
 3767 0121 3A       		.uleb128 0x3a
 3768 0122 0B       		.uleb128 0xb
 3769 0123 3B       		.uleb128 0x3b
 3770 0124 0B       		.uleb128 0xb
 3771 0125 27       		.uleb128 0x27
 3772 0126 0C       		.uleb128 0xc
 3773 0127 11       		.uleb128 0x11
 3774 0128 01       		.uleb128 0x1
 3775 0129 12       		.uleb128 0x12
 3776 012a 01       		.uleb128 0x1
 3777 012b 40       		.uleb128 0x40
 3778 012c 06       		.uleb128 0x6
 3779 012d 01       		.uleb128 0x1
 3780 012e 13       		.uleb128 0x13
 3781 012f 00       		.byte	0x0
 3782 0130 00       		.byte	0x0
 3783 0131 1A       		.uleb128 0x1a
 3784 0132 34       		.uleb128 0x34
 3785 0133 00       		.byte	0x0
 3786 0134 03       		.uleb128 0x3
 3787 0135 0E       		.uleb128 0xe
 3788 0136 3A       		.uleb128 0x3a
 3789 0137 0B       		.uleb128 0xb
 3790 0138 3B       		.uleb128 0x3b
 3791 0139 0B       		.uleb128 0xb
 3792 013a 49       		.uleb128 0x49
 3793 013b 13       		.uleb128 0x13
 3794 013c 02       		.uleb128 0x2
 3795 013d 06       		.uleb128 0x6
 3796 013e 00       		.byte	0x0
 3797 013f 00       		.byte	0x0
 3798 0140 1B       		.uleb128 0x1b
 3799 0141 34       		.uleb128 0x34
 3800 0142 00       		.byte	0x0
 3801 0143 03       		.uleb128 0x3
 3802 0144 0E       		.uleb128 0xe
 3803 0145 3A       		.uleb128 0x3a
 3804 0146 0B       		.uleb128 0xb
 3805 0147 3B       		.uleb128 0x3b
 3806 0148 0B       		.uleb128 0xb
 3807 0149 49       		.uleb128 0x49
ARM GAS  C:\Users\z80\AppData\Local\Temp\ccHATwr0.s 			page 68


 3808 014a 13       		.uleb128 0x13
 3809 014b 00       		.byte	0x0
 3810 014c 00       		.byte	0x0
 3811 014d 1C       		.uleb128 0x1c
 3812 014e 34       		.uleb128 0x34
 3813 014f 00       		.byte	0x0
 3814 0150 03       		.uleb128 0x3
 3815 0151 08       		.uleb128 0x8
 3816 0152 3A       		.uleb128 0x3a
 3817 0153 0B       		.uleb128 0xb
 3818 0154 3B       		.uleb128 0x3b
 3819 0155 0B       		.uleb128 0xb
 3820 0156 49       		.uleb128 0x49
 3821 0157 13       		.uleb128 0x13
 3822 0158 02       		.uleb128 0x2
 3823 0159 06       		.uleb128 0x6
 3824 015a 00       		.byte	0x0
 3825 015b 00       		.byte	0x0
 3826 015c 1D       		.uleb128 0x1d
 3827 015d 0B       		.uleb128 0xb
 3828 015e 01       		.byte	0x1
 3829 015f 11       		.uleb128 0x11
 3830 0160 01       		.uleb128 0x1
 3831 0161 12       		.uleb128 0x12
 3832 0162 01       		.uleb128 0x1
 3833 0163 01       		.uleb128 0x1
 3834 0164 13       		.uleb128 0x13
 3835 0165 00       		.byte	0x0
 3836 0166 00       		.byte	0x0
 3837 0167 1E       		.uleb128 0x1e
 3838 0168 0B       		.uleb128 0xb
 3839 0169 01       		.byte	0x1
 3840 016a 11       		.uleb128 0x11
 3841 016b 01       		.uleb128 0x1
 3842 016c 12       		.uleb128 0x12
 3843 016d 01       		.uleb128 0x1
 3844 016e 00       		.byte	0x0
 3845 016f 00       		.byte	0x0
 3846 0170 1F       		.uleb128 0x1f
 3847 0171 2E       		.uleb128 0x2e
 3848 0172 00       		.byte	0x0
 3849 0173 03       		.uleb128 0x3
 3850 0174 0E       		.uleb128 0xe
 3851 0175 3A       		.uleb128 0x3a
 3852 0176 0B       		.uleb128 0xb
 3853 0177 3B       		.uleb128 0x3b
 3854 0178 0B       		.uleb128 0xb
 3855 0179 27       		.uleb128 0x27
 3856 017a 0C       		.uleb128 0xc
 3857 017b 11       		.uleb128 0x11
 3858 017c 01       		.uleb128 0x1
 3859 017d 12       		.uleb128 0x12
 3860 017e 01       		.uleb128 0x1
 3861 017f 40       		.uleb128 0x40
 3862 0180 06       		.uleb128 0x6
 3863 0181 00       		.byte	0x0
 3864 0182 00       		.byte	0x0
ARM GAS  C:\Users\z80\AppData\Local\Temp\ccHATwr0.s 			page 69


 3865 0183 20       		.uleb128 0x20
 3866 0184 34       		.uleb128 0x34
 3867 0185 00       		.byte	0x0
 3868 0186 03       		.uleb128 0x3
 3869 0187 0E       		.uleb128 0xe
 3870 0188 3A       		.uleb128 0x3a
 3871 0189 0B       		.uleb128 0xb
 3872 018a 3B       		.uleb128 0x3b
 3873 018b 0B       		.uleb128 0xb
 3874 018c 49       		.uleb128 0x49
 3875 018d 13       		.uleb128 0x13
 3876 018e 3F       		.uleb128 0x3f
 3877 018f 0C       		.uleb128 0xc
 3878 0190 3C       		.uleb128 0x3c
 3879 0191 0C       		.uleb128 0xc
 3880 0192 00       		.byte	0x0
 3881 0193 00       		.byte	0x0
 3882 0194 21       		.uleb128 0x21
 3883 0195 34       		.uleb128 0x34
 3884 0196 00       		.byte	0x0
 3885 0197 03       		.uleb128 0x3
 3886 0198 08       		.uleb128 0x8
 3887 0199 3A       		.uleb128 0x3a
 3888 019a 0B       		.uleb128 0xb
 3889 019b 3B       		.uleb128 0x3b
 3890 019c 0B       		.uleb128 0xb
 3891 019d 49       		.uleb128 0x49
 3892 019e 13       		.uleb128 0x13
 3893 019f 02       		.uleb128 0x2
 3894 01a0 0A       		.uleb128 0xa
 3895 01a1 00       		.byte	0x0
 3896 01a2 00       		.byte	0x0
 3897 01a3 22       		.uleb128 0x22
 3898 01a4 34       		.uleb128 0x34
 3899 01a5 00       		.byte	0x0
 3900 01a6 03       		.uleb128 0x3
 3901 01a7 0E       		.uleb128 0xe
 3902 01a8 3A       		.uleb128 0x3a
 3903 01a9 0B       		.uleb128 0xb
 3904 01aa 3B       		.uleb128 0x3b
 3905 01ab 0B       		.uleb128 0xb
 3906 01ac 49       		.uleb128 0x49
 3907 01ad 13       		.uleb128 0x13
 3908 01ae 3F       		.uleb128 0x3f
 3909 01af 0C       		.uleb128 0xc
 3910 01b0 02       		.uleb128 0x2
 3911 01b1 0A       		.uleb128 0xa
 3912 01b2 00       		.byte	0x0
 3913 01b3 00       		.byte	0x0
 3914 01b4 00       		.byte	0x0
 3915              		.section	.debug_pubnames,"",%progbits
 3916 0000 2C000000 		.4byte	0x2c
 3917 0004 0200     		.2byte	0x2
 3918 0006 00000000 		.4byte	.Ldebug_info0
 3919 000a 700C0000 		.4byte	0xc70
 3920 000e 300C0000 		.4byte	0xc30
 3921 0012 74657374 		.ascii	"testmbox1\000"
ARM GAS  C:\Users\z80\AppData\Local\Temp\ccHATwr0.s 			page 70


 3921      6D626F78 
 3921      3100
 3922 001c 580C0000 		.4byte	0xc58
 3923 0020 70617474 		.ascii	"patternmbox\000"
 3923      65726E6D 
 3923      626F7800 
 3924 002c 00000000 		.4byte	0x0
 3925              		.section	.debug_pubtypes,"",%progbits
 3926 0000 67010000 		.4byte	0x167
 3927 0004 0200     		.2byte	0x2
 3928 0006 00000000 		.4byte	.Ldebug_info0
 3929 000a 700C0000 		.4byte	0xc70
 3930 000e 3E000000 		.4byte	0x3e
 3931 0012 75696E74 		.ascii	"uint8_t\000"
 3931      385F7400 
 3932 001a 5E000000 		.4byte	0x5e
 3933 001e 696E7433 		.ascii	"int32_t\000"
 3933      325F7400 
 3934 0026 70000000 		.4byte	0x70
 3935 002a 75696E74 		.ascii	"uint32_t\000"
 3935      33325F74 
 3935      00
 3936 0033 89000000 		.4byte	0x89
 3937 0037 75696E74 		.ascii	"uint64_t\000"
 3937      36345F74 
 3937      00
 3938 0040 9B000000 		.4byte	0x9b
 3939 0044 746D6F64 		.ascii	"tmode_t\000"
 3939      655F7400 
 3940 004c A6000000 		.4byte	0xa6
 3941 0050 74737461 		.ascii	"tstate_t\000"
 3941      74655F74 
 3941      00
 3942 0059 B1000000 		.4byte	0xb1
 3943 005d 74726566 		.ascii	"trefs_t\000"
 3943      735F7400 
 3944 0065 BC000000 		.4byte	0xbc
 3945 0069 74707269 		.ascii	"tprio_t\000"
 3945      6F5F7400 
 3946 0071 C7000000 		.4byte	0xc7
 3947 0075 6D73675F 		.ascii	"msg_t\000"
 3947      7400
 3948 007b D2000000 		.4byte	0xd2
 3949 007f 6576656E 		.ascii	"eventmask_t\000"
 3949      746D6173 
 3949      6B5F7400 
 3950 008b DD000000 		.4byte	0xdd
 3951 008f 73797374 		.ascii	"systime_t\000"
 3951      696D655F 
 3951      7400
 3952 0099 E8000000 		.4byte	0xe8
 3953 009d 636E745F 		.ascii	"cnt_t\000"
 3953      7400
 3954 00a3 F3000000 		.4byte	0xf3
 3955 00a7 54687265 		.ascii	"Thread\000"
 3955      616400
 3956 00ae 4E020000 		.4byte	0x24e
ARM GAS  C:\Users\z80\AppData\Local\Temp\ccHATwr0.s 			page 71


 3957 00b2 54687265 		.ascii	"ThreadsQueue\000"
 3957      61647351 
 3957      75657565 
 3957      00
 3958 00bf 70020000 		.4byte	0x270
 3959 00c3 54687265 		.ascii	"ThreadsList\000"
 3959      6164734C 
 3959      69737400 
 3960 00cf 7B020000 		.4byte	0x27b
 3961 00d3 72656761 		.ascii	"regarm_t\000"
 3961      726D5F74 
 3961      00
 3962 00dc 88020000 		.4byte	0x288
 3963 00e0 73746B61 		.ascii	"stkalign_t\000"
 3963      6C69676E 
 3963      5F7400
 3964 00eb 93020000 		.4byte	0x293
 3965 00ef 696E7463 		.ascii	"intctx\000"
 3965      747800
 3966 00f6 20030000 		.4byte	0x320
 3967 00fa 636F6E74 		.ascii	"context\000"
 3967      65787400 
 3968 0102 4B030000 		.4byte	0x34b
 3969 0106 53656D61 		.ascii	"Semaphore\000"
 3969      70686F72 
 3969      6500
 3970 0110 74030000 		.4byte	0x374
 3971 0114 53656D61 		.ascii	"Semaphore\000"
 3971      70686F72 
 3971      6500
 3972 011e 7F030000 		.4byte	0x37f
 3973 0122 4D757465 		.ascii	"Mutex\000"
 3973      7800
 3974 0128 BC030000 		.4byte	0x3bc
 3975 012c 4D757465 		.ascii	"Mutex\000"
 3975      7800
 3976 0132 2A040000 		.4byte	0x42a
 3977 0136 4D61696C 		.ascii	"Mailbox\000"
 3977      626F7800 
 3978 013e FE000000 		.4byte	0xfe
 3979 0142 54687265 		.ascii	"Thread\000"
 3979      616400
 3980 0149 88040000 		.4byte	0x488
 3981 014d 74657374 		.ascii	"testcase\000"
 3981      63617365 
 3981      00
 3982 0156 34050000 		.4byte	0x534
 3983 015a 74657374 		.ascii	"test_buffers\000"
 3983      5F627566 
 3983      66657273 
 3983      00
 3984 0167 00000000 		.4byte	0x0
 3985              		.section	.debug_aranges,"",%progbits
 3986 0000 24000000 		.4byte	0x24
 3987 0004 0200     		.2byte	0x2
 3988 0006 00000000 		.4byte	.Ldebug_info0
 3989 000a 04       		.byte	0x4
ARM GAS  C:\Users\z80\AppData\Local\Temp\ccHATwr0.s 			page 72


 3990 000b 00       		.byte	0x0
 3991 000c 0000     		.2byte	0x0
 3992 000e 0000     		.2byte	0x0
 3993 0010 00000000 		.4byte	.LFB8
 3994 0014 64070000 		.4byte	.LFE8-.LFB8
 3995 0018 00000000 		.4byte	.LFB7
 3996 001c 1A000000 		.4byte	.LFE7-.LFB7
 3997 0020 00000000 		.4byte	0x0
 3998 0024 00000000 		.4byte	0x0
 3999              		.section	.debug_ranges,"",%progbits
 4000              	.Ldebug_ranges0:
 4001 0000 00000000 		.4byte	.LFB8
 4002 0004 64070000 		.4byte	.LFE8
 4003 0008 00000000 		.4byte	.LFB7
 4004 000c 1A000000 		.4byte	.LFE7
 4005 0010 00000000 		.4byte	0x0
 4006 0014 00000000 		.4byte	0x0
 4007              		.section	.debug_str,"MS",%progbits,1
 4008              	.LASF45:
 4009 0000 696E7463 		.ascii	"intctx\000"
 4009      747800
 4010              	.LASF36:
 4011 0007 705F6D73 		.ascii	"p_msg\000"
 4011      6700
 4012              	.LASF61:
 4013 000d 7264796D 		.ascii	"rdymsg\000"
 4013      736700
 4014              	.LASF11:
 4015 0014 75696E74 		.ascii	"uint64_t\000"
 4015      36345F74 
 4015      00
 4016              	.LASF60:
 4017 001d 4D61696C 		.ascii	"Mailbox\000"
 4017      626F7800 
 4018              	.LASF12:
 4019 0025 6C6F6E67 		.ascii	"long long unsigned int\000"
 4019      206C6F6E 
 4019      6720756E 
 4019      7369676E 
 4019      65642069 
 4020              	.LASF75:
 4021 003c 70617474 		.ascii	"patternmbox\000"
 4021      65726E6D 
 4021      626F7800 
 4022              	.LASF62:
 4023 0048 65786974 		.ascii	"exitcode\000"
 4023      636F6465 
 4023      00
 4024              	.LASF73:
 4025 0051 74657374 		.ascii	"test\000"
 4025      00
 4026              	.LASF56:
 4027 0056 6D625F77 		.ascii	"mb_wrptr\000"
 4027      72707472 
 4027      00
 4028              	.LASF24:
 4029 005f 705F7072 		.ascii	"p_prio\000"
ARM GAS  C:\Users\z80\AppData\Local\Temp\ccHATwr0.s 			page 73


 4029      696F00
 4030              	.LASF10:
 4031 0066 6C6F6E67 		.ascii	"long long int\000"
 4031      206C6F6E 
 4031      6720696E 
 4031      7400
 4032              	.LASF1:
 4033 0074 7369676E 		.ascii	"signed char\000"
 4033      65642063 
 4033      68617200 
 4034              	.LASF40:
 4035 0080 705F6D70 		.ascii	"p_mpool\000"
 4035      6F6F6C00 
 4036              	.LASF51:
 4037 0088 6D5F7175 		.ascii	"m_queue\000"
 4037      65756500 
 4038              	.LASF7:
 4039 0090 6C6F6E67 		.ascii	"long int\000"
 4039      20696E74 
 4039      00
 4040              	.LASF14:
 4041 0099 74737461 		.ascii	"tstate_t\000"
 4041      74655F74 
 4041      00
 4042              	.LASF26:
 4043 00a2 705F6E65 		.ascii	"p_newer\000"
 4043      77657200 
 4044              	.LASF48:
 4045 00aa 735F7175 		.ascii	"s_queue\000"
 4045      65756500 
 4046              	.LASF43:
 4047 00b2 72656761 		.ascii	"regarm_t\000"
 4047      726D5F74 
 4047      00
 4048              	.LASF20:
 4049 00bb 636E745F 		.ascii	"cnt_t\000"
 4049      7400
 4050              	.LASF29:
 4051 00c1 705F7374 		.ascii	"p_stklimit\000"
 4051      6B6C696D 
 4051      697400
 4052              	.LASF0:
 4053 00cc 756E7369 		.ascii	"unsigned int\000"
 4053      676E6564 
 4053      20696E74 
 4053      00
 4054              	.LASF72:
 4055 00d9 6D736731 		.ascii	"msg1\000"
 4055      00
 4056              	.LASF81:
 4057 00de 6D736732 		.ascii	"msg2\000"
 4057      00
 4058              	.LASF9:
 4059 00e3 6C6F6E67 		.ascii	"long unsigned int\000"
 4059      20756E73 
 4059      69676E65 
 4059      6420696E 
ARM GAS  C:\Users\z80\AppData\Local\Temp\ccHATwr0.s 			page 74


 4059      7400
 4060              	.LASF69:
 4061 00f5 74656172 		.ascii	"teardown\000"
 4061      646F776E 
 4061      00
 4062              	.LASF59:
 4063 00fe 6D625F65 		.ascii	"mb_emptysem\000"
 4063      6D707479 
 4063      73656D00 
 4064              	.LASF67:
 4065 010a 6E616D65 		.ascii	"name\000"
 4065      00
 4066              	.LASF49:
 4067 010f 735F636E 		.ascii	"s_cnt\000"
 4067      7400
 4068              	.LASF46:
 4069 0115 636F6E74 		.ascii	"context\000"
 4069      65787400 
 4070              	.LASF4:
 4071 011d 73686F72 		.ascii	"short unsigned int\000"
 4071      7420756E 
 4071      7369676E 
 4071      65642069 
 4071      6E7400
 4072              	.LASF17:
 4073 0130 6D73675F 		.ascii	"msg_t\000"
 4073      7400
 4074              	.LASF13:
 4075 0136 746D6F64 		.ascii	"tmode_t\000"
 4075      655F7400 
 4076              	.LASF82:
 4077 013e 6D626F78 		.ascii	"mbox1_setup\000"
 4077      315F7365 
 4077      74757000 
 4078              	.LASF42:
 4079 014a 54687265 		.ascii	"ThreadsList\000"
 4079      6164734C 
 4079      69737400 
 4080              	.LASF18:
 4081 0156 6576656E 		.ascii	"eventmask_t\000"
 4081      746D6173 
 4081      6B5F7400 
 4082              	.LASF50:
 4083 0162 4D757465 		.ascii	"Mutex\000"
 4083      7800
 4084              	.LASF74:
 4085 0168 74657374 		.ascii	"testmbox1\000"
 4085      6D626F78 
 4085      3100
 4086              	.LASF44:
 4087 0172 73746B61 		.ascii	"stkalign_t\000"
 4087      6C69676E 
 4087      5F7400
 4088              	.LASF57:
 4089 017d 6D625F72 		.ascii	"mb_rdptr\000"
 4089      64707472 
 4089      00
ARM GAS  C:\Users\z80\AppData\Local\Temp\ccHATwr0.s 			page 75


 4090              	.LASF27:
 4091 0186 705F6F6C 		.ascii	"p_older\000"
 4091      64657200 
 4092              	.LASF41:
 4093 018e 54687265 		.ascii	"ThreadsQueue\000"
 4093      61647351 
 4093      75657565 
 4093      00
 4094              	.LASF68:
 4095 019b 73657475 		.ascii	"setup\000"
 4095      7000
 4096              	.LASF78:
 4097 01a1 433A5C70 		.ascii	"C:\\projects\\voltamper.git\\firmware\\voltamp\000"
 4097      726F6A65 
 4097      6374735C 
 4097      766F6C74 
 4097      616D7065 
 4098              	.LASF54:
 4099 01cc 6D625F62 		.ascii	"mb_buffer\000"
 4099      75666665 
 4099      7200
 4100              	.LASF80:
 4101 01d6 6D626F78 		.ascii	"mbox1_execute\000"
 4101      315F6578 
 4101      65637574 
 4101      6500
 4102              	.LASF15:
 4103 01e4 74726566 		.ascii	"trefs_t\000"
 4103      735F7400 
 4104              	.LASF23:
 4105 01ec 705F7072 		.ascii	"p_prev\000"
 4105      657600
 4106              	.LASF70:
 4107 01f3 65786563 		.ascii	"execute\000"
 4107      75746500 
 4108              	.LASF16:
 4109 01fb 74707269 		.ascii	"tprio_t\000"
 4109      6F5F7400 
 4110              	.LASF6:
 4111 0203 696E7433 		.ascii	"int32_t\000"
 4111      325F7400 
 4112              	.LASF2:
 4113 020b 756E7369 		.ascii	"unsigned char\000"
 4113      676E6564 
 4113      20636861 
 4113      7200
 4114              	.LASF55:
 4115 0219 6D625F74 		.ascii	"mb_top\000"
 4115      6F7000
 4116              	.LASF38:
 4117 0220 705F6D74 		.ascii	"p_mtxlist\000"
 4117      786C6973 
 4117      7400
 4118              	.LASF3:
 4119 022a 73686F72 		.ascii	"short int\000"
 4119      7420696E 
 4119      7400
ARM GAS  C:\Users\z80\AppData\Local\Temp\ccHATwr0.s 			page 76


 4120              	.LASF30:
 4121 0234 705F7374 		.ascii	"p_state\000"
 4121      61746500 
 4122              	.LASF64:
 4123 023c 65776D61 		.ascii	"ewmask\000"
 4123      736B00
 4124              	.LASF22:
 4125 0243 705F6E65 		.ascii	"p_next\000"
 4125      787400
 4126              	.LASF31:
 4127 024a 705F666C 		.ascii	"p_flags\000"
 4127      61677300 
 4128              	.LASF21:
 4129 0252 54687265 		.ascii	"Thread\000"
 4129      616400
 4130              	.LASF66:
 4131 0259 74657374 		.ascii	"testcase\000"
 4131      63617365 
 4131      00
 4132              	.LASF37:
 4133 0262 705F6570 		.ascii	"p_epending\000"
 4133      656E6469 
 4133      6E6700
 4134              	.LASF8:
 4135 026d 75696E74 		.ascii	"uint32_t\000"
 4135      33325F74 
 4135      00
 4136              	.LASF65:
 4137 0276 63686172 		.ascii	"char\000"
 4137      00
 4138              	.LASF53:
 4139 027b 6D5F6E65 		.ascii	"m_next\000"
 4139      787400
 4140              	.LASF19:
 4141 0282 73797374 		.ascii	"systime_t\000"
 4141      696D655F 
 4141      7400
 4142              	.LASF39:
 4143 028c 705F7265 		.ascii	"p_realprio\000"
 4143      616C7072 
 4143      696F00
 4144              	.LASF71:
 4145 0297 62756666 		.ascii	"buffer\000"
 4145      657200
 4146              	.LASF33:
 4147 029e 705F7469 		.ascii	"p_time\000"
 4147      6D6500
 4148              	.LASF77:
 4149 02a5 2E2E2F63 		.ascii	"../chibios_2.4.x/test/testmbox.c\000"
 4149      68696269 
 4149      6F735F32 
 4149      2E342E78 
 4149      2F746573 
 4150              	.LASF35:
 4151 02c6 705F6D73 		.ascii	"p_msgqueue\000"
 4151      67717565 
 4151      756500
ARM GAS  C:\Users\z80\AppData\Local\Temp\ccHATwr0.s 			page 77


 4152              	.LASF47:
 4153 02d1 53656D61 		.ascii	"Semaphore\000"
 4153      70686F72 
 4153      6500
 4154              	.LASF58:
 4155 02db 6D625F66 		.ascii	"mb_fullsem\000"
 4155      756C6C73 
 4155      656D00
 4156              	.LASF79:
 4157 02e6 74657374 		.ascii	"test_buffers\000"
 4157      5F627566 
 4157      66657273 
 4157      00
 4158              	.LASF32:
 4159 02f3 705F7265 		.ascii	"p_refs\000"
 4159      667300
 4160              	.LASF5:
 4161 02fa 75696E74 		.ascii	"uint8_t\000"
 4161      385F7400 
 4162              	.LASF76:
 4163 0302 474E5520 		.ascii	"GNU C 4.5.0\000"
 4163      4320342E 
 4163      352E3000 
 4164              	.LASF63:
 4165 030e 77746F62 		.ascii	"wtobjp\000"
 4165      6A7000
 4166              	.LASF28:
 4167 0315 705F6E61 		.ascii	"p_name\000"
 4167      6D6500
 4168              	.LASF52:
 4169 031c 6D5F6F77 		.ascii	"m_owner\000"
 4169      6E657200 
 4170              	.LASF25:
 4171 0324 705F6374 		.ascii	"p_ctx\000"
 4171      7800
 4172              	.LASF34:
 4173 032a 705F7761 		.ascii	"p_waiting\000"
 4173      6974696E 
 4173      6700
 4174              		.ident	"GCC: (GNU) 4.5.0"
ARM GAS  C:\Users\z80\AppData\Local\Temp\ccHATwr0.s 			page 78


DEFINED SYMBOLS
                            *ABS*:00000000 testmbox.c
C:\Users\z80\AppData\Local\Temp\ccHATwr0.s:24     .text.mbox1_execute:00000000 $t
C:\Users\z80\AppData\Local\Temp\ccHATwr0.s:29     .text.mbox1_execute:00000000 mbox1_execute
C:\Users\z80\AppData\Local\Temp\ccHATwr0.s:1335   .text.mbox1_execute:0000075c $d
C:\Users\z80\AppData\Local\Temp\ccHATwr0.s:1341   .text.mbox1_setup:00000000 $t
C:\Users\z80\AppData\Local\Temp\ccHATwr0.s:1346   .text.mbox1_setup:00000000 mbox1_setup
C:\Users\z80\AppData\Local\Temp\ccHATwr0.s:1375   .data.mb1:00000000 .LANCHOR0
C:\Users\z80\AppData\Local\Temp\ccHATwr0.s:1407   .rodata.testmbox1:00000000 testmbox1
C:\Users\z80\AppData\Local\Temp\ccHATwr0.s:1393   .rodata.patternmbox:00000000 patternmbox
C:\Users\z80\AppData\Local\Temp\ccHATwr0.s:1374   .data.mb1:00000000 $d
C:\Users\z80\AppData\Local\Temp\ccHATwr0.s:1378   .data.mb1:00000000 mb1
C:\Users\z80\AppData\Local\Temp\ccHATwr0.s:1390   .rodata.patternmbox:00000000 $d
C:\Users\z80\AppData\Local\Temp\ccHATwr0.s:1397   .rodata.str1.4:00000000 $d
C:\Users\z80\AppData\Local\Temp\ccHATwr0.s:1404   .rodata.testmbox1:00000000 $d
                     .debug_frame:00000010 $d
C:\Users\z80\AppData\Local\Temp\ccHATwr0.s:1340   .text.mbox1_execute:00000764 $t

UNDEFINED SYMBOLS
_test_assert
chMBPost
chMBPostAhead
dbg_check_lock
chMBPostI
dbg_check_unlock
chMBPostAheadI
chMBFetch
test_emit_token
_test_assert_sequence
chMBFetchI
chMBReset
test
chMBInit
