ARM GAS  /tmp/ccyRVXDo.s 			page 1


   1              		.syntax unified
   2              		.cpu cortex-m3
   3              		.fpu softvfp
   4              		.eabi_attribute 20, 1
   5              		.eabi_attribute 21, 1
   6              		.eabi_attribute 23, 3
   7              		.eabi_attribute 24, 1
   8              		.eabi_attribute 25, 1
   9              		.eabi_attribute 26, 1
  10              		.eabi_attribute 30, 6
  11              		.eabi_attribute 18, 4
  12              		.thumb
  13              		.file	"tm.c"
  20 0000 E6010000 		.text
  20      02008B01 
  20      00000201 
  20      FB0E0D00 
  20      01010101 
  21              	.Ltext0:
  22              		.cfi_sections	.debug_frame
  23              		.section	.bss.measurement_offset,"aw",%nobits
  24              		.align	2
  25              		.type	measurement_offset, %object
  26              		.size	measurement_offset, 4
  27              	measurement_offset:
  28 0000 00000000 		.space	4
  29              		.section	.text.tm_start,"ax",%progbits
  30              		.align	2
  31              		.p2align 4,,15
  32              		.thumb
  33              		.thumb_func
  34              		.type	tm_start, %function
  35              	tm_start:
  36              	.LFB62:
  37              		.file 1 "../chibios_2.4.x/os/hal/src/tm.c"
  38              		.loc 1 69 0
  39              		.cfi_startproc
  40              		@ args = 0, pretend = 0, frame = 8
  41              		@ frame_needed = 0, uses_anonymous_args = 0
  42              		@ link register save eliminated.
  43 0000 82B0     		sub	sp, sp, #8
  44              	.LCFI0:
  45              		.cfi_def_cfa_offset 8
  46 0002 0190     		str	r0, [sp, #4]
  47              		.loc 1 71 0
  48 0004 024B     		ldr	r3, .L2
  49 0006 5A68     		ldr	r2, [r3, #4]
  50 0008 019B     		ldr	r3, [sp, #4]
  51 000a 9A60     		str	r2, [r3, #8]
  52              		.loc 1 72 0
  53 000c 02B0     		add	sp, sp, #8
ARM GAS  /tmp/ccyRVXDo.s 			page 2


  54 000e 7047     		bx	lr
  55              	.L3:
  56              		.align	2
  57              	.L2:
  58 0010 001000E0 		.word	-536866816
  59              		.cfi_endproc
  60              	.LFE62:
  61              		.size	tm_start, .-tm_start
  62 0014 AFF30080 		.section	.text.tm_stop,"ax",%progbits
  62      AFF30080 
  62      AFF30080 
  63              		.align	2
  64              		.p2align 4,,15
  65              		.thumb
  66              		.thumb_func
  67              		.type	tm_stop, %function
  68              	tm_stop:
  69              	.LFB63:
  70              		.loc 1 81 0
  71              		.cfi_startproc
  72              		@ args = 0, pretend = 0, frame = 16
  73              		@ frame_needed = 0, uses_anonymous_args = 0
  74              		@ link register save eliminated.
  75 0000 84B0     		sub	sp, sp, #16
  76              	.LCFI1:
  77              		.cfi_def_cfa_offset 16
  78 0002 0190     		str	r0, [sp, #4]
  79              		.loc 1 83 0
  80 0004 114B     		ldr	r3, .L7
  81 0006 5B68     		ldr	r3, [r3, #4]
  82 0008 0393     		str	r3, [sp, #12]
  83              		.loc 1 84 0
  84 000a 019B     		ldr	r3, [sp, #4]
  85 000c 9B68     		ldr	r3, [r3, #8]
  86 000e 039A     		ldr	r2, [sp, #12]
  87 0010 D21A     		subs	r2, r2, r3
  88 0012 0F4B     		ldr	r3, .L7+4
  89 0014 1B68     		ldr	r3, [r3, #0]
  90 0016 D21A     		subs	r2, r2, r3
  91 0018 019B     		ldr	r3, [sp, #4]
  92 001a 9A60     		str	r2, [r3, #8]
  93              		.loc 1 85 0
  94 001c 019B     		ldr	r3, [sp, #4]
  95 001e 9A68     		ldr	r2, [r3, #8]
  96 0020 019B     		ldr	r3, [sp, #4]
  97 0022 DB68     		ldr	r3, [r3, #12]
  98 0024 9A42     		cmp	r2, r3
  99 0026 04D9     		bls	.L5
 100              		.loc 1 86 0
 101 0028 019B     		ldr	r3, [sp, #4]
 102 002a 9A68     		ldr	r2, [r3, #8]
 103 002c 019B     		ldr	r3, [sp, #4]
 104 002e DA60     		str	r2, [r3, #12]
 105 0030 09E0     		b	.L4
 106              	.L5:
 107              		.loc 1 87 0
 108 0032 019B     		ldr	r3, [sp, #4]
ARM GAS  /tmp/ccyRVXDo.s 			page 3


 109 0034 9A68     		ldr	r2, [r3, #8]
 110 0036 019B     		ldr	r3, [sp, #4]
 111 0038 1B69     		ldr	r3, [r3, #16]
 112 003a 9A42     		cmp	r2, r3
 113 003c 03D2     		bcs	.L4
 114              		.loc 1 88 0
 115 003e 019B     		ldr	r3, [sp, #4]
 116 0040 9A68     		ldr	r2, [r3, #8]
 117 0042 019B     		ldr	r3, [sp, #4]
 118 0044 1A61     		str	r2, [r3, #16]
 119              	.L4:
 120              		.loc 1 89 0
 121 0046 04B0     		add	sp, sp, #16
 122 0048 7047     		bx	lr
 123              	.L8:
 124 004a 00BF     		.align	2
 125              	.L7:
 126 004c 001000E0 		.word	-536866816
 127 0050 00000000 		.word	measurement_offset
 128              		.cfi_endproc
 129              	.LFE63:
 130              		.size	tm_stop, .-tm_stop
 131 0054 AFF30080 		.section	.text.tmInit,"ax",%progbits
 131      AFF30080 
 131      AFF30080 
 132              		.align	2
 133              		.p2align 4,,15
 134              		.global	tmInit
 135              		.thumb
 136              		.thumb_func
 137              		.type	tmInit, %function
 138              	tmInit:
 139              	.LFB64:
 140              		.loc 1 104 0
 141              		.cfi_startproc
 142              		@ args = 0, pretend = 0, frame = 24
 143              		@ frame_needed = 0, uses_anonymous_args = 0
 144 0000 00B5     		push	{lr}
 145              	.LCFI2:
 146              		.cfi_def_cfa_offset 4
 147 0002 87B0     		sub	sp, sp, #28
 148              	.LCFI3:
 149              		.cfi_def_cfa_offset 32
 150              		.loc 1 110 0
 151 0004 0A4B     		ldr	r3, .L10
 152 0006 4FF00002 		mov	r2, #0
 153 000a 1A60     		str	r2, [r3, #0]
 154              		.loc 1 111 0
 155 000c 01AB     		add	r3, sp, #4
 156 000e 1846     		mov	r0, r3
 157              		.cfi_offset 14, -4
 158 0010 FFF7FEFF 		bl	tmObjectInit
 159              		.loc 1 112 0
 160 0014 019B     		ldr	r3, [sp, #4]
 161 0016 01AA     		add	r2, sp, #4
 162 0018 1046     		mov	r0, r2
 163 001a 9847     		blx	r3
ARM GAS  /tmp/ccyRVXDo.s 			page 4


 164              		.loc 1 113 0
 165 001c 029B     		ldr	r3, [sp, #8]
 166 001e 01AA     		add	r2, sp, #4
 167 0020 1046     		mov	r0, r2
 168 0022 9847     		blx	r3
 169              		.loc 1 114 0
 170 0024 039A     		ldr	r2, [sp, #12]
 171 0026 024B     		ldr	r3, .L10
 172 0028 1A60     		str	r2, [r3, #0]
 173              		.loc 1 115 0
 174 002a 07B0     		add	sp, sp, #28
 175 002c 00BD     		pop	{pc}
 176              	.L11:
 177 002e 00BF     		.align	2
 178              	.L10:
 179 0030 00000000 		.word	measurement_offset
 180              		.cfi_endproc
 181              	.LFE64:
 182              		.size	tmInit, .-tmInit
 183 0034 AFF30080 		.section	.text.tmObjectInit,"ax",%progbits
 183      AFF30080 
 183      AFF30080 
 184              		.align	2
 185              		.p2align 4,,15
 186              		.global	tmObjectInit
 187              		.thumb
 188              		.thumb_func
 189              		.type	tmObjectInit, %function
 190              	tmObjectInit:
 191              	.LFB65:
 192              		.loc 1 124 0
 193              		.cfi_startproc
 194              		@ args = 0, pretend = 0, frame = 8
 195              		@ frame_needed = 0, uses_anonymous_args = 0
 196              		@ link register save eliminated.
 197 0000 82B0     		sub	sp, sp, #8
 198              	.LCFI4:
 199              		.cfi_def_cfa_offset 8
 200 0002 0190     		str	r0, [sp, #4]
 201              		.loc 1 126 0
 202 0004 019B     		ldr	r3, [sp, #4]
 203 0006 094A     		ldr	r2, .L13
 204 0008 1A60     		str	r2, [r3, #0]
 205              		.loc 1 127 0
 206 000a 019B     		ldr	r3, [sp, #4]
 207 000c 084A     		ldr	r2, .L13+4
 208 000e 5A60     		str	r2, [r3, #4]
 209              		.loc 1 128 0
 210 0010 019B     		ldr	r3, [sp, #4]
 211 0012 4FF00002 		mov	r2, #0
 212 0016 9A60     		str	r2, [r3, #8]
 213              		.loc 1 129 0
 214 0018 019B     		ldr	r3, [sp, #4]
 215 001a 4FF00002 		mov	r2, #0
 216 001e DA60     		str	r2, [r3, #12]
 217              		.loc 1 130 0
 218 0020 019B     		ldr	r3, [sp, #4]
ARM GAS  /tmp/ccyRVXDo.s 			page 5


 219 0022 4FF0FF32 		mov	r2, #-1
 220 0026 1A61     		str	r2, [r3, #16]
 221              		.loc 1 131 0
 222 0028 02B0     		add	sp, sp, #8
 223 002a 7047     		bx	lr
 224              	.L14:
 225              		.align	2
 226              	.L13:
 227 002c 00000000 		.word	tm_start
 228 0030 00000000 		.word	tm_stop
 229              		.cfi_endproc
 230              	.LFE65:
 231              		.size	tmObjectInit, .-tmObjectInit
 232 0034 AFF30080 		.text
 232      AFF30080 
 232      AFF30080 
 233              	.Letext0: