ARM GAS  /tmp/ccyRVXDo.s 			page 1


   1              		.syntax unified
   2              		.cpu cortex-m3
   3              		.fpu softvfp
   4              		.eabi_attribute 20, 1
   5              		.eabi_attribute 21, 1
   6              		.eabi_attribute 23, 3
   7              		.eabi_attribute 24, 1
   8              		.eabi_attribute 25, 1
   9              		.eabi_attribute 26, 1
  10              		.eabi_attribute 30, 6
  11              		.eabi_attribute 18, 4
  12              		.thumb
  13              		.file	"tm.c"
  14              		.section	.debug_abbrev,"",%progbits
  15              	.Ldebug_abbrev0:
  16              		.section	.debug_info,"",%progbits
  17              	.Ldebug_info0:
  18              		.section	.debug_line,"",%progbits
  19              	.Ldebug_line0:
  20 0000 E6010000 		.text
  20      02008B01 
  20      00000201 
  20      FB0E0D00 
  20      01010101 
  21              	.Ltext0:
  22              		.cfi_sections	.debug_frame
  23              		.section	.bss.measurement_offset,"aw",%nobits
  24              		.align	2
  25              		.type	measurement_offset, %object
  26              		.size	measurement_offset, 4
  27              	measurement_offset:
  28 0000 00000000 		.space	4
  29              		.section	.text.tm_start,"ax",%progbits
  30              		.align	2
  31              		.p2align 4,,15
  32              		.thumb
  33              		.thumb_func
  34              		.type	tm_start, %function
  35              	tm_start:
  36              	.LFB62:
  37              		.file 1 "../chibios_2.4.x/os/hal/src/tm.c"
  38              		.loc 1 69 0
  39              		.cfi_startproc
  40              		@ args = 0, pretend = 0, frame = 8
  41              		@ frame_needed = 0, uses_anonymous_args = 0
  42              		@ link register save eliminated.
  43 0000 82B0     		sub	sp, sp, #8
  44              	.LCFI0:
  45              		.cfi_def_cfa_offset 8
  46 0002 0190     		str	r0, [sp, #4]
  47              		.loc 1 71 0
  48 0004 024B     		ldr	r3, .L2
  49 0006 5A68     		ldr	r2, [r3, #4]
  50 0008 019B     		ldr	r3, [sp, #4]
  51 000a 9A60     		str	r2, [r3, #8]
  52              		.loc 1 72 0
  53 000c 02B0     		add	sp, sp, #8
ARM GAS  /tmp/ccyRVXDo.s 			page 2


  54 000e 7047     		bx	lr
  55              	.L3:
  56              		.align	2
  57              	.L2:
  58 0010 001000E0 		.word	-536866816
  59              		.cfi_endproc
  60              	.LFE62:
  61              		.size	tm_start, .-tm_start
  62 0014 AFF30080 		.section	.text.tm_stop,"ax",%progbits
  62      AFF30080 
  62      AFF30080 
  63              		.align	2
  64              		.p2align 4,,15
  65              		.thumb
  66              		.thumb_func
  67              		.type	tm_stop, %function
  68              	tm_stop:
  69              	.LFB63:
  70              		.loc 1 81 0
  71              		.cfi_startproc
  72              		@ args = 0, pretend = 0, frame = 16
  73              		@ frame_needed = 0, uses_anonymous_args = 0
  74              		@ link register save eliminated.
  75 0000 84B0     		sub	sp, sp, #16
  76              	.LCFI1:
  77              		.cfi_def_cfa_offset 16
  78 0002 0190     		str	r0, [sp, #4]
  79              		.loc 1 83 0
  80 0004 114B     		ldr	r3, .L7
  81 0006 5B68     		ldr	r3, [r3, #4]
  82 0008 0393     		str	r3, [sp, #12]
  83              		.loc 1 84 0
  84 000a 019B     		ldr	r3, [sp, #4]
  85 000c 9B68     		ldr	r3, [r3, #8]
  86 000e 039A     		ldr	r2, [sp, #12]
  87 0010 D21A     		subs	r2, r2, r3
  88 0012 0F4B     		ldr	r3, .L7+4
  89 0014 1B68     		ldr	r3, [r3, #0]
  90 0016 D21A     		subs	r2, r2, r3
  91 0018 019B     		ldr	r3, [sp, #4]
  92 001a 9A60     		str	r2, [r3, #8]
  93              		.loc 1 85 0
  94 001c 019B     		ldr	r3, [sp, #4]
  95 001e 9A68     		ldr	r2, [r3, #8]
  96 0020 019B     		ldr	r3, [sp, #4]
  97 0022 DB68     		ldr	r3, [r3, #12]
  98 0024 9A42     		cmp	r2, r3
  99 0026 04D9     		bls	.L5
 100              		.loc 1 86 0
 101 0028 019B     		ldr	r3, [sp, #4]
 102 002a 9A68     		ldr	r2, [r3, #8]
 103 002c 019B     		ldr	r3, [sp, #4]
 104 002e DA60     		str	r2, [r3, #12]
 105 0030 09E0     		b	.L4
 106              	.L5:
 107              		.loc 1 87 0
 108 0032 019B     		ldr	r3, [sp, #4]
ARM GAS  /tmp/ccyRVXDo.s 			page 3


 109 0034 9A68     		ldr	r2, [r3, #8]
 110 0036 019B     		ldr	r3, [sp, #4]
 111 0038 1B69     		ldr	r3, [r3, #16]
 112 003a 9A42     		cmp	r2, r3
 113 003c 03D2     		bcs	.L4
 114              		.loc 1 88 0
 115 003e 019B     		ldr	r3, [sp, #4]
 116 0040 9A68     		ldr	r2, [r3, #8]
 117 0042 019B     		ldr	r3, [sp, #4]
 118 0044 1A61     		str	r2, [r3, #16]
 119              	.L4:
 120              		.loc 1 89 0
 121 0046 04B0     		add	sp, sp, #16
 122 0048 7047     		bx	lr
 123              	.L8:
 124 004a 00BF     		.align	2
 125              	.L7:
 126 004c 001000E0 		.word	-536866816
 127 0050 00000000 		.word	measurement_offset
 128              		.cfi_endproc
 129              	.LFE63:
 130              		.size	tm_stop, .-tm_stop
 131 0054 AFF30080 		.section	.text.tmInit,"ax",%progbits
 131      AFF30080 
 131      AFF30080 
 132              		.align	2
 133              		.p2align 4,,15
 134              		.global	tmInit
 135              		.thumb
 136              		.thumb_func
 137              		.type	tmInit, %function
 138              	tmInit:
 139              	.LFB64:
 140              		.loc 1 104 0
 141              		.cfi_startproc
 142              		@ args = 0, pretend = 0, frame = 24
 143              		@ frame_needed = 0, uses_anonymous_args = 0
 144 0000 00B5     		push	{lr}
 145              	.LCFI2:
 146              		.cfi_def_cfa_offset 4
 147 0002 87B0     		sub	sp, sp, #28
 148              	.LCFI3:
 149              		.cfi_def_cfa_offset 32
 150              		.loc 1 110 0
 151 0004 0A4B     		ldr	r3, .L10
 152 0006 4FF00002 		mov	r2, #0
 153 000a 1A60     		str	r2, [r3, #0]
 154              		.loc 1 111 0
 155 000c 01AB     		add	r3, sp, #4
 156 000e 1846     		mov	r0, r3
 157              		.cfi_offset 14, -4
 158 0010 FFF7FEFF 		bl	tmObjectInit
 159              		.loc 1 112 0
 160 0014 019B     		ldr	r3, [sp, #4]
 161 0016 01AA     		add	r2, sp, #4
 162 0018 1046     		mov	r0, r2
 163 001a 9847     		blx	r3
ARM GAS  /tmp/ccyRVXDo.s 			page 4


 164              		.loc 1 113 0
 165 001c 029B     		ldr	r3, [sp, #8]
 166 001e 01AA     		add	r2, sp, #4
 167 0020 1046     		mov	r0, r2
 168 0022 9847     		blx	r3
 169              		.loc 1 114 0
 170 0024 039A     		ldr	r2, [sp, #12]
 171 0026 024B     		ldr	r3, .L10
 172 0028 1A60     		str	r2, [r3, #0]
 173              		.loc 1 115 0
 174 002a 07B0     		add	sp, sp, #28
 175 002c 00BD     		pop	{pc}
 176              	.L11:
 177 002e 00BF     		.align	2
 178              	.L10:
 179 0030 00000000 		.word	measurement_offset
 180              		.cfi_endproc
 181              	.LFE64:
 182              		.size	tmInit, .-tmInit
 183 0034 AFF30080 		.section	.text.tmObjectInit,"ax",%progbits
 183      AFF30080 
 183      AFF30080 
 184              		.align	2
 185              		.p2align 4,,15
 186              		.global	tmObjectInit
 187              		.thumb
 188              		.thumb_func
 189              		.type	tmObjectInit, %function
 190              	tmObjectInit:
 191              	.LFB65:
 192              		.loc 1 124 0
 193              		.cfi_startproc
 194              		@ args = 0, pretend = 0, frame = 8
 195              		@ frame_needed = 0, uses_anonymous_args = 0
 196              		@ link register save eliminated.
 197 0000 82B0     		sub	sp, sp, #8
 198              	.LCFI4:
 199              		.cfi_def_cfa_offset 8
 200 0002 0190     		str	r0, [sp, #4]
 201              		.loc 1 126 0
 202 0004 019B     		ldr	r3, [sp, #4]
 203 0006 094A     		ldr	r2, .L13
 204 0008 1A60     		str	r2, [r3, #0]
 205              		.loc 1 127 0
 206 000a 019B     		ldr	r3, [sp, #4]
 207 000c 084A     		ldr	r2, .L13+4
 208 000e 5A60     		str	r2, [r3, #4]
 209              		.loc 1 128 0
 210 0010 019B     		ldr	r3, [sp, #4]
 211 0012 4FF00002 		mov	r2, #0
 212 0016 9A60     		str	r2, [r3, #8]
 213              		.loc 1 129 0
 214 0018 019B     		ldr	r3, [sp, #4]
 215 001a 4FF00002 		mov	r2, #0
 216 001e DA60     		str	r2, [r3, #12]
 217              		.loc 1 130 0
 218 0020 019B     		ldr	r3, [sp, #4]
ARM GAS  /tmp/ccyRVXDo.s 			page 5


 219 0022 4FF0FF32 		mov	r2, #-1
 220 0026 1A61     		str	r2, [r3, #16]
 221              		.loc 1 131 0
 222 0028 02B0     		add	sp, sp, #8
 223 002a 7047     		bx	lr
 224              	.L14:
 225              		.align	2
 226              	.L13:
 227 002c 00000000 		.word	tm_start
 228 0030 00000000 		.word	tm_stop
 229              		.cfi_endproc
 230              	.LFE65:
 231              		.size	tmObjectInit, .-tmObjectInit
 232 0034 AFF30080 		.text
 232      AFF30080 
 232      AFF30080 
 233              	.Letext0:
 234              		.section	.debug_loc,"",%progbits
 235              	.Ldebug_loc0:
 236              	.LLST0:
 237 0000 00000000 		.4byte	.LFB62
 238 0004 02000000 		.4byte	.LCFI0
 239 0008 0200     		.2byte	0x2
 240 000a 7D       		.byte	0x7d
 241 000b 00       		.sleb128 0
 242 000c 02000000 		.4byte	.LCFI0
 243 0010 14000000 		.4byte	.LFE62
 244 0014 0200     		.2byte	0x2
 245 0016 7D       		.byte	0x7d
 246 0017 08       		.sleb128 8
 247 0018 00000000 		.4byte	0x0
 248 001c 00000000 		.4byte	0x0
 249              	.LLST1:
 250 0020 00000000 		.4byte	.LFB63
 251 0024 02000000 		.4byte	.LCFI1
 252 0028 0200     		.2byte	0x2
 253 002a 7D       		.byte	0x7d
 254 002b 00       		.sleb128 0
 255 002c 02000000 		.4byte	.LCFI1
 256 0030 54000000 		.4byte	.LFE63
 257 0034 0200     		.2byte	0x2
 258 0036 7D       		.byte	0x7d
 259 0037 10       		.sleb128 16
 260 0038 00000000 		.4byte	0x0
 261 003c 00000000 		.4byte	0x0
 262              	.LLST2:
 263 0040 00000000 		.4byte	.LFB64
 264 0044 02000000 		.4byte	.LCFI2
 265 0048 0200     		.2byte	0x2
 266 004a 7D       		.byte	0x7d
 267 004b 00       		.sleb128 0
 268 004c 02000000 		.4byte	.LCFI2
 269 0050 04000000 		.4byte	.LCFI3
 270 0054 0200     		.2byte	0x2
 271 0056 7D       		.byte	0x7d
 272 0057 04       		.sleb128 4
 273 0058 04000000 		.4byte	.LCFI3
ARM GAS  /tmp/ccyRVXDo.s 			page 6


 274 005c 34000000 		.4byte	.LFE64
 275 0060 0200     		.2byte	0x2
 276 0062 7D       		.byte	0x7d
 277 0063 20       		.sleb128 32
 278 0064 00000000 		.4byte	0x0
 279 0068 00000000 		.4byte	0x0
 280              	.LLST3:
 281 006c 00000000 		.4byte	.LFB65
 282 0070 02000000 		.4byte	.LCFI4
 283 0074 0200     		.2byte	0x2
 284 0076 7D       		.byte	0x7d
 285 0077 00       		.sleb128 0
 286 0078 02000000 		.4byte	.LCFI4
 287 007c 34000000 		.4byte	.LFE65
 288 0080 0200     		.2byte	0x2
 289 0082 7D       		.byte	0x7d
 290 0083 08       		.sleb128 8
 291 0084 00000000 		.4byte	0x0
 292 0088 00000000 		.4byte	0x0
 293              		.file 2 "/home/z80/programs/code-sourcery/2011.03-42/bin/../lib/gcc/arm-none-eabi/4.5.2/../../../.
 294              		.file 3 "../chibios_2.4.x/os/ports/common/ARMCMx/nvic.h"
 295              		.file 4 "../chibios_2.4.x/os/hal/platforms/STM32F1xx/hal_lld.h"
 296              		.file 5 "../chibios_2.4.x/os/hal/include/tm.h"
 297              		.file 6 "../chibios_2.4.x/os/ports/common/ARMCMx/CMSIS/include/core_cm3.h"
 298              		.section	.debug_info
 299 0000 7A020000 		.4byte	0x27a
 300 0004 0200     		.2byte	0x2
 301 0006 00000000 		.4byte	.Ldebug_abbrev0
 302 000a 04       		.byte	0x4
 303 000b 01       		.uleb128 0x1
 304 000c 00000000 		.4byte	.LASF34
 305 0010 01       		.byte	0x1
 306 0011 52010000 		.4byte	.LASF35
 307 0015 1F000000 		.4byte	.LASF36
 308 0019 00000000 		.4byte	0x0
 309 001d 00000000 		.4byte	0x0
 310 0021 00000000 		.4byte	.Ldebug_ranges0+0x0
 311 0025 00000000 		.4byte	.Ldebug_line0
 312 0029 02       		.uleb128 0x2
 313 002a 04       		.byte	0x4
 314 002b 05       		.byte	0x5
 315 002c 696E7400 		.ascii	"int\000"
 316 0030 03       		.uleb128 0x3
 317 0031 04       		.byte	0x4
 318 0032 07       		.byte	0x7
 319 0033 ED000000 		.4byte	.LASF0
 320 0037 03       		.uleb128 0x3
 321 0038 01       		.byte	0x1
 322 0039 06       		.byte	0x6
 323 003a 92010000 		.4byte	.LASF1
 324 003e 03       		.uleb128 0x3
 325 003f 01       		.byte	0x1
 326 0040 08       		.byte	0x8
 327 0041 76000000 		.4byte	.LASF2
 328 0045 03       		.uleb128 0x3
 329 0046 02       		.byte	0x2
 330 0047 05       		.byte	0x5
ARM GAS  /tmp/ccyRVXDo.s 			page 7


 331 0048 48010000 		.4byte	.LASF3
 332 004c 03       		.uleb128 0x3
 333 004d 02       		.byte	0x2
 334 004e 07       		.byte	0x7
 335 004f B1000000 		.4byte	.LASF4
 336 0053 04       		.uleb128 0x4
 337 0054 1F010000 		.4byte	.LASF6
 338 0058 02       		.byte	0x2
 339 0059 4F       		.byte	0x4f
 340 005a 5E000000 		.4byte	0x5e
 341 005e 03       		.uleb128 0x3
 342 005f 04       		.byte	0x4
 343 0060 05       		.byte	0x5
 344 0061 89010000 		.4byte	.LASF5
 345 0065 04       		.uleb128 0x4
 346 0066 80010000 		.4byte	.LASF7
 347 006a 02       		.byte	0x2
 348 006b 50       		.byte	0x50
 349 006c 70000000 		.4byte	0x70
 350 0070 03       		.uleb128 0x3
 351 0071 04       		.byte	0x4
 352 0072 07       		.byte	0x7
 353 0073 92000000 		.4byte	.LASF8
 354 0077 03       		.uleb128 0x3
 355 0078 08       		.byte	0x8
 356 0079 05       		.byte	0x5
 357 007a 27010000 		.4byte	.LASF9
 358 007e 03       		.uleb128 0x3
 359 007f 08       		.byte	0x8
 360 0080 07       		.byte	0x7
 361 0081 5F000000 		.4byte	.LASF10
 362 0085 05       		.uleb128 0x5
 363 0086 70000000 		.4byte	0x70
 364 008a 06       		.uleb128 0x6
 365 008b 20       		.byte	0x20
 366 008c 03       		.byte	0x3
 367 008d 0601     		.2byte	0x106
 368 008f 0C010000 		.4byte	0x10c
 369 0093 07       		.uleb128 0x7
 370 0094 13010000 		.4byte	.LASF11
 371 0098 03       		.byte	0x3
 372 0099 0701     		.2byte	0x107
 373 009b 85000000 		.4byte	0x85
 374 009f 02       		.byte	0x2
 375 00a0 23       		.byte	0x23
 376 00a1 00       		.uleb128 0x0
 377 00a2 07       		.uleb128 0x7
 378 00a3 84000000 		.4byte	.LASF12
 379 00a7 03       		.byte	0x3
 380 00a8 0801     		.2byte	0x108
 381 00aa 85000000 		.4byte	0x85
 382 00ae 02       		.byte	0x2
 383 00af 23       		.byte	0x23
 384 00b0 04       		.uleb128 0x4
 385 00b1 07       		.uleb128 0x7
 386 00b2 C4000000 		.4byte	.LASF13
 387 00b6 03       		.byte	0x3
ARM GAS  /tmp/ccyRVXDo.s 			page 8


 388 00b7 0901     		.2byte	0x109
 389 00b9 85000000 		.4byte	0x85
 390 00bd 02       		.byte	0x2
 391 00be 23       		.byte	0x23
 392 00bf 08       		.uleb128 0x8
 393 00c0 07       		.uleb128 0x7
 394 00c1 18010000 		.4byte	.LASF14
 395 00c5 03       		.byte	0x3
 396 00c6 0A01     		.2byte	0x10a
 397 00c8 85000000 		.4byte	0x85
 398 00cc 02       		.byte	0x2
 399 00cd 23       		.byte	0x23
 400 00ce 0C       		.uleb128 0xc
 401 00cf 07       		.uleb128 0x7
 402 00d0 51000000 		.4byte	.LASF15
 403 00d4 03       		.byte	0x3
 404 00d5 0B01     		.2byte	0x10b
 405 00d7 85000000 		.4byte	0x85
 406 00db 02       		.byte	0x2
 407 00dc 23       		.byte	0x23
 408 00dd 10       		.uleb128 0x10
 409 00de 07       		.uleb128 0x7
 410 00df E6000000 		.4byte	.LASF16
 411 00e3 03       		.byte	0x3
 412 00e4 0C01     		.2byte	0x10c
 413 00e6 85000000 		.4byte	0x85
 414 00ea 02       		.byte	0x2
 415 00eb 23       		.byte	0x23
 416 00ec 14       		.uleb128 0x14
 417 00ed 07       		.uleb128 0x7
 418 00ee D8000000 		.4byte	.LASF17
 419 00f2 03       		.byte	0x3
 420 00f3 0D01     		.2byte	0x10d
 421 00f5 85000000 		.4byte	0x85
 422 00f9 02       		.byte	0x2
 423 00fa 23       		.byte	0x23
 424 00fb 18       		.uleb128 0x18
 425 00fc 07       		.uleb128 0x7
 426 00fd 0C000000 		.4byte	.LASF18
 427 0101 03       		.byte	0x3
 428 0102 0E01     		.2byte	0x10e
 429 0104 85000000 		.4byte	0x85
 430 0108 02       		.byte	0x2
 431 0109 23       		.byte	0x23
 432 010a 1C       		.uleb128 0x1c
 433 010b 00       		.byte	0x0
 434 010c 08       		.uleb128 0x8
 435 010d 73010000 		.4byte	.LASF19
 436 0111 03       		.byte	0x3
 437 0112 0F01     		.2byte	0x10f
 438 0114 8A000000 		.4byte	0x8a
 439 0118 03       		.uleb128 0x3
 440 0119 01       		.byte	0x1
 441 011a 08       		.byte	0x8
 442 011b 05010000 		.4byte	.LASF20
 443 011f 05       		.uleb128 0x5
 444 0120 53000000 		.4byte	0x53
ARM GAS  /tmp/ccyRVXDo.s 			page 9


 445 0124 04       		.uleb128 0x4
 446 0125 FA000000 		.4byte	.LASF21
 447 0129 04       		.byte	0x4
 448 012a D8       		.byte	0xd8
 449 012b 65000000 		.4byte	0x65
 450 012f 04       		.uleb128 0x4
 451 0130 9E010000 		.4byte	.LASF22
 452 0134 05       		.byte	0x5
 453 0135 45       		.byte	0x45
 454 0136 3A010000 		.4byte	0x13a
 455 013a 09       		.uleb128 0x9
 456 013b 9E010000 		.4byte	.LASF22
 457 013f 14       		.byte	0x14
 458 0140 05       		.byte	0x5
 459 0141 4A       		.byte	0x4a
 460 0142 8D010000 		.4byte	0x18d
 461 0146 0A       		.uleb128 0xa
 462 0147 19000000 		.4byte	.LASF23
 463 014b 05       		.byte	0x5
 464 014c 4B       		.byte	0x4b
 465 014d 9F010000 		.4byte	0x19f
 466 0151 02       		.byte	0x2
 467 0152 23       		.byte	0x23
 468 0153 00       		.uleb128 0x0
 469 0154 0A       		.uleb128 0xa
 470 0155 5A000000 		.4byte	.LASF24
 471 0159 05       		.byte	0x5
 472 015a 4C       		.byte	0x4c
 473 015b 9F010000 		.4byte	0x19f
 474 015f 02       		.byte	0x2
 475 0160 23       		.byte	0x23
 476 0161 04       		.uleb128 0x4
 477 0162 0A       		.uleb128 0xa
 478 0163 AE010000 		.4byte	.LASF25
 479 0167 05       		.byte	0x5
 480 0168 4D       		.byte	0x4d
 481 0169 24010000 		.4byte	0x124
 482 016d 02       		.byte	0x2
 483 016e 23       		.byte	0x23
 484 016f 08       		.uleb128 0x8
 485 0170 0A       		.uleb128 0xa
 486 0171 E0000000 		.4byte	.LASF26
 487 0175 05       		.byte	0x5
 488 0176 4E       		.byte	0x4e
 489 0177 24010000 		.4byte	0x124
 490 017b 02       		.byte	0x2
 491 017c 23       		.byte	0x23
 492 017d 0C       		.uleb128 0xc
 493 017e 0A       		.uleb128 0xa
 494 017f 7B010000 		.4byte	.LASF27
 495 0183 05       		.byte	0x5
 496 0184 4F       		.byte	0x4f
 497 0185 24010000 		.4byte	0x124
 498 0189 02       		.byte	0x2
 499 018a 23       		.byte	0x23
 500 018b 10       		.uleb128 0x10
 501 018c 00       		.byte	0x0
ARM GAS  /tmp/ccyRVXDo.s 			page 10


 502 018d 0B       		.uleb128 0xb
 503 018e 01       		.byte	0x1
 504 018f 99010000 		.4byte	0x199
 505 0193 0C       		.uleb128 0xc
 506 0194 99010000 		.4byte	0x199
 507 0198 00       		.byte	0x0
 508 0199 0D       		.uleb128 0xd
 509 019a 04       		.byte	0x4
 510 019b 2F010000 		.4byte	0x12f
 511 019f 0D       		.uleb128 0xd
 512 01a0 04       		.byte	0x4
 513 01a1 8D010000 		.4byte	0x18d
 514 01a5 0E       		.uleb128 0xe
 515 01a6 0A010000 		.4byte	.LASF28
 516 01aa 01       		.byte	0x1
 517 01ab 45       		.byte	0x45
 518 01ac 01       		.byte	0x1
 519 01ad 00000000 		.4byte	.LFB62
 520 01b1 14000000 		.4byte	.LFE62
 521 01b5 00000000 		.4byte	.LLST0
 522 01b9 CC010000 		.4byte	0x1cc
 523 01bd 0F       		.uleb128 0xf
 524 01be 746D7000 		.ascii	"tmp\000"
 525 01c2 01       		.byte	0x1
 526 01c3 45       		.byte	0x45
 527 01c4 99010000 		.4byte	0x199
 528 01c8 02       		.byte	0x2
 529 01c9 91       		.byte	0x91
 530 01ca 7C       		.sleb128 -4
 531 01cb 00       		.byte	0x0
 532 01cc 0E       		.uleb128 0xe
 533 01cd 11000000 		.4byte	.LASF29
 534 01d1 01       		.byte	0x1
 535 01d2 51       		.byte	0x51
 536 01d3 01       		.byte	0x1
 537 01d4 00000000 		.4byte	.LFB63
 538 01d8 54000000 		.4byte	.LFE63
 539 01dc 20000000 		.4byte	.LLST1
 540 01e0 01020000 		.4byte	0x201
 541 01e4 0F       		.uleb128 0xf
 542 01e5 746D7000 		.ascii	"tmp\000"
 543 01e9 01       		.byte	0x1
 544 01ea 51       		.byte	0x51
 545 01eb 99010000 		.4byte	0x199
 546 01ef 02       		.byte	0x2
 547 01f0 91       		.byte	0x91
 548 01f1 74       		.sleb128 -12
 549 01f2 10       		.uleb128 0x10
 550 01f3 6E6F7700 		.ascii	"now\000"
 551 01f7 01       		.byte	0x1
 552 01f8 53       		.byte	0x53
 553 01f9 24010000 		.4byte	0x124
 554 01fd 02       		.byte	0x2
 555 01fe 91       		.byte	0x91
 556 01ff 7C       		.sleb128 -4
 557 0200 00       		.byte	0x0
 558 0201 11       		.uleb128 0x11
ARM GAS  /tmp/ccyRVXDo.s 			page 11


 559 0202 01       		.byte	0x1
 560 0203 8B000000 		.4byte	.LASF30
 561 0207 01       		.byte	0x1
 562 0208 68       		.byte	0x68
 563 0209 01       		.byte	0x1
 564 020a 00000000 		.4byte	.LFB64
 565 020e 34000000 		.4byte	.LFE64
 566 0212 40000000 		.4byte	.LLST2
 567 0216 28020000 		.4byte	0x228
 568 021a 10       		.uleb128 0x10
 569 021b 746D00   		.ascii	"tm\000"
 570 021e 01       		.byte	0x1
 571 021f 69       		.byte	0x69
 572 0220 2F010000 		.4byte	0x12f
 573 0224 02       		.byte	0x2
 574 0225 91       		.byte	0x91
 575 0226 64       		.sleb128 -28
 576 0227 00       		.byte	0x0
 577 0228 11       		.uleb128 0x11
 578 0229 01       		.byte	0x1
 579 022a A4000000 		.4byte	.LASF31
 580 022e 01       		.byte	0x1
 581 022f 7C       		.byte	0x7c
 582 0230 01       		.byte	0x1
 583 0231 00000000 		.4byte	.LFB65
 584 0235 34000000 		.4byte	.LFE65
 585 0239 6C000000 		.4byte	.LLST3
 586 023d 50020000 		.4byte	0x250
 587 0241 0F       		.uleb128 0xf
 588 0242 746D7000 		.ascii	"tmp\000"
 589 0246 01       		.byte	0x1
 590 0247 7C       		.byte	0x7c
 591 0248 99010000 		.4byte	0x199
 592 024c 02       		.byte	0x2
 593 024d 91       		.byte	0x91
 594 024e 7C       		.sleb128 -4
 595 024f 00       		.byte	0x0
 596 0250 12       		.uleb128 0x12
 597 0251 CB000000 		.4byte	.LASF33
 598 0255 06       		.byte	0x6
 599 0256 9404     		.2byte	0x494
 600 0258 1F010000 		.4byte	0x11f
 601 025c 01       		.byte	0x1
 602 025d 01       		.byte	0x1
 603 025e 13       		.uleb128 0x13
 604 025f 35010000 		.4byte	.LASF32
 605 0263 01       		.byte	0x1
 606 0264 38       		.byte	0x38
 607 0265 24010000 		.4byte	0x124
 608 0269 05       		.byte	0x5
 609 026a 03       		.byte	0x3
 610 026b 00000000 		.4byte	measurement_offset
 611 026f 12       		.uleb128 0x12
 612 0270 CB000000 		.4byte	.LASF33
 613 0274 06       		.byte	0x6
 614 0275 9404     		.2byte	0x494
 615 0277 1F010000 		.4byte	0x11f
ARM GAS  /tmp/ccyRVXDo.s 			page 12


 616 027b 01       		.byte	0x1
 617 027c 01       		.byte	0x1
 618 027d 00       		.byte	0x0
 619              		.section	.debug_abbrev
 620 0000 01       		.uleb128 0x1
 621 0001 11       		.uleb128 0x11
 622 0002 01       		.byte	0x1
 623 0003 25       		.uleb128 0x25
 624 0004 0E       		.uleb128 0xe
 625 0005 13       		.uleb128 0x13
 626 0006 0B       		.uleb128 0xb
 627 0007 03       		.uleb128 0x3
 628 0008 0E       		.uleb128 0xe
 629 0009 1B       		.uleb128 0x1b
 630 000a 0E       		.uleb128 0xe
 631 000b 11       		.uleb128 0x11
 632 000c 01       		.uleb128 0x1
 633 000d 52       		.uleb128 0x52
 634 000e 01       		.uleb128 0x1
 635 000f 55       		.uleb128 0x55
 636 0010 06       		.uleb128 0x6
 637 0011 10       		.uleb128 0x10
 638 0012 06       		.uleb128 0x6
 639 0013 00       		.byte	0x0
 640 0014 00       		.byte	0x0
 641 0015 02       		.uleb128 0x2
 642 0016 24       		.uleb128 0x24
 643 0017 00       		.byte	0x0
 644 0018 0B       		.uleb128 0xb
 645 0019 0B       		.uleb128 0xb
 646 001a 3E       		.uleb128 0x3e
 647 001b 0B       		.uleb128 0xb
 648 001c 03       		.uleb128 0x3
 649 001d 08       		.uleb128 0x8
 650 001e 00       		.byte	0x0
 651 001f 00       		.byte	0x0
 652 0020 03       		.uleb128 0x3
 653 0021 24       		.uleb128 0x24
 654 0022 00       		.byte	0x0
 655 0023 0B       		.uleb128 0xb
 656 0024 0B       		.uleb128 0xb
 657 0025 3E       		.uleb128 0x3e
 658 0026 0B       		.uleb128 0xb
 659 0027 03       		.uleb128 0x3
 660 0028 0E       		.uleb128 0xe
 661 0029 00       		.byte	0x0
 662 002a 00       		.byte	0x0
 663 002b 04       		.uleb128 0x4
 664 002c 16       		.uleb128 0x16
 665 002d 00       		.byte	0x0
 666 002e 03       		.uleb128 0x3
 667 002f 0E       		.uleb128 0xe
 668 0030 3A       		.uleb128 0x3a
 669 0031 0B       		.uleb128 0xb
 670 0032 3B       		.uleb128 0x3b
 671 0033 0B       		.uleb128 0xb
 672 0034 49       		.uleb128 0x49
ARM GAS  /tmp/ccyRVXDo.s 			page 13


 673 0035 13       		.uleb128 0x13
 674 0036 00       		.byte	0x0
 675 0037 00       		.byte	0x0
 676 0038 05       		.uleb128 0x5
 677 0039 35       		.uleb128 0x35
 678 003a 00       		.byte	0x0
 679 003b 49       		.uleb128 0x49
 680 003c 13       		.uleb128 0x13
 681 003d 00       		.byte	0x0
 682 003e 00       		.byte	0x0
 683 003f 06       		.uleb128 0x6
 684 0040 13       		.uleb128 0x13
 685 0041 01       		.byte	0x1
 686 0042 0B       		.uleb128 0xb
 687 0043 0B       		.uleb128 0xb
 688 0044 3A       		.uleb128 0x3a
 689 0045 0B       		.uleb128 0xb
 690 0046 3B       		.uleb128 0x3b
 691 0047 05       		.uleb128 0x5
 692 0048 01       		.uleb128 0x1
 693 0049 13       		.uleb128 0x13
 694 004a 00       		.byte	0x0
 695 004b 00       		.byte	0x0
 696 004c 07       		.uleb128 0x7
 697 004d 0D       		.uleb128 0xd
 698 004e 00       		.byte	0x0
 699 004f 03       		.uleb128 0x3
 700 0050 0E       		.uleb128 0xe
 701 0051 3A       		.uleb128 0x3a
 702 0052 0B       		.uleb128 0xb
 703 0053 3B       		.uleb128 0x3b
 704 0054 05       		.uleb128 0x5
 705 0055 49       		.uleb128 0x49
 706 0056 13       		.uleb128 0x13
 707 0057 38       		.uleb128 0x38
 708 0058 0A       		.uleb128 0xa
 709 0059 00       		.byte	0x0
 710 005a 00       		.byte	0x0
 711 005b 08       		.uleb128 0x8
 712 005c 16       		.uleb128 0x16
 713 005d 00       		.byte	0x0
 714 005e 03       		.uleb128 0x3
 715 005f 0E       		.uleb128 0xe
 716 0060 3A       		.uleb128 0x3a
 717 0061 0B       		.uleb128 0xb
 718 0062 3B       		.uleb128 0x3b
 719 0063 05       		.uleb128 0x5
 720 0064 49       		.uleb128 0x49
 721 0065 13       		.uleb128 0x13
 722 0066 00       		.byte	0x0
 723 0067 00       		.byte	0x0
 724 0068 09       		.uleb128 0x9
 725 0069 13       		.uleb128 0x13
 726 006a 01       		.byte	0x1
 727 006b 03       		.uleb128 0x3
 728 006c 0E       		.uleb128 0xe
 729 006d 0B       		.uleb128 0xb
ARM GAS  /tmp/ccyRVXDo.s 			page 14


 730 006e 0B       		.uleb128 0xb
 731 006f 3A       		.uleb128 0x3a
 732 0070 0B       		.uleb128 0xb
 733 0071 3B       		.uleb128 0x3b
 734 0072 0B       		.uleb128 0xb
 735 0073 01       		.uleb128 0x1
 736 0074 13       		.uleb128 0x13
 737 0075 00       		.byte	0x0
 738 0076 00       		.byte	0x0
 739 0077 0A       		.uleb128 0xa
 740 0078 0D       		.uleb128 0xd
 741 0079 00       		.byte	0x0
 742 007a 03       		.uleb128 0x3
 743 007b 0E       		.uleb128 0xe
 744 007c 3A       		.uleb128 0x3a
 745 007d 0B       		.uleb128 0xb
 746 007e 3B       		.uleb128 0x3b
 747 007f 0B       		.uleb128 0xb
 748 0080 49       		.uleb128 0x49
 749 0081 13       		.uleb128 0x13
 750 0082 38       		.uleb128 0x38
 751 0083 0A       		.uleb128 0xa
 752 0084 00       		.byte	0x0
 753 0085 00       		.byte	0x0
 754 0086 0B       		.uleb128 0xb
 755 0087 15       		.uleb128 0x15
 756 0088 01       		.byte	0x1
 757 0089 27       		.uleb128 0x27
 758 008a 0C       		.uleb128 0xc
 759 008b 01       		.uleb128 0x1
 760 008c 13       		.uleb128 0x13
 761 008d 00       		.byte	0x0
 762 008e 00       		.byte	0x0
 763 008f 0C       		.uleb128 0xc
 764 0090 05       		.uleb128 0x5
 765 0091 00       		.byte	0x0
 766 0092 49       		.uleb128 0x49
 767 0093 13       		.uleb128 0x13
 768 0094 00       		.byte	0x0
 769 0095 00       		.byte	0x0
 770 0096 0D       		.uleb128 0xd
 771 0097 0F       		.uleb128 0xf
 772 0098 00       		.byte	0x0
 773 0099 0B       		.uleb128 0xb
 774 009a 0B       		.uleb128 0xb
 775 009b 49       		.uleb128 0x49
 776 009c 13       		.uleb128 0x13
 777 009d 00       		.byte	0x0
 778 009e 00       		.byte	0x0
 779 009f 0E       		.uleb128 0xe
 780 00a0 2E       		.uleb128 0x2e
 781 00a1 01       		.byte	0x1
 782 00a2 03       		.uleb128 0x3
 783 00a3 0E       		.uleb128 0xe
 784 00a4 3A       		.uleb128 0x3a
 785 00a5 0B       		.uleb128 0xb
 786 00a6 3B       		.uleb128 0x3b
ARM GAS  /tmp/ccyRVXDo.s 			page 15


 787 00a7 0B       		.uleb128 0xb
 788 00a8 27       		.uleb128 0x27
 789 00a9 0C       		.uleb128 0xc
 790 00aa 11       		.uleb128 0x11
 791 00ab 01       		.uleb128 0x1
 792 00ac 12       		.uleb128 0x12
 793 00ad 01       		.uleb128 0x1
 794 00ae 40       		.uleb128 0x40
 795 00af 06       		.uleb128 0x6
 796 00b0 01       		.uleb128 0x1
 797 00b1 13       		.uleb128 0x13
 798 00b2 00       		.byte	0x0
 799 00b3 00       		.byte	0x0
 800 00b4 0F       		.uleb128 0xf
 801 00b5 05       		.uleb128 0x5
 802 00b6 00       		.byte	0x0
 803 00b7 03       		.uleb128 0x3
 804 00b8 08       		.uleb128 0x8
 805 00b9 3A       		.uleb128 0x3a
 806 00ba 0B       		.uleb128 0xb
 807 00bb 3B       		.uleb128 0x3b
 808 00bc 0B       		.uleb128 0xb
 809 00bd 49       		.uleb128 0x49
 810 00be 13       		.uleb128 0x13
 811 00bf 02       		.uleb128 0x2
 812 00c0 0A       		.uleb128 0xa
 813 00c1 00       		.byte	0x0
 814 00c2 00       		.byte	0x0
 815 00c3 10       		.uleb128 0x10
 816 00c4 34       		.uleb128 0x34
 817 00c5 00       		.byte	0x0
 818 00c6 03       		.uleb128 0x3
 819 00c7 08       		.uleb128 0x8
 820 00c8 3A       		.uleb128 0x3a
 821 00c9 0B       		.uleb128 0xb
 822 00ca 3B       		.uleb128 0x3b
 823 00cb 0B       		.uleb128 0xb
 824 00cc 49       		.uleb128 0x49
 825 00cd 13       		.uleb128 0x13
 826 00ce 02       		.uleb128 0x2
 827 00cf 0A       		.uleb128 0xa
 828 00d0 00       		.byte	0x0
 829 00d1 00       		.byte	0x0
 830 00d2 11       		.uleb128 0x11
 831 00d3 2E       		.uleb128 0x2e
 832 00d4 01       		.byte	0x1
 833 00d5 3F       		.uleb128 0x3f
 834 00d6 0C       		.uleb128 0xc
 835 00d7 03       		.uleb128 0x3
 836 00d8 0E       		.uleb128 0xe
 837 00d9 3A       		.uleb128 0x3a
 838 00da 0B       		.uleb128 0xb
 839 00db 3B       		.uleb128 0x3b
 840 00dc 0B       		.uleb128 0xb
 841 00dd 27       		.uleb128 0x27
 842 00de 0C       		.uleb128 0xc
 843 00df 11       		.uleb128 0x11
ARM GAS  /tmp/ccyRVXDo.s 			page 16


 844 00e0 01       		.uleb128 0x1
 845 00e1 12       		.uleb128 0x12
 846 00e2 01       		.uleb128 0x1
 847 00e3 40       		.uleb128 0x40
 848 00e4 06       		.uleb128 0x6
 849 00e5 01       		.uleb128 0x1
 850 00e6 13       		.uleb128 0x13
 851 00e7 00       		.byte	0x0
 852 00e8 00       		.byte	0x0
 853 00e9 12       		.uleb128 0x12
 854 00ea 34       		.uleb128 0x34
 855 00eb 00       		.byte	0x0
 856 00ec 03       		.uleb128 0x3
 857 00ed 0E       		.uleb128 0xe
 858 00ee 3A       		.uleb128 0x3a
 859 00ef 0B       		.uleb128 0xb
 860 00f0 3B       		.uleb128 0x3b
 861 00f1 05       		.uleb128 0x5
 862 00f2 49       		.uleb128 0x49
 863 00f3 13       		.uleb128 0x13
 864 00f4 3F       		.uleb128 0x3f
 865 00f5 0C       		.uleb128 0xc
 866 00f6 3C       		.uleb128 0x3c
 867 00f7 0C       		.uleb128 0xc
 868 00f8 00       		.byte	0x0
 869 00f9 00       		.byte	0x0
 870 00fa 13       		.uleb128 0x13
 871 00fb 34       		.uleb128 0x34
 872 00fc 00       		.byte	0x0
 873 00fd 03       		.uleb128 0x3
 874 00fe 0E       		.uleb128 0xe
 875 00ff 3A       		.uleb128 0x3a
 876 0100 0B       		.uleb128 0xb
 877 0101 3B       		.uleb128 0x3b
 878 0102 0B       		.uleb128 0xb
 879 0103 49       		.uleb128 0x49
 880 0104 13       		.uleb128 0x13
 881 0105 02       		.uleb128 0x2
 882 0106 0A       		.uleb128 0xa
 883 0107 00       		.byte	0x0
 884 0108 00       		.byte	0x0
 885 0109 00       		.byte	0x0
 886              		.section	.debug_pubnames,"",%progbits
 887 0000 2A000000 		.4byte	0x2a
 888 0004 0200     		.2byte	0x2
 889 0006 00000000 		.4byte	.Ldebug_info0
 890 000a 7E020000 		.4byte	0x27e
 891 000e 01020000 		.4byte	0x201
 892 0012 746D496E 		.ascii	"tmInit\000"
 892      697400
 893 0019 28020000 		.4byte	0x228
 894 001d 746D4F62 		.ascii	"tmObjectInit\000"
 894      6A656374 
 894      496E6974 
 894      00
 895 002a 00000000 		.4byte	0x0
 896              		.section	.debug_pubtypes,"",%progbits
ARM GAS  /tmp/ccyRVXDo.s 			page 17


 897 0000 6A000000 		.4byte	0x6a
 898 0004 0200     		.2byte	0x2
 899 0006 00000000 		.4byte	.Ldebug_info0
 900 000a 7E020000 		.4byte	0x27e
 901 000e 53000000 		.4byte	0x53
 902 0012 696E7433 		.ascii	"int32_t\000"
 902      325F7400 
 903 001a 65000000 		.4byte	0x65
 904 001e 75696E74 		.ascii	"uint32_t\000"
 904      33325F74 
 904      00
 905 0027 0C010000 		.4byte	0x10c
 906 002b 434D785F 		.ascii	"CMx_DWT\000"
 906      44575400 
 907 0033 24010000 		.4byte	0x124
 908 0037 68616C72 		.ascii	"halrtcnt_t\000"
 908      74636E74 
 908      5F7400
 909 0042 2F010000 		.4byte	0x12f
 910 0046 54696D65 		.ascii	"TimeMeasurement\000"
 910      4D656173 
 910      7572656D 
 910      656E7400 
 911 0056 3A010000 		.4byte	0x13a
 912 005a 54696D65 		.ascii	"TimeMeasurement\000"
 912      4D656173 
 912      7572656D 
 912      656E7400 
 913 006a 00000000 		.4byte	0x0
 914              		.section	.debug_aranges,"",%progbits
 915 0000 34000000 		.4byte	0x34
 916 0004 0200     		.2byte	0x2
 917 0006 00000000 		.4byte	.Ldebug_info0
 918 000a 04       		.byte	0x4
 919 000b 00       		.byte	0x0
 920 000c 0000     		.2byte	0x0
 921 000e 0000     		.2byte	0x0
 922 0010 00000000 		.4byte	.LFB62
 923 0014 14000000 		.4byte	.LFE62-.LFB62
 924 0018 00000000 		.4byte	.LFB63
 925 001c 54000000 		.4byte	.LFE63-.LFB63
 926 0020 00000000 		.4byte	.LFB64
 927 0024 34000000 		.4byte	.LFE64-.LFB64
 928 0028 00000000 		.4byte	.LFB65
 929 002c 34000000 		.4byte	.LFE65-.LFB65
 930 0030 00000000 		.4byte	0x0
 931 0034 00000000 		.4byte	0x0
 932              		.section	.debug_ranges,"",%progbits
 933              	.Ldebug_ranges0:
 934 0000 00000000 		.4byte	.LFB62
 935 0004 14000000 		.4byte	.LFE62
 936 0008 00000000 		.4byte	.LFB63
 937 000c 54000000 		.4byte	.LFE63
 938 0010 00000000 		.4byte	.LFB64
 939 0014 34000000 		.4byte	.LFE64
 940 0018 00000000 		.4byte	.LFB65
 941 001c 34000000 		.4byte	.LFE65
ARM GAS  /tmp/ccyRVXDo.s 			page 18


 942 0020 00000000 		.4byte	0x0
 943 0024 00000000 		.4byte	0x0
 944              		.section	.debug_str,"MS",%progbits,1
 945              	.LASF34:
 946 0000 474E5520 		.ascii	"GNU C 4.5.2\000"
 946      4320342E 
 946      352E3200 
 947              	.LASF18:
 948 000c 50435352 		.ascii	"PCSR\000"
 948      00
 949              	.LASF29:
 950 0011 746D5F73 		.ascii	"tm_stop\000"
 950      746F7000 
 951              	.LASF23:
 952 0019 73746172 		.ascii	"start\000"
 952      7400
 953              	.LASF36:
 954 001f 2F686F6D 		.ascii	"/home/z80/projects/voltamper.git/firmware/voltamp\000"
 954      652F7A38 
 954      302F7072 
 954      6F6A6563 
 954      74732F76 
 955              	.LASF15:
 956 0051 534C4545 		.ascii	"SLEEPCNT\000"
 956      50434E54 
 956      00
 957              	.LASF24:
 958 005a 73746F70 		.ascii	"stop\000"
 958      00
 959              	.LASF10:
 960 005f 6C6F6E67 		.ascii	"long long unsigned int\000"
 960      206C6F6E 
 960      6720756E 
 960      7369676E 
 960      65642069 
 961              	.LASF2:
 962 0076 756E7369 		.ascii	"unsigned char\000"
 962      676E6564 
 962      20636861 
 962      7200
 963              	.LASF12:
 964 0084 43594343 		.ascii	"CYCCNT\000"
 964      4E5400
 965              	.LASF30:
 966 008b 746D496E 		.ascii	"tmInit\000"
 966      697400
 967              	.LASF8:
 968 0092 6C6F6E67 		.ascii	"long unsigned int\000"
 968      20756E73 
 968      69676E65 
 968      6420696E 
 968      7400
 969              	.LASF31:
 970 00a4 746D4F62 		.ascii	"tmObjectInit\000"
 970      6A656374 
 970      496E6974 
 970      00
ARM GAS  /tmp/ccyRVXDo.s 			page 19


 971              	.LASF4:
 972 00b1 73686F72 		.ascii	"short unsigned int\000"
 972      7420756E 
 972      7369676E 
 972      65642069 
 972      6E7400
 973              	.LASF13:
 974 00c4 43504943 		.ascii	"CPICNT\000"
 974      4E5400
 975              	.LASF33:
 976 00cb 49544D5F 		.ascii	"ITM_RxBuffer\000"
 976      52784275 
 976      66666572 
 976      00
 977              	.LASF17:
 978 00d8 464F4C44 		.ascii	"FOLDCNT\000"
 978      434E5400 
 979              	.LASF26:
 980 00e0 776F7273 		.ascii	"worst\000"
 980      7400
 981              	.LASF16:
 982 00e6 4C535543 		.ascii	"LSUCNT\000"
 982      4E5400
 983              	.LASF0:
 984 00ed 756E7369 		.ascii	"unsigned int\000"
 984      676E6564 
 984      20696E74 
 984      00
 985              	.LASF21:
 986 00fa 68616C72 		.ascii	"halrtcnt_t\000"
 986      74636E74 
 986      5F7400
 987              	.LASF20:
 988 0105 63686172 		.ascii	"char\000"
 988      00
 989              	.LASF28:
 990 010a 746D5F73 		.ascii	"tm_start\000"
 990      74617274 
 990      00
 991              	.LASF11:
 992 0113 4354524C 		.ascii	"CTRL\000"
 992      00
 993              	.LASF14:
 994 0118 45584343 		.ascii	"EXCCNT\000"
 994      4E5400
 995              	.LASF6:
 996 011f 696E7433 		.ascii	"int32_t\000"
 996      325F7400 
 997              	.LASF9:
 998 0127 6C6F6E67 		.ascii	"long long int\000"
 998      206C6F6E 
 998      6720696E 
 998      7400
 999              	.LASF32:
 1000 0135 6D656173 		.ascii	"measurement_offset\000"
 1000      7572656D 
 1000      656E745F 
ARM GAS  /tmp/ccyRVXDo.s 			page 20


 1000      6F666673 
 1000      657400
 1001              	.LASF3:
 1002 0148 73686F72 		.ascii	"short int\000"
 1002      7420696E 
 1002      7400
 1003              	.LASF35:
 1004 0152 2E2E2F63 		.ascii	"../chibios_2.4.x/os/hal/src/tm.c\000"
 1004      68696269 
 1004      6F735F32 
 1004      2E342E78 
 1004      2F6F732F 
 1005              	.LASF19:
 1006 0173 434D785F 		.ascii	"CMx_DWT\000"
 1006      44575400 
 1007              	.LASF27:
 1008 017b 62657374 		.ascii	"best\000"
 1008      00
 1009              	.LASF7:
 1010 0180 75696E74 		.ascii	"uint32_t\000"
 1010      33325F74 
 1010      00
 1011              	.LASF5:
 1012 0189 6C6F6E67 		.ascii	"long int\000"
 1012      20696E74 
 1012      00
 1013              	.LASF1:
 1014 0192 7369676E 		.ascii	"signed char\000"
 1014      65642063 
 1014      68617200 
 1015              	.LASF22:
 1016 019e 54696D65 		.ascii	"TimeMeasurement\000"
 1016      4D656173 
 1016      7572656D 
 1016      656E7400 
 1017              	.LASF25:
 1018 01ae 6C617374 		.ascii	"last\000"
 1018      00
 1019              		.ident	"GCC: (Sourcery G++ Lite 2011.03-42) 4.5.2"
ARM GAS  /tmp/ccyRVXDo.s 			page 21


DEFINED SYMBOLS
                            *ABS*:00000000 tm.c
     /tmp/ccyRVXDo.s:24     .bss.measurement_offset:00000000 $d
     /tmp/ccyRVXDo.s:27     .bss.measurement_offset:00000000 measurement_offset
     /tmp/ccyRVXDo.s:30     .text.tm_start:00000000 $t
     /tmp/ccyRVXDo.s:35     .text.tm_start:00000000 tm_start
     /tmp/ccyRVXDo.s:58     .text.tm_start:00000010 $d
     /tmp/ccyRVXDo.s:63     .text.tm_stop:00000000 $t
     /tmp/ccyRVXDo.s:68     .text.tm_stop:00000000 tm_stop
     /tmp/ccyRVXDo.s:126    .text.tm_stop:0000004c $d
     /tmp/ccyRVXDo.s:132    .text.tmInit:00000000 $t
     /tmp/ccyRVXDo.s:138    .text.tmInit:00000000 tmInit
     /tmp/ccyRVXDo.s:190    .text.tmObjectInit:00000000 tmObjectInit
     /tmp/ccyRVXDo.s:179    .text.tmInit:00000030 $d
     /tmp/ccyRVXDo.s:184    .text.tmObjectInit:00000000 $t
     /tmp/ccyRVXDo.s:227    .text.tmObjectInit:0000002c $d
                     .debug_frame:00000010 $d
     /tmp/ccyRVXDo.s:62     .text.tm_start:00000014 $t
     /tmp/ccyRVXDo.s:131    .text.tm_stop:00000054 $t
     /tmp/ccyRVXDo.s:183    .text.tmInit:00000034 $t
     /tmp/ccyRVXDo.s:232    .text.tmObjectInit:00000034 $t

NO UNDEFINED SYMBOLS
