ARM GAS  /tmp/cc5uc8Mi.s 			page 1


   1              		.syntax unified
   2              		.cpu cortex-m3
   3              		.fpu softvfp
   4              		.eabi_attribute 20, 1
   5              		.eabi_attribute 21, 1
   6              		.eabi_attribute 23, 3
   7              		.eabi_attribute 24, 1
   8              		.eabi_attribute 25, 1
   9              		.eabi_attribute 26, 1
  10              		.eabi_attribute 30, 2
  11              		.eabi_attribute 18, 4
  12              		.thumb
  13              		.file	"usb.c"
  14              		.section	.debug_abbrev,"",%progbits
  15              	.Ldebug_abbrev0:
  16              		.section	.debug_info,"",%progbits
  17              	.Ldebug_info0:
  18              		.section	.debug_line,"",%progbits
  19              	.Ldebug_line0:
  20 0000 E4040000 		.text
  20      0200F201 
  20      00000201 
  20      FB0E0D00 
  20      01010101 
  21              	.Ltext0:
  22              		.cfi_sections	.debug_frame
  23              		.section	.text.set_address,"ax",%progbits
  24              		.align	2
  25              		.p2align 4,,15
  26              		.thumb
  27              		.thumb_func
  28              		.type	set_address, %function
  29              	set_address:
  30              	.LFB62:
  31              		.file 1 "../chibios_2.4.x/os/hal/src/usb.c"
  32              		.loc 1 69 0
  33              		.cfi_startproc
  34              		@ args = 0, pretend = 0, frame = 0
  35              		@ frame_needed = 0, uses_anonymous_args = 0
  36              	.LVL0:
  37 0000 10B5     		push	{r4, lr}
  38              	.LCFI0:
  39              		.cfi_def_cfa_offset 8
  40              		.loc 1 71 0
  41 0002 90F84210 		ldrb	r1, [r0, #66]	@ zero_extendqisi2
  42              		.loc 1 69 0
  43 0006 0446     		mov	r4, r0
  44              		.cfi_offset 14, -4
  45              		.cfi_offset 4, -8
  46              		.loc 1 71 0
  47 0008 80F84A10 		strb	r1, [r0, #74]
  48              		.loc 1 72 0
  49 000c FFF7FEFF 		bl	usb_lld_set_address
  50              	.LVL1:
  51              		.loc 1 73 0
  52 0010 6368     		ldr	r3, [r4, #4]
  53 0012 1B68     		ldr	r3, [r3, #0]
ARM GAS  /tmp/cc5uc8Mi.s 			page 2


  54 0014 13B1     		cbz	r3, .L2
  55              		.loc 1 73 0 is_stmt 0 discriminator 1
  56 0016 2046     		mov	r0, r4
  57 0018 0121     		movs	r1, #1
  58 001a 9847     		blx	r3
  59              	.L2:
  60              		.loc 1 74 0 is_stmt 1
  61 001c 0320     		movs	r0, #3
  62 001e 2070     		strb	r0, [r4, #0]
  63              		.loc 1 75 0
  64 0020 10BD     		pop	{r4, pc}
  65              		.cfi_endproc
  66              	.LFE62:
  67              		.size	set_address, .-set_address
  68 0022 00BFAFF3 		.section	.text.usbInit,"ax",%progbits
  68      0080AFF3 
  68      0080AFF3 
  68      0080
  69              		.align	2
  70              		.p2align 4,,15
  71              		.global	usbInit
  72              		.thumb
  73              		.thumb_func
  74              		.type	usbInit, %function
  75              	usbInit:
  76              	.LFB64:
  77              		.loc 1 235 0
  78              		.cfi_startproc
  79              		@ args = 0, pretend = 0, frame = 0
  80              		@ frame_needed = 0, uses_anonymous_args = 0
  81              		@ link register save eliminated.
  82              		.loc 1 238 0
  83              		.loc 1 237 0
  84 0000 FFF7FEBF 		b	usb_lld_init
  85              		.cfi_endproc
  86              	.LFE64:
  87              		.size	usbInit, .-usbInit
  88 0004 AFF30080 		.section	.text.usbObjectInit,"ax",%progbits
  88      AFF30080 
  88      AFF30080 
  89              		.align	2
  90              		.p2align 4,,15
  91              		.global	usbObjectInit
  92              		.thumb
  93              		.thumb_func
  94              		.type	usbObjectInit, %function
  95              	usbObjectInit:
  96              	.LFB65:
  97              		.loc 1 247 0
  98              		.cfi_startproc
  99              		@ args = 0, pretend = 0, frame = 0
 100              		@ frame_needed = 0, uses_anonymous_args = 0
 101              		@ link register save eliminated.
 102              	.LVL2:
 103              		.loc 1 250 0
 104 0000 0023     		movs	r3, #0
 105              		.loc 1 249 0
ARM GAS  /tmp/cc5uc8Mi.s 			page 3


 106 0002 0122     		movs	r2, #1
 107 0004 0270     		strb	r2, [r0, #0]
 108              		.loc 1 250 0
 109 0006 4360     		str	r3, [r0, #4]
 110              		.loc 1 251 0
 111 0008 8360     		str	r3, [r0, #8]
 112              		.loc 1 252 0
 113 000a 8381     		strh	r3, [r0, #12]	@ movhi
 114              		.loc 1 253 0
 115 000c C381     		strh	r3, [r0, #14]	@ movhi
 116              		.loc 1 254 0
 117 000e 7047     		bx	lr
 118              		.cfi_endproc
 119              	.LFE65:
 120              		.size	usbObjectInit, .-usbObjectInit
 121              		.section	.text.usbStart,"ax",%progbits
 122              		.align	2
 123              		.p2align 4,,15
 124              		.global	usbStart
 125              		.thumb
 126              		.thumb_func
 127              		.type	usbStart, %function
 128              	usbStart:
 129              	.LFB66:
 130              		.loc 1 264 0
 131              		.cfi_startproc
 132              		@ args = 0, pretend = 0, frame = 0
 133              		@ frame_needed = 0, uses_anonymous_args = 0
 134              	.LVL3:
 135 0000 70B5     		push	{r4, r5, r6, lr}
 136              	.LCFI1:
 137              		.cfi_def_cfa_offset 16
 138              		.loc 1 267 0
 139 0002 0446     		mov	r4, r0
 140              		.cfi_offset 14, -4
 141              		.cfi_offset 6, -8
 142              		.cfi_offset 5, -12
 143              		.cfi_offset 4, -16
 144              		.loc 1 264 0
 145 0004 0D46     		mov	r5, r1
 146              		.loc 1 267 0
 147 0006 10B3     		cbz	r0, .L7
 148              		.loc 1 267 0 is_stmt 0 discriminator 2
 149 0008 09B3     		cbz	r1, .L7
 150              	.LVL4:
 151              	.L8:
 152              	.LBB2:
 153              		.loc 1 269 0 is_stmt 1
 154 000a 2023     		movs	r3, #32
 155              	.LVL5:
 156              	@ 269 "../chibios_2.4.x/os/hal/src/usb.c" 1
 157 000c 83F31188 		msr     BASEPRI, r3
 158              	@ 0 "" 2
 159              	.LVL6:
 160              		.thumb
 161              	.LBE2:
 162 0010 FFF7FEFF 		bl	dbg_check_lock
ARM GAS  /tmp/cc5uc8Mi.s 			page 4


 163              	.LVL7:
 164              		.loc 1 270 0
 165 0014 2178     		ldrb	r1, [r4, #0]	@ zero_extendqisi2
 166 0016 481E     		subs	r0, r1, #1
 167 0018 C3B2     		uxtb	r3, r0
 168 001a 012B     		cmp	r3, #1
 169 001c 02D9     		bls	.L9
 170              		.loc 1 270 0 is_stmt 0 discriminator 1
 171 001e 0E48     		ldr	r0, .L10
 172 0020 FFF7FEFF 		bl	chDbgPanic
 173              	.L9:
 174              		.loc 1 274 0 is_stmt 1
 175 0024 0026     		movs	r6, #0
 176              		.loc 1 275 0
 177 0026 2046     		mov	r0, r4
 178              		.loc 1 272 0
 179 0028 6560     		str	r5, [r4, #4]
 180              	.LVL8:
 181              		.loc 1 274 0
 182 002a 2661     		str	r6, [r4, #16]
 183              	.LVL9:
 184 002c 6661     		str	r6, [r4, #20]
 185              	.LVL10:
 186 002e A661     		str	r6, [r4, #24]
 187              	.LVL11:
 188 0030 E661     		str	r6, [r4, #28]
 189              	.LVL12:
 190 0032 2662     		str	r6, [r4, #32]
 191              	.LVL13:
 192 0034 6662     		str	r6, [r4, #36]
 193              	.LVL14:
 194 0036 A662     		str	r6, [r4, #40]
 195              	.LVL15:
 196 0038 E662     		str	r6, [r4, #44]
 197              	.LVL16:
 198              		.loc 1 275 0
 199 003a FFF7FEFF 		bl	usb_lld_start
 200              		.loc 1 276 0
 201 003e 0222     		movs	r2, #2
 202 0040 2270     		strb	r2, [r4, #0]
 203              		.loc 1 277 0
 204 0042 FFF7FEFF 		bl	dbg_check_unlock
 205              	.LBB3:
 206 0046 3346     		mov	r3, r6
 207              	.LVL17:
 208              	@ 277 "../chibios_2.4.x/os/hal/src/usb.c" 1
 209 0048 83F31188 		msr     BASEPRI, r3
 210              	@ 0 "" 2
 211              	.LVL18:
 212              		.thumb
 213              	.LBE3:
 214              		.loc 1 278 0
 215 004c 70BD     		pop	{r4, r5, r6, pc}
 216              	.LVL19:
 217              	.L7:
 218              		.loc 1 267 0 discriminator 1
 219 004e 0348     		ldr	r0, .L10+4
ARM GAS  /tmp/cc5uc8Mi.s 			page 5


 220 0050 FFF7FEFF 		bl	chDbgPanic
 221 0054 D9E7     		b	.L8
 222              	.L11:
 223 0056 00BF     		.align	2
 224              	.L10:
 225 0058 10000000 		.word	.LC1
 226 005c 00000000 		.word	.LC0
 227              		.cfi_endproc
 228              	.LFE66:
 229              		.size	usbStart, .-usbStart
 230              		.section	.text.usbStop,"ax",%progbits
 231              		.align	2
 232              		.p2align 4,,15
 233              		.global	usbStop
 234              		.thumb
 235              		.thumb_func
 236              		.type	usbStop, %function
 237              	usbStop:
 238              	.LFB67:
 239              		.loc 1 287 0
 240              		.cfi_startproc
 241              		@ args = 0, pretend = 0, frame = 0
 242              		@ frame_needed = 0, uses_anonymous_args = 0
 243              	.LVL20:
 244 0000 10B5     		push	{r4, lr}
 245              	.LCFI2:
 246              		.cfi_def_cfa_offset 8
 247              		.loc 1 289 0
 248 0002 0446     		mov	r4, r0
 249              		.cfi_offset 14, -4
 250              		.cfi_offset 4, -8
 251 0004 B8B1     		cbz	r0, .L15
 252              	.LVL21:
 253              	.L13:
 254              	.LBB4:
 255              		.loc 1 291 0
 256 0006 2023     		movs	r3, #32
 257              	.LVL22:
 258              	@ 291 "../chibios_2.4.x/os/hal/src/usb.c" 1
 259 0008 83F31188 		msr     BASEPRI, r3
 260              	@ 0 "" 2
 261              	.LVL23:
 262              		.thumb
 263              	.LBE4:
 264 000c FFF7FEFF 		bl	dbg_check_lock
 265              	.LVL24:
 266              		.loc 1 292 0
 267 0010 2178     		ldrb	r1, [r4, #0]	@ zero_extendqisi2
 268 0012 481E     		subs	r0, r1, #1
 269 0014 C3B2     		uxtb	r3, r0
 270 0016 012B     		cmp	r3, #1
 271 0018 02D9     		bls	.L14
 272              		.loc 1 292 0 is_stmt 0 discriminator 1
 273 001a 0948     		ldr	r0, .L16
 274 001c FFF7FEFF 		bl	chDbgPanic
 275              	.L14:
 276              		.loc 1 294 0 is_stmt 1
ARM GAS  /tmp/cc5uc8Mi.s 			page 6


 277 0020 2046     		mov	r0, r4
 278 0022 FFF7FEFF 		bl	usb_lld_stop
 279              		.loc 1 295 0
 280 0026 0122     		movs	r2, #1
 281 0028 2270     		strb	r2, [r4, #0]
 282              		.loc 1 296 0
 283 002a FFF7FEFF 		bl	dbg_check_unlock
 284              	.LBB5:
 285 002e 0023     		movs	r3, #0
 286              	.LVL25:
 287              	@ 296 "../chibios_2.4.x/os/hal/src/usb.c" 1
 288 0030 83F31188 		msr     BASEPRI, r3
 289              	@ 0 "" 2
 290              	.LVL26:
 291              		.thumb
 292              	.LBE5:
 293              		.loc 1 297 0
 294 0034 10BD     		pop	{r4, pc}
 295              	.LVL27:
 296              	.L15:
 297              		.loc 1 289 0 discriminator 1
 298 0036 0348     		ldr	r0, .L16+4
 299 0038 FFF7FEFF 		bl	chDbgPanic
 300 003c E3E7     		b	.L13
 301              	.L17:
 302 003e 00BF     		.align	2
 303              	.L16:
 304 0040 2C000000 		.word	.LC3
 305 0044 20000000 		.word	.LC2
 306              		.cfi_endproc
 307              	.LFE67:
 308              		.size	usbStop, .-usbStop
 309 0048 AFF30080 		.section	.text.usbInitEndpointI,"ax",%progbits
 309      AFF30080 
 310              		.align	2
 311              		.p2align 4,,15
 312              		.global	usbInitEndpointI
 313              		.thumb
 314              		.thumb_func
 315              		.type	usbInitEndpointI, %function
 316              	usbInitEndpointI:
 317              	.LFB68:
 318              		.loc 1 313 0
 319              		.cfi_startproc
 320              		@ args = 0, pretend = 0, frame = 0
 321              		@ frame_needed = 0, uses_anonymous_args = 0
 322              	.LVL28:
 323 0000 2DE9F041 		push	{r4, r5, r6, r7, r8, lr}
 324              	.LCFI3:
 325              		.cfi_def_cfa_offset 24
 326              		.loc 1 313 0
 327 0004 0446     		mov	r4, r0
 328              		.cfi_offset 14, -4
 329              		.cfi_offset 8, -8
 330              		.cfi_offset 7, -12
 331              		.cfi_offset 6, -16
 332              		.cfi_offset 5, -20
ARM GAS  /tmp/cc5uc8Mi.s 			page 7


 333              		.cfi_offset 4, -24
 334 0006 0D46     		mov	r5, r1
 335 0008 1646     		mov	r6, r2
 336              		.loc 1 315 0
 337 000a FFF7FEFF 		bl	chDbgCheckClassI
 338              	.LVL29:
 339              		.loc 1 316 0
 340 000e 002C     		cmp	r4, #0
 341 0010 2AD0     		beq	.L19
 342              		.loc 1 316 0 is_stmt 0 discriminator 2
 343 0012 002E     		cmp	r6, #0
 344 0014 28D0     		beq	.L19
 345              	.L20:
 346              		.loc 1 317 0 is_stmt 1
 347 0016 2378     		ldrb	r3, [r4, #0]	@ zero_extendqisi2
 348 0018 042B     		cmp	r3, #4
 349 001a 02D0     		beq	.L21
 350              		.loc 1 317 0 is_stmt 0 discriminator 1
 351 001c 1448     		ldr	r0, .L24
 352 001e FFF7FEFF 		bl	chDbgPanic
 353              	.L21:
 354              		.loc 1 319 0 is_stmt 1
 355 0022 2F1D     		adds	r7, r5, #4
 356 0024 54F82700 		ldr	r0, [r4, r7, lsl #2]
 357 0028 10B1     		cbz	r0, .L22
 358              		.loc 1 319 0 is_stmt 0 discriminator 1
 359 002a 1248     		ldr	r0, .L24+4
 360 002c FFF7FEFF 		bl	chDbgPanic
 361              	.L22:
 362              		.loc 1 323 0 is_stmt 1
 363 0030 3168     		ldr	r1, [r6, #0]
 364 0032 11F01003 		ands	r3, r1, #16
 365 0036 0FD1     		bne	.L23
 366              		.loc 1 324 0
 367 0038 7269     		ldr	r2, [r6, #20]
 368 003a 9446     		mov	ip, r2
 369 003c 4CF8043B 		str	r3, [ip], #4
 370 0040 5360     		str	r3, [r2, #4]
 371 0042 CCF80430 		str	r3, [ip, #4]
 372              		.loc 1 325 0
 373 0046 B069     		ldr	r0, [r6, #24]
 374 0048 0146     		mov	r1, r0
 375 004a 41F8043B 		str	r3, [r1], #4
 376 004e 0A1D     		adds	r2, r1, #4
 377 0050 4360     		str	r3, [r0, #4]
 378 0052 42F8043B 		str	r3, [r2], #4
 379 0056 1360     		str	r3, [r2, #0]
 380              	.L23:
 381              		.loc 1 330 0
 382 0058 2046     		mov	r0, r4
 383 005a 2946     		mov	r1, r5
 384              		.loc 1 327 0
 385 005c 44F82760 		str	r6, [r4, r7, lsl #2]
 386              		.loc 1 331 0
 387 0060 BDE8F041 		pop	{r4, r5, r6, r7, r8, lr}
 388              		.loc 1 330 0
 389 0064 FFF7FEBF 		b	usb_lld_init_endpoint
ARM GAS  /tmp/cc5uc8Mi.s 			page 8


 390              	.L19:
 391              		.loc 1 316 0 discriminator 1
 392 0068 0348     		ldr	r0, .L24+8
 393 006a FFF7FEFF 		bl	chDbgPanic
 394 006e D2E7     		b	.L20
 395              	.L25:
 396              		.align	2
 397              	.L24:
 398 0070 54000000 		.word	.LC5
 399 0074 70000000 		.word	.LC6
 400 0078 3C000000 		.word	.LC4
 401              		.cfi_endproc
 402              	.LFE68:
 403              		.size	usbInitEndpointI, .-usbInitEndpointI
 404 007c AFF30080 		.section	.text.usbDisableEndpointsI,"ax",%progbits
 405              		.align	2
 406              		.p2align 4,,15
 407              		.global	usbDisableEndpointsI
 408              		.thumb
 409              		.thumb_func
 410              		.type	usbDisableEndpointsI, %function
 411              	usbDisableEndpointsI:
 412              	.LFB69:
 413              		.loc 1 344 0
 414              		.cfi_startproc
 415              		@ args = 0, pretend = 0, frame = 0
 416              		@ frame_needed = 0, uses_anonymous_args = 0
 417              	.LVL30:
 418 0000 10B5     		push	{r4, lr}
 419              	.LCFI4:
 420              		.cfi_def_cfa_offset 8
 421              		.loc 1 344 0
 422 0002 0446     		mov	r4, r0
 423              		.cfi_offset 14, -4
 424              		.cfi_offset 4, -8
 425              		.loc 1 347 0
 426 0004 FFF7FEFF 		bl	chDbgCheckClassI
 427              	.LVL31:
 428              		.loc 1 348 0
 429 0008 E4B1     		cbz	r4, .L29
 430              	.L27:
 431              		.loc 1 349 0
 432 000a 2378     		ldrb	r3, [r4, #0]	@ zero_extendqisi2
 433 000c 032B     		cmp	r3, #3
 434 000e 02D0     		beq	.L28
 435              		.loc 1 349 0 is_stmt 0 discriminator 1
 436 0010 0E48     		ldr	r0, .L30
 437 0012 FFF7FEFF 		bl	chDbgPanic
 438              	.L28:
 439              		.loc 1 352 0 is_stmt 1
 440 0016 B4F80CE0 		ldrh	lr, [r4, #12]
 441              		.loc 1 353 0
 442 001a B4F80EC0 		ldrh	ip, [r4, #14]
 443              		.loc 1 355 0
 444 001e 0020     		movs	r0, #0
 445              		.loc 1 352 0
 446 0020 2EF00101 		bic	r1, lr, #1
ARM GAS  /tmp/cc5uc8Mi.s 			page 9


 447              		.loc 1 353 0
 448 0024 2CF00102 		bic	r2, ip, #1
 449              		.loc 1 355 0
 450 0028 6061     		str	r0, [r4, #20]
 451 002a A061     		str	r0, [r4, #24]
 452 002c E061     		str	r0, [r4, #28]
 453 002e 2062     		str	r0, [r4, #32]
 454 0030 6062     		str	r0, [r4, #36]
 455 0032 A062     		str	r0, [r4, #40]
 456 0034 E062     		str	r0, [r4, #44]
 457              		.loc 1 358 0
 458 0036 2046     		mov	r0, r4
 459              		.loc 1 352 0
 460 0038 A181     		strh	r1, [r4, #12]	@ movhi
 461              		.loc 1 353 0
 462 003a E281     		strh	r2, [r4, #14]	@ movhi
 463              	.LVL32:
 464              		.loc 1 359 0
 465 003c BDE81040 		pop	{r4, lr}
 466              		.loc 1 358 0
 467 0040 FFF7FEBF 		b	usb_lld_disable_endpoints
 468              	.LVL33:
 469              	.L29:
 470              		.loc 1 348 0 discriminator 1
 471 0044 0248     		ldr	r0, .L30+4
 472 0046 FFF7FEFF 		bl	chDbgPanic
 473 004a DEE7     		b	.L27
 474              	.L31:
 475              		.align	2
 476              	.L30:
 477 004c A8000000 		.word	.LC8
 478 0050 8C000000 		.word	.LC7
 479              		.cfi_endproc
 480              	.LFE69:
 481              		.size	usbDisableEndpointsI, .-usbDisableEndpointsI
 482 0054 AFF30080 		.section	.text.usbStartReceiveI,"ax",%progbits
 482      AFF30080 
 482      AFF30080 
 483              		.align	2
 484              		.p2align 4,,15
 485              		.global	usbStartReceiveI
 486              		.thumb
 487              		.thumb_func
 488              		.type	usbStartReceiveI, %function
 489              	usbStartReceiveI:
 490              	.LFB70:
 491              		.loc 1 374 0
 492              		.cfi_startproc
 493              		@ args = 0, pretend = 0, frame = 0
 494              		@ frame_needed = 0, uses_anonymous_args = 0
 495              	.LVL34:
 496 0000 70B5     		push	{r4, r5, r6, lr}
 497              	.LCFI5:
 498              		.cfi_def_cfa_offset 16
 499              		.loc 1 374 0
 500 0002 0446     		mov	r4, r0
 501              		.cfi_offset 14, -4
ARM GAS  /tmp/cc5uc8Mi.s 			page 10


 502              		.cfi_offset 6, -8
 503              		.cfi_offset 5, -12
 504              		.cfi_offset 4, -16
 505 0004 0E46     		mov	r6, r1
 506              		.loc 1 376 0
 507 0006 FFF7FEFF 		bl	chDbgCheckClassI
 508              	.LVL35:
 509              		.loc 1 377 0
 510 000a 9CB1     		cbz	r4, .L36
 511              	.L33:
 512              		.loc 1 379 0
 513 000c E389     		ldrh	r3, [r4, #14]
 514 000e 53FA06F5 		asrs	r5, r3, r6
 515 0012 15F00105 		ands	r5, r5, #1
 516 0016 01D0     		beq	.L37
 517              		.loc 1 380 0
 518 0018 0120     		movs	r0, #1
 519              		.loc 1 385 0
 520 001a 70BD     		pop	{r4, r5, r6, pc}
 521              	.L37:
 522              		.loc 1 382 0
 523 001c 0120     		movs	r0, #1
 524 001e 10FA06F2 		lsls	r2, r0, r6
 525 0022 42EA0303 		orr	r3, r2, r3
 526              		.loc 1 383 0
 527 0026 2046     		mov	r0, r4
 528              		.loc 1 382 0
 529 0028 E381     		strh	r3, [r4, #14]	@ movhi
 530              		.loc 1 383 0
 531 002a 3146     		mov	r1, r6
 532 002c FFF7FEFF 		bl	usb_lld_start_out
 533              		.loc 1 384 0
 534 0030 2846     		mov	r0, r5
 535 0032 70BD     		pop	{r4, r5, r6, pc}
 536              	.L36:
 537              		.loc 1 377 0 discriminator 1
 538 0034 0148     		ldr	r0, .L38
 539 0036 FFF7FEFF 		bl	chDbgPanic
 540 003a E7E7     		b	.L33
 541              	.L39:
 542              		.align	2
 543              	.L38:
 544 003c C4000000 		.word	.LC9
 545              		.cfi_endproc
 546              	.LFE70:
 547              		.size	usbStartReceiveI, .-usbStartReceiveI
 548              		.section	.text.usbStartTransmitI,"ax",%progbits
 549              		.align	2
 550              		.p2align 4,,15
 551              		.global	usbStartTransmitI
 552              		.thumb
 553              		.thumb_func
 554              		.type	usbStartTransmitI, %function
 555              	usbStartTransmitI:
 556              	.LFB71:
 557              		.loc 1 400 0
 558              		.cfi_startproc
ARM GAS  /tmp/cc5uc8Mi.s 			page 11


 559              		@ args = 0, pretend = 0, frame = 0
 560              		@ frame_needed = 0, uses_anonymous_args = 0
 561              	.LVL36:
 562 0000 70B5     		push	{r4, r5, r6, lr}
 563              	.LCFI6:
 564              		.cfi_def_cfa_offset 16
 565              		.loc 1 400 0
 566 0002 0446     		mov	r4, r0
 567              		.cfi_offset 14, -4
 568              		.cfi_offset 6, -8
 569              		.cfi_offset 5, -12
 570              		.cfi_offset 4, -16
 571 0004 0E46     		mov	r6, r1
 572              		.loc 1 402 0
 573 0006 FFF7FEFF 		bl	chDbgCheckClassI
 574              	.LVL37:
 575              		.loc 1 403 0
 576 000a 9CB1     		cbz	r4, .L44
 577              	.L41:
 578              		.loc 1 405 0
 579 000c A389     		ldrh	r3, [r4, #12]
 580 000e 53FA06F5 		asrs	r5, r3, r6
 581 0012 15F00105 		ands	r5, r5, #1
 582 0016 01D0     		beq	.L45
 583              		.loc 1 406 0
 584 0018 0120     		movs	r0, #1
 585              		.loc 1 411 0
 586 001a 70BD     		pop	{r4, r5, r6, pc}
 587              	.L45:
 588              		.loc 1 408 0
 589 001c 0120     		movs	r0, #1
 590 001e 10FA06F2 		lsls	r2, r0, r6
 591 0022 42EA0303 		orr	r3, r2, r3
 592              		.loc 1 409 0
 593 0026 2046     		mov	r0, r4
 594              		.loc 1 408 0
 595 0028 A381     		strh	r3, [r4, #12]	@ movhi
 596              		.loc 1 409 0
 597 002a 3146     		mov	r1, r6
 598 002c FFF7FEFF 		bl	usb_lld_start_in
 599              		.loc 1 410 0
 600 0030 2846     		mov	r0, r5
 601 0032 70BD     		pop	{r4, r5, r6, pc}
 602              	.L44:
 603              		.loc 1 403 0 discriminator 1
 604 0034 0148     		ldr	r0, .L46
 605 0036 FFF7FEFF 		bl	chDbgPanic
 606 003a E7E7     		b	.L41
 607              	.L47:
 608              		.align	2
 609              	.L46:
 610 003c DC000000 		.word	.LC10
 611              		.cfi_endproc
 612              	.LFE71:
 613              		.size	usbStartTransmitI, .-usbStartTransmitI
 614              		.section	.text.usbStallReceiveI,"ax",%progbits
 615              		.align	2
ARM GAS  /tmp/cc5uc8Mi.s 			page 12


 616              		.p2align 4,,15
 617              		.global	usbStallReceiveI
 618              		.thumb
 619              		.thumb_func
 620              		.type	usbStallReceiveI, %function
 621              	usbStallReceiveI:
 622              	.LFB72:
 623              		.loc 1 424 0
 624              		.cfi_startproc
 625              		@ args = 0, pretend = 0, frame = 0
 626              		@ frame_needed = 0, uses_anonymous_args = 0
 627              	.LVL38:
 628 0000 70B5     		push	{r4, r5, r6, lr}
 629              	.LCFI7:
 630              		.cfi_def_cfa_offset 16
 631              		.loc 1 424 0
 632 0002 0446     		mov	r4, r0
 633              		.cfi_offset 14, -4
 634              		.cfi_offset 6, -8
 635              		.cfi_offset 5, -12
 636              		.cfi_offset 4, -16
 637 0004 0E46     		mov	r6, r1
 638              		.loc 1 426 0
 639 0006 FFF7FEFF 		bl	chDbgCheckClassI
 640              	.LVL39:
 641              		.loc 1 427 0
 642 000a 6CB1     		cbz	r4, .L52
 643              	.L49:
 644              		.loc 1 429 0
 645 000c E089     		ldrh	r0, [r4, #14]
 646 000e 50FA06F5 		asrs	r5, r0, r6
 647 0012 15F00105 		ands	r5, r5, #1
 648 0016 01D0     		beq	.L53
 649              		.loc 1 430 0
 650 0018 0120     		movs	r0, #1
 651              		.loc 1 434 0
 652 001a 70BD     		pop	{r4, r5, r6, pc}
 653              	.L53:
 654              		.loc 1 432 0
 655 001c 2046     		mov	r0, r4
 656 001e 3146     		mov	r1, r6
 657 0020 FFF7FEFF 		bl	usb_lld_stall_out
 658              		.loc 1 433 0
 659 0024 2846     		mov	r0, r5
 660 0026 70BD     		pop	{r4, r5, r6, pc}
 661              	.L52:
 662              		.loc 1 427 0 discriminator 1
 663 0028 0148     		ldr	r0, .L54
 664 002a FFF7FEFF 		bl	chDbgPanic
 665 002e EDE7     		b	.L49
 666              	.L55:
 667              		.align	2
 668              	.L54:
 669 0030 F4000000 		.word	.LC11
 670              		.cfi_endproc
 671              	.LFE72:
 672              		.size	usbStallReceiveI, .-usbStallReceiveI
ARM GAS  /tmp/cc5uc8Mi.s 			page 13


 673 0034 AFF30080 		.section	.text.usbStallTransmitI,"ax",%progbits
 673      AFF30080 
 673      AFF30080 
 674              		.align	2
 675              		.p2align 4,,15
 676              		.global	usbStallTransmitI
 677              		.thumb
 678              		.thumb_func
 679              		.type	usbStallTransmitI, %function
 680              	usbStallTransmitI:
 681              	.LFB73:
 682              		.loc 1 447 0
 683              		.cfi_startproc
 684              		@ args = 0, pretend = 0, frame = 0
 685              		@ frame_needed = 0, uses_anonymous_args = 0
 686              	.LVL40:
 687 0000 70B5     		push	{r4, r5, r6, lr}
 688              	.LCFI8:
 689              		.cfi_def_cfa_offset 16
 690              		.loc 1 447 0
 691 0002 0446     		mov	r4, r0
 692              		.cfi_offset 14, -4
 693              		.cfi_offset 6, -8
 694              		.cfi_offset 5, -12
 695              		.cfi_offset 4, -16
 696 0004 0E46     		mov	r6, r1
 697              		.loc 1 449 0
 698 0006 FFF7FEFF 		bl	chDbgCheckClassI
 699              	.LVL41:
 700              		.loc 1 450 0
 701 000a 6CB1     		cbz	r4, .L60
 702              	.L57:
 703              		.loc 1 452 0
 704 000c A089     		ldrh	r0, [r4, #12]
 705 000e 50FA06F5 		asrs	r5, r0, r6
 706 0012 15F00105 		ands	r5, r5, #1
 707 0016 01D0     		beq	.L61
 708              		.loc 1 453 0
 709 0018 0120     		movs	r0, #1
 710              		.loc 1 457 0
 711 001a 70BD     		pop	{r4, r5, r6, pc}
 712              	.L61:
 713              		.loc 1 455 0
 714 001c 2046     		mov	r0, r4
 715 001e 3146     		mov	r1, r6
 716 0020 FFF7FEFF 		bl	usb_lld_stall_in
 717              		.loc 1 456 0
 718 0024 2846     		mov	r0, r5
 719 0026 70BD     		pop	{r4, r5, r6, pc}
 720              	.L60:
 721              		.loc 1 450 0 discriminator 1
 722 0028 0148     		ldr	r0, .L62
 723 002a FFF7FEFF 		bl	chDbgPanic
 724 002e EDE7     		b	.L57
 725              	.L63:
 726              		.align	2
 727              	.L62:
ARM GAS  /tmp/cc5uc8Mi.s 			page 14


 728 0030 0C010000 		.word	.LC12
 729              		.cfi_endproc
 730              	.LFE73:
 731              		.size	usbStallTransmitI, .-usbStallTransmitI
 732 0034 AFF30080 		.section	.text._usb_reset,"ax",%progbits
 732      AFF30080 
 732      AFF30080 
 733              		.align	2
 734              		.p2align 4,,15
 735              		.global	_usb_reset
 736              		.thumb
 737              		.thumb_func
 738              		.type	_usb_reset, %function
 739              	_usb_reset:
 740              	.LFB74:
 741              		.loc 1 468 0
 742              		.cfi_startproc
 743              		@ args = 0, pretend = 0, frame = 0
 744              		@ frame_needed = 0, uses_anonymous_args = 0
 745              		@ link register save eliminated.
 746              	.LVL42:
 747 0000 10B4     		push	{r4}
 748              	.LCFI9:
 749              		.cfi_def_cfa_offset 4
 750              		.loc 1 472 0
 751 0002 0022     		movs	r2, #0
 752              		.loc 1 471 0
 753 0004 0224     		movs	r4, #2
 754              		.cfi_offset 4, -4
 755 0006 0470     		strb	r4, [r0, #0]
 756              		.loc 1 472 0
 757 0008 A0F84820 		strh	r2, [r0, #72]	@ movhi
 758              		.loc 1 473 0
 759 000c 80F84A20 		strb	r2, [r0, #74]
 760              		.loc 1 474 0
 761 0010 80F84B20 		strb	r2, [r0, #75]
 762              		.loc 1 475 0
 763 0014 8281     		strh	r2, [r0, #12]	@ movhi
 764              		.loc 1 476 0
 765 0016 C281     		strh	r2, [r0, #14]	@ movhi
 766              	.LVL43:
 767              		.loc 1 480 0
 768 0018 0261     		str	r2, [r0, #16]
 769              	.LVL44:
 770 001a 4261     		str	r2, [r0, #20]
 771              	.LVL45:
 772 001c 8261     		str	r2, [r0, #24]
 773              	.LVL46:
 774 001e C261     		str	r2, [r0, #28]
 775              	.LVL47:
 776 0020 0262     		str	r2, [r0, #32]
 777              	.LVL48:
 778 0022 4262     		str	r2, [r0, #36]
 779              	.LVL49:
 780 0024 8262     		str	r2, [r0, #40]
 781              	.LVL50:
 782 0026 C262     		str	r2, [r0, #44]
ARM GAS  /tmp/cc5uc8Mi.s 			page 15


 783              	.LVL51:
 784              		.loc 1 483 0
 785 0028 80F83020 		strb	r2, [r0, #48]
 786              		.loc 1 487 0
 787 002c 10BC     		pop	{r4}
 788              		.loc 1 486 0
 789 002e FFF7FEBF 		b	usb_lld_reset
 790              		.cfi_endproc
 791              	.LFE74:
 792              		.size	_usb_reset, .-_usb_reset
 793 0032 00BFAFF3 		.section	.text._usb_ep0setup,"ax",%progbits
 793      0080AFF3 
 793      0080AFF3 
 793      0080
 794              		.align	2
 795              		.p2align 4,,15
 796              		.global	_usb_ep0setup
 797              		.thumb
 798              		.thumb_func
 799              		.type	_usb_ep0setup, %function
 800              	_usb_ep0setup:
 801              	.LFB75:
 802              		.loc 1 499 0
 803              		.cfi_startproc
 804              		@ args = 0, pretend = 0, frame = 0
 805              		@ frame_needed = 0, uses_anonymous_args = 0
 806              	.LVL52:
 807              		.loc 1 502 0
 808 0000 0022     		movs	r2, #0
 809              		.loc 1 499 0
 810 0002 2DE9F041 		push	{r4, r5, r6, r7, r8, lr}
 811              	.LCFI10:
 812              		.cfi_def_cfa_offset 24
 813              		.loc 1 499 0
 814 0006 0446     		mov	r4, r0
 815              		.cfi_offset 14, -4
 816              		.cfi_offset 8, -8
 817              		.cfi_offset 7, -12
 818              		.cfi_offset 6, -16
 819              		.cfi_offset 5, -20
 820              		.cfi_offset 4, -24
 821              		.loc 1 502 0
 822 0008 80F83020 		strb	r2, [r0, #48]
 823              		.loc 1 503 0
 824 000c 00F14002 		add	r2, r0, #64
 825 0010 FFF7FEFF 		bl	usb_lld_read_setup
 826              	.LVL53:
 827              		.loc 1 507 0
 828 0014 6368     		ldr	r3, [r4, #4]
 829 0016 9B68     		ldr	r3, [r3, #8]
 830 0018 002B     		cmp	r3, #0
 831 001a 1FD0     		beq	.L66
 832              		.loc 1 508 0 discriminator 1
 833 001c 2046     		mov	r0, r4
 834 001e 9847     		blx	r3
 835              		.loc 1 507 0 discriminator 1
 836 0020 E0B1     		cbz	r0, .L66
ARM GAS  /tmp/cc5uc8Mi.s 			page 16


 837              		.loc 1 520 0
 838 0022 A56B     		ldr	r5, [r4, #56]
 839 0024 94F84030 		ldrb	r3, [r4, #64]	@ zero_extendqisi2
 840              	.L103:
 841              		.loc 1 527 0
 842 0028 B4F84600 		ldrh	r0, [r4, #70]
 843              	.LVL54:
 844              		.loc 1 529 0
 845 002c A842     		cmp	r0, r5
 846              		.loc 1 530 0
 847 002e 3CBF     		itt	cc
 848 0030 A063     		strcc	r0, [r4, #56]
 849 0032 0546     		movcc	r5, r0
 850              		.loc 1 531 0
 851 0034 13F0800F 		tst	r3, #128
 852 0038 7BD1     		bne	.L106
 853              		.loc 1 549 0
 854 003a 002D     		cmp	r5, #0
 855 003c 6AD1     		bne	.L107
 856              		.loc 1 558 0
 857 003e 0420     		movs	r0, #4
 858              	.LVL55:
 859 0040 84F83000 		strb	r0, [r4, #48]
 860              		.loc 1 559 0
 861 0044 2946     		mov	r1, r5
 862 0046 2046     		mov	r0, r4
 863 0048 2A46     		mov	r2, r5
 864 004a 2B46     		mov	r3, r5
 865 004c FFF7FEFF 		bl	usb_lld_prepare_transmit
 866              		.loc 1 560 0
 867 0050 2046     		mov	r0, r4
 868 0052 2946     		mov	r1, r5
 869              		.loc 1 563 0
 870 0054 BDE8F041 		pop	{r4, r5, r6, r7, r8, lr}
 871              		.loc 1 560 0
 872 0058 FFF7FEBF 		b	usb_lld_start_in
 873              	.L66:
 874              		.loc 1 511 0
 875 005c 94F84030 		ldrb	r3, [r4, #64]	@ zero_extendqisi2
 876 0060 13F06006 		ands	r6, r3, #96
 877 0064 1A46     		mov	r2, r3
 878 0066 12D0     		beq	.L108
 879              	.L68:
 880              		.loc 1 516 0
 881 0068 0021     		movs	r1, #0
 882 006a 2046     		mov	r0, r4
 883 006c FFF7FEFF 		bl	usb_lld_stall_in
 884              		.loc 1 517 0
 885 0070 2046     		mov	r0, r4
 886 0072 0021     		movs	r1, #0
 887 0074 FFF7FEFF 		bl	usb_lld_stall_out
 888              		.loc 1 518 0
 889 0078 6268     		ldr	r2, [r4, #4]
 890 007a 1368     		ldr	r3, [r2, #0]
 891 007c 13B1     		cbz	r3, .L97
 892              		.loc 1 518 0 is_stmt 0 discriminator 1
 893 007e 2046     		mov	r0, r4
ARM GAS  /tmp/cc5uc8Mi.s 			page 17


 894 0080 0521     		movs	r1, #5
 895 0082 9847     		blx	r3
 896              	.L97:
 897              		.loc 1 519 0 is_stmt 1
 898 0084 0523     		movs	r3, #5
 899 0086 84F83030 		strb	r3, [r4, #48]
 900              		.loc 1 563 0
 901 008a BDE8F081 		pop	{r4, r5, r6, r7, r8, pc}
 902              	.L108:
 903              	.LVL56:
 904              	.LBB8:
 905              	.LBB9:
 906              		.loc 1 95 0
 907 008e 94F84170 		ldrb	r7, [r4, #65]	@ zero_extendqisi2
 908              		.loc 1 93 0
 909 0092 03F07F01 		and	r1, r3, #127
 910              		.loc 1 94 0
 911 0096 41EA0727 		orr	r7, r1, r7, lsl #8
 912              		.loc 1 93 0
 913 009a B7F5407F 		cmp	r7, #768
 914 009e 00F0A980 		beq	.L75
 915 00a2 16DD     		ble	.L109
 916 00a4 B7F5C06F 		cmp	r7, #1536
 917 00a8 00F0CE80 		beq	.L78
 918 00ac 60DD     		ble	.L110
 919 00ae B7F5106F 		cmp	r7, #2304
 920 00b2 00F0B680 		beq	.L80
 921 00b6 40F6024C 		movw	ip, #3074
 922 00ba 6745     		cmp	r7, ip
 923 00bc 6BD0     		beq	.L71
 924 00be B7F5006F 		cmp	r7, #2048
 925 00c2 D1D1     		bne	.L68
 926              		.loc 1 142 0
 927 00c4 0125     		movs	r5, #1
 928 00c6 04F14B00 		add	r0, r4, #75
 929 00ca 6063     		str	r0, [r4, #52]
 930 00cc A563     		str	r5, [r4, #56]
 931 00ce E663     		str	r6, [r4, #60]
 932 00d0 AAE7     		b	.L103
 933              	.L109:
 934              		.loc 1 93 0
 935 00d2 022F     		cmp	r7, #2
 936 00d4 77D0     		beq	.L72
 937 00d6 59DD     		ble	.L111
 938 00d8 B7F5807F 		cmp	r7, #256
 939 00dc 62D0     		beq	.L73
 940 00de B7F5817F 		cmp	r7, #258
 941 00e2 C1D1     		bne	.L68
 942              		.loc 1 188 0
 943 00e4 94F84200 		ldrb	r0, [r4, #66]	@ zero_extendqisi2
 944 00e8 0028     		cmp	r0, #0
 945 00ea BDD1     		bne	.L68
 946              		.loc 1 191 0
 947 00ec 94F84430 		ldrb	r3, [r4, #68]	@ zero_extendqisi2
 948 00f0 13F00F01 		ands	r1, r3, #15
 949 00f4 08D0     		beq	.L95
 950              		.loc 1 192 0
ARM GAS  /tmp/cc5uc8Mi.s 			page 18


 951 00f6 13F0800F 		tst	r3, #128
 952 00fa 40F0E080 		bne	.L112
 953              		.loc 1 195 0
 954 00fe 2046     		mov	r0, r4
 955 0100 FFF7FEFF 		bl	usb_lld_clear_out
 956 0104 94F84020 		ldrb	r2, [r4, #64]	@ zero_extendqisi2
 957              	.L95:
 958              		.loc 1 210 0
 959 0108 0025     		movs	r5, #0
 960 010a 6563     		str	r5, [r4, #52]
 961 010c A563     		str	r5, [r4, #56]
 962 010e E563     		str	r5, [r4, #60]
 963 0110 1346     		mov	r3, r2
 964 0112 89E7     		b	.L103
 965              	.LVL57:
 966              	.L107:
 967              	.LBE9:
 968              	.LBE8:
 969              		.loc 1 551 0
 970 0114 0323     		movs	r3, #3
 971              		.loc 1 552 0
 972 0116 0021     		movs	r1, #0
 973              		.loc 1 551 0
 974 0118 84F83030 		strb	r3, [r4, #48]
 975              		.loc 1 552 0
 976 011c 2046     		mov	r0, r4
 977              	.LVL58:
 978 011e 626B     		ldr	r2, [r4, #52]
 979 0120 2B46     		mov	r3, r5
 980 0122 FFF7FEFF 		bl	usb_lld_prepare_receive
 981              		.loc 1 553 0
 982 0126 2046     		mov	r0, r4
 983 0128 0021     		movs	r1, #0
 984              		.loc 1 563 0
 985 012a BDE8F041 		pop	{r4, r5, r6, r7, r8, lr}
 986              		.loc 1 553 0
 987 012e FFF7FEBF 		b	usb_lld_start_out
 988              	.LVL59:
 989              	.L106:
 990              		.loc 1 533 0
 991 0132 75B1     		cbz	r5, .L101
 992              		.loc 1 535 0
 993 0134 0122     		movs	r2, #1
 994              		.loc 1 536 0
 995 0136 0021     		movs	r1, #0
 996              		.loc 1 535 0
 997 0138 84F83020 		strb	r2, [r4, #48]
 998              		.loc 1 536 0
 999 013c 2046     		mov	r0, r4
 1000              	.LVL60:
 1001 013e 626B     		ldr	r2, [r4, #52]
 1002 0140 2B46     		mov	r3, r5
 1003 0142 FFF7FEFF 		bl	usb_lld_prepare_transmit
 1004              		.loc 1 537 0
 1005 0146 2046     		mov	r0, r4
 1006 0148 0021     		movs	r1, #0
 1007              		.loc 1 563 0
ARM GAS  /tmp/cc5uc8Mi.s 			page 19


 1008 014a BDE8F041 		pop	{r4, r5, r6, r7, r8, lr}
 1009              		.loc 1 537 0
 1010 014e FFF7FEBF 		b	usb_lld_start_in
 1011              	.LVL61:
 1012              	.L101:
 1013              		.loc 1 542 0
 1014 0152 0221     		movs	r1, #2
 1015 0154 84F83010 		strb	r1, [r4, #48]
 1016              		.loc 1 543 0
 1017 0158 2046     		mov	r0, r4
 1018              	.LVL62:
 1019 015a 2946     		mov	r1, r5
 1020 015c 2A46     		mov	r2, r5
 1021 015e 2B46     		mov	r3, r5
 1022 0160 FFF7FEFF 		bl	usb_lld_prepare_receive
 1023              		.loc 1 544 0
 1024 0164 2046     		mov	r0, r4
 1025 0166 2946     		mov	r1, r5
 1026              		.loc 1 563 0
 1027 0168 BDE8F041 		pop	{r4, r5, r6, r7, r8, lr}
 1028              		.loc 1 544 0
 1029 016c FFF7FEBF 		b	usb_lld_start_out
 1030              	.LVL63:
 1031              	.L110:
 1032              	.LBB11:
 1033              	.LBB10:
 1034              		.loc 1 93 0
 1035 0170 40F20230 		movw	r0, #770
 1036 0174 8742     		cmp	r7, r0
 1037 0176 7CD0     		beq	.L76
 1038 0178 B7F5A06F 		cmp	r7, #1280
 1039 017c 7FF474AF 		bne	.L68
 1040              		.loc 1 128 0
 1041 0180 554D     		ldr	r5, .L115
 1042 0182 6663     		str	r6, [r4, #52]
 1043 0184 E563     		str	r5, [r4, #60]
 1044 0186 A663     		str	r6, [r4, #56]
 1045 0188 3546     		mov	r5, r6
 1046 018a 4DE7     		b	.L103
 1047              	.L111:
 1048              		.loc 1 93 0
 1049 018c 002F     		cmp	r7, #0
 1050 018e 41D0     		beq	.L70
 1051 0190 012F     		cmp	r7, #1
 1052 0192 7FF469AF 		bne	.L68
 1053              	.L71:
 1054              		.loc 1 158 0
 1055 0196 5149     		ldr	r1, .L115+4
 1056 0198 0225     		movs	r5, #2
 1057 019a 0022     		movs	r2, #0
 1058 019c 6163     		str	r1, [r4, #52]
 1059 019e A563     		str	r5, [r4, #56]
 1060 01a0 E263     		str	r2, [r4, #60]
 1061 01a2 41E7     		b	.L103
 1062              	.L73:
 1063              		.loc 1 103 0
 1064 01a4 94F842E0 		ldrb	lr, [r4, #66]	@ zero_extendqisi2
ARM GAS  /tmp/cc5uc8Mi.s 			page 20


 1065 01a8 BEF1010F 		cmp	lr, #1
 1066 01ac 7FF45CAF 		bne	.L68
 1067              		.loc 1 104 0
 1068 01b0 B4F84810 		ldrh	r1, [r4, #72]
 1069              		.loc 1 105 0
 1070 01b4 6663     		str	r6, [r4, #52]
 1071              		.loc 1 104 0
 1072 01b6 21F00205 		bic	r5, r1, #2
 1073 01ba A4F84850 		strh	r5, [r4, #72]	@ movhi
 1074              		.loc 1 105 0
 1075 01be A663     		str	r6, [r4, #56]
 1076 01c0 E663     		str	r6, [r4, #60]
 1077 01c2 3546     		mov	r5, r6
 1078 01c4 30E7     		b	.L103
 1079              	.L72:
 1080              		.loc 1 162 0
 1081 01c6 94F84410 		ldrb	r1, [r4, #68]	@ zero_extendqisi2
 1082 01ca 11F0800F 		tst	r1, #128
 1083 01ce 67D1     		bne	.L113
 1084              		.loc 1 175 0
 1085 01d0 2046     		mov	r0, r4
 1086 01d2 01F00F01 		and	r1, r1, #15
 1087 01d6 FFF7FEFF 		bl	usb_lld_get_status_out
 1088 01da 0128     		cmp	r0, #1
 1089 01dc 67D0     		beq	.L91
 1090              	.L105:
 1091 01de 0228     		cmp	r0, #2
 1092 01e0 7FF442AF 		bne	.L68
 1093              		.loc 1 180 0
 1094 01e4 3E4B     		ldr	r3, .L115+8
 1095 01e6 A063     		str	r0, [r4, #56]
 1096 01e8 6363     		str	r3, [r4, #52]
 1097 01ea E663     		str	r6, [r4, #60]
 1098 01ec 94F84030 		ldrb	r3, [r4, #64]	@ zero_extendqisi2
 1099 01f0 0546     		mov	r5, r0
 1100 01f2 19E7     		b	.L103
 1101              	.L75:
 1102              		.loc 1 112 0
 1103 01f4 94F84200 		ldrb	r0, [r4, #66]	@ zero_extendqisi2
 1104 01f8 0128     		cmp	r0, #1
 1105 01fa 7FF435AF 		bne	.L68
 1106              		.loc 1 113 0
 1107 01fe B4F84820 		ldrh	r2, [r4, #72]
 1108              		.loc 1 114 0
 1109 0202 6663     		str	r6, [r4, #52]
 1110              		.loc 1 113 0
 1111 0204 42F0020C 		orr	ip, r2, #2
 1112 0208 A4F848C0 		strh	ip, [r4, #72]	@ movhi
 1113              		.loc 1 114 0
 1114 020c A663     		str	r6, [r4, #56]
 1115 020e E663     		str	r6, [r4, #60]
 1116 0210 3546     		mov	r5, r6
 1117 0212 09E7     		b	.L103
 1118              	.L70:
 1119              		.loc 1 98 0
 1120 0214 0225     		movs	r5, #2
 1121 0216 04F14802 		add	r2, r4, #72
ARM GAS  /tmp/cc5uc8Mi.s 			page 21


 1122 021a 6263     		str	r2, [r4, #52]
 1123 021c A563     		str	r5, [r4, #56]
 1124 021e E763     		str	r7, [r4, #60]
 1125 0220 02E7     		b	.L103
 1126              	.L80:
 1127              		.loc 1 146 0
 1128 0222 94F84250 		ldrb	r5, [r4, #66]	@ zero_extendqisi2
 1129 0226 84F84B50 		strb	r5, [r4, #75]
 1130              		.loc 1 147 0
 1131 022a 002D     		cmp	r5, #0
 1132 022c 35D1     		bne	.L85
 1133              		.loc 1 148 0
 1134 022e 0323     		movs	r3, #3
 1135 0230 2370     		strb	r3, [r4, #0]
 1136              	.L86:
 1137              		.loc 1 151 0
 1138 0232 6068     		ldr	r0, [r4, #4]
 1139 0234 0368     		ldr	r3, [r0, #0]
 1140 0236 002B     		cmp	r3, #0
 1141 0238 3FF466AF 		beq	.L95
 1142 023c 2046     		mov	r0, r4
 1143 023e 0221     		movs	r1, #2
 1144 0240 9847     		blx	r3
 1145 0242 94F84020 		ldrb	r2, [r4, #64]	@ zero_extendqisi2
 1146 0246 5FE7     		b	.L95
 1147              	.L78:
 1148              		.loc 1 133 0
 1149 0248 6368     		ldr	r3, [r4, #4]
 1150 024a 2046     		mov	r0, r4
 1151 024c 5D68     		ldr	r5, [r3, #4]
 1152 024e 94F84310 		ldrb	r1, [r4, #67]	@ zero_extendqisi2
 1153 0252 94F84220 		ldrb	r2, [r4, #66]	@ zero_extendqisi2
 1154 0256 B4F84430 		ldrh	r3, [r4, #68]
 1155 025a A847     		blx	r5
 1156              	.LVL64:
 1157              		.loc 1 136 0
 1158 025c 0028     		cmp	r0, #0
 1159 025e 3FF403AF 		beq	.L68
 1160              		.loc 1 138 0
 1161 0262 4168     		ldr	r1, [r0, #4]
 1162 0264 0568     		ldr	r5, [r0, #0]
 1163 0266 94F84030 		ldrb	r3, [r4, #64]	@ zero_extendqisi2
 1164 026a 6163     		str	r1, [r4, #52]
 1165 026c A563     		str	r5, [r4, #56]
 1166 026e E663     		str	r6, [r4, #60]
 1167 0270 DAE6     		b	.L103
 1168              	.LVL65:
 1169              	.L76:
 1170              		.loc 1 201 0
 1171 0272 94F84210 		ldrb	r1, [r4, #66]	@ zero_extendqisi2
 1172 0276 0029     		cmp	r1, #0
 1173 0278 7FF4F6AE 		bne	.L68
 1174              		.loc 1 204 0
 1175 027c 94F84430 		ldrb	r3, [r4, #68]	@ zero_extendqisi2
 1176 0280 13F00F01 		ands	r1, r3, #15
 1177 0284 3FF440AF 		beq	.L95
 1178              		.loc 1 205 0
ARM GAS  /tmp/cc5uc8Mi.s 			page 22


 1179 0288 13F0800F 		tst	r3, #128
 1180 028c 1DD1     		bne	.L114
 1181              		.loc 1 208 0
 1182 028e 2046     		mov	r0, r4
 1183 0290 FFF7FEFF 		bl	usb_lld_stall_out
 1184 0294 94F84020 		ldrb	r2, [r4, #64]	@ zero_extendqisi2
 1185 0298 36E7     		b	.L95
 1186              	.L85:
 1187              		.loc 1 150 0
 1188 029a 0421     		movs	r1, #4
 1189 029c 2170     		strb	r1, [r4, #0]
 1190 029e C8E7     		b	.L86
 1191              	.L113:
 1192              		.loc 1 163 0
 1193 02a0 2046     		mov	r0, r4
 1194 02a2 01F00F01 		and	r1, r1, #15
 1195 02a6 FFF7FEFF 		bl	usb_lld_get_status_in
 1196 02aa 0128     		cmp	r0, #1
 1197 02ac 97D1     		bne	.L105
 1198              	.L91:
 1199              		.loc 1 177 0
 1200 02ae 0D4D     		ldr	r5, .L115+12
 1201 02b0 A763     		str	r7, [r4, #56]
 1202 02b2 6563     		str	r5, [r4, #52]
 1203 02b4 E663     		str	r6, [r4, #60]
 1204 02b6 94F84030 		ldrb	r3, [r4, #64]	@ zero_extendqisi2
 1205 02ba 3D46     		mov	r5, r7
 1206 02bc B4E6     		b	.L103
 1207              	.L112:
 1208              		.loc 1 193 0
 1209 02be 2046     		mov	r0, r4
 1210 02c0 FFF7FEFF 		bl	usb_lld_clear_in
 1211 02c4 94F84020 		ldrb	r2, [r4, #64]	@ zero_extendqisi2
 1212 02c8 1EE7     		b	.L95
 1213              	.L114:
 1214              		.loc 1 206 0
 1215 02ca 2046     		mov	r0, r4
 1216 02cc FFF7FEFF 		bl	usb_lld_stall_in
 1217 02d0 94F84020 		ldrb	r2, [r4, #64]	@ zero_extendqisi2
 1218 02d4 18E7     		b	.L95
 1219              	.L116:
 1220 02d6 00BF     		.align	2
 1221              	.L115:
 1222 02d8 00000000 		.word	set_address
 1223 02dc 00000000 		.word	.LANCHOR0
 1224 02e0 00000000 		.word	.LANCHOR2
 1225 02e4 00000000 		.word	.LANCHOR1
 1226              	.LBE10:
 1227              	.LBE11:
 1228              		.cfi_endproc
 1229              	.LFE75:
 1230              		.size	_usb_ep0setup, .-_usb_ep0setup
 1231 02e8 AFF30080 		.section	.text._usb_ep0in,"ax",%progbits
 1231      AFF30080 
 1232              		.align	2
 1233              		.p2align 4,,15
 1234              		.global	_usb_ep0in
ARM GAS  /tmp/cc5uc8Mi.s 			page 23


 1235              		.thumb
 1236              		.thumb_func
 1237              		.type	_usb_ep0in, %function
 1238              	_usb_ep0in:
 1239              	.LFB76:
 1240              		.loc 1 575 0
 1241              		.cfi_startproc
 1242              		@ args = 0, pretend = 0, frame = 0
 1243              		@ frame_needed = 0, uses_anonymous_args = 0
 1244              	.LVL66:
 1245              		.loc 1 579 0
 1246 0000 90F83030 		ldrb	r3, [r0, #48]	@ zero_extendqisi2
 1247              		.loc 1 575 0
 1248 0004 70B5     		push	{r4, r5, r6, lr}
 1249              	.LCFI11:
 1250              		.cfi_def_cfa_offset 16
 1251              		.loc 1 579 0
 1252 0006 012B     		cmp	r3, #1
 1253              		.loc 1 575 0
 1254 0008 0446     		mov	r4, r0
 1255              		.cfi_offset 14, -4
 1256              		.cfi_offset 6, -8
 1257              		.cfi_offset 5, -12
 1258              		.cfi_offset 4, -16
 1259              		.loc 1 579 0
 1260 000a 19D0     		beq	.L119
 1261 000c 042B     		cmp	r3, #4
 1262 000e 10D0     		beq	.L126
 1263              		.loc 1 609 0
 1264 0010 0021     		movs	r1, #0
 1265              	.LVL67:
 1266 0012 FFF7FEFF 		bl	usb_lld_stall_in
 1267              	.LVL68:
 1268              		.loc 1 610 0
 1269 0016 0021     		movs	r1, #0
 1270 0018 2046     		mov	r0, r4
 1271 001a FFF7FEFF 		bl	usb_lld_stall_out
 1272              		.loc 1 611 0
 1273 001e 6168     		ldr	r1, [r4, #4]
 1274 0020 0B68     		ldr	r3, [r1, #0]
 1275 0022 13B1     		cbz	r3, .L124
 1276              		.loc 1 611 0 is_stmt 0 discriminator 1
 1277 0024 2046     		mov	r0, r4
 1278 0026 0521     		movs	r1, #5
 1279 0028 9847     		blx	r3
 1280              	.L124:
 1281              		.loc 1 612 0 is_stmt 1
 1282 002a 0522     		movs	r2, #5
 1283 002c 84F83020 		strb	r2, [r4, #48]
 1284 0030 70BD     		pop	{r4, r5, r6, pc}
 1285              	.LVL69:
 1286              	.L126:
 1287              		.loc 1 599 0
 1288 0032 C36B     		ldr	r3, [r0, #60]
 1289 0034 03B1     		cbz	r3, .L122
 1290              		.loc 1 600 0
 1291 0036 9847     		blx	r3
ARM GAS  /tmp/cc5uc8Mi.s 			page 24


 1292              	.LVL70:
 1293              	.L122:
 1294              		.loc 1 601 0
 1295 0038 0023     		movs	r3, #0
 1296 003a 84F83030 		strb	r3, [r4, #48]
 1297              		.loc 1 602 0
 1298 003e 70BD     		pop	{r4, r5, r6, pc}
 1299              	.LVL71:
 1300              	.L119:
 1301              		.loc 1 585 0
 1302 0040 836B     		ldr	r3, [r0, #56]
 1303              		.loc 1 581 0
 1304 0042 B0F84620 		ldrh	r2, [r0, #70]
 1305              		.loc 1 585 0
 1306 0046 9A42     		cmp	r2, r3
 1307 0048 06D9     		bls	.L121
 1308              		.loc 1 586 0 discriminator 1
 1309 004a 0269     		ldr	r2, [r0, #16]
 1310 004c 118A     		ldrh	r1, [r2, #16]
 1311              	.LVL72:
 1312 004e B3FBF1F5 		udiv	r5, r3, r1
 1313 0052 01FB1535 		mls	r5, r1, r5, r3
 1314              		.loc 1 585 0 discriminator 1
 1315 0056 75B1     		cbz	r5, .L127
 1316              	.L121:
 1317              		.loc 1 594 0
 1318 0058 0021     		movs	r1, #0
 1319              		.loc 1 593 0
 1320 005a 0220     		movs	r0, #2
 1321              		.loc 1 594 0
 1322 005c 0A46     		mov	r2, r1
 1323 005e 0B46     		mov	r3, r1
 1324              		.loc 1 593 0
 1325 0060 84F83000 		strb	r0, [r4, #48]
 1326              		.loc 1 594 0
 1327 0064 2046     		mov	r0, r4
 1328 0066 FFF7FEFF 		bl	usb_lld_prepare_receive
 1329              	.LVL73:
 1330              		.loc 1 595 0
 1331 006a 2046     		mov	r0, r4
 1332 006c 0021     		movs	r1, #0
 1333              		.loc 1 613 0
 1334 006e BDE87040 		pop	{r4, r5, r6, lr}
 1335              		.loc 1 595 0
 1336 0072 FFF7FEBF 		b	usb_lld_start_out
 1337              	.LVL74:
 1338              	.L127:
 1339              		.loc 1 587 0
 1340 0076 2946     		mov	r1, r5
 1341 0078 2A46     		mov	r2, r5
 1342 007a 2B46     		mov	r3, r5
 1343 007c FFF7FEFF 		bl	usb_lld_prepare_transmit
 1344              	.LVL75:
 1345              		.loc 1 588 0
 1346 0080 2046     		mov	r0, r4
 1347 0082 2946     		mov	r1, r5
 1348              		.loc 1 613 0
ARM GAS  /tmp/cc5uc8Mi.s 			page 25


 1349 0084 BDE87040 		pop	{r4, r5, r6, lr}
 1350              		.loc 1 588 0
 1351 0088 FFF7FEBF 		b	usb_lld_start_in
 1352              		.cfi_endproc
 1353              	.LFE76:
 1354              		.size	_usb_ep0in, .-_usb_ep0in
 1355 008c AFF30080 		.section	.text._usb_ep0out,"ax",%progbits
 1356              		.align	2
 1357              		.p2align 4,,15
 1358              		.global	_usb_ep0out
 1359              		.thumb
 1360              		.thumb_func
 1361              		.type	_usb_ep0out, %function
 1362              	_usb_ep0out:
 1363              	.LFB77:
 1364              		.loc 1 625 0
 1365              		.cfi_startproc
 1366              		@ args = 0, pretend = 0, frame = 0
 1367              		@ frame_needed = 0, uses_anonymous_args = 0
 1368              	.LVL76:
 1369              		.loc 1 628 0
 1370 0000 90F83030 		ldrb	r3, [r0, #48]	@ zero_extendqisi2
 1371              		.loc 1 625 0
 1372 0004 70B5     		push	{r4, r5, r6, lr}
 1373              	.LCFI12:
 1374              		.cfi_def_cfa_offset 16
 1375              		.loc 1 628 0
 1376 0006 022B     		cmp	r3, #2
 1377              		.loc 1 625 0
 1378 0008 0446     		mov	r4, r0
 1379              		.cfi_offset 14, -4
 1380              		.cfi_offset 6, -8
 1381              		.cfi_offset 5, -12
 1382              		.cfi_offset 4, -16
 1383              		.loc 1 628 0
 1384 000a 21D0     		beq	.L130
 1385 000c 032B     		cmp	r3, #3
 1386 000e 11D0     		beq	.L135
 1387              	.LVL77:
 1388              	.L129:
 1389              		.loc 1 650 0
 1390 0010 0021     		movs	r1, #0
 1391 0012 2046     		mov	r0, r4
 1392              	.LVL78:
 1393 0014 FFF7FEFF 		bl	usb_lld_stall_in
 1394              		.loc 1 651 0
 1395 0018 2046     		mov	r0, r4
 1396 001a 0021     		movs	r1, #0
 1397 001c FFF7FEFF 		bl	usb_lld_stall_out
 1398              		.loc 1 652 0
 1399 0020 6368     		ldr	r3, [r4, #4]
 1400 0022 1B68     		ldr	r3, [r3, #0]
 1401 0024 13B1     		cbz	r3, .L134
 1402              		.loc 1 652 0 is_stmt 0 discriminator 1
 1403 0026 2046     		mov	r0, r4
 1404 0028 0521     		movs	r1, #5
 1405 002a 9847     		blx	r3
ARM GAS  /tmp/cc5uc8Mi.s 			page 26


 1406              	.L134:
 1407              		.loc 1 653 0 is_stmt 1
 1408 002c 0521     		movs	r1, #5
 1409 002e 84F83010 		strb	r1, [r4, #48]
 1410 0032 70BD     		pop	{r4, r5, r6, pc}
 1411              	.LVL79:
 1412              	.L135:
 1413              		.loc 1 632 0
 1414 0034 0021     		movs	r1, #0
 1415              	.LVL80:
 1416              		.loc 1 631 0
 1417 0036 0425     		movs	r5, #4
 1418              		.loc 1 632 0
 1419 0038 0A46     		mov	r2, r1
 1420 003a 0B46     		mov	r3, r1
 1421              		.loc 1 631 0
 1422 003c 80F83050 		strb	r5, [r0, #48]
 1423              		.loc 1 632 0
 1424 0040 FFF7FEFF 		bl	usb_lld_prepare_transmit
 1425              		.loc 1 633 0
 1426 0044 2046     		mov	r0, r4
 1427 0046 0021     		movs	r1, #0
 1428              		.loc 1 654 0
 1429 0048 BDE87040 		pop	{r4, r5, r6, lr}
 1430              		.loc 1 633 0
 1431 004c FFF7FEBF 		b	usb_lld_start_in
 1432              	.LVL81:
 1433              	.L130:
 1434              		.loc 1 638 0
 1435 0050 0269     		ldr	r2, [r0, #16]
 1436 0052 9169     		ldr	r1, [r2, #24]
 1437              	.LVL82:
 1438 0054 CB68     		ldr	r3, [r1, #12]
 1439 0056 002B     		cmp	r3, #0
 1440 0058 DAD1     		bne	.L129
 1441              		.loc 1 640 0
 1442 005a C36B     		ldr	r3, [r0, #60]
 1443 005c 03B1     		cbz	r3, .L132
 1444              		.loc 1 641 0
 1445 005e 9847     		blx	r3
 1446              	.L132:
 1447              		.loc 1 642 0
 1448 0060 0020     		movs	r0, #0
 1449 0062 84F83000 		strb	r0, [r4, #48]
 1450              		.loc 1 643 0
 1451 0066 70BD     		pop	{r4, r5, r6, pc}
 1452              		.cfi_endproc
 1453              	.LFE77:
 1454              		.size	_usb_ep0out, .-_usb_ep0out
 1455 0068 AFF30080 		.section	.rodata.zero_status,"a",%progbits
 1455      AFF30080 
 1456              		.align	2
 1457              		.set	.LANCHOR0,. + 0
 1458              		.type	zero_status, %object
 1459              		.size	zero_status, 2
 1460              	zero_status:
 1461 0000 0000     		.space	2
ARM GAS  /tmp/cc5uc8Mi.s 			page 27


 1462 0002 0000     		.section	.rodata.active_status,"a",%progbits
 1463              		.align	2
 1464              		.set	.LANCHOR2,. + 0
 1465              		.type	active_status, %object
 1466              		.size	active_status, 2
 1467              	active_status:
 1468 0000 0000     		.space	2
 1469 0002 0000     		.section	.rodata.str1.4,"aMS",%progbits,1
 1470              		.align	2
 1471              	.LC0:
 1472 0000 22757362 		.ascii	"\"usbStart\"()\000"
 1472      53746172 
 1472      74222829 
 1472      00
 1473 000d 000000   		.space	3
 1474              	.LC1:
 1475 0010 75736253 		.ascii	"usbStart(), #1\000"
 1475      74617274 
 1475      28292C20 
 1475      233100
 1476 001f 00       		.space	1
 1477              	.LC2:
 1478 0020 22757362 		.ascii	"\"usbStop\"()\000"
 1478      53746F70 
 1478      22282900 
 1479              	.LC3:
 1480 002c 75736253 		.ascii	"usbStop(), #1\000"
 1480      746F7028 
 1480      292C2023 
 1480      3100
 1481 003a 0000     		.space	2
 1482              	.LC4:
 1483 003c 22757362 		.ascii	"\"usbInitEndpointI\"()\000"
 1483      496E6974 
 1483      456E6470 
 1483      6F696E74 
 1483      49222829 
 1484 0051 000000   		.space	3
 1485              	.LC5:
 1486 0054 75736245 		.ascii	"usbEnableEndpointI(), #1\000"
 1486      6E61626C 
 1486      65456E64 
 1486      706F696E 
 1486      74492829 
 1487 006d 000000   		.space	3
 1488              	.LC6:
 1489 0070 75736245 		.ascii	"usbEnableEndpointI(), #2\000"
 1489      6E61626C 
 1489      65456E64 
 1489      706F696E 
 1489      74492829 
 1490 0089 000000   		.space	3
 1491              	.LC7:
 1492 008c 22757362 		.ascii	"\"usbDisableEndpointsI\"()\000"
 1492      44697361 
 1492      626C6545 
 1492      6E64706F 
ARM GAS  /tmp/cc5uc8Mi.s 			page 28


 1492      696E7473 
 1493 00a5 000000   		.space	3
 1494              	.LC8:
 1495 00a8 75736244 		.ascii	"usbDisableEndpointsI(), #1\000"
 1495      69736162 
 1495      6C65456E 
 1495      64706F69 
 1495      6E747349 
 1496 00c3 00       		.space	1
 1497              	.LC9:
 1498 00c4 22757362 		.ascii	"\"usbStartReceiveI\"()\000"
 1498      53746172 
 1498      74526563 
 1498      65697665 
 1498      49222829 
 1499 00d9 000000   		.space	3
 1500              	.LC10:
 1501 00dc 22757362 		.ascii	"\"usbStartTransmitI\"()\000"
 1501      53746172 
 1501      74547261 
 1501      6E736D69 
 1501      74492228 
 1502 00f2 0000     		.space	2
 1503              	.LC11:
 1504 00f4 22757362 		.ascii	"\"usbStallReceiveI\"()\000"
 1504      5374616C 
 1504      6C526563 
 1504      65697665 
 1504      49222829 
 1505 0109 000000   		.space	3
 1506              	.LC12:
 1507 010c 22757362 		.ascii	"\"usbStallTransmitI\"()\000"
 1507      5374616C 
 1507      6C547261 
 1507      6E736D69 
 1507      74492228 
 1508 0122 0000     		.section	.rodata.halted_status,"a",%progbits
 1509              		.align	2
 1510              		.set	.LANCHOR1,. + 0
 1511              		.type	halted_status, %object
 1512              		.size	halted_status, 2
 1513              	halted_status:
 1514 0000 01       		.byte	1
 1515 0001 00       		.byte	0
 1516 0002 0000     		.text
 1517              	.Letext0:
 1518              		.section	.debug_loc,"",%progbits
 1519              	.Ldebug_loc0:
 1520              	.LLST0:
 1521 0000 00000000 		.4byte	.LFB62
 1522 0004 02000000 		.4byte	.LCFI0
 1523 0008 0200     		.2byte	0x2
 1524 000a 7D       		.byte	0x7d
 1525 000b 00       		.sleb128 0
 1526 000c 02000000 		.4byte	.LCFI0
 1527 0010 22000000 		.4byte	.LFE62
 1528 0014 0200     		.2byte	0x2
ARM GAS  /tmp/cc5uc8Mi.s 			page 29


 1529 0016 7D       		.byte	0x7d
 1530 0017 08       		.sleb128 8
 1531 0018 00000000 		.4byte	0x0
 1532 001c 00000000 		.4byte	0x0
 1533              	.LLST1:
 1534 0020 00000000 		.4byte	.LVL0
 1535 0024 0F000000 		.4byte	.LVL1-1
 1536 0028 0100     		.2byte	0x1
 1537 002a 50       		.byte	0x50
 1538 002b 0F000000 		.4byte	.LVL1-1
 1539 002f 22000000 		.4byte	.LFE62
 1540 0033 0100     		.2byte	0x1
 1541 0035 54       		.byte	0x54
 1542 0036 00000000 		.4byte	0x0
 1543 003a 00000000 		.4byte	0x0
 1544              	.LLST2:
 1545 003e 00000000 		.4byte	.LFB66
 1546 0042 02000000 		.4byte	.LCFI1
 1547 0046 0200     		.2byte	0x2
 1548 0048 7D       		.byte	0x7d
 1549 0049 00       		.sleb128 0
 1550 004a 02000000 		.4byte	.LCFI1
 1551 004e 60000000 		.4byte	.LFE66
 1552 0052 0200     		.2byte	0x2
 1553 0054 7D       		.byte	0x7d
 1554 0055 10       		.sleb128 16
 1555 0056 00000000 		.4byte	0x0
 1556 005a 00000000 		.4byte	0x0
 1557              	.LLST3:
 1558 005e 00000000 		.4byte	.LVL3
 1559 0062 0A000000 		.4byte	.LVL4
 1560 0066 0100     		.2byte	0x1
 1561 0068 50       		.byte	0x50
 1562 0069 0A000000 		.4byte	.LVL4
 1563 006d 60000000 		.4byte	.LFE66
 1564 0071 0100     		.2byte	0x1
 1565 0073 54       		.byte	0x54
 1566 0074 00000000 		.4byte	0x0
 1567 0078 00000000 		.4byte	0x0
 1568              	.LLST4:
 1569 007c 00000000 		.4byte	.LVL3
 1570 0080 0A000000 		.4byte	.LVL4
 1571 0084 0100     		.2byte	0x1
 1572 0086 51       		.byte	0x51
 1573 0087 0A000000 		.4byte	.LVL4
 1574 008b 60000000 		.4byte	.LFE66
 1575 008f 0100     		.2byte	0x1
 1576 0091 55       		.byte	0x55
 1577 0092 00000000 		.4byte	0x0
 1578 0096 00000000 		.4byte	0x0
 1579              	.LLST5:
 1580 009a 2A000000 		.4byte	.LVL8
 1581 009e 2C000000 		.4byte	.LVL9
 1582 00a2 0200     		.2byte	0x2
 1583 00a4 30       		.byte	0x30
 1584 00a5 9F       		.byte	0x9f
 1585 00a6 2C000000 		.4byte	.LVL9
ARM GAS  /tmp/cc5uc8Mi.s 			page 30


 1586 00aa 2E000000 		.4byte	.LVL10
 1587 00ae 0200     		.2byte	0x2
 1588 00b0 31       		.byte	0x31
 1589 00b1 9F       		.byte	0x9f
 1590 00b2 2E000000 		.4byte	.LVL10
 1591 00b6 30000000 		.4byte	.LVL11
 1592 00ba 0200     		.2byte	0x2
 1593 00bc 32       		.byte	0x32
 1594 00bd 9F       		.byte	0x9f
 1595 00be 30000000 		.4byte	.LVL11
 1596 00c2 32000000 		.4byte	.LVL12
 1597 00c6 0200     		.2byte	0x2
 1598 00c8 33       		.byte	0x33
 1599 00c9 9F       		.byte	0x9f
 1600 00ca 32000000 		.4byte	.LVL12
 1601 00ce 34000000 		.4byte	.LVL13
 1602 00d2 0200     		.2byte	0x2
 1603 00d4 34       		.byte	0x34
 1604 00d5 9F       		.byte	0x9f
 1605 00d6 34000000 		.4byte	.LVL13
 1606 00da 36000000 		.4byte	.LVL14
 1607 00de 0200     		.2byte	0x2
 1608 00e0 35       		.byte	0x35
 1609 00e1 9F       		.byte	0x9f
 1610 00e2 36000000 		.4byte	.LVL14
 1611 00e6 38000000 		.4byte	.LVL15
 1612 00ea 0200     		.2byte	0x2
 1613 00ec 36       		.byte	0x36
 1614 00ed 9F       		.byte	0x9f
 1615 00ee 38000000 		.4byte	.LVL15
 1616 00f2 3A000000 		.4byte	.LVL16
 1617 00f6 0200     		.2byte	0x2
 1618 00f8 37       		.byte	0x37
 1619 00f9 9F       		.byte	0x9f
 1620 00fa 3A000000 		.4byte	.LVL16
 1621 00fe 4E000000 		.4byte	.LVL19
 1622 0102 0200     		.2byte	0x2
 1623 0104 38       		.byte	0x38
 1624 0105 9F       		.byte	0x9f
 1625 0106 00000000 		.4byte	0x0
 1626 010a 00000000 		.4byte	0x0
 1627              	.LLST6:
 1628 010e 10000000 		.4byte	.LVL6
 1629 0112 13000000 		.4byte	.LVL7-1
 1630 0116 0100     		.2byte	0x1
 1631 0118 53       		.byte	0x53
 1632 0119 00000000 		.4byte	0x0
 1633 011d 00000000 		.4byte	0x0
 1634              	.LLST7:
 1635 0121 4C000000 		.4byte	.LVL18
 1636 0125 4E000000 		.4byte	.LVL19
 1637 0129 0100     		.2byte	0x1
 1638 012b 53       		.byte	0x53
 1639 012c 00000000 		.4byte	0x0
 1640 0130 00000000 		.4byte	0x0
 1641              	.LLST8:
 1642 0134 00000000 		.4byte	.LFB67
ARM GAS  /tmp/cc5uc8Mi.s 			page 31


 1643 0138 02000000 		.4byte	.LCFI2
 1644 013c 0200     		.2byte	0x2
 1645 013e 7D       		.byte	0x7d
 1646 013f 00       		.sleb128 0
 1647 0140 02000000 		.4byte	.LCFI2
 1648 0144 48000000 		.4byte	.LFE67
 1649 0148 0200     		.2byte	0x2
 1650 014a 7D       		.byte	0x7d
 1651 014b 08       		.sleb128 8
 1652 014c 00000000 		.4byte	0x0
 1653 0150 00000000 		.4byte	0x0
 1654              	.LLST9:
 1655 0154 00000000 		.4byte	.LVL20
 1656 0158 06000000 		.4byte	.LVL21
 1657 015c 0100     		.2byte	0x1
 1658 015e 50       		.byte	0x50
 1659 015f 06000000 		.4byte	.LVL21
 1660 0163 48000000 		.4byte	.LFE67
 1661 0167 0100     		.2byte	0x1
 1662 0169 54       		.byte	0x54
 1663 016a 00000000 		.4byte	0x0
 1664 016e 00000000 		.4byte	0x0
 1665              	.LLST10:
 1666 0172 0C000000 		.4byte	.LVL23
 1667 0176 0F000000 		.4byte	.LVL24-1
 1668 017a 0100     		.2byte	0x1
 1669 017c 53       		.byte	0x53
 1670 017d 00000000 		.4byte	0x0
 1671 0181 00000000 		.4byte	0x0
 1672              	.LLST11:
 1673 0185 34000000 		.4byte	.LVL26
 1674 0189 36000000 		.4byte	.LVL27
 1675 018d 0100     		.2byte	0x1
 1676 018f 53       		.byte	0x53
 1677 0190 00000000 		.4byte	0x0
 1678 0194 00000000 		.4byte	0x0
 1679              	.LLST12:
 1680 0198 00000000 		.4byte	.LFB68
 1681 019c 04000000 		.4byte	.LCFI3
 1682 01a0 0200     		.2byte	0x2
 1683 01a2 7D       		.byte	0x7d
 1684 01a3 00       		.sleb128 0
 1685 01a4 04000000 		.4byte	.LCFI3
 1686 01a8 7C000000 		.4byte	.LFE68
 1687 01ac 0200     		.2byte	0x2
 1688 01ae 7D       		.byte	0x7d
 1689 01af 18       		.sleb128 24
 1690 01b0 00000000 		.4byte	0x0
 1691 01b4 00000000 		.4byte	0x0
 1692              	.LLST13:
 1693 01b8 00000000 		.4byte	.LVL28
 1694 01bc 0D000000 		.4byte	.LVL29-1
 1695 01c0 0100     		.2byte	0x1
 1696 01c2 50       		.byte	0x50
 1697 01c3 0D000000 		.4byte	.LVL29-1
 1698 01c7 7C000000 		.4byte	.LFE68
 1699 01cb 0100     		.2byte	0x1
ARM GAS  /tmp/cc5uc8Mi.s 			page 32


 1700 01cd 54       		.byte	0x54
 1701 01ce 00000000 		.4byte	0x0
 1702 01d2 00000000 		.4byte	0x0
 1703              	.LLST14:
 1704 01d6 00000000 		.4byte	.LVL28
 1705 01da 0D000000 		.4byte	.LVL29-1
 1706 01de 0100     		.2byte	0x1
 1707 01e0 51       		.byte	0x51
 1708 01e1 00000000 		.4byte	0x0
 1709 01e5 00000000 		.4byte	0x0
 1710              	.LLST15:
 1711 01e9 00000000 		.4byte	.LVL28
 1712 01ed 0D000000 		.4byte	.LVL29-1
 1713 01f1 0100     		.2byte	0x1
 1714 01f3 52       		.byte	0x52
 1715 01f4 0D000000 		.4byte	.LVL29-1
 1716 01f8 7C000000 		.4byte	.LFE68
 1717 01fc 0100     		.2byte	0x1
 1718 01fe 56       		.byte	0x56
 1719 01ff 00000000 		.4byte	0x0
 1720 0203 00000000 		.4byte	0x0
 1721              	.LLST16:
 1722 0207 00000000 		.4byte	.LFB69
 1723 020b 02000000 		.4byte	.LCFI4
 1724 020f 0200     		.2byte	0x2
 1725 0211 7D       		.byte	0x7d
 1726 0212 00       		.sleb128 0
 1727 0213 02000000 		.4byte	.LCFI4
 1728 0217 54000000 		.4byte	.LFE69
 1729 021b 0200     		.2byte	0x2
 1730 021d 7D       		.byte	0x7d
 1731 021e 08       		.sleb128 8
 1732 021f 00000000 		.4byte	0x0
 1733 0223 00000000 		.4byte	0x0
 1734              	.LLST17:
 1735 0227 00000000 		.4byte	.LVL30
 1736 022b 07000000 		.4byte	.LVL31-1
 1737 022f 0100     		.2byte	0x1
 1738 0231 50       		.byte	0x50
 1739 0232 07000000 		.4byte	.LVL31-1
 1740 0236 54000000 		.4byte	.LFE69
 1741 023a 0100     		.2byte	0x1
 1742 023c 54       		.byte	0x54
 1743 023d 00000000 		.4byte	0x0
 1744 0241 00000000 		.4byte	0x0
 1745              	.LLST18:
 1746 0245 3C000000 		.4byte	.LVL32
 1747 0249 44000000 		.4byte	.LVL33
 1748 024d 0200     		.2byte	0x2
 1749 024f 38       		.byte	0x38
 1750 0250 9F       		.byte	0x9f
 1751 0251 00000000 		.4byte	0x0
 1752 0255 00000000 		.4byte	0x0
 1753              	.LLST19:
 1754 0259 00000000 		.4byte	.LFB70
 1755 025d 02000000 		.4byte	.LCFI5
 1756 0261 0200     		.2byte	0x2
ARM GAS  /tmp/cc5uc8Mi.s 			page 33


 1757 0263 7D       		.byte	0x7d
 1758 0264 00       		.sleb128 0
 1759 0265 02000000 		.4byte	.LCFI5
 1760 0269 40000000 		.4byte	.LFE70
 1761 026d 0200     		.2byte	0x2
 1762 026f 7D       		.byte	0x7d
 1763 0270 10       		.sleb128 16
 1764 0271 00000000 		.4byte	0x0
 1765 0275 00000000 		.4byte	0x0
 1766              	.LLST20:
 1767 0279 00000000 		.4byte	.LVL34
 1768 027d 09000000 		.4byte	.LVL35-1
 1769 0281 0100     		.2byte	0x1
 1770 0283 50       		.byte	0x50
 1771 0284 09000000 		.4byte	.LVL35-1
 1772 0288 40000000 		.4byte	.LFE70
 1773 028c 0100     		.2byte	0x1
 1774 028e 54       		.byte	0x54
 1775 028f 00000000 		.4byte	0x0
 1776 0293 00000000 		.4byte	0x0
 1777              	.LLST21:
 1778 0297 00000000 		.4byte	.LVL34
 1779 029b 09000000 		.4byte	.LVL35-1
 1780 029f 0100     		.2byte	0x1
 1781 02a1 51       		.byte	0x51
 1782 02a2 00000000 		.4byte	0x0
 1783 02a6 00000000 		.4byte	0x0
 1784              	.LLST22:
 1785 02aa 00000000 		.4byte	.LFB71
 1786 02ae 02000000 		.4byte	.LCFI6
 1787 02b2 0200     		.2byte	0x2
 1788 02b4 7D       		.byte	0x7d
 1789 02b5 00       		.sleb128 0
 1790 02b6 02000000 		.4byte	.LCFI6
 1791 02ba 40000000 		.4byte	.LFE71
 1792 02be 0200     		.2byte	0x2
 1793 02c0 7D       		.byte	0x7d
 1794 02c1 10       		.sleb128 16
 1795 02c2 00000000 		.4byte	0x0
 1796 02c6 00000000 		.4byte	0x0
 1797              	.LLST23:
 1798 02ca 00000000 		.4byte	.LVL36
 1799 02ce 09000000 		.4byte	.LVL37-1
 1800 02d2 0100     		.2byte	0x1
 1801 02d4 50       		.byte	0x50
 1802 02d5 09000000 		.4byte	.LVL37-1
 1803 02d9 40000000 		.4byte	.LFE71
 1804 02dd 0100     		.2byte	0x1
 1805 02df 54       		.byte	0x54
 1806 02e0 00000000 		.4byte	0x0
 1807 02e4 00000000 		.4byte	0x0
 1808              	.LLST24:
 1809 02e8 00000000 		.4byte	.LVL36
 1810 02ec 09000000 		.4byte	.LVL37-1
 1811 02f0 0100     		.2byte	0x1
 1812 02f2 51       		.byte	0x51
 1813 02f3 00000000 		.4byte	0x0
ARM GAS  /tmp/cc5uc8Mi.s 			page 34


 1814 02f7 00000000 		.4byte	0x0
 1815              	.LLST25:
 1816 02fb 00000000 		.4byte	.LFB72
 1817 02ff 02000000 		.4byte	.LCFI7
 1818 0303 0200     		.2byte	0x2
 1819 0305 7D       		.byte	0x7d
 1820 0306 00       		.sleb128 0
 1821 0307 02000000 		.4byte	.LCFI7
 1822 030b 34000000 		.4byte	.LFE72
 1823 030f 0200     		.2byte	0x2
 1824 0311 7D       		.byte	0x7d
 1825 0312 10       		.sleb128 16
 1826 0313 00000000 		.4byte	0x0
 1827 0317 00000000 		.4byte	0x0
 1828              	.LLST26:
 1829 031b 00000000 		.4byte	.LVL38
 1830 031f 09000000 		.4byte	.LVL39-1
 1831 0323 0100     		.2byte	0x1
 1832 0325 50       		.byte	0x50
 1833 0326 09000000 		.4byte	.LVL39-1
 1834 032a 34000000 		.4byte	.LFE72
 1835 032e 0100     		.2byte	0x1
 1836 0330 54       		.byte	0x54
 1837 0331 00000000 		.4byte	0x0
 1838 0335 00000000 		.4byte	0x0
 1839              	.LLST27:
 1840 0339 00000000 		.4byte	.LVL38
 1841 033d 09000000 		.4byte	.LVL39-1
 1842 0341 0100     		.2byte	0x1
 1843 0343 51       		.byte	0x51
 1844 0344 00000000 		.4byte	0x0
 1845 0348 00000000 		.4byte	0x0
 1846              	.LLST28:
 1847 034c 00000000 		.4byte	.LFB73
 1848 0350 02000000 		.4byte	.LCFI8
 1849 0354 0200     		.2byte	0x2
 1850 0356 7D       		.byte	0x7d
 1851 0357 00       		.sleb128 0
 1852 0358 02000000 		.4byte	.LCFI8
 1853 035c 34000000 		.4byte	.LFE73
 1854 0360 0200     		.2byte	0x2
 1855 0362 7D       		.byte	0x7d
 1856 0363 10       		.sleb128 16
 1857 0364 00000000 		.4byte	0x0
 1858 0368 00000000 		.4byte	0x0
 1859              	.LLST29:
 1860 036c 00000000 		.4byte	.LVL40
 1861 0370 09000000 		.4byte	.LVL41-1
 1862 0374 0100     		.2byte	0x1
 1863 0376 50       		.byte	0x50
 1864 0377 09000000 		.4byte	.LVL41-1
 1865 037b 34000000 		.4byte	.LFE73
 1866 037f 0100     		.2byte	0x1
 1867 0381 54       		.byte	0x54
 1868 0382 00000000 		.4byte	0x0
 1869 0386 00000000 		.4byte	0x0
 1870              	.LLST30:
ARM GAS  /tmp/cc5uc8Mi.s 			page 35


 1871 038a 00000000 		.4byte	.LVL40
 1872 038e 09000000 		.4byte	.LVL41-1
 1873 0392 0100     		.2byte	0x1
 1874 0394 51       		.byte	0x51
 1875 0395 00000000 		.4byte	0x0
 1876 0399 00000000 		.4byte	0x0
 1877              	.LLST31:
 1878 039d 00000000 		.4byte	.LFB74
 1879 03a1 02000000 		.4byte	.LCFI9
 1880 03a5 0200     		.2byte	0x2
 1881 03a7 7D       		.byte	0x7d
 1882 03a8 00       		.sleb128 0
 1883 03a9 02000000 		.4byte	.LCFI9
 1884 03ad 32000000 		.4byte	.LFE74
 1885 03b1 0200     		.2byte	0x2
 1886 03b3 7D       		.byte	0x7d
 1887 03b4 04       		.sleb128 4
 1888 03b5 00000000 		.4byte	0x0
 1889 03b9 00000000 		.4byte	0x0
 1890              	.LLST32:
 1891 03bd 18000000 		.4byte	.LVL43
 1892 03c1 1A000000 		.4byte	.LVL44
 1893 03c5 0200     		.2byte	0x2
 1894 03c7 30       		.byte	0x30
 1895 03c8 9F       		.byte	0x9f
 1896 03c9 1A000000 		.4byte	.LVL44
 1897 03cd 1C000000 		.4byte	.LVL45
 1898 03d1 0200     		.2byte	0x2
 1899 03d3 31       		.byte	0x31
 1900 03d4 9F       		.byte	0x9f
 1901 03d5 1C000000 		.4byte	.LVL45
 1902 03d9 1E000000 		.4byte	.LVL46
 1903 03dd 0200     		.2byte	0x2
 1904 03df 32       		.byte	0x32
 1905 03e0 9F       		.byte	0x9f
 1906 03e1 1E000000 		.4byte	.LVL46
 1907 03e5 20000000 		.4byte	.LVL47
 1908 03e9 0200     		.2byte	0x2
 1909 03eb 33       		.byte	0x33
 1910 03ec 9F       		.byte	0x9f
 1911 03ed 20000000 		.4byte	.LVL47
 1912 03f1 22000000 		.4byte	.LVL48
 1913 03f5 0200     		.2byte	0x2
 1914 03f7 34       		.byte	0x34
 1915 03f8 9F       		.byte	0x9f
 1916 03f9 22000000 		.4byte	.LVL48
 1917 03fd 24000000 		.4byte	.LVL49
 1918 0401 0200     		.2byte	0x2
 1919 0403 35       		.byte	0x35
 1920 0404 9F       		.byte	0x9f
 1921 0405 24000000 		.4byte	.LVL49
 1922 0409 26000000 		.4byte	.LVL50
 1923 040d 0200     		.2byte	0x2
 1924 040f 36       		.byte	0x36
 1925 0410 9F       		.byte	0x9f
 1926 0411 26000000 		.4byte	.LVL50
 1927 0415 28000000 		.4byte	.LVL51
ARM GAS  /tmp/cc5uc8Mi.s 			page 36


 1928 0419 0200     		.2byte	0x2
 1929 041b 37       		.byte	0x37
 1930 041c 9F       		.byte	0x9f
 1931 041d 28000000 		.4byte	.LVL51
 1932 0421 32000000 		.4byte	.LFE74
 1933 0425 0200     		.2byte	0x2
 1934 0427 38       		.byte	0x38
 1935 0428 9F       		.byte	0x9f
 1936 0429 00000000 		.4byte	0x0
 1937 042d 00000000 		.4byte	0x0
 1938              	.LLST33:
 1939 0431 00000000 		.4byte	.LFB75
 1940 0435 06000000 		.4byte	.LCFI10
 1941 0439 0200     		.2byte	0x2
 1942 043b 7D       		.byte	0x7d
 1943 043c 00       		.sleb128 0
 1944 043d 06000000 		.4byte	.LCFI10
 1945 0441 E8020000 		.4byte	.LFE75
 1946 0445 0200     		.2byte	0x2
 1947 0447 7D       		.byte	0x7d
 1948 0448 18       		.sleb128 24
 1949 0449 00000000 		.4byte	0x0
 1950 044d 00000000 		.4byte	0x0
 1951              	.LLST34:
 1952 0451 00000000 		.4byte	.LVL52
 1953 0455 13000000 		.4byte	.LVL53-1
 1954 0459 0100     		.2byte	0x1
 1955 045b 50       		.byte	0x50
 1956 045c 13000000 		.4byte	.LVL53-1
 1957 0460 E8020000 		.4byte	.LFE75
 1958 0464 0100     		.2byte	0x1
 1959 0466 54       		.byte	0x54
 1960 0467 00000000 		.4byte	0x0
 1961 046b 00000000 		.4byte	0x0
 1962              	.LLST35:
 1963 046f 00000000 		.4byte	.LVL52
 1964 0473 13000000 		.4byte	.LVL53-1
 1965 0477 0100     		.2byte	0x1
 1966 0479 51       		.byte	0x51
 1967 047a 00000000 		.4byte	0x0
 1968 047e 00000000 		.4byte	0x0
 1969              	.LLST36:
 1970 0482 2C000000 		.4byte	.LVL54
 1971 0486 40000000 		.4byte	.LVL55
 1972 048a 0100     		.2byte	0x1
 1973 048c 50       		.byte	0x50
 1974 048d 14010000 		.4byte	.LVL57
 1975 0491 1E010000 		.4byte	.LVL58
 1976 0495 0100     		.2byte	0x1
 1977 0497 50       		.byte	0x50
 1978 0498 32010000 		.4byte	.LVL59
 1979 049c 3E010000 		.4byte	.LVL60
 1980 04a0 0100     		.2byte	0x1
 1981 04a2 50       		.byte	0x50
 1982 04a3 52010000 		.4byte	.LVL61
 1983 04a7 5A010000 		.4byte	.LVL62
 1984 04ab 0100     		.2byte	0x1
ARM GAS  /tmp/cc5uc8Mi.s 			page 37


 1985 04ad 50       		.byte	0x50
 1986 04ae 00000000 		.4byte	0x0
 1987 04b2 00000000 		.4byte	0x0
 1988              	.LLST37:
 1989 04b6 8E000000 		.4byte	.LVL56
 1990 04ba 14010000 		.4byte	.LVL57
 1991 04be 0100     		.2byte	0x1
 1992 04c0 54       		.byte	0x54
 1993 04c1 70010000 		.4byte	.LVL63
 1994 04c5 E8020000 		.4byte	.LFE75
 1995 04c9 0100     		.2byte	0x1
 1996 04cb 54       		.byte	0x54
 1997 04cc 00000000 		.4byte	0x0
 1998 04d0 00000000 		.4byte	0x0
 1999              	.LLST38:
 2000 04d4 5C020000 		.4byte	.LVL64
 2001 04d8 72020000 		.4byte	.LVL65
 2002 04dc 0100     		.2byte	0x1
 2003 04de 50       		.byte	0x50
 2004 04df 00000000 		.4byte	0x0
 2005 04e3 00000000 		.4byte	0x0
 2006              	.LLST39:
 2007 04e7 00000000 		.4byte	.LFB76
 2008 04eb 06000000 		.4byte	.LCFI11
 2009 04ef 0200     		.2byte	0x2
 2010 04f1 7D       		.byte	0x7d
 2011 04f2 00       		.sleb128 0
 2012 04f3 06000000 		.4byte	.LCFI11
 2013 04f7 8C000000 		.4byte	.LFE76
 2014 04fb 0200     		.2byte	0x2
 2015 04fd 7D       		.byte	0x7d
 2016 04fe 10       		.sleb128 16
 2017 04ff 00000000 		.4byte	0x0
 2018 0503 00000000 		.4byte	0x0
 2019              	.LLST40:
 2020 0507 00000000 		.4byte	.LVL66
 2021 050b 15000000 		.4byte	.LVL68-1
 2022 050f 0100     		.2byte	0x1
 2023 0511 50       		.byte	0x50
 2024 0512 15000000 		.4byte	.LVL68-1
 2025 0516 8C000000 		.4byte	.LFE76
 2026 051a 0100     		.2byte	0x1
 2027 051c 54       		.byte	0x54
 2028 051d 00000000 		.4byte	0x0
 2029 0521 00000000 		.4byte	0x0
 2030              	.LLST41:
 2031 0525 00000000 		.4byte	.LVL66
 2032 0529 12000000 		.4byte	.LVL67
 2033 052d 0100     		.2byte	0x1
 2034 052f 51       		.byte	0x51
 2035 0530 32000000 		.4byte	.LVL69
 2036 0534 37000000 		.4byte	.LVL70-1
 2037 0538 0100     		.2byte	0x1
 2038 053a 51       		.byte	0x51
 2039 053b 40000000 		.4byte	.LVL71
 2040 053f 4E000000 		.4byte	.LVL72
 2041 0543 0100     		.2byte	0x1
ARM GAS  /tmp/cc5uc8Mi.s 			page 38


 2042 0545 51       		.byte	0x51
 2043 0546 00000000 		.4byte	0x0
 2044 054a 00000000 		.4byte	0x0
 2045              	.LLST42:
 2046 054e 40000000 		.4byte	.LVL71
 2047 0552 69000000 		.4byte	.LVL73-1
 2048 0556 0300     		.2byte	0x3
 2049 0558 74       		.byte	0x74
 2050 0559 C600     		.sleb128 70
 2051 055b 76000000 		.4byte	.LVL74
 2052 055f 7F000000 		.4byte	.LVL75-1
 2053 0563 0300     		.2byte	0x3
 2054 0565 74       		.byte	0x74
 2055 0566 C600     		.sleb128 70
 2056 0568 00000000 		.4byte	0x0
 2057 056c 00000000 		.4byte	0x0
 2058              	.LLST43:
 2059 0570 00000000 		.4byte	.LFB77
 2060 0574 06000000 		.4byte	.LCFI12
 2061 0578 0200     		.2byte	0x2
 2062 057a 7D       		.byte	0x7d
 2063 057b 00       		.sleb128 0
 2064 057c 06000000 		.4byte	.LCFI12
 2065 0580 68000000 		.4byte	.LFE77
 2066 0584 0200     		.2byte	0x2
 2067 0586 7D       		.byte	0x7d
 2068 0587 10       		.sleb128 16
 2069 0588 00000000 		.4byte	0x0
 2070 058c 00000000 		.4byte	0x0
 2071              	.LLST44:
 2072 0590 00000000 		.4byte	.LVL76
 2073 0594 14000000 		.4byte	.LVL78
 2074 0598 0100     		.2byte	0x1
 2075 059a 50       		.byte	0x50
 2076 059b 14000000 		.4byte	.LVL78
 2077 059f 68000000 		.4byte	.LFE77
 2078 05a3 0100     		.2byte	0x1
 2079 05a5 54       		.byte	0x54
 2080 05a6 00000000 		.4byte	0x0
 2081 05aa 00000000 		.4byte	0x0
 2082              	.LLST45:
 2083 05ae 00000000 		.4byte	.LVL76
 2084 05b2 10000000 		.4byte	.LVL77
 2085 05b6 0100     		.2byte	0x1
 2086 05b8 51       		.byte	0x51
 2087 05b9 34000000 		.4byte	.LVL79
 2088 05bd 36000000 		.4byte	.LVL80
 2089 05c1 0100     		.2byte	0x1
 2090 05c3 51       		.byte	0x51
 2091 05c4 50000000 		.4byte	.LVL81
 2092 05c8 54000000 		.4byte	.LVL82
 2093 05cc 0100     		.2byte	0x1
 2094 05ce 51       		.byte	0x51
 2095 05cf 00000000 		.4byte	0x0
 2096 05d3 00000000 		.4byte	0x0
 2097              		.file 2 "/home/z80/programs/code-sourcery/2011.03-42/bin/../lib/gcc/arm-none-eabi/4.5.2/include/st
 2098              		.file 3 "/home/z80/programs/code-sourcery/2011.03-42/bin/../lib/gcc/arm-none-eabi/4.5.2/../../../.
ARM GAS  /tmp/cc5uc8Mi.s 			page 39


 2099              		.file 4 "../chibios_2.4.x/os/ports/GCC/ARMCMx/chtypes.h"
 2100              		.file 5 "../chibios_2.4.x/os/hal/include/usb.h"
 2101              		.file 6 "../chibios_2.4.x/os/hal/platforms/STM32/USBv1/usb_lld.h"
 2102              		.file 7 "../chibios_2.4.x/os/ports/common/ARMCMx/CMSIS/include/core_cm3.h"
 2103              		.section	.debug_info
 2104 0000 A8090000 		.4byte	0x9a8
 2105 0004 0200     		.2byte	0x2
 2106 0006 00000000 		.4byte	.Ldebug_abbrev0
 2107 000a 04       		.byte	0x4
 2108 000b 01       		.uleb128 0x1
 2109 000c 28050000 		.4byte	.LASF105
 2110 0010 01       		.byte	0x1
 2111 0011 E6000000 		.4byte	.LASF106
 2112 0015 2D000000 		.4byte	.LASF107
 2113 0019 00000000 		.4byte	0x0
 2114 001d 00000000 		.4byte	0x0
 2115 0021 30000000 		.4byte	.Ldebug_ranges0+0x30
 2116 0025 00000000 		.4byte	.Ldebug_line0
 2117 0029 02       		.uleb128 0x2
 2118 002a 01       		.byte	0x1
 2119 002b 06       		.byte	0x6
 2120 002c B8020000 		.4byte	.LASF0
 2121 0030 02       		.uleb128 0x2
 2122 0031 01       		.byte	0x1
 2123 0032 08       		.byte	0x8
 2124 0033 87020000 		.4byte	.LASF1
 2125 0037 02       		.uleb128 0x2
 2126 0038 02       		.byte	0x2
 2127 0039 05       		.byte	0x5
 2128 003a 66000000 		.4byte	.LASF2
 2129 003e 02       		.uleb128 0x2
 2130 003f 02       		.byte	0x2
 2131 0040 07       		.byte	0x7
 2132 0041 7E030000 		.4byte	.LASF3
 2133 0045 03       		.uleb128 0x3
 2134 0046 04       		.byte	0x4
 2135 0047 05       		.byte	0x5
 2136 0048 696E7400 		.ascii	"int\000"
 2137 004c 02       		.uleb128 0x2
 2138 004d 04       		.byte	0x4
 2139 004e 07       		.byte	0x7
 2140 004f E9040000 		.4byte	.LASF4
 2141 0053 02       		.uleb128 0x2
 2142 0054 08       		.byte	0x8
 2143 0055 05       		.byte	0x5
 2144 0056 C0010000 		.4byte	.LASF5
 2145 005a 02       		.uleb128 0x2
 2146 005b 08       		.byte	0x8
 2147 005c 07       		.byte	0x7
 2148 005d CE010000 		.4byte	.LASF6
 2149 0061 02       		.uleb128 0x2
 2150 0062 04       		.byte	0x4
 2151 0063 05       		.byte	0x5
 2152 0064 F8010000 		.4byte	.LASF7
 2153 0068 04       		.uleb128 0x4
 2154 0069 04       		.byte	0x4
 2155 006a 02       		.uleb128 0x2
ARM GAS  /tmp/cc5uc8Mi.s 			page 40


 2156 006b 04       		.byte	0x4
 2157 006c 07       		.byte	0x7
 2158 006d F5030000 		.4byte	.LASF8
 2159 0071 02       		.uleb128 0x2
 2160 0072 01       		.byte	0x1
 2161 0073 08       		.byte	0x8
 2162 0074 48030000 		.4byte	.LASF9
 2163 0078 05       		.uleb128 0x5
 2164 0079 70000000 		.4byte	.LASF10
 2165 007d 02       		.byte	0x2
 2166 007e D3       		.byte	0xd3
 2167 007f 4C000000 		.4byte	0x4c
 2168 0083 05       		.uleb128 0x5
 2169 0084 81040000 		.4byte	.LASF11
 2170 0088 03       		.byte	0x3
 2171 0089 2A       		.byte	0x2a
 2172 008a 30000000 		.4byte	0x30
 2173 008e 05       		.uleb128 0x5
 2174 008f 4D030000 		.4byte	.LASF12
 2175 0093 03       		.byte	0x3
 2176 0094 36       		.byte	0x36
 2177 0095 3E000000 		.4byte	0x3e
 2178 0099 05       		.uleb128 0x5
 2179 009a 68030000 		.4byte	.LASF13
 2180 009e 03       		.byte	0x3
 2181 009f 4F       		.byte	0x4f
 2182 00a0 61000000 		.4byte	0x61
 2183 00a4 05       		.uleb128 0x5
 2184 00a5 CC020000 		.4byte	.LASF14
 2185 00a9 03       		.byte	0x3
 2186 00aa 50       		.byte	0x50
 2187 00ab 6A000000 		.4byte	0x6a
 2188 00af 05       		.uleb128 0x5
 2189 00b0 AA010000 		.4byte	.LASF15
 2190 00b4 04       		.byte	0x4
 2191 00b5 2E       		.byte	0x2e
 2192 00b6 99000000 		.4byte	0x99
 2193 00ba 06       		.uleb128 0x6
 2194 00bb 04       		.byte	0x4
 2195 00bc 83000000 		.4byte	0x83
 2196 00c0 06       		.uleb128 0x6
 2197 00c1 04       		.byte	0x4
 2198 00c2 C6000000 		.4byte	0xc6
 2199 00c6 07       		.uleb128 0x7
 2200 00c7 83000000 		.4byte	0x83
 2201 00cb 08       		.uleb128 0x8
 2202 00cc 99000000 		.4byte	0x99
 2203 00d0 05       		.uleb128 0x5
 2204 00d1 54050000 		.4byte	.LASF16
 2205 00d5 05       		.byte	0x5
 2206 00d6 D2       		.byte	0xd2
 2207 00d7 DB000000 		.4byte	0xdb
 2208 00db 09       		.uleb128 0x9
 2209 00dc 54050000 		.4byte	.LASF16
 2210 00e0 50       		.byte	0x50
 2211 00e1 06       		.byte	0x6
 2212 00e2 F2       		.byte	0xf2
ARM GAS  /tmp/cc5uc8Mi.s 			page 41


 2213 00e3 C6010000 		.4byte	0x1c6
 2214 00e7 0A       		.uleb128 0xa
 2215 00e8 1A000000 		.4byte	.LASF17
 2216 00ec 06       		.byte	0x6
 2217 00ed F6       		.byte	0xf6
 2218 00ee F8010000 		.4byte	0x1f8
 2219 00f2 02       		.byte	0x2
 2220 00f3 23       		.byte	0x23
 2221 00f4 00       		.uleb128 0x0
 2222 00f5 0A       		.uleb128 0xa
 2223 00f6 2E010000 		.4byte	.LASF18
 2224 00fa 06       		.byte	0x6
 2225 00fb FA       		.byte	0xfa
 2226 00fc F1040000 		.4byte	0x4f1
 2227 0100 02       		.byte	0x2
 2228 0101 23       		.byte	0x23
 2229 0102 04       		.uleb128 0x4
 2230 0103 0A       		.uleb128 0xa
 2231 0104 1B030000 		.4byte	.LASF19
 2232 0108 06       		.byte	0x6
 2233 0109 FF       		.byte	0xff
 2234 010a 68000000 		.4byte	0x68
 2235 010e 02       		.byte	0x2
 2236 010f 23       		.byte	0x23
 2237 0110 08       		.uleb128 0x8
 2238 0111 0B       		.uleb128 0xb
 2239 0112 FF040000 		.4byte	.LASF20
 2240 0116 06       		.byte	0x6
 2241 0117 0301     		.2byte	0x103
 2242 0119 8E000000 		.4byte	0x8e
 2243 011d 02       		.byte	0x2
 2244 011e 23       		.byte	0x23
 2245 011f 0C       		.uleb128 0xc
 2246 0120 0B       		.uleb128 0xb
 2247 0121 74020000 		.4byte	.LASF21
 2248 0125 06       		.byte	0x6
 2249 0126 0701     		.2byte	0x107
 2250 0128 8E000000 		.4byte	0x8e
 2251 012c 02       		.byte	0x2
 2252 012d 23       		.byte	0x23
 2253 012e 0E       		.uleb128 0xe
 2254 012f 0C       		.uleb128 0xc
 2255 0130 65706300 		.ascii	"epc\000"
 2256 0134 06       		.byte	0x6
 2257 0135 0B01     		.2byte	0x10b
 2258 0137 FC040000 		.4byte	0x4fc
 2259 013b 02       		.byte	0x2
 2260 013c 23       		.byte	0x23
 2261 013d 10       		.uleb128 0x10
 2262 013e 0B       		.uleb128 0xb
 2263 013f 38020000 		.4byte	.LASF22
 2264 0143 06       		.byte	0x6
 2265 0144 0F01     		.2byte	0x10f
 2266 0146 4B020000 		.4byte	0x24b
 2267 014a 02       		.byte	0x2
 2268 014b 23       		.byte	0x23
 2269 014c 30       		.uleb128 0x30
ARM GAS  /tmp/cc5uc8Mi.s 			page 42


 2270 014d 0B       		.uleb128 0xb
 2271 014e AF030000 		.4byte	.LASF23
 2272 0152 06       		.byte	0x6
 2273 0153 1301     		.2byte	0x113
 2274 0155 BA000000 		.4byte	0xba
 2275 0159 02       		.byte	0x2
 2276 015a 23       		.byte	0x23
 2277 015b 34       		.uleb128 0x34
 2278 015c 0B       		.uleb128 0xb
 2279 015d B3000000 		.4byte	.LASF24
 2280 0161 06       		.byte	0x6
 2281 0162 1701     		.2byte	0x117
 2282 0164 78000000 		.4byte	0x78
 2283 0168 02       		.byte	0x2
 2284 0169 23       		.byte	0x23
 2285 016a 38       		.uleb128 0x38
 2286 016b 0B       		.uleb128 0xb
 2287 016c AF020000 		.4byte	.LASF25
 2288 0170 06       		.byte	0x6
 2289 0171 1B01     		.2byte	0x11b
 2290 0173 C3020000 		.4byte	0x2c3
 2291 0177 02       		.byte	0x2
 2292 0178 23       		.byte	0x23
 2293 0179 3C       		.uleb128 0x3c
 2294 017a 0B       		.uleb128 0xb
 2295 017b B1010000 		.4byte	.LASF26
 2296 017f 06       		.byte	0x6
 2297 0180 1F01     		.2byte	0x11f
 2298 0182 17050000 		.4byte	0x517
 2299 0186 02       		.byte	0x2
 2300 0187 23       		.byte	0x23
 2301 0188 40       		.uleb128 0x40
 2302 0189 0B       		.uleb128 0xb
 2303 018a 31030000 		.4byte	.LASF27
 2304 018e 06       		.byte	0x6
 2305 018f 2301     		.2byte	0x123
 2306 0191 8E000000 		.4byte	0x8e
 2307 0195 02       		.byte	0x2
 2308 0196 23       		.byte	0x23
 2309 0197 48       		.uleb128 0x48
 2310 0198 0B       		.uleb128 0xb
 2311 0199 C4020000 		.4byte	.LASF28
 2312 019d 06       		.byte	0x6
 2313 019e 2701     		.2byte	0x127
 2314 01a0 83000000 		.4byte	0x83
 2315 01a4 02       		.byte	0x2
 2316 01a5 23       		.byte	0x23
 2317 01a6 4A       		.uleb128 0x4a
 2318 01a7 0B       		.uleb128 0xb
 2319 01a8 D5020000 		.4byte	.LASF29
 2320 01ac 06       		.byte	0x6
 2321 01ad 2B01     		.2byte	0x12b
 2322 01af 83000000 		.4byte	0x83
 2323 01b3 02       		.byte	0x2
 2324 01b4 23       		.byte	0x23
 2325 01b5 4B       		.uleb128 0x4b
 2326 01b6 0B       		.uleb128 0xb
ARM GAS  /tmp/cc5uc8Mi.s 			page 43


 2327 01b7 13020000 		.4byte	.LASF30
 2328 01bb 06       		.byte	0x6
 2329 01bc 3301     		.2byte	0x133
 2330 01be A4000000 		.4byte	0xa4
 2331 01c2 02       		.byte	0x2
 2332 01c3 23       		.byte	0x23
 2333 01c4 4C       		.uleb128 0x4c
 2334 01c5 00       		.byte	0x0
 2335 01c6 05       		.uleb128 0x5
 2336 01c7 77000000 		.4byte	.LASF31
 2337 01cb 05       		.byte	0x5
 2338 01cc D7       		.byte	0xd7
 2339 01cd 83000000 		.4byte	0x83
 2340 01d1 0D       		.uleb128 0xd
 2341 01d2 01       		.byte	0x1
 2342 01d3 05       		.byte	0x5
 2343 01d4 DC       		.byte	0xdc
 2344 01d5 F8010000 		.4byte	0x1f8
 2345 01d9 0E       		.uleb128 0xe
 2346 01da F3020000 		.4byte	.LASF32
 2347 01de 00       		.sleb128 0
 2348 01df 0E       		.uleb128 0xe
 2349 01e0 7E020000 		.4byte	.LASF33
 2350 01e4 01       		.sleb128 1
 2351 01e5 0E       		.uleb128 0xe
 2352 01e6 0C040000 		.4byte	.LASF34
 2353 01ea 02       		.sleb128 2
 2354 01eb 0E       		.uleb128 0xe
 2355 01ec 20000000 		.4byte	.LASF35
 2356 01f0 03       		.sleb128 3
 2357 01f1 0E       		.uleb128 0xe
 2358 01f2 A4030000 		.4byte	.LASF36
 2359 01f6 04       		.sleb128 4
 2360 01f7 00       		.byte	0x0
 2361 01f8 05       		.uleb128 0x5
 2362 01f9 76040000 		.4byte	.LASF37
 2363 01fd 05       		.byte	0x5
 2364 01fe E2       		.byte	0xe2
 2365 01ff D1010000 		.4byte	0x1d1
 2366 0203 0D       		.uleb128 0xd
 2367 0204 01       		.byte	0x1
 2368 0205 05       		.byte	0x5
 2369 0206 E7       		.byte	0xe7
 2370 0207 1E020000 		.4byte	0x21e
 2371 020b 0E       		.uleb128 0xe
 2372 020c 4D020000 		.4byte	.LASF38
 2373 0210 00       		.sleb128 0
 2374 0211 0E       		.uleb128 0xe
 2375 0212 C0000000 		.4byte	.LASF39
 2376 0216 01       		.sleb128 1
 2377 0217 0E       		.uleb128 0xe
 2378 0218 46010000 		.4byte	.LASF40
 2379 021c 02       		.sleb128 2
 2380 021d 00       		.byte	0x0
 2381 021e 0D       		.uleb128 0xd
 2382 021f 01       		.byte	0x1
 2383 0220 05       		.byte	0x5
ARM GAS  /tmp/cc5uc8Mi.s 			page 44


 2384 0221 F0       		.byte	0xf0
 2385 0222 4B020000 		.4byte	0x24b
 2386 0226 0E       		.uleb128 0xe
 2387 0227 92040000 		.4byte	.LASF41
 2388 022b 00       		.sleb128 0
 2389 022c 0E       		.uleb128 0xe
 2390 022d 01020000 		.4byte	.LASF42
 2391 0231 01       		.sleb128 1
 2392 0232 0E       		.uleb128 0xe
 2393 0233 60020000 		.4byte	.LASF43
 2394 0237 02       		.sleb128 2
 2395 0238 0E       		.uleb128 0xe
 2396 0239 8D010000 		.4byte	.LASF44
 2397 023d 03       		.sleb128 3
 2398 023e 0E       		.uleb128 0xe
 2399 023f 7F000000 		.4byte	.LASF45
 2400 0243 04       		.sleb128 4
 2401 0244 0E       		.uleb128 0xe
 2402 0245 14010000 		.4byte	.LASF46
 2403 0249 05       		.sleb128 5
 2404 024a 00       		.byte	0x0
 2405 024b 05       		.uleb128 0x5
 2406 024c BD030000 		.4byte	.LASF47
 2407 0250 05       		.byte	0x5
 2408 0251 F7       		.byte	0xf7
 2409 0252 1E020000 		.4byte	0x21e
 2410 0256 0D       		.uleb128 0xd
 2411 0257 01       		.byte	0x1
 2412 0258 05       		.byte	0x5
 2413 0259 FC       		.byte	0xfc
 2414 025a 83020000 		.4byte	0x283
 2415 025e 0E       		.uleb128 0xe
 2416 025f 21030000 		.4byte	.LASF48
 2417 0263 00       		.sleb128 0
 2418 0264 0E       		.uleb128 0xe
 2419 0265 26020000 		.4byte	.LASF49
 2420 0269 01       		.sleb128 1
 2421 026a 0E       		.uleb128 0xe
 2422 026b 57010000 		.4byte	.LASF50
 2423 026f 02       		.sleb128 2
 2424 0270 0E       		.uleb128 0xe
 2425 0271 CA040000 		.4byte	.LASF51
 2426 0275 03       		.sleb128 3
 2427 0276 0E       		.uleb128 0xe
 2428 0277 49040000 		.4byte	.LASF52
 2429 027b 04       		.sleb128 4
 2430 027c 0E       		.uleb128 0xe
 2431 027d 42050000 		.4byte	.LASF53
 2432 0281 05       		.sleb128 5
 2433 0282 00       		.byte	0x0
 2434 0283 0F       		.uleb128 0xf
 2435 0284 E5010000 		.4byte	.LASF54
 2436 0288 05       		.byte	0x5
 2437 0289 0301     		.2byte	0x103
 2438 028b 56020000 		.4byte	0x256
 2439 028f 10       		.uleb128 0x10
 2440 0290 08       		.byte	0x8
ARM GAS  /tmp/cc5uc8Mi.s 			page 45


 2441 0291 05       		.byte	0x5
 2442 0292 0801     		.2byte	0x108
 2443 0294 B7020000 		.4byte	0x2b7
 2444 0298 0B       		.uleb128 0xb
 2445 0299 85010000 		.4byte	.LASF55
 2446 029d 05       		.byte	0x5
 2447 029e 0C01     		.2byte	0x10c
 2448 02a0 78000000 		.4byte	0x78
 2449 02a4 02       		.byte	0x2
 2450 02a5 23       		.byte	0x23
 2451 02a6 00       		.uleb128 0x0
 2452 02a7 0B       		.uleb128 0xb
 2453 02a8 2A040000 		.4byte	.LASF56
 2454 02ac 05       		.byte	0x5
 2455 02ad 1001     		.2byte	0x110
 2456 02af C0000000 		.4byte	0xc0
 2457 02b3 02       		.byte	0x2
 2458 02b4 23       		.byte	0x23
 2459 02b5 04       		.uleb128 0x4
 2460 02b6 00       		.byte	0x0
 2461 02b7 0F       		.uleb128 0xf
 2462 02b8 93000000 		.4byte	.LASF57
 2463 02bc 05       		.byte	0x5
 2464 02bd 1101     		.2byte	0x111
 2465 02bf 8F020000 		.4byte	0x28f
 2466 02c3 0F       		.uleb128 0xf
 2467 02c4 D9030000 		.4byte	.LASF58
 2468 02c8 05       		.byte	0x5
 2469 02c9 1901     		.2byte	0x119
 2470 02cb CF020000 		.4byte	0x2cf
 2471 02cf 06       		.uleb128 0x6
 2472 02d0 04       		.byte	0x4
 2473 02d1 D5020000 		.4byte	0x2d5
 2474 02d5 11       		.uleb128 0x11
 2475 02d6 01       		.byte	0x1
 2476 02d7 E1020000 		.4byte	0x2e1
 2477 02db 12       		.uleb128 0x12
 2478 02dc E1020000 		.4byte	0x2e1
 2479 02e0 00       		.byte	0x0
 2480 02e1 06       		.uleb128 0x6
 2481 02e2 04       		.byte	0x4
 2482 02e3 D0000000 		.4byte	0xd0
 2483 02e7 0F       		.uleb128 0xf
 2484 02e8 E3020000 		.4byte	.LASF59
 2485 02ec 05       		.byte	0x5
 2486 02ed 2201     		.2byte	0x122
 2487 02ef F3020000 		.4byte	0x2f3
 2488 02f3 06       		.uleb128 0x6
 2489 02f4 04       		.byte	0x4
 2490 02f5 F9020000 		.4byte	0x2f9
 2491 02f9 11       		.uleb128 0x11
 2492 02fa 01       		.byte	0x1
 2493 02fb 0A030000 		.4byte	0x30a
 2494 02ff 12       		.uleb128 0x12
 2495 0300 E1020000 		.4byte	0x2e1
 2496 0304 12       		.uleb128 0x12
 2497 0305 C6010000 		.4byte	0x1c6
ARM GAS  /tmp/cc5uc8Mi.s 			page 46


 2498 0309 00       		.byte	0x0
 2499 030a 0F       		.uleb128 0xf
 2500 030b 0E030000 		.4byte	.LASF60
 2501 030f 05       		.byte	0x5
 2502 0310 2B01     		.2byte	0x12b
 2503 0312 16030000 		.4byte	0x316
 2504 0316 06       		.uleb128 0x6
 2505 0317 04       		.byte	0x4
 2506 0318 1C030000 		.4byte	0x31c
 2507 031c 11       		.uleb128 0x11
 2508 031d 01       		.byte	0x1
 2509 031e 2D030000 		.4byte	0x32d
 2510 0322 12       		.uleb128 0x12
 2511 0323 E1020000 		.4byte	0x2e1
 2512 0327 12       		.uleb128 0x12
 2513 0328 83020000 		.4byte	0x283
 2514 032c 00       		.byte	0x0
 2515 032d 0F       		.uleb128 0xf
 2516 032e 34040000 		.4byte	.LASF61
 2517 0332 05       		.byte	0x5
 2518 0333 3701     		.2byte	0x137
 2519 0335 39030000 		.4byte	0x339
 2520 0339 06       		.uleb128 0x6
 2521 033a 04       		.byte	0x4
 2522 033b 3F030000 		.4byte	0x33f
 2523 033f 13       		.uleb128 0x13
 2524 0340 01       		.byte	0x1
 2525 0341 AF000000 		.4byte	0xaf
 2526 0345 4F030000 		.4byte	0x34f
 2527 0349 12       		.uleb128 0x12
 2528 034a E1020000 		.4byte	0x2e1
 2529 034e 00       		.byte	0x0
 2530 034f 0F       		.uleb128 0xf
 2531 0350 91030000 		.4byte	.LASF62
 2532 0354 05       		.byte	0x5
 2533 0355 3C01     		.2byte	0x13c
 2534 0357 5B030000 		.4byte	0x35b
 2535 035b 06       		.uleb128 0x6
 2536 035c 04       		.byte	0x4
 2537 035d 61030000 		.4byte	0x361
 2538 0361 13       		.uleb128 0x13
 2539 0362 01       		.byte	0x1
 2540 0363 80030000 		.4byte	0x380
 2541 0367 80030000 		.4byte	0x380
 2542 036b 12       		.uleb128 0x12
 2543 036c E1020000 		.4byte	0x2e1
 2544 0370 12       		.uleb128 0x12
 2545 0371 83000000 		.4byte	0x83
 2546 0375 12       		.uleb128 0x12
 2547 0376 83000000 		.4byte	0x83
 2548 037a 12       		.uleb128 0x12
 2549 037b 8E000000 		.4byte	0x8e
 2550 037f 00       		.byte	0x0
 2551 0380 06       		.uleb128 0x6
 2552 0381 04       		.byte	0x4
 2553 0382 86030000 		.4byte	0x386
 2554 0386 07       		.uleb128 0x7
ARM GAS  /tmp/cc5uc8Mi.s 			page 47


 2555 0387 B7020000 		.4byte	0x2b7
 2556 038b 14       		.uleb128 0x14
 2557 038c 0C       		.byte	0xc
 2558 038d 06       		.byte	0x6
 2559 038e 72       		.byte	0x72
 2560 038f BE030000 		.4byte	0x3be
 2561 0393 0A       		.uleb128 0xa
 2562 0394 38030000 		.4byte	.LASF63
 2563 0398 06       		.byte	0x6
 2564 0399 76       		.byte	0x76
 2565 039a C0000000 		.4byte	0xc0
 2566 039e 02       		.byte	0x2
 2567 039f 23       		.byte	0x23
 2568 03a0 00       		.uleb128 0x0
 2569 03a1 0A       		.uleb128 0xa
 2570 03a2 E7030000 		.4byte	.LASF64
 2571 03a6 06       		.byte	0x6
 2572 03a7 7A       		.byte	0x7a
 2573 03a8 78000000 		.4byte	0x78
 2574 03ac 02       		.byte	0x2
 2575 03ad 23       		.byte	0x23
 2576 03ae 04       		.uleb128 0x4
 2577 03af 0A       		.uleb128 0xa
 2578 03b0 B7030000 		.4byte	.LASF65
 2579 03b4 06       		.byte	0x6
 2580 03b5 7E       		.byte	0x7e
 2581 03b6 78000000 		.4byte	0x78
 2582 03ba 02       		.byte	0x2
 2583 03bb 23       		.byte	0x23
 2584 03bc 08       		.uleb128 0x8
 2585 03bd 00       		.byte	0x0
 2586 03be 05       		.uleb128 0x5
 2587 03bf 95020000 		.4byte	.LASF66
 2588 03c3 06       		.byte	0x6
 2589 03c4 7F       		.byte	0x7f
 2590 03c5 8B030000 		.4byte	0x38b
 2591 03c9 14       		.uleb128 0x14
 2592 03ca 10       		.byte	0x10
 2593 03cb 06       		.byte	0x6
 2594 03cc 84       		.byte	0x84
 2595 03cd 0A040000 		.4byte	0x40a
 2596 03d1 0A       		.uleb128 0xa
 2597 03d2 A8020000 		.4byte	.LASF67
 2598 03d6 06       		.byte	0x6
 2599 03d7 88       		.byte	0x88
 2600 03d8 8E000000 		.4byte	0x8e
 2601 03dc 02       		.byte	0x2
 2602 03dd 23       		.byte	0x23
 2603 03de 00       		.uleb128 0x0
 2604 03df 0A       		.uleb128 0xa
 2605 03e0 C4040000 		.4byte	.LASF68
 2606 03e4 06       		.byte	0x6
 2607 03e5 8C       		.byte	0x8c
 2608 03e6 BA000000 		.4byte	0xba
 2609 03ea 02       		.byte	0x2
 2610 03eb 23       		.byte	0x23
 2611 03ec 04       		.uleb128 0x4
ARM GAS  /tmp/cc5uc8Mi.s 			page 48


 2612 03ed 0A       		.uleb128 0xa
 2613 03ee EE030000 		.4byte	.LASF69
 2614 03f2 06       		.byte	0x6
 2615 03f3 90       		.byte	0x90
 2616 03f4 78000000 		.4byte	0x78
 2617 03f8 02       		.byte	0x2
 2618 03f9 23       		.byte	0x23
 2619 03fa 08       		.uleb128 0x8
 2620 03fb 0A       		.uleb128 0xa
 2621 03fc 08010000 		.4byte	.LASF70
 2622 0400 06       		.byte	0x6
 2623 0401 94       		.byte	0x94
 2624 0402 78000000 		.4byte	0x78
 2625 0406 02       		.byte	0x2
 2626 0407 23       		.byte	0x23
 2627 0408 0C       		.uleb128 0xc
 2628 0409 00       		.byte	0x0
 2629 040a 05       		.uleb128 0x5
 2630 040b 16040000 		.4byte	.LASF71
 2631 040f 06       		.byte	0x6
 2632 0410 95       		.byte	0x95
 2633 0411 C9030000 		.4byte	0x3c9
 2634 0415 14       		.uleb128 0x14
 2635 0416 1C       		.byte	0x1c
 2636 0417 06       		.byte	0x6
 2637 0418 9B       		.byte	0x9b
 2638 0419 8E040000 		.4byte	0x48e
 2639 041d 0A       		.uleb128 0xa
 2640 041e F0010000 		.4byte	.LASF72
 2641 0422 06       		.byte	0x6
 2642 0423 9F       		.byte	0x9f
 2643 0424 A4000000 		.4byte	0xa4
 2644 0428 02       		.byte	0x2
 2645 0429 23       		.byte	0x23
 2646 042a 00       		.uleb128 0x0
 2647 042b 0A       		.uleb128 0xa
 2648 042c 89040000 		.4byte	.LASF73
 2649 0430 06       		.byte	0x6
 2650 0431 AA       		.byte	0xaa
 2651 0432 E7020000 		.4byte	0x2e7
 2652 0436 02       		.byte	0x2
 2653 0437 23       		.byte	0x23
 2654 0438 04       		.uleb128 0x4
 2655 0439 0A       		.uleb128 0xa
 2656 043a 0E010000 		.4byte	.LASF74
 2657 043e 06       		.byte	0x6
 2658 043f B0       		.byte	0xb0
 2659 0440 E7020000 		.4byte	0x2e7
 2660 0444 02       		.byte	0x2
 2661 0445 23       		.byte	0x23
 2662 0446 08       		.uleb128 0x8
 2663 0447 0A       		.uleb128 0xa
 2664 0448 0C050000 		.4byte	.LASF75
 2665 044c 06       		.byte	0x6
 2666 044d B6       		.byte	0xb6
 2667 044e E7020000 		.4byte	0x2e7
 2668 0452 02       		.byte	0x2
ARM GAS  /tmp/cc5uc8Mi.s 			page 49


 2669 0453 23       		.byte	0x23
 2670 0454 0C       		.uleb128 0xc
 2671 0455 0A       		.uleb128 0xa
 2672 0456 DB000000 		.4byte	.LASF76
 2673 045a 06       		.byte	0x6
 2674 045b BC       		.byte	0xbc
 2675 045c 8E000000 		.4byte	0x8e
 2676 0460 02       		.byte	0x2
 2677 0461 23       		.byte	0x23
 2678 0462 10       		.uleb128 0x10
 2679 0463 0A       		.uleb128 0xa
 2680 0464 1A020000 		.4byte	.LASF77
 2681 0468 06       		.byte	0x6
 2682 0469 C2       		.byte	0xc2
 2683 046a 8E000000 		.4byte	0x8e
 2684 046e 02       		.byte	0x2
 2685 046f 23       		.byte	0x23
 2686 0470 12       		.uleb128 0x12
 2687 0471 0A       		.uleb128 0xa
 2688 0472 B7010000 		.4byte	.LASF78
 2689 0476 06       		.byte	0x6
 2690 0477 C9       		.byte	0xc9
 2691 0478 8E040000 		.4byte	0x48e
 2692 047c 02       		.byte	0x2
 2693 047d 23       		.byte	0x23
 2694 047e 14       		.uleb128 0x14
 2695 047f 0A       		.uleb128 0xa
 2696 0480 3E030000 		.4byte	.LASF79
 2697 0484 06       		.byte	0x6
 2698 0485 D0       		.byte	0xd0
 2699 0486 94040000 		.4byte	0x494
 2700 048a 02       		.byte	0x2
 2701 048b 23       		.byte	0x23
 2702 048c 18       		.uleb128 0x18
 2703 048d 00       		.byte	0x0
 2704 048e 06       		.uleb128 0x6
 2705 048f 04       		.byte	0x4
 2706 0490 BE030000 		.4byte	0x3be
 2707 0494 06       		.uleb128 0x6
 2708 0495 04       		.byte	0x4
 2709 0496 0A040000 		.4byte	0x40a
 2710 049a 05       		.uleb128 0x5
 2711 049b 98010000 		.4byte	.LASF80
 2712 049f 06       		.byte	0x6
 2713 04a0 D2       		.byte	0xd2
 2714 04a1 15040000 		.4byte	0x415
 2715 04a5 14       		.uleb128 0x14
 2716 04a6 10       		.byte	0x10
 2717 04a7 06       		.byte	0x6
 2718 04a8 D7       		.byte	0xd7
 2719 04a9 E6040000 		.4byte	0x4e6
 2720 04ad 0A       		.uleb128 0xa
 2721 04ae D2000000 		.4byte	.LASF81
 2722 04b2 06       		.byte	0x6
 2723 04b3 DC       		.byte	0xdc
 2724 04b4 0A030000 		.4byte	0x30a
 2725 04b8 02       		.byte	0x2
ARM GAS  /tmp/cc5uc8Mi.s 			page 50


 2726 04b9 23       		.byte	0x23
 2727 04ba 00       		.uleb128 0x0
 2728 04bb 0A       		.uleb128 0xa
 2729 04bc 56030000 		.4byte	.LASF82
 2730 04c0 06       		.byte	0x6
 2731 04c1 E1       		.byte	0xe1
 2732 04c2 4F030000 		.4byte	0x34f
 2733 04c6 02       		.byte	0x2
 2734 04c7 23       		.byte	0x23
 2735 04c8 04       		.uleb128 0x4
 2736 04c9 0A       		.uleb128 0xa
 2737 04ca 74010000 		.4byte	.LASF83
 2738 04ce 06       		.byte	0x6
 2739 04cf E7       		.byte	0xe7
 2740 04d0 2D030000 		.4byte	0x32d
 2741 04d4 02       		.byte	0x2
 2742 04d5 23       		.byte	0x23
 2743 04d6 08       		.uleb128 0x8
 2744 04d7 0A       		.uleb128 0xa
 2745 04d8 0C020000 		.4byte	.LASF84
 2746 04dc 06       		.byte	0x6
 2747 04dd EB       		.byte	0xeb
 2748 04de C3020000 		.4byte	0x2c3
 2749 04e2 02       		.byte	0x2
 2750 04e3 23       		.byte	0x23
 2751 04e4 0C       		.uleb128 0xc
 2752 04e5 00       		.byte	0x0
 2753 04e6 05       		.uleb128 0x5
 2754 04e7 5C000000 		.4byte	.LASF85
 2755 04eb 06       		.byte	0x6
 2756 04ec ED       		.byte	0xed
 2757 04ed A5040000 		.4byte	0x4a5
 2758 04f1 06       		.uleb128 0x6
 2759 04f2 04       		.byte	0x4
 2760 04f3 F7040000 		.4byte	0x4f7
 2761 04f7 07       		.uleb128 0x7
 2762 04f8 E6040000 		.4byte	0x4e6
 2763 04fc 15       		.uleb128 0x15
 2764 04fd 0C050000 		.4byte	0x50c
 2765 0501 0C050000 		.4byte	0x50c
 2766 0505 16       		.uleb128 0x16
 2767 0506 4C000000 		.4byte	0x4c
 2768 050a 07       		.byte	0x7
 2769 050b 00       		.byte	0x0
 2770 050c 06       		.uleb128 0x6
 2771 050d 04       		.byte	0x4
 2772 050e 12050000 		.4byte	0x512
 2773 0512 07       		.uleb128 0x7
 2774 0513 9A040000 		.4byte	0x49a
 2775 0517 15       		.uleb128 0x15
 2776 0518 83000000 		.4byte	0x83
 2777 051c 27050000 		.4byte	0x527
 2778 0520 16       		.uleb128 0x16
 2779 0521 4C000000 		.4byte	0x4c
 2780 0525 07       		.byte	0x7
 2781 0526 00       		.byte	0x0
 2782 0527 17       		.uleb128 0x17
ARM GAS  /tmp/cc5uc8Mi.s 			page 51


 2783 0528 41020000 		.4byte	.LASF108
 2784 052c 01       		.byte	0x1
 2785 052d 45       		.byte	0x45
 2786 052e 01       		.byte	0x1
 2787 052f 00000000 		.4byte	.LFB62
 2788 0533 22000000 		.4byte	.LFE62
 2789 0537 00000000 		.4byte	.LLST0
 2790 053b 4F050000 		.4byte	0x54f
 2791 053f 18       		.uleb128 0x18
 2792 0540 44040000 		.4byte	.LASF86
 2793 0544 01       		.byte	0x1
 2794 0545 45       		.byte	0x45
 2795 0546 E1020000 		.4byte	0x2e1
 2796 054a 20000000 		.4byte	.LLST1
 2797 054e 00       		.byte	0x0
 2798 054f 19       		.uleb128 0x19
 2799 0550 01       		.byte	0x1
 2800 0551 B8000000 		.4byte	.LASF109
 2801 0555 01       		.byte	0x1
 2802 0556 EB       		.byte	0xeb
 2803 0557 01       		.byte	0x1
 2804 0558 00000000 		.4byte	.LFB64
 2805 055c 04000000 		.4byte	.LFE64
 2806 0560 02       		.byte	0x2
 2807 0561 7D       		.byte	0x7d
 2808 0562 00       		.sleb128 0
 2809 0563 1A       		.uleb128 0x1a
 2810 0564 01       		.byte	0x1
 2811 0565 34050000 		.4byte	.LASF87
 2812 0569 01       		.byte	0x1
 2813 056a F7       		.byte	0xf7
 2814 056b 01       		.byte	0x1
 2815 056c 00000000 		.4byte	.LFB65
 2816 0570 10000000 		.4byte	.LFE65
 2817 0574 02       		.byte	0x2
 2818 0575 7D       		.byte	0x7d
 2819 0576 00       		.sleb128 0
 2820 0577 89050000 		.4byte	0x589
 2821 057b 1B       		.uleb128 0x1b
 2822 057c 44040000 		.4byte	.LASF86
 2823 0580 01       		.byte	0x1
 2824 0581 F7       		.byte	0xf7
 2825 0582 E1020000 		.4byte	0x2e1
 2826 0586 01       		.byte	0x1
 2827 0587 50       		.byte	0x50
 2828 0588 00       		.byte	0x0
 2829 0589 1C       		.uleb128 0x1c
 2830 058a 01       		.byte	0x1
 2831 058b F6040000 		.4byte	.LASF88
 2832 058f 01       		.byte	0x1
 2833 0590 0801     		.2byte	0x108
 2834 0592 01       		.byte	0x1
 2835 0593 00000000 		.4byte	.LFB66
 2836 0597 60000000 		.4byte	.LFE66
 2837 059b 3E000000 		.4byte	.LLST2
 2838 059f 0A060000 		.4byte	0x60a
 2839 05a3 1D       		.uleb128 0x1d
ARM GAS  /tmp/cc5uc8Mi.s 			page 52


 2840 05a4 44040000 		.4byte	.LASF86
 2841 05a8 01       		.byte	0x1
 2842 05a9 0801     		.2byte	0x108
 2843 05ab E1020000 		.4byte	0x2e1
 2844 05af 5E000000 		.4byte	.LLST3
 2845 05b3 1D       		.uleb128 0x1d
 2846 05b4 2E010000 		.4byte	.LASF18
 2847 05b8 01       		.byte	0x1
 2848 05b9 0801     		.2byte	0x108
 2849 05bb F1040000 		.4byte	0x4f1
 2850 05bf 7C000000 		.4byte	.LLST4
 2851 05c3 1E       		.uleb128 0x1e
 2852 05c4 6900     		.ascii	"i\000"
 2853 05c6 01       		.byte	0x1
 2854 05c7 0901     		.2byte	0x109
 2855 05c9 4C000000 		.4byte	0x4c
 2856 05cd 9A000000 		.4byte	.LLST5
 2857 05d1 1F       		.uleb128 0x1f
 2858 05d2 0A000000 		.4byte	.LBB2
 2859 05d6 10000000 		.4byte	.LBE2
 2860 05da EF050000 		.4byte	0x5ef
 2861 05de 1E       		.uleb128 0x1e
 2862 05df 746D7000 		.ascii	"tmp\000"
 2863 05e3 01       		.byte	0x1
 2864 05e4 0D01     		.2byte	0x10d
 2865 05e6 A4000000 		.4byte	0xa4
 2866 05ea 0E010000 		.4byte	.LLST6
 2867 05ee 00       		.byte	0x0
 2868 05ef 20       		.uleb128 0x20
 2869 05f0 46000000 		.4byte	.LBB3
 2870 05f4 4C000000 		.4byte	.LBE3
 2871 05f8 1E       		.uleb128 0x1e
 2872 05f9 746D7000 		.ascii	"tmp\000"
 2873 05fd 01       		.byte	0x1
 2874 05fe 1501     		.2byte	0x115
 2875 0600 A4000000 		.4byte	0xa4
 2876 0604 21010000 		.4byte	.LLST7
 2877 0608 00       		.byte	0x0
 2878 0609 00       		.byte	0x0
 2879 060a 1C       		.uleb128 0x1c
 2880 060b 01       		.byte	0x1
 2881 060c 6C010000 		.4byte	.LASF89
 2882 0610 01       		.byte	0x1
 2883 0611 1F01     		.2byte	0x11f
 2884 0613 01       		.byte	0x1
 2885 0614 00000000 		.4byte	.LFB67
 2886 0618 48000000 		.4byte	.LFE67
 2887 061c 34010000 		.4byte	.LLST8
 2888 0620 6D060000 		.4byte	0x66d
 2889 0624 1D       		.uleb128 0x1d
 2890 0625 44040000 		.4byte	.LASF86
 2891 0629 01       		.byte	0x1
 2892 062a 1F01     		.2byte	0x11f
 2893 062c E1020000 		.4byte	0x2e1
 2894 0630 54010000 		.4byte	.LLST9
 2895 0634 1F       		.uleb128 0x1f
 2896 0635 06000000 		.4byte	.LBB4
ARM GAS  /tmp/cc5uc8Mi.s 			page 53


 2897 0639 0C000000 		.4byte	.LBE4
 2898 063d 52060000 		.4byte	0x652
 2899 0641 1E       		.uleb128 0x1e
 2900 0642 746D7000 		.ascii	"tmp\000"
 2901 0646 01       		.byte	0x1
 2902 0647 2301     		.2byte	0x123
 2903 0649 A4000000 		.4byte	0xa4
 2904 064d 72010000 		.4byte	.LLST10
 2905 0651 00       		.byte	0x0
 2906 0652 20       		.uleb128 0x20
 2907 0653 2E000000 		.4byte	.LBB5
 2908 0657 34000000 		.4byte	.LBE5
 2909 065b 1E       		.uleb128 0x1e
 2910 065c 746D7000 		.ascii	"tmp\000"
 2911 0660 01       		.byte	0x1
 2912 0661 2801     		.2byte	0x128
 2913 0663 A4000000 		.4byte	0xa4
 2914 0667 85010000 		.4byte	.LLST11
 2915 066b 00       		.byte	0x0
 2916 066c 00       		.byte	0x0
 2917 066d 1C       		.uleb128 0x1c
 2918 066e 01       		.byte	0x1
 2919 066f 5A040000 		.4byte	.LASF90
 2920 0673 01       		.byte	0x1
 2921 0674 3801     		.2byte	0x138
 2922 0676 01       		.byte	0x1
 2923 0677 00000000 		.4byte	.LFB68
 2924 067b 7C000000 		.4byte	.LFE68
 2925 067f 98010000 		.4byte	.LLST12
 2926 0683 B7060000 		.4byte	0x6b7
 2927 0687 1D       		.uleb128 0x1d
 2928 0688 44040000 		.4byte	.LASF86
 2929 068c 01       		.byte	0x1
 2930 068d 3801     		.2byte	0x138
 2931 068f E1020000 		.4byte	0x2e1
 2932 0693 B8010000 		.4byte	.LLST13
 2933 0697 21       		.uleb128 0x21
 2934 0698 657000   		.ascii	"ep\000"
 2935 069b 01       		.byte	0x1
 2936 069c 3801     		.2byte	0x138
 2937 069e C6010000 		.4byte	0x1c6
 2938 06a2 D6010000 		.4byte	.LLST14
 2939 06a6 1D       		.uleb128 0x1d
 2940 06a7 07040000 		.4byte	.LASF91
 2941 06ab 01       		.byte	0x1
 2942 06ac 3901     		.2byte	0x139
 2943 06ae 0C050000 		.4byte	0x50c
 2944 06b2 E9010000 		.4byte	.LLST15
 2945 06b6 00       		.byte	0x0
 2946 06b7 1C       		.uleb128 0x1c
 2947 06b8 01       		.byte	0x1
 2948 06b9 13050000 		.4byte	.LASF92
 2949 06bd 01       		.byte	0x1
 2950 06be 5801     		.2byte	0x158
 2951 06c0 01       		.byte	0x1
 2952 06c1 00000000 		.4byte	.LFB69
 2953 06c5 54000000 		.4byte	.LFE69
ARM GAS  /tmp/cc5uc8Mi.s 			page 54


 2954 06c9 07020000 		.4byte	.LLST16
 2955 06cd F0060000 		.4byte	0x6f0
 2956 06d1 1D       		.uleb128 0x1d
 2957 06d2 44040000 		.4byte	.LASF86
 2958 06d6 01       		.byte	0x1
 2959 06d7 5801     		.2byte	0x158
 2960 06d9 E1020000 		.4byte	0x2e1
 2961 06dd 27020000 		.4byte	.LLST17
 2962 06e1 1E       		.uleb128 0x1e
 2963 06e2 6900     		.ascii	"i\000"
 2964 06e4 01       		.byte	0x1
 2965 06e5 5901     		.2byte	0x159
 2966 06e7 4C000000 		.4byte	0x4c
 2967 06eb 45020000 		.4byte	.LLST18
 2968 06ef 00       		.byte	0x0
 2969 06f0 22       		.uleb128 0x22
 2970 06f1 01       		.byte	0x1
 2971 06f2 B3040000 		.4byte	.LASF93
 2972 06f6 01       		.byte	0x1
 2973 06f7 7601     		.2byte	0x176
 2974 06f9 01       		.byte	0x1
 2975 06fa AF000000 		.4byte	0xaf
 2976 06fe 00000000 		.4byte	.LFB70
 2977 0702 40000000 		.4byte	.LFE70
 2978 0706 59020000 		.4byte	.LLST19
 2979 070a 2E070000 		.4byte	0x72e
 2980 070e 1D       		.uleb128 0x1d
 2981 070f 44040000 		.4byte	.LASF86
 2982 0713 01       		.byte	0x1
 2983 0714 7601     		.2byte	0x176
 2984 0716 E1020000 		.4byte	0x2e1
 2985 071a 79020000 		.4byte	.LLST20
 2986 071e 21       		.uleb128 0x21
 2987 071f 657000   		.ascii	"ep\000"
 2988 0722 01       		.byte	0x1
 2989 0723 7601     		.2byte	0x176
 2990 0725 C6010000 		.4byte	0x1c6
 2991 0729 97020000 		.4byte	.LLST21
 2992 072d 00       		.byte	0x0
 2993 072e 22       		.uleb128 0x22
 2994 072f 01       		.byte	0x1
 2995 0730 A1000000 		.4byte	.LASF94
 2996 0734 01       		.byte	0x1
 2997 0735 9001     		.2byte	0x190
 2998 0737 01       		.byte	0x1
 2999 0738 AF000000 		.4byte	0xaf
 3000 073c 00000000 		.4byte	.LFB71
 3001 0740 40000000 		.4byte	.LFE71
 3002 0744 AA020000 		.4byte	.LLST22
 3003 0748 6C070000 		.4byte	0x76c
 3004 074c 1D       		.uleb128 0x1d
 3005 074d 44040000 		.4byte	.LASF86
 3006 0751 01       		.byte	0x1
 3007 0752 9001     		.2byte	0x190
 3008 0754 E1020000 		.4byte	0x2e1
 3009 0758 CA020000 		.4byte	.LLST23
 3010 075c 21       		.uleb128 0x21
ARM GAS  /tmp/cc5uc8Mi.s 			page 55


 3011 075d 657000   		.ascii	"ep\000"
 3012 0760 01       		.byte	0x1
 3013 0761 9001     		.2byte	0x190
 3014 0763 C6010000 		.4byte	0x1c6
 3015 0767 E8020000 		.4byte	.LLST24
 3016 076b 00       		.byte	0x0
 3017 076c 22       		.uleb128 0x22
 3018 076d 01       		.byte	0x1
 3019 076e 35010000 		.4byte	.LASF95
 3020 0772 01       		.byte	0x1
 3021 0773 A801     		.2byte	0x1a8
 3022 0775 01       		.byte	0x1
 3023 0776 AF000000 		.4byte	0xaf
 3024 077a 00000000 		.4byte	.LFB72
 3025 077e 34000000 		.4byte	.LFE72
 3026 0782 FB020000 		.4byte	.LLST25
 3027 0786 AA070000 		.4byte	0x7aa
 3028 078a 1D       		.uleb128 0x1d
 3029 078b 44040000 		.4byte	.LASF86
 3030 078f 01       		.byte	0x1
 3031 0790 A801     		.2byte	0x1a8
 3032 0792 E1020000 		.4byte	0x2e1
 3033 0796 1B030000 		.4byte	.LLST26
 3034 079a 21       		.uleb128 0x21
 3035 079b 657000   		.ascii	"ep\000"
 3036 079e 01       		.byte	0x1
 3037 079f A801     		.2byte	0x1a8
 3038 07a1 C6010000 		.4byte	0x1c6
 3039 07a5 39030000 		.4byte	.LLST27
 3040 07a9 00       		.byte	0x0
 3041 07aa 22       		.uleb128 0x22
 3042 07ab 01       		.byte	0x1
 3043 07ac 5E050000 		.4byte	.LASF96
 3044 07b0 01       		.byte	0x1
 3045 07b1 BF01     		.2byte	0x1bf
 3046 07b3 01       		.byte	0x1
 3047 07b4 AF000000 		.4byte	0xaf
 3048 07b8 00000000 		.4byte	.LFB73
 3049 07bc 34000000 		.4byte	.LFE73
 3050 07c0 4C030000 		.4byte	.LLST28
 3051 07c4 E8070000 		.4byte	0x7e8
 3052 07c8 1D       		.uleb128 0x1d
 3053 07c9 44040000 		.4byte	.LASF86
 3054 07cd 01       		.byte	0x1
 3055 07ce BF01     		.2byte	0x1bf
 3056 07d0 E1020000 		.4byte	0x2e1
 3057 07d4 6C030000 		.4byte	.LLST29
 3058 07d8 21       		.uleb128 0x21
 3059 07d9 657000   		.ascii	"ep\000"
 3060 07dc 01       		.byte	0x1
 3061 07dd BF01     		.2byte	0x1bf
 3062 07df C6010000 		.4byte	0x1c6
 3063 07e3 8A030000 		.4byte	.LLST30
 3064 07e7 00       		.byte	0x0
 3065 07e8 1C       		.uleb128 0x1c
 3066 07e9 01       		.byte	0x1
 3067 07ea A8040000 		.4byte	.LASF97
ARM GAS  /tmp/cc5uc8Mi.s 			page 56


 3068 07ee 01       		.byte	0x1
 3069 07ef D401     		.2byte	0x1d4
 3070 07f1 01       		.byte	0x1
 3071 07f2 00000000 		.4byte	.LFB74
 3072 07f6 32000000 		.4byte	.LFE74
 3073 07fa 9D030000 		.4byte	.LLST31
 3074 07fe 1F080000 		.4byte	0x81f
 3075 0802 23       		.uleb128 0x23
 3076 0803 44040000 		.4byte	.LASF86
 3077 0807 01       		.byte	0x1
 3078 0808 D401     		.2byte	0x1d4
 3079 080a E1020000 		.4byte	0x2e1
 3080 080e 01       		.byte	0x1
 3081 080f 50       		.byte	0x50
 3082 0810 1E       		.uleb128 0x1e
 3083 0811 6900     		.ascii	"i\000"
 3084 0813 01       		.byte	0x1
 3085 0814 D501     		.2byte	0x1d5
 3086 0816 4C000000 		.4byte	0x4c
 3087 081a BD030000 		.4byte	.LLST32
 3088 081e 00       		.byte	0x0
 3089 081f 24       		.uleb128 0x24
 3090 0820 FE020000 		.4byte	.LASF110
 3091 0824 01       		.byte	0x1
 3092 0825 59       		.byte	0x59
 3093 0826 01       		.byte	0x1
 3094 0827 AF000000 		.4byte	0xaf
 3095 082b 01       		.byte	0x1
 3096 082c 46080000 		.4byte	0x846
 3097 0830 25       		.uleb128 0x25
 3098 0831 44040000 		.4byte	.LASF86
 3099 0835 01       		.byte	0x1
 3100 0836 59       		.byte	0x59
 3101 0837 E1020000 		.4byte	0x2e1
 3102 083b 26       		.uleb128 0x26
 3103 083c 647000   		.ascii	"dp\000"
 3104 083f 01       		.byte	0x1
 3105 0840 5A       		.byte	0x5a
 3106 0841 80030000 		.4byte	0x380
 3107 0845 00       		.byte	0x0
 3108 0846 1C       		.uleb128 0x1c
 3109 0847 01       		.byte	0x1
 3110 0848 0C000000 		.4byte	.LASF98
 3111 084c 01       		.byte	0x1
 3112 084d F301     		.2byte	0x1f3
 3113 084f 01       		.byte	0x1
 3114 0850 00000000 		.4byte	.LFB75
 3115 0854 E8020000 		.4byte	.LFE75
 3116 0858 31040000 		.4byte	.LLST33
 3117 085c B9080000 		.4byte	0x8b9
 3118 0860 1D       		.uleb128 0x1d
 3119 0861 44040000 		.4byte	.LASF86
 3120 0865 01       		.byte	0x1
 3121 0866 F301     		.2byte	0x1f3
 3122 0868 E1020000 		.4byte	0x2e1
 3123 086c 51040000 		.4byte	.LLST34
 3124 0870 21       		.uleb128 0x21
ARM GAS  /tmp/cc5uc8Mi.s 			page 57


 3125 0871 657000   		.ascii	"ep\000"
 3126 0874 01       		.byte	0x1
 3127 0875 F301     		.2byte	0x1f3
 3128 0877 C6010000 		.4byte	0x1c6
 3129 087b 6F040000 		.4byte	.LLST35
 3130 087f 1E       		.uleb128 0x1e
 3131 0880 6D617800 		.ascii	"max\000"
 3132 0884 01       		.byte	0x1
 3133 0885 F401     		.2byte	0x1f4
 3134 0887 78000000 		.4byte	0x78
 3135 088b 82040000 		.4byte	.LLST36
 3136 088f 27       		.uleb128 0x27
 3137 0890 1F080000 		.4byte	0x81f
 3138 0894 8E000000 		.4byte	.LBB8
 3139 0898 00000000 		.4byte	.Ldebug_ranges0+0x0
 3140 089c 01       		.byte	0x1
 3141 089d 0002     		.2byte	0x200
 3142 089f 28       		.uleb128 0x28
 3143 08a0 30080000 		.4byte	0x830
 3144 08a4 B6040000 		.4byte	.LLST37
 3145 08a8 29       		.uleb128 0x29
 3146 08a9 18000000 		.4byte	.Ldebug_ranges0+0x18
 3147 08ad 2A       		.uleb128 0x2a
 3148 08ae 3B080000 		.4byte	0x83b
 3149 08b2 D4040000 		.4byte	.LLST38
 3150 08b6 00       		.byte	0x0
 3151 08b7 00       		.byte	0x0
 3152 08b8 00       		.byte	0x0
 3153 08b9 1C       		.uleb128 0x1c
 3154 08ba 01       		.byte	0x1
 3155 08bb 6B040000 		.4byte	.LASF99
 3156 08bf 01       		.byte	0x1
 3157 08c0 3F02     		.2byte	0x23f
 3158 08c2 01       		.byte	0x1
 3159 08c3 00000000 		.4byte	.LFB76
 3160 08c7 8C000000 		.4byte	.LFE76
 3161 08cb E7040000 		.4byte	.LLST39
 3162 08cf 03090000 		.4byte	0x903
 3163 08d3 1D       		.uleb128 0x1d
 3164 08d4 44040000 		.4byte	.LASF86
 3165 08d8 01       		.byte	0x1
 3166 08d9 3F02     		.2byte	0x23f
 3167 08db E1020000 		.4byte	0x2e1
 3168 08df 07050000 		.4byte	.LLST40
 3169 08e3 21       		.uleb128 0x21
 3170 08e4 657000   		.ascii	"ep\000"
 3171 08e7 01       		.byte	0x1
 3172 08e8 3F02     		.2byte	0x23f
 3173 08ea C6010000 		.4byte	0x1c6
 3174 08ee 25050000 		.4byte	.LLST41
 3175 08f2 1E       		.uleb128 0x1e
 3176 08f3 6D617800 		.ascii	"max\000"
 3177 08f7 01       		.byte	0x1
 3178 08f8 4002     		.2byte	0x240
 3179 08fa 78000000 		.4byte	0x78
 3180 08fe 4E050000 		.4byte	.LLST42
 3181 0902 00       		.byte	0x0
ARM GAS  /tmp/cc5uc8Mi.s 			page 58


 3182 0903 1C       		.uleb128 0x1c
 3183 0904 01       		.byte	0x1
 3184 0905 22010000 		.4byte	.LASF100
 3185 0909 01       		.byte	0x1
 3186 090a 7102     		.2byte	0x271
 3187 090c 01       		.byte	0x1
 3188 090d 00000000 		.4byte	.LFB77
 3189 0911 68000000 		.4byte	.LFE77
 3190 0915 70050000 		.4byte	.LLST43
 3191 0919 3D090000 		.4byte	0x93d
 3192 091d 1D       		.uleb128 0x1d
 3193 091e 44040000 		.4byte	.LASF86
 3194 0922 01       		.byte	0x1
 3195 0923 7102     		.2byte	0x271
 3196 0925 E1020000 		.4byte	0x2e1
 3197 0929 90050000 		.4byte	.LLST44
 3198 092d 21       		.uleb128 0x21
 3199 092e 657000   		.ascii	"ep\000"
 3200 0931 01       		.byte	0x1
 3201 0932 7102     		.2byte	0x271
 3202 0934 C6010000 		.4byte	0x1c6
 3203 0938 AE050000 		.4byte	.LLST45
 3204 093c 00       		.byte	0x0
 3205 093d 2B       		.uleb128 0x2b
 3206 093e DC040000 		.4byte	.LASF104
 3207 0942 07       		.byte	0x7
 3208 0943 9404     		.2byte	0x494
 3209 0945 CB000000 		.4byte	0xcb
 3210 0949 01       		.byte	0x1
 3211 094a 01       		.byte	0x1
 3212 094b 15       		.uleb128 0x15
 3213 094c 83000000 		.4byte	0x83
 3214 0950 5B090000 		.4byte	0x95b
 3215 0954 16       		.uleb128 0x16
 3216 0955 4C000000 		.4byte	0x4c
 3217 0959 01       		.byte	0x1
 3218 095a 00       		.byte	0x0
 3219 095b 2C       		.uleb128 0x2c
 3220 095c 00000000 		.4byte	.LASF101
 3221 0960 01       		.byte	0x1
 3222 0961 38       		.byte	0x38
 3223 0962 6C090000 		.4byte	0x96c
 3224 0966 05       		.byte	0x5
 3225 0967 03       		.byte	0x3
 3226 0968 00000000 		.4byte	zero_status
 3227 096c 07       		.uleb128 0x7
 3228 096d 4B090000 		.4byte	0x94b
 3229 0971 2C       		.uleb128 0x2c
 3230 0972 70030000 		.4byte	.LASF102
 3231 0976 01       		.byte	0x1
 3232 0977 39       		.byte	0x39
 3233 0978 82090000 		.4byte	0x982
 3234 097c 05       		.byte	0x5
 3235 097d 03       		.byte	0x3
 3236 097e 00000000 		.4byte	active_status
 3237 0982 07       		.uleb128 0x7
 3238 0983 4B090000 		.4byte	0x94b
ARM GAS  /tmp/cc5uc8Mi.s 			page 59


 3239 0987 2C       		.uleb128 0x2c
 3240 0988 CB030000 		.4byte	.LASF103
 3241 098c 01       		.byte	0x1
 3242 098d 3A       		.byte	0x3a
 3243 098e 98090000 		.4byte	0x998
 3244 0992 05       		.byte	0x5
 3245 0993 03       		.byte	0x3
 3246 0994 00000000 		.4byte	halted_status
 3247 0998 07       		.uleb128 0x7
 3248 0999 4B090000 		.4byte	0x94b
 3249 099d 2B       		.uleb128 0x2b
 3250 099e DC040000 		.4byte	.LASF104
 3251 09a2 07       		.byte	0x7
 3252 09a3 9404     		.2byte	0x494
 3253 09a5 CB000000 		.4byte	0xcb
 3254 09a9 01       		.byte	0x1
 3255 09aa 01       		.byte	0x1
 3256 09ab 00       		.byte	0x0
 3257              		.section	.debug_abbrev
 3258 0000 01       		.uleb128 0x1
 3259 0001 11       		.uleb128 0x11
 3260 0002 01       		.byte	0x1
 3261 0003 25       		.uleb128 0x25
 3262 0004 0E       		.uleb128 0xe
 3263 0005 13       		.uleb128 0x13
 3264 0006 0B       		.uleb128 0xb
 3265 0007 03       		.uleb128 0x3
 3266 0008 0E       		.uleb128 0xe
 3267 0009 1B       		.uleb128 0x1b
 3268 000a 0E       		.uleb128 0xe
 3269 000b 11       		.uleb128 0x11
 3270 000c 01       		.uleb128 0x1
 3271 000d 52       		.uleb128 0x52
 3272 000e 01       		.uleb128 0x1
 3273 000f 55       		.uleb128 0x55
 3274 0010 06       		.uleb128 0x6
 3275 0011 10       		.uleb128 0x10
 3276 0012 06       		.uleb128 0x6
 3277 0013 00       		.byte	0x0
 3278 0014 00       		.byte	0x0
 3279 0015 02       		.uleb128 0x2
 3280 0016 24       		.uleb128 0x24
 3281 0017 00       		.byte	0x0
 3282 0018 0B       		.uleb128 0xb
 3283 0019 0B       		.uleb128 0xb
 3284 001a 3E       		.uleb128 0x3e
 3285 001b 0B       		.uleb128 0xb
 3286 001c 03       		.uleb128 0x3
 3287 001d 0E       		.uleb128 0xe
 3288 001e 00       		.byte	0x0
 3289 001f 00       		.byte	0x0
 3290 0020 03       		.uleb128 0x3
 3291 0021 24       		.uleb128 0x24
 3292 0022 00       		.byte	0x0
 3293 0023 0B       		.uleb128 0xb
 3294 0024 0B       		.uleb128 0xb
 3295 0025 3E       		.uleb128 0x3e
ARM GAS  /tmp/cc5uc8Mi.s 			page 60


 3296 0026 0B       		.uleb128 0xb
 3297 0027 03       		.uleb128 0x3
 3298 0028 08       		.uleb128 0x8
 3299 0029 00       		.byte	0x0
 3300 002a 00       		.byte	0x0
 3301 002b 04       		.uleb128 0x4
 3302 002c 0F       		.uleb128 0xf
 3303 002d 00       		.byte	0x0
 3304 002e 0B       		.uleb128 0xb
 3305 002f 0B       		.uleb128 0xb
 3306 0030 00       		.byte	0x0
 3307 0031 00       		.byte	0x0
 3308 0032 05       		.uleb128 0x5
 3309 0033 16       		.uleb128 0x16
 3310 0034 00       		.byte	0x0
 3311 0035 03       		.uleb128 0x3
 3312 0036 0E       		.uleb128 0xe
 3313 0037 3A       		.uleb128 0x3a
 3314 0038 0B       		.uleb128 0xb
 3315 0039 3B       		.uleb128 0x3b
 3316 003a 0B       		.uleb128 0xb
 3317 003b 49       		.uleb128 0x49
 3318 003c 13       		.uleb128 0x13
 3319 003d 00       		.byte	0x0
 3320 003e 00       		.byte	0x0
 3321 003f 06       		.uleb128 0x6
 3322 0040 0F       		.uleb128 0xf
 3323 0041 00       		.byte	0x0
 3324 0042 0B       		.uleb128 0xb
 3325 0043 0B       		.uleb128 0xb
 3326 0044 49       		.uleb128 0x49
 3327 0045 13       		.uleb128 0x13
 3328 0046 00       		.byte	0x0
 3329 0047 00       		.byte	0x0
 3330 0048 07       		.uleb128 0x7
 3331 0049 26       		.uleb128 0x26
 3332 004a 00       		.byte	0x0
 3333 004b 49       		.uleb128 0x49
 3334 004c 13       		.uleb128 0x13
 3335 004d 00       		.byte	0x0
 3336 004e 00       		.byte	0x0
 3337 004f 08       		.uleb128 0x8
 3338 0050 35       		.uleb128 0x35
 3339 0051 00       		.byte	0x0
 3340 0052 49       		.uleb128 0x49
 3341 0053 13       		.uleb128 0x13
 3342 0054 00       		.byte	0x0
 3343 0055 00       		.byte	0x0
 3344 0056 09       		.uleb128 0x9
 3345 0057 13       		.uleb128 0x13
 3346 0058 01       		.byte	0x1
 3347 0059 03       		.uleb128 0x3
 3348 005a 0E       		.uleb128 0xe
 3349 005b 0B       		.uleb128 0xb
 3350 005c 0B       		.uleb128 0xb
 3351 005d 3A       		.uleb128 0x3a
 3352 005e 0B       		.uleb128 0xb
ARM GAS  /tmp/cc5uc8Mi.s 			page 61


 3353 005f 3B       		.uleb128 0x3b
 3354 0060 0B       		.uleb128 0xb
 3355 0061 01       		.uleb128 0x1
 3356 0062 13       		.uleb128 0x13
 3357 0063 00       		.byte	0x0
 3358 0064 00       		.byte	0x0
 3359 0065 0A       		.uleb128 0xa
 3360 0066 0D       		.uleb128 0xd
 3361 0067 00       		.byte	0x0
 3362 0068 03       		.uleb128 0x3
 3363 0069 0E       		.uleb128 0xe
 3364 006a 3A       		.uleb128 0x3a
 3365 006b 0B       		.uleb128 0xb
 3366 006c 3B       		.uleb128 0x3b
 3367 006d 0B       		.uleb128 0xb
 3368 006e 49       		.uleb128 0x49
 3369 006f 13       		.uleb128 0x13
 3370 0070 38       		.uleb128 0x38
 3371 0071 0A       		.uleb128 0xa
 3372 0072 00       		.byte	0x0
 3373 0073 00       		.byte	0x0
 3374 0074 0B       		.uleb128 0xb
 3375 0075 0D       		.uleb128 0xd
 3376 0076 00       		.byte	0x0
 3377 0077 03       		.uleb128 0x3
 3378 0078 0E       		.uleb128 0xe
 3379 0079 3A       		.uleb128 0x3a
 3380 007a 0B       		.uleb128 0xb
 3381 007b 3B       		.uleb128 0x3b
 3382 007c 05       		.uleb128 0x5
 3383 007d 49       		.uleb128 0x49
 3384 007e 13       		.uleb128 0x13
 3385 007f 38       		.uleb128 0x38
 3386 0080 0A       		.uleb128 0xa
 3387 0081 00       		.byte	0x0
 3388 0082 00       		.byte	0x0
 3389 0083 0C       		.uleb128 0xc
 3390 0084 0D       		.uleb128 0xd
 3391 0085 00       		.byte	0x0
 3392 0086 03       		.uleb128 0x3
 3393 0087 08       		.uleb128 0x8
 3394 0088 3A       		.uleb128 0x3a
 3395 0089 0B       		.uleb128 0xb
 3396 008a 3B       		.uleb128 0x3b
 3397 008b 05       		.uleb128 0x5
 3398 008c 49       		.uleb128 0x49
 3399 008d 13       		.uleb128 0x13
 3400 008e 38       		.uleb128 0x38
 3401 008f 0A       		.uleb128 0xa
 3402 0090 00       		.byte	0x0
 3403 0091 00       		.byte	0x0
 3404 0092 0D       		.uleb128 0xd
 3405 0093 04       		.uleb128 0x4
 3406 0094 01       		.byte	0x1
 3407 0095 0B       		.uleb128 0xb
 3408 0096 0B       		.uleb128 0xb
 3409 0097 3A       		.uleb128 0x3a
ARM GAS  /tmp/cc5uc8Mi.s 			page 62


 3410 0098 0B       		.uleb128 0xb
 3411 0099 3B       		.uleb128 0x3b
 3412 009a 0B       		.uleb128 0xb
 3413 009b 01       		.uleb128 0x1
 3414 009c 13       		.uleb128 0x13
 3415 009d 00       		.byte	0x0
 3416 009e 00       		.byte	0x0
 3417 009f 0E       		.uleb128 0xe
 3418 00a0 28       		.uleb128 0x28
 3419 00a1 00       		.byte	0x0
 3420 00a2 03       		.uleb128 0x3
 3421 00a3 0E       		.uleb128 0xe
 3422 00a4 1C       		.uleb128 0x1c
 3423 00a5 0D       		.uleb128 0xd
 3424 00a6 00       		.byte	0x0
 3425 00a7 00       		.byte	0x0
 3426 00a8 0F       		.uleb128 0xf
 3427 00a9 16       		.uleb128 0x16
 3428 00aa 00       		.byte	0x0
 3429 00ab 03       		.uleb128 0x3
 3430 00ac 0E       		.uleb128 0xe
 3431 00ad 3A       		.uleb128 0x3a
 3432 00ae 0B       		.uleb128 0xb
 3433 00af 3B       		.uleb128 0x3b
 3434 00b0 05       		.uleb128 0x5
 3435 00b1 49       		.uleb128 0x49
 3436 00b2 13       		.uleb128 0x13
 3437 00b3 00       		.byte	0x0
 3438 00b4 00       		.byte	0x0
 3439 00b5 10       		.uleb128 0x10
 3440 00b6 13       		.uleb128 0x13
 3441 00b7 01       		.byte	0x1
 3442 00b8 0B       		.uleb128 0xb
 3443 00b9 0B       		.uleb128 0xb
 3444 00ba 3A       		.uleb128 0x3a
 3445 00bb 0B       		.uleb128 0xb
 3446 00bc 3B       		.uleb128 0x3b
 3447 00bd 05       		.uleb128 0x5
 3448 00be 01       		.uleb128 0x1
 3449 00bf 13       		.uleb128 0x13
 3450 00c0 00       		.byte	0x0
 3451 00c1 00       		.byte	0x0
 3452 00c2 11       		.uleb128 0x11
 3453 00c3 15       		.uleb128 0x15
 3454 00c4 01       		.byte	0x1
 3455 00c5 27       		.uleb128 0x27
 3456 00c6 0C       		.uleb128 0xc
 3457 00c7 01       		.uleb128 0x1
 3458 00c8 13       		.uleb128 0x13
 3459 00c9 00       		.byte	0x0
 3460 00ca 00       		.byte	0x0
 3461 00cb 12       		.uleb128 0x12
 3462 00cc 05       		.uleb128 0x5
 3463 00cd 00       		.byte	0x0
 3464 00ce 49       		.uleb128 0x49
 3465 00cf 13       		.uleb128 0x13
 3466 00d0 00       		.byte	0x0
ARM GAS  /tmp/cc5uc8Mi.s 			page 63


 3467 00d1 00       		.byte	0x0
 3468 00d2 13       		.uleb128 0x13
 3469 00d3 15       		.uleb128 0x15
 3470 00d4 01       		.byte	0x1
 3471 00d5 27       		.uleb128 0x27
 3472 00d6 0C       		.uleb128 0xc
 3473 00d7 49       		.uleb128 0x49
 3474 00d8 13       		.uleb128 0x13
 3475 00d9 01       		.uleb128 0x1
 3476 00da 13       		.uleb128 0x13
 3477 00db 00       		.byte	0x0
 3478 00dc 00       		.byte	0x0
 3479 00dd 14       		.uleb128 0x14
 3480 00de 13       		.uleb128 0x13
 3481 00df 01       		.byte	0x1
 3482 00e0 0B       		.uleb128 0xb
 3483 00e1 0B       		.uleb128 0xb
 3484 00e2 3A       		.uleb128 0x3a
 3485 00e3 0B       		.uleb128 0xb
 3486 00e4 3B       		.uleb128 0x3b
 3487 00e5 0B       		.uleb128 0xb
 3488 00e6 01       		.uleb128 0x1
 3489 00e7 13       		.uleb128 0x13
 3490 00e8 00       		.byte	0x0
 3491 00e9 00       		.byte	0x0
 3492 00ea 15       		.uleb128 0x15
 3493 00eb 01       		.uleb128 0x1
 3494 00ec 01       		.byte	0x1
 3495 00ed 49       		.uleb128 0x49
 3496 00ee 13       		.uleb128 0x13
 3497 00ef 01       		.uleb128 0x1
 3498 00f0 13       		.uleb128 0x13
 3499 00f1 00       		.byte	0x0
 3500 00f2 00       		.byte	0x0
 3501 00f3 16       		.uleb128 0x16
 3502 00f4 21       		.uleb128 0x21
 3503 00f5 00       		.byte	0x0
 3504 00f6 49       		.uleb128 0x49
 3505 00f7 13       		.uleb128 0x13
 3506 00f8 2F       		.uleb128 0x2f
 3507 00f9 0B       		.uleb128 0xb
 3508 00fa 00       		.byte	0x0
 3509 00fb 00       		.byte	0x0
 3510 00fc 17       		.uleb128 0x17
 3511 00fd 2E       		.uleb128 0x2e
 3512 00fe 01       		.byte	0x1
 3513 00ff 03       		.uleb128 0x3
 3514 0100 0E       		.uleb128 0xe
 3515 0101 3A       		.uleb128 0x3a
 3516 0102 0B       		.uleb128 0xb
 3517 0103 3B       		.uleb128 0x3b
 3518 0104 0B       		.uleb128 0xb
 3519 0105 27       		.uleb128 0x27
 3520 0106 0C       		.uleb128 0xc
 3521 0107 11       		.uleb128 0x11
 3522 0108 01       		.uleb128 0x1
 3523 0109 12       		.uleb128 0x12
ARM GAS  /tmp/cc5uc8Mi.s 			page 64


 3524 010a 01       		.uleb128 0x1
 3525 010b 40       		.uleb128 0x40
 3526 010c 06       		.uleb128 0x6
 3527 010d 01       		.uleb128 0x1
 3528 010e 13       		.uleb128 0x13
 3529 010f 00       		.byte	0x0
 3530 0110 00       		.byte	0x0
 3531 0111 18       		.uleb128 0x18
 3532 0112 05       		.uleb128 0x5
 3533 0113 00       		.byte	0x0
 3534 0114 03       		.uleb128 0x3
 3535 0115 0E       		.uleb128 0xe
 3536 0116 3A       		.uleb128 0x3a
 3537 0117 0B       		.uleb128 0xb
 3538 0118 3B       		.uleb128 0x3b
 3539 0119 0B       		.uleb128 0xb
 3540 011a 49       		.uleb128 0x49
 3541 011b 13       		.uleb128 0x13
 3542 011c 02       		.uleb128 0x2
 3543 011d 06       		.uleb128 0x6
 3544 011e 00       		.byte	0x0
 3545 011f 00       		.byte	0x0
 3546 0120 19       		.uleb128 0x19
 3547 0121 2E       		.uleb128 0x2e
 3548 0122 00       		.byte	0x0
 3549 0123 3F       		.uleb128 0x3f
 3550 0124 0C       		.uleb128 0xc
 3551 0125 03       		.uleb128 0x3
 3552 0126 0E       		.uleb128 0xe
 3553 0127 3A       		.uleb128 0x3a
 3554 0128 0B       		.uleb128 0xb
 3555 0129 3B       		.uleb128 0x3b
 3556 012a 0B       		.uleb128 0xb
 3557 012b 27       		.uleb128 0x27
 3558 012c 0C       		.uleb128 0xc
 3559 012d 11       		.uleb128 0x11
 3560 012e 01       		.uleb128 0x1
 3561 012f 12       		.uleb128 0x12
 3562 0130 01       		.uleb128 0x1
 3563 0131 40       		.uleb128 0x40
 3564 0132 0A       		.uleb128 0xa
 3565 0133 00       		.byte	0x0
 3566 0134 00       		.byte	0x0
 3567 0135 1A       		.uleb128 0x1a
 3568 0136 2E       		.uleb128 0x2e
 3569 0137 01       		.byte	0x1
 3570 0138 3F       		.uleb128 0x3f
 3571 0139 0C       		.uleb128 0xc
 3572 013a 03       		.uleb128 0x3
 3573 013b 0E       		.uleb128 0xe
 3574 013c 3A       		.uleb128 0x3a
 3575 013d 0B       		.uleb128 0xb
 3576 013e 3B       		.uleb128 0x3b
 3577 013f 0B       		.uleb128 0xb
 3578 0140 27       		.uleb128 0x27
 3579 0141 0C       		.uleb128 0xc
 3580 0142 11       		.uleb128 0x11
ARM GAS  /tmp/cc5uc8Mi.s 			page 65


 3581 0143 01       		.uleb128 0x1
 3582 0144 12       		.uleb128 0x12
 3583 0145 01       		.uleb128 0x1
 3584 0146 40       		.uleb128 0x40
 3585 0147 0A       		.uleb128 0xa
 3586 0148 01       		.uleb128 0x1
 3587 0149 13       		.uleb128 0x13
 3588 014a 00       		.byte	0x0
 3589 014b 00       		.byte	0x0
 3590 014c 1B       		.uleb128 0x1b
 3591 014d 05       		.uleb128 0x5
 3592 014e 00       		.byte	0x0
 3593 014f 03       		.uleb128 0x3
 3594 0150 0E       		.uleb128 0xe
 3595 0151 3A       		.uleb128 0x3a
 3596 0152 0B       		.uleb128 0xb
 3597 0153 3B       		.uleb128 0x3b
 3598 0154 0B       		.uleb128 0xb
 3599 0155 49       		.uleb128 0x49
 3600 0156 13       		.uleb128 0x13
 3601 0157 02       		.uleb128 0x2
 3602 0158 0A       		.uleb128 0xa
 3603 0159 00       		.byte	0x0
 3604 015a 00       		.byte	0x0
 3605 015b 1C       		.uleb128 0x1c
 3606 015c 2E       		.uleb128 0x2e
 3607 015d 01       		.byte	0x1
 3608 015e 3F       		.uleb128 0x3f
 3609 015f 0C       		.uleb128 0xc
 3610 0160 03       		.uleb128 0x3
 3611 0161 0E       		.uleb128 0xe
 3612 0162 3A       		.uleb128 0x3a
 3613 0163 0B       		.uleb128 0xb
 3614 0164 3B       		.uleb128 0x3b
 3615 0165 05       		.uleb128 0x5
 3616 0166 27       		.uleb128 0x27
 3617 0167 0C       		.uleb128 0xc
 3618 0168 11       		.uleb128 0x11
 3619 0169 01       		.uleb128 0x1
 3620 016a 12       		.uleb128 0x12
 3621 016b 01       		.uleb128 0x1
 3622 016c 40       		.uleb128 0x40
 3623 016d 06       		.uleb128 0x6
 3624 016e 01       		.uleb128 0x1
 3625 016f 13       		.uleb128 0x13
 3626 0170 00       		.byte	0x0
 3627 0171 00       		.byte	0x0
 3628 0172 1D       		.uleb128 0x1d
 3629 0173 05       		.uleb128 0x5
 3630 0174 00       		.byte	0x0
 3631 0175 03       		.uleb128 0x3
 3632 0176 0E       		.uleb128 0xe
 3633 0177 3A       		.uleb128 0x3a
 3634 0178 0B       		.uleb128 0xb
 3635 0179 3B       		.uleb128 0x3b
 3636 017a 05       		.uleb128 0x5
 3637 017b 49       		.uleb128 0x49
ARM GAS  /tmp/cc5uc8Mi.s 			page 66


 3638 017c 13       		.uleb128 0x13
 3639 017d 02       		.uleb128 0x2
 3640 017e 06       		.uleb128 0x6
 3641 017f 00       		.byte	0x0
 3642 0180 00       		.byte	0x0
 3643 0181 1E       		.uleb128 0x1e
 3644 0182 34       		.uleb128 0x34
 3645 0183 00       		.byte	0x0
 3646 0184 03       		.uleb128 0x3
 3647 0185 08       		.uleb128 0x8
 3648 0186 3A       		.uleb128 0x3a
 3649 0187 0B       		.uleb128 0xb
 3650 0188 3B       		.uleb128 0x3b
 3651 0189 05       		.uleb128 0x5
 3652 018a 49       		.uleb128 0x49
 3653 018b 13       		.uleb128 0x13
 3654 018c 02       		.uleb128 0x2
 3655 018d 06       		.uleb128 0x6
 3656 018e 00       		.byte	0x0
 3657 018f 00       		.byte	0x0
 3658 0190 1F       		.uleb128 0x1f
 3659 0191 0B       		.uleb128 0xb
 3660 0192 01       		.byte	0x1
 3661 0193 11       		.uleb128 0x11
 3662 0194 01       		.uleb128 0x1
 3663 0195 12       		.uleb128 0x12
 3664 0196 01       		.uleb128 0x1
 3665 0197 01       		.uleb128 0x1
 3666 0198 13       		.uleb128 0x13
 3667 0199 00       		.byte	0x0
 3668 019a 00       		.byte	0x0
 3669 019b 20       		.uleb128 0x20
 3670 019c 0B       		.uleb128 0xb
 3671 019d 01       		.byte	0x1
 3672 019e 11       		.uleb128 0x11
 3673 019f 01       		.uleb128 0x1
 3674 01a0 12       		.uleb128 0x12
 3675 01a1 01       		.uleb128 0x1
 3676 01a2 00       		.byte	0x0
 3677 01a3 00       		.byte	0x0
 3678 01a4 21       		.uleb128 0x21
 3679 01a5 05       		.uleb128 0x5
 3680 01a6 00       		.byte	0x0
 3681 01a7 03       		.uleb128 0x3
 3682 01a8 08       		.uleb128 0x8
 3683 01a9 3A       		.uleb128 0x3a
 3684 01aa 0B       		.uleb128 0xb
 3685 01ab 3B       		.uleb128 0x3b
 3686 01ac 05       		.uleb128 0x5
 3687 01ad 49       		.uleb128 0x49
 3688 01ae 13       		.uleb128 0x13
 3689 01af 02       		.uleb128 0x2
 3690 01b0 06       		.uleb128 0x6
 3691 01b1 00       		.byte	0x0
 3692 01b2 00       		.byte	0x0
 3693 01b3 22       		.uleb128 0x22
 3694 01b4 2E       		.uleb128 0x2e
ARM GAS  /tmp/cc5uc8Mi.s 			page 67


 3695 01b5 01       		.byte	0x1
 3696 01b6 3F       		.uleb128 0x3f
 3697 01b7 0C       		.uleb128 0xc
 3698 01b8 03       		.uleb128 0x3
 3699 01b9 0E       		.uleb128 0xe
 3700 01ba 3A       		.uleb128 0x3a
 3701 01bb 0B       		.uleb128 0xb
 3702 01bc 3B       		.uleb128 0x3b
 3703 01bd 05       		.uleb128 0x5
 3704 01be 27       		.uleb128 0x27
 3705 01bf 0C       		.uleb128 0xc
 3706 01c0 49       		.uleb128 0x49
 3707 01c1 13       		.uleb128 0x13
 3708 01c2 11       		.uleb128 0x11
 3709 01c3 01       		.uleb128 0x1
 3710 01c4 12       		.uleb128 0x12
 3711 01c5 01       		.uleb128 0x1
 3712 01c6 40       		.uleb128 0x40
 3713 01c7 06       		.uleb128 0x6
 3714 01c8 01       		.uleb128 0x1
 3715 01c9 13       		.uleb128 0x13
 3716 01ca 00       		.byte	0x0
 3717 01cb 00       		.byte	0x0
 3718 01cc 23       		.uleb128 0x23
 3719 01cd 05       		.uleb128 0x5
 3720 01ce 00       		.byte	0x0
 3721 01cf 03       		.uleb128 0x3
 3722 01d0 0E       		.uleb128 0xe
 3723 01d1 3A       		.uleb128 0x3a
 3724 01d2 0B       		.uleb128 0xb
 3725 01d3 3B       		.uleb128 0x3b
 3726 01d4 05       		.uleb128 0x5
 3727 01d5 49       		.uleb128 0x49
 3728 01d6 13       		.uleb128 0x13
 3729 01d7 02       		.uleb128 0x2
 3730 01d8 0A       		.uleb128 0xa
 3731 01d9 00       		.byte	0x0
 3732 01da 00       		.byte	0x0
 3733 01db 24       		.uleb128 0x24
 3734 01dc 2E       		.uleb128 0x2e
 3735 01dd 01       		.byte	0x1
 3736 01de 03       		.uleb128 0x3
 3737 01df 0E       		.uleb128 0xe
 3738 01e0 3A       		.uleb128 0x3a
 3739 01e1 0B       		.uleb128 0xb
 3740 01e2 3B       		.uleb128 0x3b
 3741 01e3 0B       		.uleb128 0xb
 3742 01e4 27       		.uleb128 0x27
 3743 01e5 0C       		.uleb128 0xc
 3744 01e6 49       		.uleb128 0x49
 3745 01e7 13       		.uleb128 0x13
 3746 01e8 20       		.uleb128 0x20
 3747 01e9 0B       		.uleb128 0xb
 3748 01ea 01       		.uleb128 0x1
 3749 01eb 13       		.uleb128 0x13
 3750 01ec 00       		.byte	0x0
 3751 01ed 00       		.byte	0x0
ARM GAS  /tmp/cc5uc8Mi.s 			page 68


 3752 01ee 25       		.uleb128 0x25
 3753 01ef 05       		.uleb128 0x5
 3754 01f0 00       		.byte	0x0
 3755 01f1 03       		.uleb128 0x3
 3756 01f2 0E       		.uleb128 0xe
 3757 01f3 3A       		.uleb128 0x3a
 3758 01f4 0B       		.uleb128 0xb
 3759 01f5 3B       		.uleb128 0x3b
 3760 01f6 0B       		.uleb128 0xb
 3761 01f7 49       		.uleb128 0x49
 3762 01f8 13       		.uleb128 0x13
 3763 01f9 00       		.byte	0x0
 3764 01fa 00       		.byte	0x0
 3765 01fb 26       		.uleb128 0x26
 3766 01fc 34       		.uleb128 0x34
 3767 01fd 00       		.byte	0x0
 3768 01fe 03       		.uleb128 0x3
 3769 01ff 08       		.uleb128 0x8
 3770 0200 3A       		.uleb128 0x3a
 3771 0201 0B       		.uleb128 0xb
 3772 0202 3B       		.uleb128 0x3b
 3773 0203 0B       		.uleb128 0xb
 3774 0204 49       		.uleb128 0x49
 3775 0205 13       		.uleb128 0x13
 3776 0206 00       		.byte	0x0
 3777 0207 00       		.byte	0x0
 3778 0208 27       		.uleb128 0x27
 3779 0209 1D       		.uleb128 0x1d
 3780 020a 01       		.byte	0x1
 3781 020b 31       		.uleb128 0x31
 3782 020c 13       		.uleb128 0x13
 3783 020d 52       		.uleb128 0x52
 3784 020e 01       		.uleb128 0x1
 3785 020f 55       		.uleb128 0x55
 3786 0210 06       		.uleb128 0x6
 3787 0211 58       		.uleb128 0x58
 3788 0212 0B       		.uleb128 0xb
 3789 0213 59       		.uleb128 0x59
 3790 0214 05       		.uleb128 0x5
 3791 0215 00       		.byte	0x0
 3792 0216 00       		.byte	0x0
 3793 0217 28       		.uleb128 0x28
 3794 0218 05       		.uleb128 0x5
 3795 0219 00       		.byte	0x0
 3796 021a 31       		.uleb128 0x31
 3797 021b 13       		.uleb128 0x13
 3798 021c 02       		.uleb128 0x2
 3799 021d 06       		.uleb128 0x6
 3800 021e 00       		.byte	0x0
 3801 021f 00       		.byte	0x0
 3802 0220 29       		.uleb128 0x29
 3803 0221 0B       		.uleb128 0xb
 3804 0222 01       		.byte	0x1
 3805 0223 55       		.uleb128 0x55
 3806 0224 06       		.uleb128 0x6
 3807 0225 00       		.byte	0x0
 3808 0226 00       		.byte	0x0
ARM GAS  /tmp/cc5uc8Mi.s 			page 69


 3809 0227 2A       		.uleb128 0x2a
 3810 0228 34       		.uleb128 0x34
 3811 0229 00       		.byte	0x0
 3812 022a 31       		.uleb128 0x31
 3813 022b 13       		.uleb128 0x13
 3814 022c 02       		.uleb128 0x2
 3815 022d 06       		.uleb128 0x6
 3816 022e 00       		.byte	0x0
 3817 022f 00       		.byte	0x0
 3818 0230 2B       		.uleb128 0x2b
 3819 0231 34       		.uleb128 0x34
 3820 0232 00       		.byte	0x0
 3821 0233 03       		.uleb128 0x3
 3822 0234 0E       		.uleb128 0xe
 3823 0235 3A       		.uleb128 0x3a
 3824 0236 0B       		.uleb128 0xb
 3825 0237 3B       		.uleb128 0x3b
 3826 0238 05       		.uleb128 0x5
 3827 0239 49       		.uleb128 0x49
 3828 023a 13       		.uleb128 0x13
 3829 023b 3F       		.uleb128 0x3f
 3830 023c 0C       		.uleb128 0xc
 3831 023d 3C       		.uleb128 0x3c
 3832 023e 0C       		.uleb128 0xc
 3833 023f 00       		.byte	0x0
 3834 0240 00       		.byte	0x0
 3835 0241 2C       		.uleb128 0x2c
 3836 0242 34       		.uleb128 0x34
 3837 0243 00       		.byte	0x0
 3838 0244 03       		.uleb128 0x3
 3839 0245 0E       		.uleb128 0xe
 3840 0246 3A       		.uleb128 0x3a
 3841 0247 0B       		.uleb128 0xb
 3842 0248 3B       		.uleb128 0x3b
 3843 0249 0B       		.uleb128 0xb
 3844 024a 49       		.uleb128 0x49
 3845 024b 13       		.uleb128 0x13
 3846 024c 02       		.uleb128 0x2
 3847 024d 0A       		.uleb128 0xa
 3848 024e 00       		.byte	0x0
 3849 024f 00       		.byte	0x0
 3850 0250 00       		.byte	0x0
 3851              		.section	.debug_pubnames,"",%progbits
 3852 0000 09010000 		.4byte	0x109
 3853 0004 0200     		.2byte	0x2
 3854 0006 00000000 		.4byte	.Ldebug_info0
 3855 000a AC090000 		.4byte	0x9ac
 3856 000e 4F050000 		.4byte	0x54f
 3857 0012 75736249 		.ascii	"usbInit\000"
 3857      6E697400 
 3858 001a 63050000 		.4byte	0x563
 3859 001e 7573624F 		.ascii	"usbObjectInit\000"
 3859      626A6563 
 3859      74496E69 
 3859      7400
 3860 002c 89050000 		.4byte	0x589
 3861 0030 75736253 		.ascii	"usbStart\000"
ARM GAS  /tmp/cc5uc8Mi.s 			page 70


 3861      74617274 
 3861      00
 3862 0039 0A060000 		.4byte	0x60a
 3863 003d 75736253 		.ascii	"usbStop\000"
 3863      746F7000 
 3864 0045 6D060000 		.4byte	0x66d
 3865 0049 75736249 		.ascii	"usbInitEndpointI\000"
 3865      6E697445 
 3865      6E64706F 
 3865      696E7449 
 3865      00
 3866 005a B7060000 		.4byte	0x6b7
 3867 005e 75736244 		.ascii	"usbDisableEndpointsI\000"
 3867      69736162 
 3867      6C65456E 
 3867      64706F69 
 3867      6E747349 
 3868 0073 F0060000 		.4byte	0x6f0
 3869 0077 75736253 		.ascii	"usbStartReceiveI\000"
 3869      74617274 
 3869      52656365 
 3869      69766549 
 3869      00
 3870 0088 2E070000 		.4byte	0x72e
 3871 008c 75736253 		.ascii	"usbStartTransmitI\000"
 3871      74617274 
 3871      5472616E 
 3871      736D6974 
 3871      4900
 3872 009e 6C070000 		.4byte	0x76c
 3873 00a2 75736253 		.ascii	"usbStallReceiveI\000"
 3873      74616C6C 
 3873      52656365 
 3873      69766549 
 3873      00
 3874 00b3 AA070000 		.4byte	0x7aa
 3875 00b7 75736253 		.ascii	"usbStallTransmitI\000"
 3875      74616C6C 
 3875      5472616E 
 3875      736D6974 
 3875      4900
 3876 00c9 E8070000 		.4byte	0x7e8
 3877 00cd 5F757362 		.ascii	"_usb_reset\000"
 3877      5F726573 
 3877      657400
 3878 00d8 46080000 		.4byte	0x846
 3879 00dc 5F757362 		.ascii	"_usb_ep0setup\000"
 3879      5F657030 
 3879      73657475 
 3879      7000
 3880 00ea B9080000 		.4byte	0x8b9
 3881 00ee 5F757362 		.ascii	"_usb_ep0in\000"
 3881      5F657030 
 3881      696E00
 3882 00f9 03090000 		.4byte	0x903
 3883 00fd 5F757362 		.ascii	"_usb_ep0out\000"
 3883      5F657030 
ARM GAS  /tmp/cc5uc8Mi.s 			page 71


 3883      6F757400 
 3884 0109 00000000 		.4byte	0x0
 3885              		.section	.debug_pubtypes,"",%progbits
 3886 0000 75010000 		.4byte	0x175
 3887 0004 0200     		.2byte	0x2
 3888 0006 00000000 		.4byte	.Ldebug_info0
 3889 000a AC090000 		.4byte	0x9ac
 3890 000e 78000000 		.4byte	0x78
 3891 0012 73697A65 		.ascii	"size_t\000"
 3891      5F7400
 3892 0019 83000000 		.4byte	0x83
 3893 001d 75696E74 		.ascii	"uint8_t\000"
 3893      385F7400 
 3894 0025 8E000000 		.4byte	0x8e
 3895 0029 75696E74 		.ascii	"uint16_t\000"
 3895      31365F74 
 3895      00
 3896 0032 99000000 		.4byte	0x99
 3897 0036 696E7433 		.ascii	"int32_t\000"
 3897      325F7400 
 3898 003e A4000000 		.4byte	0xa4
 3899 0042 75696E74 		.ascii	"uint32_t\000"
 3899      33325F74 
 3899      00
 3900 004b AF000000 		.4byte	0xaf
 3901 004f 626F6F6C 		.ascii	"bool_t\000"
 3901      5F7400
 3902 0056 D0000000 		.4byte	0xd0
 3903 005a 55534244 		.ascii	"USBDriver\000"
 3903      72697665 
 3903      7200
 3904 0064 C6010000 		.4byte	0x1c6
 3905 0068 75736265 		.ascii	"usbep_t\000"
 3905      705F7400 
 3906 0070 F8010000 		.4byte	0x1f8
 3907 0074 75736273 		.ascii	"usbstate_t\000"
 3907      74617465 
 3907      5F7400
 3908 007f 4B020000 		.4byte	0x24b
 3909 0083 75736265 		.ascii	"usbep0state_t\000"
 3909      70307374 
 3909      6174655F 
 3909      7400
 3910 0091 83020000 		.4byte	0x283
 3911 0095 75736265 		.ascii	"usbevent_t\000"
 3911      76656E74 
 3911      5F7400
 3912 00a0 B7020000 		.4byte	0x2b7
 3913 00a4 55534244 		.ascii	"USBDescriptor\000"
 3913      65736372 
 3913      6970746F 
 3913      7200
 3914 00b2 C3020000 		.4byte	0x2c3
 3915 00b6 75736263 		.ascii	"usbcallback_t\000"
 3915      616C6C62 
 3915      61636B5F 
 3915      7400
ARM GAS  /tmp/cc5uc8Mi.s 			page 72


 3916 00c4 E7020000 		.4byte	0x2e7
 3917 00c8 75736265 		.ascii	"usbepcallback_t\000"
 3917      7063616C 
 3917      6C626163 
 3917      6B5F7400 
 3918 00d8 0A030000 		.4byte	0x30a
 3919 00dc 75736265 		.ascii	"usbeventcb_t\000"
 3919      76656E74 
 3919      63625F74 
 3919      00
 3920 00e9 2D030000 		.4byte	0x32d
 3921 00ed 75736272 		.ascii	"usbreqhandler_t\000"
 3921      65716861 
 3921      6E646C65 
 3921      725F7400 
 3922 00fd 4F030000 		.4byte	0x34f
 3923 0101 75736267 		.ascii	"usbgetdescriptor_t\000"
 3923      65746465 
 3923      73637269 
 3923      70746F72 
 3923      5F7400
 3924 0114 BE030000 		.4byte	0x3be
 3925 0118 55534249 		.ascii	"USBInEndpointState\000"
 3925      6E456E64 
 3925      706F696E 
 3925      74537461 
 3925      746500
 3926 012b 0A040000 		.4byte	0x40a
 3927 012f 5553424F 		.ascii	"USBOutEndpointState\000"
 3927      7574456E 
 3927      64706F69 
 3927      6E745374 
 3927      61746500 
 3928 0143 9A040000 		.4byte	0x49a
 3929 0147 55534245 		.ascii	"USBEndpointConfig\000"
 3929      6E64706F 
 3929      696E7443 
 3929      6F6E6669 
 3929      6700
 3930 0159 E6040000 		.4byte	0x4e6
 3931 015d 55534243 		.ascii	"USBConfig\000"
 3931      6F6E6669 
 3931      6700
 3932 0167 DB000000 		.4byte	0xdb
 3933 016b 55534244 		.ascii	"USBDriver\000"
 3933      72697665 
 3933      7200
 3934 0175 00000000 		.4byte	0x0
 3935              		.section	.debug_aranges,"",%progbits
 3936 0000 8C000000 		.4byte	0x8c
 3937 0004 0200     		.2byte	0x2
 3938 0006 00000000 		.4byte	.Ldebug_info0
 3939 000a 04       		.byte	0x4
 3940 000b 00       		.byte	0x0
 3941 000c 0000     		.2byte	0x0
 3942 000e 0000     		.2byte	0x0
 3943 0010 00000000 		.4byte	.LFB62
ARM GAS  /tmp/cc5uc8Mi.s 			page 73


 3944 0014 22000000 		.4byte	.LFE62-.LFB62
 3945 0018 00000000 		.4byte	.LFB64
 3946 001c 04000000 		.4byte	.LFE64-.LFB64
 3947 0020 00000000 		.4byte	.LFB65
 3948 0024 10000000 		.4byte	.LFE65-.LFB65
 3949 0028 00000000 		.4byte	.LFB66
 3950 002c 60000000 		.4byte	.LFE66-.LFB66
 3951 0030 00000000 		.4byte	.LFB67
 3952 0034 48000000 		.4byte	.LFE67-.LFB67
 3953 0038 00000000 		.4byte	.LFB68
 3954 003c 7C000000 		.4byte	.LFE68-.LFB68
 3955 0040 00000000 		.4byte	.LFB69
 3956 0044 54000000 		.4byte	.LFE69-.LFB69
 3957 0048 00000000 		.4byte	.LFB70
 3958 004c 40000000 		.4byte	.LFE70-.LFB70
 3959 0050 00000000 		.4byte	.LFB71
 3960 0054 40000000 		.4byte	.LFE71-.LFB71
 3961 0058 00000000 		.4byte	.LFB72
 3962 005c 34000000 		.4byte	.LFE72-.LFB72
 3963 0060 00000000 		.4byte	.LFB73
 3964 0064 34000000 		.4byte	.LFE73-.LFB73
 3965 0068 00000000 		.4byte	.LFB74
 3966 006c 32000000 		.4byte	.LFE74-.LFB74
 3967 0070 00000000 		.4byte	.LFB75
 3968 0074 E8020000 		.4byte	.LFE75-.LFB75
 3969 0078 00000000 		.4byte	.LFB76
 3970 007c 8C000000 		.4byte	.LFE76-.LFB76
 3971 0080 00000000 		.4byte	.LFB77
 3972 0084 68000000 		.4byte	.LFE77-.LFB77
 3973 0088 00000000 		.4byte	0x0
 3974 008c 00000000 		.4byte	0x0
 3975              		.section	.debug_ranges,"",%progbits
 3976              	.Ldebug_ranges0:
 3977 0000 8E000000 		.4byte	.LBB8
 3978 0004 14010000 		.4byte	.LBE8
 3979 0008 70010000 		.4byte	.LBB11
 3980 000c E8020000 		.4byte	.LBE11
 3981 0010 00000000 		.4byte	0x0
 3982 0014 00000000 		.4byte	0x0
 3983 0018 8E000000 		.4byte	.LBB9
 3984 001c 14010000 		.4byte	.LBE9
 3985 0020 70010000 		.4byte	.LBB10
 3986 0024 E8020000 		.4byte	.LBE10
 3987 0028 00000000 		.4byte	0x0
 3988 002c 00000000 		.4byte	0x0
 3989 0030 00000000 		.4byte	.LFB62
 3990 0034 22000000 		.4byte	.LFE62
 3991 0038 00000000 		.4byte	.LFB64
 3992 003c 04000000 		.4byte	.LFE64
 3993 0040 00000000 		.4byte	.LFB65
 3994 0044 10000000 		.4byte	.LFE65
 3995 0048 00000000 		.4byte	.LFB66
 3996 004c 60000000 		.4byte	.LFE66
 3997 0050 00000000 		.4byte	.LFB67
 3998 0054 48000000 		.4byte	.LFE67
 3999 0058 00000000 		.4byte	.LFB68
 4000 005c 7C000000 		.4byte	.LFE68
ARM GAS  /tmp/cc5uc8Mi.s 			page 74


 4001 0060 00000000 		.4byte	.LFB69
 4002 0064 54000000 		.4byte	.LFE69
 4003 0068 00000000 		.4byte	.LFB70
 4004 006c 40000000 		.4byte	.LFE70
 4005 0070 00000000 		.4byte	.LFB71
 4006 0074 40000000 		.4byte	.LFE71
 4007 0078 00000000 		.4byte	.LFB72
 4008 007c 34000000 		.4byte	.LFE72
 4009 0080 00000000 		.4byte	.LFB73
 4010 0084 34000000 		.4byte	.LFE73
 4011 0088 00000000 		.4byte	.LFB74
 4012 008c 32000000 		.4byte	.LFE74
 4013 0090 00000000 		.4byte	.LFB75
 4014 0094 E8020000 		.4byte	.LFE75
 4015 0098 00000000 		.4byte	.LFB76
 4016 009c 8C000000 		.4byte	.LFE76
 4017 00a0 00000000 		.4byte	.LFB77
 4018 00a4 68000000 		.4byte	.LFE77
 4019 00a8 00000000 		.4byte	0x0
 4020 00ac 00000000 		.4byte	0x0
 4021              		.section	.debug_str,"MS",%progbits,1
 4022              	.LASF101:
 4023 0000 7A65726F 		.ascii	"zero_status\000"
 4023      5F737461 
 4023      74757300 
 4024              	.LASF98:
 4025 000c 5F757362 		.ascii	"_usb_ep0setup\000"
 4025      5F657030 
 4025      73657475 
 4025      7000
 4026              	.LASF17:
 4027 001a 73746174 		.ascii	"state\000"
 4027      6500
 4028              	.LASF35:
 4029 0020 5553425F 		.ascii	"USB_SELECTED\000"
 4029      53454C45 
 4029      43544544 
 4029      00
 4030              	.LASF107:
 4031 002d 2F686F6D 		.ascii	"/home/z80/projects/ipm.git/soft/firmware/valve\000"
 4031      652F7A38 
 4031      302F7072 
 4031      6F6A6563 
 4031      74732F69 
 4032              	.LASF85:
 4033 005c 55534243 		.ascii	"USBConfig\000"
 4033      6F6E6669 
 4033      6700
 4034              	.LASF2:
 4035 0066 73686F72 		.ascii	"short int\000"
 4035      7420696E 
 4035      7400
 4036              	.LASF10:
 4037 0070 73697A65 		.ascii	"size_t\000"
 4037      5F7400
 4038              	.LASF31:
 4039 0077 75736265 		.ascii	"usbep_t\000"
ARM GAS  /tmp/cc5uc8Mi.s 			page 75


 4039      705F7400 
 4040              	.LASF45:
 4041 007f 5553425F 		.ascii	"USB_EP0_SENDING_STS\000"
 4041      4550305F 
 4041      53454E44 
 4041      494E475F 
 4041      53545300 
 4042              	.LASF57:
 4043 0093 55534244 		.ascii	"USBDescriptor\000"
 4043      65736372 
 4043      6970746F 
 4043      7200
 4044              	.LASF94:
 4045 00a1 75736253 		.ascii	"usbStartTransmitI\000"
 4045      74617274 
 4045      5472616E 
 4045      736D6974 
 4045      4900
 4046              	.LASF24:
 4047 00b3 6570306E 		.ascii	"ep0n\000"
 4047      00
 4048              	.LASF109:
 4049 00b8 75736249 		.ascii	"usbInit\000"
 4049      6E697400 
 4050              	.LASF39:
 4051 00c0 45505F53 		.ascii	"EP_STATUS_STALLED\000"
 4051      54415455 
 4051      535F5354 
 4051      414C4C45 
 4051      4400
 4052              	.LASF81:
 4053 00d2 6576656E 		.ascii	"event_cb\000"
 4053      745F6362 
 4053      00
 4054              	.LASF76:
 4055 00db 696E5F6D 		.ascii	"in_maxsize\000"
 4055      61787369 
 4055      7A6500
 4056              	.LASF106:
 4057 00e6 2E2E2F63 		.ascii	"../chibios_2.4.x/os/hal/src/usb.c\000"
 4057      68696269 
 4057      6F735F32 
 4057      2E342E78 
 4057      2F6F732F 
 4058              	.LASF70:
 4059 0108 7278636E 		.ascii	"rxcnt\000"
 4059      7400
 4060              	.LASF74:
 4061 010e 696E5F63 		.ascii	"in_cb\000"
 4061      6200
 4062              	.LASF46:
 4063 0114 5553425F 		.ascii	"USB_EP0_ERROR\000"
 4063      4550305F 
 4063      4552524F 
 4063      5200
 4064              	.LASF100:
 4065 0122 5F757362 		.ascii	"_usb_ep0out\000"
ARM GAS  /tmp/cc5uc8Mi.s 			page 76


 4065      5F657030 
 4065      6F757400 
 4066              	.LASF18:
 4067 012e 636F6E66 		.ascii	"config\000"
 4067      696700
 4068              	.LASF95:
 4069 0135 75736253 		.ascii	"usbStallReceiveI\000"
 4069      74616C6C 
 4069      52656365 
 4069      69766549 
 4069      00
 4070              	.LASF40:
 4071 0146 45505F53 		.ascii	"EP_STATUS_ACTIVE\000"
 4071      54415455 
 4071      535F4143 
 4071      54495645 
 4071      00
 4072              	.LASF50:
 4073 0157 5553425F 		.ascii	"USB_EVENT_CONFIGURED\000"
 4073      4556454E 
 4073      545F434F 
 4073      4E464947 
 4073      55524544 
 4074              	.LASF89:
 4075 016c 75736253 		.ascii	"usbStop\000"
 4075      746F7000 
 4076              	.LASF83:
 4077 0174 72657175 		.ascii	"requests_hook_cb\000"
 4077      65737473 
 4077      5F686F6F 
 4077      6B5F6362 
 4077      00
 4078              	.LASF55:
 4079 0185 75645F73 		.ascii	"ud_size\000"
 4079      697A6500 
 4080              	.LASF44:
 4081 018d 5553425F 		.ascii	"USB_EP0_RX\000"
 4081      4550305F 
 4081      525800
 4082              	.LASF80:
 4083 0198 55534245 		.ascii	"USBEndpointConfig\000"
 4083      6E64706F 
 4083      696E7443 
 4083      6F6E6669 
 4083      6700
 4084              	.LASF15:
 4085 01aa 626F6F6C 		.ascii	"bool_t\000"
 4085      5F7400
 4086              	.LASF26:
 4087 01b1 73657475 		.ascii	"setup\000"
 4087      7000
 4088              	.LASF78:
 4089 01b7 696E5F73 		.ascii	"in_state\000"
 4089      74617465 
 4089      00
 4090              	.LASF5:
 4091 01c0 6C6F6E67 		.ascii	"long long int\000"
ARM GAS  /tmp/cc5uc8Mi.s 			page 77


 4091      206C6F6E 
 4091      6720696E 
 4091      7400
 4092              	.LASF6:
 4093 01ce 6C6F6E67 		.ascii	"long long unsigned int\000"
 4093      206C6F6E 
 4093      6720756E 
 4093      7369676E 
 4093      65642069 
 4094              	.LASF54:
 4095 01e5 75736265 		.ascii	"usbevent_t\000"
 4095      76656E74 
 4095      5F7400
 4096              	.LASF72:
 4097 01f0 65705F6D 		.ascii	"ep_mode\000"
 4097      6F646500 
 4098              	.LASF7:
 4099 01f8 6C6F6E67 		.ascii	"long int\000"
 4099      20696E74 
 4099      00
 4100              	.LASF42:
 4101 0201 5553425F 		.ascii	"USB_EP0_TX\000"
 4101      4550305F 
 4101      545800
 4102              	.LASF84:
 4103 020c 736F665F 		.ascii	"sof_cb\000"
 4103      636200
 4104              	.LASF30:
 4105 0213 706D6E65 		.ascii	"pmnext\000"
 4105      787400
 4106              	.LASF77:
 4107 021a 6F75745F 		.ascii	"out_maxsize\000"
 4107      6D617873 
 4107      697A6500 
 4108              	.LASF49:
 4109 0226 5553425F 		.ascii	"USB_EVENT_ADDRESS\000"
 4109      4556454E 
 4109      545F4144 
 4109      44524553 
 4109      5300
 4110              	.LASF22:
 4111 0238 65703073 		.ascii	"ep0state\000"
 4111      74617465 
 4111      00
 4112              	.LASF108:
 4113 0241 7365745F 		.ascii	"set_address\000"
 4113      61646472 
 4113      65737300 
 4114              	.LASF38:
 4115 024d 45505F53 		.ascii	"EP_STATUS_DISABLED\000"
 4115      54415455 
 4115      535F4449 
 4115      5341424C 
 4115      454400
 4116              	.LASF43:
 4117 0260 5553425F 		.ascii	"USB_EP0_WAITING_STS\000"
 4117      4550305F 
ARM GAS  /tmp/cc5uc8Mi.s 			page 78


 4117      57414954 
 4117      494E475F 
 4117      53545300 
 4118              	.LASF21:
 4119 0274 72656365 		.ascii	"receiving\000"
 4119      6976696E 
 4119      6700
 4120              	.LASF33:
 4121 027e 5553425F 		.ascii	"USB_STOP\000"
 4121      53544F50 
 4121      00
 4122              	.LASF1:
 4123 0287 756E7369 		.ascii	"unsigned char\000"
 4123      676E6564 
 4123      20636861 
 4123      7200
 4124              	.LASF66:
 4125 0295 55534249 		.ascii	"USBInEndpointState\000"
 4125      6E456E64 
 4125      706F696E 
 4125      74537461 
 4125      746500
 4126              	.LASF67:
 4127 02a8 7278706B 		.ascii	"rxpkts\000"
 4127      747300
 4128              	.LASF25:
 4129 02af 65703065 		.ascii	"ep0endcb\000"
 4129      6E646362 
 4129      00
 4130              	.LASF0:
 4131 02b8 7369676E 		.ascii	"signed char\000"
 4131      65642063 
 4131      68617200 
 4132              	.LASF28:
 4133 02c4 61646472 		.ascii	"address\000"
 4133      65737300 
 4134              	.LASF14:
 4135 02cc 75696E74 		.ascii	"uint32_t\000"
 4135      33325F74 
 4135      00
 4136              	.LASF29:
 4137 02d5 636F6E66 		.ascii	"configuration\000"
 4137      69677572 
 4137      6174696F 
 4137      6E00
 4138              	.LASF59:
 4139 02e3 75736265 		.ascii	"usbepcallback_t\000"
 4139      7063616C 
 4139      6C626163 
 4139      6B5F7400 
 4140              	.LASF32:
 4141 02f3 5553425F 		.ascii	"USB_UNINIT\000"
 4141      554E494E 
 4141      495400
 4142              	.LASF110:
 4143 02fe 64656661 		.ascii	"default_handler\000"
 4143      756C745F 
ARM GAS  /tmp/cc5uc8Mi.s 			page 79


 4143      68616E64 
 4143      6C657200 
 4144              	.LASF60:
 4145 030e 75736265 		.ascii	"usbeventcb_t\000"
 4145      76656E74 
 4145      63625F74 
 4145      00
 4146              	.LASF19:
 4147 031b 70617261 		.ascii	"param\000"
 4147      6D00
 4148              	.LASF48:
 4149 0321 5553425F 		.ascii	"USB_EVENT_RESET\000"
 4149      4556454E 
 4149      545F5245 
 4149      53455400 
 4150              	.LASF27:
 4151 0331 73746174 		.ascii	"status\000"
 4151      757300
 4152              	.LASF63:
 4153 0338 74786275 		.ascii	"txbuf\000"
 4153      6600
 4154              	.LASF79:
 4155 033e 6F75745F 		.ascii	"out_state\000"
 4155      73746174 
 4155      6500
 4156              	.LASF9:
 4157 0348 63686172 		.ascii	"char\000"
 4157      00
 4158              	.LASF12:
 4159 034d 75696E74 		.ascii	"uint16_t\000"
 4159      31365F74 
 4159      00
 4160              	.LASF82:
 4161 0356 6765745F 		.ascii	"get_descriptor_cb\000"
 4161      64657363 
 4161      72697074 
 4161      6F725F63 
 4161      6200
 4162              	.LASF13:
 4163 0368 696E7433 		.ascii	"int32_t\000"
 4163      325F7400 
 4164              	.LASF102:
 4165 0370 61637469 		.ascii	"active_status\000"
 4165      76655F73 
 4165      74617475 
 4165      7300
 4166              	.LASF3:
 4167 037e 73686F72 		.ascii	"short unsigned int\000"
 4167      7420756E 
 4167      7369676E 
 4167      65642069 
 4167      6E7400
 4168              	.LASF62:
 4169 0391 75736267 		.ascii	"usbgetdescriptor_t\000"
 4169      65746465 
 4169      73637269 
 4169      70746F72 
ARM GAS  /tmp/cc5uc8Mi.s 			page 80


 4169      5F7400
 4170              	.LASF36:
 4171 03a4 5553425F 		.ascii	"USB_ACTIVE\000"
 4171      41435449 
 4171      564500
 4172              	.LASF23:
 4173 03af 6570306E 		.ascii	"ep0next\000"
 4173      65787400 
 4174              	.LASF65:
 4175 03b7 7478636E 		.ascii	"txcnt\000"
 4175      7400
 4176              	.LASF47:
 4177 03bd 75736265 		.ascii	"usbep0state_t\000"
 4177      70307374 
 4177      6174655F 
 4177      7400
 4178              	.LASF103:
 4179 03cb 68616C74 		.ascii	"halted_status\000"
 4179      65645F73 
 4179      74617475 
 4179      7300
 4180              	.LASF58:
 4181 03d9 75736263 		.ascii	"usbcallback_t\000"
 4181      616C6C62 
 4181      61636B5F 
 4181      7400
 4182              	.LASF64:
 4183 03e7 74787369 		.ascii	"txsize\000"
 4183      7A6500
 4184              	.LASF69:
 4185 03ee 72787369 		.ascii	"rxsize\000"
 4185      7A6500
 4186              	.LASF8:
 4187 03f5 6C6F6E67 		.ascii	"long unsigned int\000"
 4187      20756E73 
 4187      69676E65 
 4187      6420696E 
 4187      7400
 4188              	.LASF91:
 4189 0407 65706370 		.ascii	"epcp\000"
 4189      00
 4190              	.LASF34:
 4191 040c 5553425F 		.ascii	"USB_READY\000"
 4191      52454144 
 4191      5900
 4192              	.LASF71:
 4193 0416 5553424F 		.ascii	"USBOutEndpointState\000"
 4193      7574456E 
 4193      64706F69 
 4193      6E745374 
 4193      61746500 
 4194              	.LASF56:
 4195 042a 75645F73 		.ascii	"ud_string\000"
 4195      7472696E 
 4195      6700
 4196              	.LASF61:
 4197 0434 75736272 		.ascii	"usbreqhandler_t\000"
ARM GAS  /tmp/cc5uc8Mi.s 			page 81


 4197      65716861 
 4197      6E646C65 
 4197      725F7400 
 4198              	.LASF86:
 4199 0444 75736270 		.ascii	"usbp\000"
 4199      00
 4200              	.LASF52:
 4201 0449 5553425F 		.ascii	"USB_EVENT_WAKEUP\000"
 4201      4556454E 
 4201      545F5741 
 4201      4B455550 
 4201      00
 4202              	.LASF90:
 4203 045a 75736249 		.ascii	"usbInitEndpointI\000"
 4203      6E697445 
 4203      6E64706F 
 4203      696E7449 
 4203      00
 4204              	.LASF99:
 4205 046b 5F757362 		.ascii	"_usb_ep0in\000"
 4205      5F657030 
 4205      696E00
 4206              	.LASF37:
 4207 0476 75736273 		.ascii	"usbstate_t\000"
 4207      74617465 
 4207      5F7400
 4208              	.LASF11:
 4209 0481 75696E74 		.ascii	"uint8_t\000"
 4209      385F7400 
 4210              	.LASF73:
 4211 0489 73657475 		.ascii	"setup_cb\000"
 4211      705F6362 
 4211      00
 4212              	.LASF41:
 4213 0492 5553425F 		.ascii	"USB_EP0_WAITING_SETUP\000"
 4213      4550305F 
 4213      57414954 
 4213      494E475F 
 4213      53455455 
 4214              	.LASF97:
 4215 04a8 5F757362 		.ascii	"_usb_reset\000"
 4215      5F726573 
 4215      657400
 4216              	.LASF93:
 4217 04b3 75736253 		.ascii	"usbStartReceiveI\000"
 4217      74617274 
 4217      52656365 
 4217      69766549 
 4217      00
 4218              	.LASF68:
 4219 04c4 72786275 		.ascii	"rxbuf\000"
 4219      6600
 4220              	.LASF51:
 4221 04ca 5553425F 		.ascii	"USB_EVENT_SUSPEND\000"
 4221      4556454E 
 4221      545F5355 
 4221      5350454E 
ARM GAS  /tmp/cc5uc8Mi.s 			page 82


 4221      4400
 4222              	.LASF104:
 4223 04dc 49544D5F 		.ascii	"ITM_RxBuffer\000"
 4223      52784275 
 4223      66666572 
 4223      00
 4224              	.LASF4:
 4225 04e9 756E7369 		.ascii	"unsigned int\000"
 4225      676E6564 
 4225      20696E74 
 4225      00
 4226              	.LASF88:
 4227 04f6 75736253 		.ascii	"usbStart\000"
 4227      74617274 
 4227      00
 4228              	.LASF20:
 4229 04ff 7472616E 		.ascii	"transmitting\000"
 4229      736D6974 
 4229      74696E67 
 4229      00
 4230              	.LASF75:
 4231 050c 6F75745F 		.ascii	"out_cb\000"
 4231      636200
 4232              	.LASF92:
 4233 0513 75736244 		.ascii	"usbDisableEndpointsI\000"
 4233      69736162 
 4233      6C65456E 
 4233      64706F69 
 4233      6E747349 
 4234              	.LASF105:
 4235 0528 474E5520 		.ascii	"GNU C 4.5.2\000"
 4235      4320342E 
 4235      352E3200 
 4236              	.LASF87:
 4237 0534 7573624F 		.ascii	"usbObjectInit\000"
 4237      626A6563 
 4237      74496E69 
 4237      7400
 4238              	.LASF53:
 4239 0542 5553425F 		.ascii	"USB_EVENT_STALLED\000"
 4239      4556454E 
 4239      545F5354 
 4239      414C4C45 
 4239      4400
 4240              	.LASF16:
 4241 0554 55534244 		.ascii	"USBDriver\000"
 4241      72697665 
 4241      7200
 4242              	.LASF96:
 4243 055e 75736253 		.ascii	"usbStallTransmitI\000"
 4243      74616C6C 
 4243      5472616E 
 4243      736D6974 
 4243      4900
 4244              		.ident	"GCC: (Sourcery G++ Lite 2011.03-42) 4.5.2"
ARM GAS  /tmp/cc5uc8Mi.s 			page 83


DEFINED SYMBOLS
                            *ABS*:00000000 usb.c
     /tmp/cc5uc8Mi.s:24     .text.set_address:00000000 $t
     /tmp/cc5uc8Mi.s:29     .text.set_address:00000000 set_address
     /tmp/cc5uc8Mi.s:69     .text.usbInit:00000000 $t
     /tmp/cc5uc8Mi.s:75     .text.usbInit:00000000 usbInit
     /tmp/cc5uc8Mi.s:89     .text.usbObjectInit:00000000 $t
     /tmp/cc5uc8Mi.s:95     .text.usbObjectInit:00000000 usbObjectInit
     /tmp/cc5uc8Mi.s:122    .text.usbStart:00000000 $t
     /tmp/cc5uc8Mi.s:128    .text.usbStart:00000000 usbStart
     /tmp/cc5uc8Mi.s:225    .text.usbStart:00000058 $d
     /tmp/cc5uc8Mi.s:231    .text.usbStop:00000000 $t
     /tmp/cc5uc8Mi.s:237    .text.usbStop:00000000 usbStop
     /tmp/cc5uc8Mi.s:304    .text.usbStop:00000040 $d
     /tmp/cc5uc8Mi.s:310    .text.usbInitEndpointI:00000000 $t
     /tmp/cc5uc8Mi.s:316    .text.usbInitEndpointI:00000000 usbInitEndpointI
     /tmp/cc5uc8Mi.s:398    .text.usbInitEndpointI:00000070 $d
     /tmp/cc5uc8Mi.s:405    .text.usbDisableEndpointsI:00000000 $t
     /tmp/cc5uc8Mi.s:411    .text.usbDisableEndpointsI:00000000 usbDisableEndpointsI
     /tmp/cc5uc8Mi.s:477    .text.usbDisableEndpointsI:0000004c $d
     /tmp/cc5uc8Mi.s:483    .text.usbStartReceiveI:00000000 $t
     /tmp/cc5uc8Mi.s:489    .text.usbStartReceiveI:00000000 usbStartReceiveI
     /tmp/cc5uc8Mi.s:544    .text.usbStartReceiveI:0000003c $d
     /tmp/cc5uc8Mi.s:549    .text.usbStartTransmitI:00000000 $t
     /tmp/cc5uc8Mi.s:555    .text.usbStartTransmitI:00000000 usbStartTransmitI
     /tmp/cc5uc8Mi.s:610    .text.usbStartTransmitI:0000003c $d
     /tmp/cc5uc8Mi.s:615    .text.usbStallReceiveI:00000000 $t
     /tmp/cc5uc8Mi.s:621    .text.usbStallReceiveI:00000000 usbStallReceiveI
     /tmp/cc5uc8Mi.s:669    .text.usbStallReceiveI:00000030 $d
     /tmp/cc5uc8Mi.s:674    .text.usbStallTransmitI:00000000 $t
     /tmp/cc5uc8Mi.s:680    .text.usbStallTransmitI:00000000 usbStallTransmitI
     /tmp/cc5uc8Mi.s:728    .text.usbStallTransmitI:00000030 $d
     /tmp/cc5uc8Mi.s:733    .text._usb_reset:00000000 $t
     /tmp/cc5uc8Mi.s:739    .text._usb_reset:00000000 _usb_reset
     /tmp/cc5uc8Mi.s:794    .text._usb_ep0setup:00000000 $t
     /tmp/cc5uc8Mi.s:800    .text._usb_ep0setup:00000000 _usb_ep0setup
     /tmp/cc5uc8Mi.s:1222   .text._usb_ep0setup:000002d8 $d
     /tmp/cc5uc8Mi.s:1232   .text._usb_ep0in:00000000 $t
     /tmp/cc5uc8Mi.s:1238   .text._usb_ep0in:00000000 _usb_ep0in
     /tmp/cc5uc8Mi.s:1356   .text._usb_ep0out:00000000 $t
     /tmp/cc5uc8Mi.s:1362   .text._usb_ep0out:00000000 _usb_ep0out
     /tmp/cc5uc8Mi.s:1456   .rodata.zero_status:00000000 $d
     /tmp/cc5uc8Mi.s:1460   .rodata.zero_status:00000000 zero_status
     /tmp/cc5uc8Mi.s:1463   .rodata.active_status:00000000 $d
     /tmp/cc5uc8Mi.s:1467   .rodata.active_status:00000000 active_status
     /tmp/cc5uc8Mi.s:1470   .rodata.str1.4:00000000 $d
     /tmp/cc5uc8Mi.s:1509   .rodata.halted_status:00000000 $d
     /tmp/cc5uc8Mi.s:1513   .rodata.halted_status:00000000 halted_status
                     .debug_frame:00000010 $d
     /tmp/cc5uc8Mi.s:309    .text.usbStop:00000048 $t
     /tmp/cc5uc8Mi.s:404    .text.usbInitEndpointI:0000007c $t
     /tmp/cc5uc8Mi.s:482    .text.usbDisableEndpointsI:00000054 $t
     /tmp/cc5uc8Mi.s:673    .text.usbStallReceiveI:00000034 $t
     /tmp/cc5uc8Mi.s:732    .text.usbStallTransmitI:00000034 $t
     /tmp/cc5uc8Mi.s:1231   .text._usb_ep0setup:000002e8 $t

UNDEFINED SYMBOLS
ARM GAS  /tmp/cc5uc8Mi.s 			page 84


usb_lld_set_address
usb_lld_init
dbg_check_lock
chDbgPanic
usb_lld_start
dbg_check_unlock
usb_lld_stop
chDbgCheckClassI
usb_lld_init_endpoint
usb_lld_disable_endpoints
usb_lld_start_out
usb_lld_start_in
usb_lld_stall_out
usb_lld_stall_in
usb_lld_reset
usb_lld_read_setup
usb_lld_prepare_transmit
usb_lld_clear_out
usb_lld_prepare_receive
usb_lld_get_status_out
usb_lld_get_status_in
usb_lld_clear_in
