ARM GAS  C:\Users\z80\AppData\Local\Temp\cctIXSBd.s 			page 1


   1              		.syntax unified
   2              		.cpu cortex-m3
   3              		.fpu softvfp
   4              		.eabi_attribute 20, 1
   5              		.eabi_attribute 21, 1
   6              		.eabi_attribute 23, 3
   7              		.eabi_attribute 24, 1
   8              		.eabi_attribute 25, 1
   9              		.eabi_attribute 26, 1
  10              		.eabi_attribute 30, 2
  11              		.eabi_attribute 18, 4
  12              		.thumb
  13              		.file	"usb.c"
  20 0000 5B040000 		.text
  20      0200A501 
  20      00000201 
  20      FB0E0D00 
  20      01010101 
  21              	.Ltext0:
  22              		.cfi_sections	.debug_frame
  23              		.section	.text.set_address,"ax",%progbits
  24              		.align	2
  25              		.p2align 4,,15
  26              		.thumb
  27              		.thumb_func
  28              		.type	set_address, %function
  29              	set_address:
  30              	.LFB62:
  31              		.file 1 "../chibios_2.4.x/os/hal/src/usb.c"
  32              		.loc 1 69 0
  33              		.cfi_startproc
  34              		@ args = 0, pretend = 0, frame = 0
  35              		@ frame_needed = 0, uses_anonymous_args = 0
  36              	.LVL0:
  37 0000 10B5     		push	{r4, lr}
  38              	.LCFI0:
  39              		.cfi_def_cfa_offset 8
  40              		.loc 1 71 0
  41 0002 90F84230 		ldrb	r3, [r0, #66]	@ zero_extendqisi2
  42              		.loc 1 69 0
  43 0006 0446     		mov	r4, r0
  44              		.cfi_offset 14, -4
  45              		.cfi_offset 4, -8
  46              		.loc 1 71 0
  47 0008 84F84A30 		strb	r3, [r4, #74]
  48              		.loc 1 72 0
  49 000c FFF7FEFF 		bl	usb_lld_set_address
  50              	.LVL1:
  51              		.loc 1 73 0
  52 0010 6368     		ldr	r3, [r4, #4]
  53 0012 1B68     		ldr	r3, [r3, #0]
ARM GAS  C:\Users\z80\AppData\Local\Temp\cctIXSBd.s 			page 2


  54 0014 13B1     		cbz	r3, .L2
  55              		.loc 1 73 0 is_stmt 0 discriminator 1
  56 0016 2046     		mov	r0, r4
  57 0018 0121     		movs	r1, #1
  58 001a 9847     		blx	r3
  59              	.L2:
  60              		.loc 1 74 0 is_stmt 1
  61 001c 0323     		movs	r3, #3
  62 001e 2370     		strb	r3, [r4, #0]
  63              		.loc 1 75 0
  64 0020 10BD     		pop	{r4, pc}
  65              		.cfi_endproc
  66              	.LFE62:
  67              		.size	set_address, .-set_address
  68 0022 00BFAFF3 		.section	.text.usbInit,"ax",%progbits
  68      0080AFF3 
  68      0080AFF3 
  68      0080
  69              		.align	2
  70              		.p2align 4,,15
  71              		.global	usbInit
  72              		.thumb
  73              		.thumb_func
  74              		.type	usbInit, %function
  75              	usbInit:
  76              	.LFB64:
  77              		.loc 1 235 0
  78              		.cfi_startproc
  79              		@ args = 0, pretend = 0, frame = 0
  80              		@ frame_needed = 0, uses_anonymous_args = 0
  81 0000 08B5     		push	{r3, lr}
  82              	.LCFI1:
  83              		.cfi_def_cfa_offset 8
  84              		.loc 1 237 0
  85              		.cfi_offset 14, -4
  86              		.cfi_offset 3, -8
  87 0002 FFF7FEFF 		bl	usb_lld_init
  88              		.loc 1 238 0
  89 0006 08BD     		pop	{r3, pc}
  90              		.cfi_endproc
  91              	.LFE64:
  92              		.size	usbInit, .-usbInit
  93 0008 AFF30080 		.section	.text.usbObjectInit,"ax",%progbits
  93      AFF30080 
  94              		.align	2
  95              		.p2align 4,,15
  96              		.global	usbObjectInit
  97              		.thumb
  98              		.thumb_func
  99              		.type	usbObjectInit, %function
 100              	usbObjectInit:
 101              	.LFB65:
 102              		.loc 1 247 0
 103              		.cfi_startproc
 104              		@ args = 0, pretend = 0, frame = 0
 105              		@ frame_needed = 0, uses_anonymous_args = 0
 106              		@ link register save eliminated.
ARM GAS  C:\Users\z80\AppData\Local\Temp\cctIXSBd.s 			page 3


 107              	.LVL2:
 108              		.loc 1 250 0
 109 0000 0023     		movs	r3, #0
 110              		.loc 1 249 0
 111 0002 0122     		movs	r2, #1
 112 0004 0270     		strb	r2, [r0, #0]
 113              		.loc 1 250 0
 114 0006 4360     		str	r3, [r0, #4]
 115              		.loc 1 251 0
 116 0008 8360     		str	r3, [r0, #8]
 117              		.loc 1 252 0
 118 000a 8381     		strh	r3, [r0, #12]	@ movhi
 119              		.loc 1 253 0
 120 000c C381     		strh	r3, [r0, #14]	@ movhi
 121              		.loc 1 254 0
 122 000e 7047     		bx	lr
 123              		.cfi_endproc
 124              	.LFE65:
 125              		.size	usbObjectInit, .-usbObjectInit
 126              		.section	.text.usbStart,"ax",%progbits
 127              		.align	2
 128              		.p2align 4,,15
 129              		.global	usbStart
 130              		.thumb
 131              		.thumb_func
 132              		.type	usbStart, %function
 133              	usbStart:
 134              	.LFB66:
 135              		.loc 1 264 0
 136              		.cfi_startproc
 137              		@ args = 0, pretend = 0, frame = 0
 138              		@ frame_needed = 0, uses_anonymous_args = 0
 139              	.LVL3:
 140              		.loc 1 267 0
 141 0000 D0F10103 		rsbs	r3, r0, #1
 142 0004 38BF     		it	cc
 143 0006 0023     		movcc	r3, #0
 144 0008 0029     		cmp	r1, #0
 145 000a 08BF     		it	eq
 146 000c 43F00103 		orreq	r3, r3, #1
 147              		.loc 1 264 0
 148 0010 70B5     		push	{r4, r5, r6, lr}
 149              	.LCFI2:
 150              		.cfi_def_cfa_offset 16
 151              		.loc 1 264 0
 152 0012 0446     		mov	r4, r0
 153              		.cfi_offset 14, -4
 154              		.cfi_offset 6, -8
 155              		.cfi_offset 5, -12
 156              		.cfi_offset 4, -16
 157 0014 0D46     		mov	r5, r1
 158              		.loc 1 267 0
 159 0016 002B     		cmp	r3, #0
 160 0018 21D1     		bne	.L9
 161              	.LVL4:
 162              	.L7:
 163              	.LBB2:
ARM GAS  C:\Users\z80\AppData\Local\Temp\cctIXSBd.s 			page 4


 164              		.loc 1 269 0
 165 001a 2023     		movs	r3, #32
 166              	.LVL5:
 167              	@ 269 "../chibios_2.4.x/os/hal/src/usb.c" 1
 168 001c 83F31188 		msr     BASEPRI, r3
 169              	@ 0 "" 2
 170              	.LVL6:
 171              		.thumb
 172              	.LBE2:
 173 0020 FFF7FEFF 		bl	dbg_check_lock
 174              	.LVL7:
 175              		.loc 1 270 0
 176 0024 2378     		ldrb	r3, [r4, #0]	@ zero_extendqisi2
 177 0026 013B     		subs	r3, r3, #1
 178 0028 DBB2     		uxtb	r3, r3
 179 002a 012B     		cmp	r3, #1
 180 002c 02D9     		bls	.L8
 181              		.loc 1 270 0 is_stmt 0 discriminator 1
 182 002e 0E48     		ldr	r0, .L10
 183 0030 FFF7FEFF 		bl	chDbgPanic
 184              	.L8:
 185              		.loc 1 274 0 is_stmt 1
 186 0034 0026     		movs	r6, #0
 187              		.loc 1 275 0
 188 0036 2046     		mov	r0, r4
 189              		.loc 1 272 0
 190 0038 6560     		str	r5, [r4, #4]
 191              	.LVL8:
 192              		.loc 1 274 0
 193 003a 2661     		str	r6, [r4, #16]
 194              	.LVL9:
 195 003c 6661     		str	r6, [r4, #20]
 196              	.LVL10:
 197 003e A661     		str	r6, [r4, #24]
 198              	.LVL11:
 199 0040 E661     		str	r6, [r4, #28]
 200              	.LVL12:
 201 0042 2662     		str	r6, [r4, #32]
 202              	.LVL13:
 203 0044 6662     		str	r6, [r4, #36]
 204              	.LVL14:
 205 0046 A662     		str	r6, [r4, #40]
 206              	.LVL15:
 207 0048 E662     		str	r6, [r4, #44]
 208              	.LVL16:
 209              		.loc 1 275 0
 210 004a FFF7FEFF 		bl	usb_lld_start
 211              		.loc 1 276 0
 212 004e 0223     		movs	r3, #2
 213 0050 2370     		strb	r3, [r4, #0]
 214              		.loc 1 277 0
 215 0052 FFF7FEFF 		bl	dbg_check_unlock
 216              	.LBB3:
 217 0056 3346     		mov	r3, r6
 218              	.LVL17:
 219              	@ 277 "../chibios_2.4.x/os/hal/src/usb.c" 1
 220 0058 83F31188 		msr     BASEPRI, r3
ARM GAS  C:\Users\z80\AppData\Local\Temp\cctIXSBd.s 			page 5


 221              	@ 0 "" 2
 222              	.LVL18:
 223              		.thumb
 224              	.LBE3:
 225              		.loc 1 278 0
 226 005c 70BD     		pop	{r4, r5, r6, pc}
 227              	.LVL19:
 228              	.L9:
 229              		.loc 1 267 0 discriminator 1
 230 005e 0348     		ldr	r0, .L10+4
 231 0060 FFF7FEFF 		bl	chDbgPanic
 232 0064 D9E7     		b	.L7
 233              	.L11:
 234 0066 00BF     		.align	2
 235              	.L10:
 236 0068 10000000 		.word	.LC1
 237 006c 00000000 		.word	.LC0
 238              		.cfi_endproc
 239              	.LFE66:
 240              		.size	usbStart, .-usbStart
 241              		.section	.text.usbStop,"ax",%progbits
 242              		.align	2
 243              		.p2align 4,,15
 244              		.global	usbStop
 245              		.thumb
 246              		.thumb_func
 247              		.type	usbStop, %function
 248              	usbStop:
 249              	.LFB67:
 250              		.loc 1 287 0
 251              		.cfi_startproc
 252              		@ args = 0, pretend = 0, frame = 0
 253              		@ frame_needed = 0, uses_anonymous_args = 0
 254              	.LVL20:
 255 0000 10B5     		push	{r4, lr}
 256              	.LCFI3:
 257              		.cfi_def_cfa_offset 8
 258              		.loc 1 287 0
 259 0002 0446     		mov	r4, r0
 260              		.cfi_offset 14, -4
 261              		.cfi_offset 4, -8
 262              		.loc 1 289 0
 263 0004 B8B1     		cbz	r0, .L15
 264              	.LVL21:
 265              	.L13:
 266              	.LBB4:
 267              		.loc 1 291 0
 268 0006 2023     		movs	r3, #32
 269              	.LVL22:
 270              	@ 291 "../chibios_2.4.x/os/hal/src/usb.c" 1
 271 0008 83F31188 		msr     BASEPRI, r3
 272              	@ 0 "" 2
 273              	.LVL23:
 274              		.thumb
 275              	.LBE4:
 276 000c FFF7FEFF 		bl	dbg_check_lock
 277              	.LVL24:
ARM GAS  C:\Users\z80\AppData\Local\Temp\cctIXSBd.s 			page 6


 278              		.loc 1 292 0
 279 0010 2378     		ldrb	r3, [r4, #0]	@ zero_extendqisi2
 280 0012 013B     		subs	r3, r3, #1
 281 0014 DBB2     		uxtb	r3, r3
 282 0016 012B     		cmp	r3, #1
 283 0018 02D9     		bls	.L14
 284              		.loc 1 292 0 is_stmt 0 discriminator 1
 285 001a 0948     		ldr	r0, .L16
 286 001c FFF7FEFF 		bl	chDbgPanic
 287              	.L14:
 288              		.loc 1 294 0 is_stmt 1
 289 0020 2046     		mov	r0, r4
 290 0022 FFF7FEFF 		bl	usb_lld_stop
 291              		.loc 1 295 0
 292 0026 0123     		movs	r3, #1
 293 0028 2370     		strb	r3, [r4, #0]
 294              		.loc 1 296 0
 295 002a FFF7FEFF 		bl	dbg_check_unlock
 296              	.LBB5:
 297 002e 0023     		movs	r3, #0
 298              	.LVL25:
 299              	@ 296 "../chibios_2.4.x/os/hal/src/usb.c" 1
 300 0030 83F31188 		msr     BASEPRI, r3
 301              	@ 0 "" 2
 302              	.LVL26:
 303              		.thumb
 304              	.LBE5:
 305              		.loc 1 297 0
 306 0034 10BD     		pop	{r4, pc}
 307              	.LVL27:
 308              	.L15:
 309              		.loc 1 289 0 discriminator 1
 310 0036 0348     		ldr	r0, .L16+4
 311 0038 FFF7FEFF 		bl	chDbgPanic
 312 003c E3E7     		b	.L13
 313              	.L17:
 314 003e 00BF     		.align	2
 315              	.L16:
 316 0040 2C000000 		.word	.LC3
 317 0044 20000000 		.word	.LC2
 318              		.cfi_endproc
 319              	.LFE67:
 320              		.size	usbStop, .-usbStop
 321 0048 AFF30080 		.section	.text.usbInitEndpointI,"ax",%progbits
 321      AFF30080 
 322              		.align	2
 323              		.p2align 4,,15
 324              		.global	usbInitEndpointI
 325              		.thumb
 326              		.thumb_func
 327              		.type	usbInitEndpointI, %function
 328              	usbInitEndpointI:
 329              	.LFB68:
 330              		.loc 1 313 0
 331              		.cfi_startproc
 332              		@ args = 0, pretend = 0, frame = 0
 333              		@ frame_needed = 0, uses_anonymous_args = 0
ARM GAS  C:\Users\z80\AppData\Local\Temp\cctIXSBd.s 			page 7


 334              	.LVL28:
 335 0000 F8B5     		push	{r3, r4, r5, r6, r7, lr}
 336              	.LCFI4:
 337              		.cfi_def_cfa_offset 24
 338              		.loc 1 313 0
 339 0002 0446     		mov	r4, r0
 340              		.cfi_offset 14, -4
 341              		.cfi_offset 7, -8
 342              		.cfi_offset 6, -12
 343              		.cfi_offset 5, -16
 344              		.cfi_offset 4, -20
 345              		.cfi_offset 3, -24
 346 0004 1546     		mov	r5, r2
 347 0006 0E46     		mov	r6, r1
 348              		.loc 1 315 0
 349 0008 FFF7FEFF 		bl	chDbgCheckClassI
 350              	.LVL29:
 351              		.loc 1 316 0
 352 000c D4F10103 		rsbs	r3, r4, #1
 353 0010 38BF     		it	cc
 354 0012 0023     		movcc	r3, #0
 355 0014 002D     		cmp	r5, #0
 356 0016 08BF     		it	eq
 357 0018 43F00103 		orreq	r3, r3, #1
 358 001c 002B     		cmp	r3, #0
 359 001e 26D1     		bne	.L23
 360              	.L19:
 361              		.loc 1 317 0
 362 0020 2378     		ldrb	r3, [r4, #0]	@ zero_extendqisi2
 363 0022 042B     		cmp	r3, #4
 364 0024 02D0     		beq	.L20
 365              		.loc 1 317 0 is_stmt 0 discriminator 1
 366 0026 1448     		ldr	r0, .L24
 367 0028 FFF7FEFF 		bl	chDbgPanic
 368              	.L20:
 369              		.loc 1 319 0 is_stmt 1
 370 002c 371D     		adds	r7, r6, #4
 371 002e 54F82730 		ldr	r3, [r4, r7, lsl #2]
 372 0032 13B1     		cbz	r3, .L21
 373              		.loc 1 319 0 is_stmt 0 discriminator 1
 374 0034 1148     		ldr	r0, .L24+4
 375 0036 FFF7FEFF 		bl	chDbgPanic
 376              	.L21:
 377              		.loc 1 323 0 is_stmt 1
 378 003a 2B68     		ldr	r3, [r5, #0]
 379 003c 13F01003 		ands	r3, r3, #16
 380 0040 0ED1     		bne	.L22
 381              		.loc 1 324 0
 382 0042 6969     		ldr	r1, [r5, #20]
 383 0044 0A46     		mov	r2, r1
 384 0046 42F8043B 		str	r3, [r2], #4
 385 004a 4B60     		str	r3, [r1, #4]
 386 004c 5360     		str	r3, [r2, #4]
 387              		.loc 1 325 0
 388 004e A969     		ldr	r1, [r5, #24]
 389 0050 0A46     		mov	r2, r1
 390 0052 42F8043B 		str	r3, [r2], #4
ARM GAS  C:\Users\z80\AppData\Local\Temp\cctIXSBd.s 			page 8


 391 0056 0432     		adds	r2, r2, #4
 392 0058 4B60     		str	r3, [r1, #4]
 393 005a 42F8043B 		str	r3, [r2], #4
 394 005e 1360     		str	r3, [r2, #0]
 395              	.L22:
 396              		.loc 1 327 0
 397 0060 44F82750 		str	r5, [r4, r7, lsl #2]
 398              		.loc 1 330 0
 399 0064 2046     		mov	r0, r4
 400 0066 3146     		mov	r1, r6
 401 0068 FFF7FEFF 		bl	usb_lld_init_endpoint
 402              		.loc 1 331 0
 403 006c F8BD     		pop	{r3, r4, r5, r6, r7, pc}
 404              	.L23:
 405              		.loc 1 316 0 discriminator 1
 406 006e 0448     		ldr	r0, .L24+8
 407 0070 FFF7FEFF 		bl	chDbgPanic
 408 0074 D4E7     		b	.L19
 409              	.L25:
 410 0076 00BF     		.align	2
 411              	.L24:
 412 0078 54000000 		.word	.LC5
 413 007c 70000000 		.word	.LC6
 414 0080 3C000000 		.word	.LC4
 415              		.cfi_endproc
 416              	.LFE68:
 417              		.size	usbInitEndpointI, .-usbInitEndpointI
 418 0084 AFF30080 		.section	.text.usbDisableEndpointsI,"ax",%progbits
 418      AFF30080 
 418      AFF30080 
 419              		.align	2
 420              		.p2align 4,,15
 421              		.global	usbDisableEndpointsI
 422              		.thumb
 423              		.thumb_func
 424              		.type	usbDisableEndpointsI, %function
 425              	usbDisableEndpointsI:
 426              	.LFB69:
 427              		.loc 1 344 0
 428              		.cfi_startproc
 429              		@ args = 0, pretend = 0, frame = 0
 430              		@ frame_needed = 0, uses_anonymous_args = 0
 431              	.LVL30:
 432 0000 10B5     		push	{r4, lr}
 433              	.LCFI5:
 434              		.cfi_def_cfa_offset 8
 435              		.loc 1 344 0
 436 0002 0446     		mov	r4, r0
 437              		.cfi_offset 14, -4
 438              		.cfi_offset 4, -8
 439              		.loc 1 347 0
 440 0004 FFF7FEFF 		bl	chDbgCheckClassI
 441              	.LVL31:
 442              		.loc 1 348 0
 443 0008 CCB1     		cbz	r4, .L29
 444              	.L27:
 445              		.loc 1 349 0
ARM GAS  C:\Users\z80\AppData\Local\Temp\cctIXSBd.s 			page 9


 446 000a 2378     		ldrb	r3, [r4, #0]	@ zero_extendqisi2
 447 000c 032B     		cmp	r3, #3
 448 000e 02D0     		beq	.L28
 449              		.loc 1 349 0 is_stmt 0 discriminator 1
 450 0010 0D48     		ldr	r0, .L30
 451 0012 FFF7FEFF 		bl	chDbgPanic
 452              	.L28:
 453              		.loc 1 352 0 is_stmt 1
 454 0016 A189     		ldrh	r1, [r4, #12]
 455              		.loc 1 353 0
 456 0018 E289     		ldrh	r2, [r4, #14]
 457              		.loc 1 355 0
 458 001a 0023     		movs	r3, #0
 459              		.loc 1 352 0
 460 001c 21F00101 		bic	r1, r1, #1
 461              		.loc 1 353 0
 462 0020 22F00102 		bic	r2, r2, #1
 463              		.loc 1 352 0
 464 0024 A181     		strh	r1, [r4, #12]	@ movhi
 465              		.loc 1 353 0
 466 0026 E281     		strh	r2, [r4, #14]	@ movhi
 467              	.LVL32:
 468              		.loc 1 355 0
 469 0028 6361     		str	r3, [r4, #20]
 470              	.LVL33:
 471 002a A361     		str	r3, [r4, #24]
 472              	.LVL34:
 473 002c E361     		str	r3, [r4, #28]
 474              	.LVL35:
 475 002e 2362     		str	r3, [r4, #32]
 476              	.LVL36:
 477 0030 6362     		str	r3, [r4, #36]
 478              	.LVL37:
 479 0032 A362     		str	r3, [r4, #40]
 480              	.LVL38:
 481 0034 E362     		str	r3, [r4, #44]
 482              	.LVL39:
 483              		.loc 1 358 0
 484 0036 2046     		mov	r0, r4
 485 0038 FFF7FEFF 		bl	usb_lld_disable_endpoints
 486              		.loc 1 359 0
 487 003c 10BD     		pop	{r4, pc}
 488              	.LVL40:
 489              	.L29:
 490              		.loc 1 348 0 discriminator 1
 491 003e 0348     		ldr	r0, .L30+4
 492 0040 FFF7FEFF 		bl	chDbgPanic
 493 0044 E1E7     		b	.L27
 494              	.L31:
 495 0046 00BF     		.align	2
 496              	.L30:
 497 0048 A8000000 		.word	.LC8
 498 004c 8C000000 		.word	.LC7
 499              		.cfi_endproc
 500              	.LFE69:
 501              		.size	usbDisableEndpointsI, .-usbDisableEndpointsI
 502              		.section	.text.usbStartReceiveI,"ax",%progbits
ARM GAS  C:\Users\z80\AppData\Local\Temp\cctIXSBd.s 			page 10


 503              		.align	2
 504              		.p2align 4,,15
 505              		.global	usbStartReceiveI
 506              		.thumb
 507              		.thumb_func
 508              		.type	usbStartReceiveI, %function
 509              	usbStartReceiveI:
 510              	.LFB70:
 511              		.loc 1 374 0
 512              		.cfi_startproc
 513              		@ args = 0, pretend = 0, frame = 0
 514              		@ frame_needed = 0, uses_anonymous_args = 0
 515              	.LVL41:
 516 0000 70B5     		push	{r4, r5, r6, lr}
 517              	.LCFI6:
 518              		.cfi_def_cfa_offset 16
 519              		.loc 1 374 0
 520 0002 0446     		mov	r4, r0
 521              		.cfi_offset 14, -4
 522              		.cfi_offset 6, -8
 523              		.cfi_offset 5, -12
 524              		.cfi_offset 4, -16
 525 0004 0E46     		mov	r6, r1
 526              		.loc 1 376 0
 527 0006 FFF7FEFF 		bl	chDbgCheckClassI
 528              	.LVL42:
 529              		.loc 1 377 0
 530 000a 94B1     		cbz	r4, .L36
 531              	.L33:
 532              		.loc 1 379 0
 533 000c E389     		ldrh	r3, [r4, #14]
 534 000e 53FA06F5 		asrs	r5, r3, r6
 535 0012 15F00105 		ands	r5, r5, #1
 536 0016 01D0     		beq	.L37
 537              		.loc 1 380 0
 538 0018 0120     		movs	r0, #1
 539              	.L34:
 540              		.loc 1 385 0
 541 001a 70BD     		pop	{r4, r5, r6, pc}
 542              	.L37:
 543              		.loc 1 382 0
 544 001c 0122     		movs	r2, #1
 545 001e B240     		lsls	r2, r2, r6
 546 0020 42EA0303 		orr	r3, r2, r3
 547              		.loc 1 383 0
 548 0024 2046     		mov	r0, r4
 549              		.loc 1 382 0
 550 0026 E381     		strh	r3, [r4, #14]	@ movhi
 551              		.loc 1 383 0
 552 0028 3146     		mov	r1, r6
 553 002a FFF7FEFF 		bl	usb_lld_start_out
 554              		.loc 1 384 0
 555 002e 2846     		mov	r0, r5
 556 0030 F3E7     		b	.L34
 557              	.L36:
 558              		.loc 1 377 0 discriminator 1
 559 0032 0248     		ldr	r0, .L38
ARM GAS  C:\Users\z80\AppData\Local\Temp\cctIXSBd.s 			page 11


 560 0034 FFF7FEFF 		bl	chDbgPanic
 561 0038 E8E7     		b	.L33
 562              	.L39:
 563 003a 00BF     		.align	2
 564              	.L38:
 565 003c C4000000 		.word	.LC9
 566              		.cfi_endproc
 567              	.LFE70:
 568              		.size	usbStartReceiveI, .-usbStartReceiveI
 569              		.section	.text.usbStartTransmitI,"ax",%progbits
 570              		.align	2
 571              		.p2align 4,,15
 572              		.global	usbStartTransmitI
 573              		.thumb
 574              		.thumb_func
 575              		.type	usbStartTransmitI, %function
 576              	usbStartTransmitI:
 577              	.LFB71:
 578              		.loc 1 400 0
 579              		.cfi_startproc
 580              		@ args = 0, pretend = 0, frame = 0
 581              		@ frame_needed = 0, uses_anonymous_args = 0
 582              	.LVL43:
 583 0000 70B5     		push	{r4, r5, r6, lr}
 584              	.LCFI7:
 585              		.cfi_def_cfa_offset 16
 586              		.loc 1 400 0
 587 0002 0446     		mov	r4, r0
 588              		.cfi_offset 14, -4
 589              		.cfi_offset 6, -8
 590              		.cfi_offset 5, -12
 591              		.cfi_offset 4, -16
 592 0004 0E46     		mov	r6, r1
 593              		.loc 1 402 0
 594 0006 FFF7FEFF 		bl	chDbgCheckClassI
 595              	.LVL44:
 596              		.loc 1 403 0
 597 000a 94B1     		cbz	r4, .L44
 598              	.L41:
 599              		.loc 1 405 0
 600 000c A389     		ldrh	r3, [r4, #12]
 601 000e 53FA06F5 		asrs	r5, r3, r6
 602 0012 15F00105 		ands	r5, r5, #1
 603 0016 01D0     		beq	.L45
 604              		.loc 1 406 0
 605 0018 0120     		movs	r0, #1
 606              	.L42:
 607              		.loc 1 411 0
 608 001a 70BD     		pop	{r4, r5, r6, pc}
 609              	.L45:
 610              		.loc 1 408 0
 611 001c 0122     		movs	r2, #1
 612 001e B240     		lsls	r2, r2, r6
 613 0020 42EA0303 		orr	r3, r2, r3
 614              		.loc 1 409 0
 615 0024 2046     		mov	r0, r4
 616              		.loc 1 408 0
ARM GAS  C:\Users\z80\AppData\Local\Temp\cctIXSBd.s 			page 12


 617 0026 A381     		strh	r3, [r4, #12]	@ movhi
 618              		.loc 1 409 0
 619 0028 3146     		mov	r1, r6
 620 002a FFF7FEFF 		bl	usb_lld_start_in
 621              		.loc 1 410 0
 622 002e 2846     		mov	r0, r5
 623 0030 F3E7     		b	.L42
 624              	.L44:
 625              		.loc 1 403 0 discriminator 1
 626 0032 0248     		ldr	r0, .L46
 627 0034 FFF7FEFF 		bl	chDbgPanic
 628 0038 E8E7     		b	.L41
 629              	.L47:
 630 003a 00BF     		.align	2
 631              	.L46:
 632 003c DC000000 		.word	.LC10
 633              		.cfi_endproc
 634              	.LFE71:
 635              		.size	usbStartTransmitI, .-usbStartTransmitI
 636              		.section	.text.usbStallReceiveI,"ax",%progbits
 637              		.align	2
 638              		.p2align 4,,15
 639              		.global	usbStallReceiveI
 640              		.thumb
 641              		.thumb_func
 642              		.type	usbStallReceiveI, %function
 643              	usbStallReceiveI:
 644              	.LFB72:
 645              		.loc 1 424 0
 646              		.cfi_startproc
 647              		@ args = 0, pretend = 0, frame = 0
 648              		@ frame_needed = 0, uses_anonymous_args = 0
 649              	.LVL45:
 650 0000 70B5     		push	{r4, r5, r6, lr}
 651              	.LCFI8:
 652              		.cfi_def_cfa_offset 16
 653              		.loc 1 424 0
 654 0002 0446     		mov	r4, r0
 655              		.cfi_offset 14, -4
 656              		.cfi_offset 6, -8
 657              		.cfi_offset 5, -12
 658              		.cfi_offset 4, -16
 659 0004 0E46     		mov	r6, r1
 660              		.loc 1 426 0
 661 0006 FFF7FEFF 		bl	chDbgCheckClassI
 662              	.LVL46:
 663              		.loc 1 427 0
 664 000a 64B1     		cbz	r4, .L52
 665              	.L49:
 666              		.loc 1 429 0
 667 000c E589     		ldrh	r5, [r4, #14]
 668 000e 3541     		asrs	r5, r5, r6
 669 0010 15F00105 		ands	r5, r5, #1
 670 0014 01D0     		beq	.L53
 671              		.loc 1 430 0
 672 0016 0120     		movs	r0, #1
 673              	.L50:
ARM GAS  C:\Users\z80\AppData\Local\Temp\cctIXSBd.s 			page 13


 674              		.loc 1 434 0
 675 0018 70BD     		pop	{r4, r5, r6, pc}
 676              	.L53:
 677              		.loc 1 432 0
 678 001a 2046     		mov	r0, r4
 679 001c 3146     		mov	r1, r6
 680 001e FFF7FEFF 		bl	usb_lld_stall_out
 681              		.loc 1 433 0
 682 0022 2846     		mov	r0, r5
 683 0024 F8E7     		b	.L50
 684              	.L52:
 685              		.loc 1 427 0 discriminator 1
 686 0026 0248     		ldr	r0, .L54
 687 0028 FFF7FEFF 		bl	chDbgPanic
 688 002c EEE7     		b	.L49
 689              	.L55:
 690 002e 00BF     		.align	2
 691              	.L54:
 692 0030 F4000000 		.word	.LC11
 693              		.cfi_endproc
 694              	.LFE72:
 695              		.size	usbStallReceiveI, .-usbStallReceiveI
 696 0034 AFF30080 		.section	.text.usbStallTransmitI,"ax",%progbits
 696      AFF30080 
 696      AFF30080 
 697              		.align	2
 698              		.p2align 4,,15
 699              		.global	usbStallTransmitI
 700              		.thumb
 701              		.thumb_func
 702              		.type	usbStallTransmitI, %function
 703              	usbStallTransmitI:
 704              	.LFB73:
 705              		.loc 1 447 0
 706              		.cfi_startproc
 707              		@ args = 0, pretend = 0, frame = 0
 708              		@ frame_needed = 0, uses_anonymous_args = 0
 709              	.LVL47:
 710 0000 70B5     		push	{r4, r5, r6, lr}
 711              	.LCFI9:
 712              		.cfi_def_cfa_offset 16
 713              		.loc 1 447 0
 714 0002 0446     		mov	r4, r0
 715              		.cfi_offset 14, -4
 716              		.cfi_offset 6, -8
 717              		.cfi_offset 5, -12
 718              		.cfi_offset 4, -16
 719 0004 0E46     		mov	r6, r1
 720              		.loc 1 449 0
 721 0006 FFF7FEFF 		bl	chDbgCheckClassI
 722              	.LVL48:
 723              		.loc 1 450 0
 724 000a 64B1     		cbz	r4, .L60
 725              	.L57:
 726              		.loc 1 452 0
 727 000c A589     		ldrh	r5, [r4, #12]
 728 000e 3541     		asrs	r5, r5, r6
ARM GAS  C:\Users\z80\AppData\Local\Temp\cctIXSBd.s 			page 14


 729 0010 15F00105 		ands	r5, r5, #1
 730 0014 01D0     		beq	.L61
 731              		.loc 1 453 0
 732 0016 0120     		movs	r0, #1
 733              	.L58:
 734              		.loc 1 457 0
 735 0018 70BD     		pop	{r4, r5, r6, pc}
 736              	.L61:
 737              		.loc 1 455 0
 738 001a 2046     		mov	r0, r4
 739 001c 3146     		mov	r1, r6
 740 001e FFF7FEFF 		bl	usb_lld_stall_in
 741              		.loc 1 456 0
 742 0022 2846     		mov	r0, r5
 743 0024 F8E7     		b	.L58
 744              	.L60:
 745              		.loc 1 450 0 discriminator 1
 746 0026 0248     		ldr	r0, .L62
 747 0028 FFF7FEFF 		bl	chDbgPanic
 748 002c EEE7     		b	.L57
 749              	.L63:
 750 002e 00BF     		.align	2
 751              	.L62:
 752 0030 0C010000 		.word	.LC12
 753              		.cfi_endproc
 754              	.LFE73:
 755              		.size	usbStallTransmitI, .-usbStallTransmitI
 756 0034 AFF30080 		.section	.text._usb_reset,"ax",%progbits
 756      AFF30080 
 756      AFF30080 
 757              		.align	2
 758              		.p2align 4,,15
 759              		.global	_usb_reset
 760              		.thumb
 761              		.thumb_func
 762              		.type	_usb_reset, %function
 763              	_usb_reset:
 764              	.LFB74:
 765              		.loc 1 468 0
 766              		.cfi_startproc
 767              		@ args = 0, pretend = 0, frame = 0
 768              		@ frame_needed = 0, uses_anonymous_args = 0
 769              	.LVL49:
 770 0000 08B5     		push	{r3, lr}
 771              	.LCFI10:
 772              		.cfi_def_cfa_offset 8
 773              		.loc 1 471 0
 774 0002 0221     		movs	r1, #2
 775              		.loc 1 472 0
 776 0004 0023     		movs	r3, #0
 777              		.cfi_offset 14, -4
 778              		.cfi_offset 3, -8
 779              		.loc 1 471 0
 780 0006 0170     		strb	r1, [r0, #0]
 781              		.loc 1 472 0
 782 0008 A0F84830 		strh	r3, [r0, #72]	@ movhi
 783              		.loc 1 473 0
ARM GAS  C:\Users\z80\AppData\Local\Temp\cctIXSBd.s 			page 15


 784 000c 80F84A30 		strb	r3, [r0, #74]
 785              		.loc 1 474 0
 786 0010 80F84B30 		strb	r3, [r0, #75]
 787              		.loc 1 475 0
 788 0014 8381     		strh	r3, [r0, #12]	@ movhi
 789              		.loc 1 476 0
 790 0016 C381     		strh	r3, [r0, #14]	@ movhi
 791              	.LVL50:
 792              		.loc 1 480 0
 793 0018 0361     		str	r3, [r0, #16]
 794              	.LVL51:
 795 001a 4361     		str	r3, [r0, #20]
 796              	.LVL52:
 797 001c 8361     		str	r3, [r0, #24]
 798              	.LVL53:
 799 001e C361     		str	r3, [r0, #28]
 800              	.LVL54:
 801 0020 0362     		str	r3, [r0, #32]
 802              	.LVL55:
 803 0022 4362     		str	r3, [r0, #36]
 804              	.LVL56:
 805 0024 8362     		str	r3, [r0, #40]
 806              	.LVL57:
 807 0026 C362     		str	r3, [r0, #44]
 808              	.LVL58:
 809              		.loc 1 483 0
 810 0028 80F83030 		strb	r3, [r0, #48]
 811              		.loc 1 486 0
 812 002c FFF7FEFF 		bl	usb_lld_reset
 813              	.LVL59:
 814              		.loc 1 487 0
 815 0030 08BD     		pop	{r3, pc}
 816              		.cfi_endproc
 817              	.LFE74:
 818              		.size	_usb_reset, .-_usb_reset
 819 0032 00BFAFF3 		.section	.text._usb_ep0setup,"ax",%progbits
 819      0080AFF3 
 819      0080AFF3 
 819      0080
 820              		.align	2
 821              		.p2align 4,,15
 822              		.global	_usb_ep0setup
 823              		.thumb
 824              		.thumb_func
 825              		.type	_usb_ep0setup, %function
 826              	_usb_ep0setup:
 827              	.LFB75:
 828              		.loc 1 499 0
 829              		.cfi_startproc
 830              		@ args = 0, pretend = 0, frame = 0
 831              		@ frame_needed = 0, uses_anonymous_args = 0
 832              	.LVL60:
 833 0000 F8B5     		push	{r3, r4, r5, r6, r7, lr}
 834              	.LCFI11:
 835              		.cfi_def_cfa_offset 24
 836              		.loc 1 502 0
 837 0002 0023     		movs	r3, #0
ARM GAS  C:\Users\z80\AppData\Local\Temp\cctIXSBd.s 			page 16


 838              		.cfi_offset 14, -4
 839              		.cfi_offset 7, -8
 840              		.cfi_offset 6, -12
 841              		.cfi_offset 5, -16
 842              		.cfi_offset 4, -20
 843              		.cfi_offset 3, -24
 844              		.loc 1 499 0
 845 0004 0446     		mov	r4, r0
 846              		.loc 1 502 0
 847 0006 80F83030 		strb	r3, [r0, #48]
 848              		.loc 1 503 0
 849 000a 00F14002 		add	r2, r0, #64
 850 000e FFF7FEFF 		bl	usb_lld_read_setup
 851              	.LVL61:
 852              		.loc 1 507 0
 853 0012 6368     		ldr	r3, [r4, #4]
 854 0014 9B68     		ldr	r3, [r3, #8]
 855 0016 002B     		cmp	r3, #0
 856 0018 1ED0     		beq	.L66
 857              		.loc 1 508 0 discriminator 1
 858 001a 2046     		mov	r0, r4
 859 001c 9847     		blx	r3
 860              		.loc 1 507 0 discriminator 1
 861 001e D8B1     		cbz	r0, .L66
 862              		.loc 1 520 0
 863 0020 A56B     		ldr	r5, [r4, #56]
 864 0022 94F84030 		ldrb	r3, [r4, #64]	@ zero_extendqisi2
 865              	.L103:
 866              		.loc 1 527 0
 867 0026 B4F84620 		ldrh	r2, [r4, #70]
 868              	.LVL62:
 869              		.loc 1 529 0
 870 002a AA42     		cmp	r2, r5
 871              		.loc 1 530 0
 872 002c 3CBF     		itt	cc
 873 002e A263     		strcc	r2, [r4, #56]
 874 0030 1546     		movcc	r5, r2
 875              		.loc 1 531 0
 876 0032 13F0800F 		tst	r3, #128
 877 0036 79D1     		bne	.L106
 878              		.loc 1 549 0
 879 0038 002D     		cmp	r5, #0
 880 003a 69D1     		bne	.L107
 881              		.loc 1 558 0
 882 003c 0423     		movs	r3, #4
 883 003e 84F83030 		strb	r3, [r4, #48]
 884              		.loc 1 559 0
 885 0042 2046     		mov	r0, r4
 886 0044 2946     		mov	r1, r5
 887 0046 2A46     		mov	r2, r5
 888              	.LVL63:
 889 0048 2B46     		mov	r3, r5
 890 004a FFF7FEFF 		bl	usb_lld_prepare_transmit
 891              		.loc 1 560 0
 892 004e 2046     		mov	r0, r4
 893 0050 2946     		mov	r1, r5
 894 0052 FFF7FEFF 		bl	usb_lld_start_in
ARM GAS  C:\Users\z80\AppData\Local\Temp\cctIXSBd.s 			page 17


 895              	.L65:
 896              		.loc 1 563 0
 897 0056 F8BD     		pop	{r3, r4, r5, r6, r7, pc}
 898              	.L66:
 899              		.loc 1 511 0
 900 0058 94F84030 		ldrb	r3, [r4, #64]	@ zero_extendqisi2
 901 005c 13F06006 		ands	r6, r3, #96
 902 0060 1A46     		mov	r2, r3
 903 0062 11D0     		beq	.L108
 904              	.L68:
 905              		.loc 1 516 0
 906 0064 0021     		movs	r1, #0
 907 0066 2046     		mov	r0, r4
 908 0068 FFF7FEFF 		bl	usb_lld_stall_in
 909              		.loc 1 517 0
 910 006c 2046     		mov	r0, r4
 911 006e 0021     		movs	r1, #0
 912 0070 FFF7FEFF 		bl	usb_lld_stall_out
 913              		.loc 1 518 0
 914 0074 6368     		ldr	r3, [r4, #4]
 915 0076 1B68     		ldr	r3, [r3, #0]
 916 0078 13B1     		cbz	r3, .L97
 917              		.loc 1 518 0 is_stmt 0 discriminator 1
 918 007a 2046     		mov	r0, r4
 919 007c 0521     		movs	r1, #5
 920 007e 9847     		blx	r3
 921              	.L97:
 922              		.loc 1 519 0 is_stmt 1
 923 0080 0523     		movs	r3, #5
 924 0082 84F83030 		strb	r3, [r4, #48]
 925              		.loc 1 520 0
 926 0086 E6E7     		b	.L65
 927              	.L108:
 928              	.LVL64:
 929              	.LBB8:
 930              	.LBB9:
 931              		.loc 1 95 0
 932 0088 94F84170 		ldrb	r7, [r4, #65]	@ zero_extendqisi2
 933              		.loc 1 93 0
 934 008c 03F07F01 		and	r1, r3, #127
 935              		.loc 1 94 0
 936 0090 41EA0727 		orr	r7, r1, r7, lsl #8
 937              		.loc 1 93 0
 938 0094 B7F5407F 		cmp	r7, #768
 939 0098 00F0A680 		beq	.L75
 940 009c 16DD     		ble	.L109
 941 009e B7F5C06F 		cmp	r7, #1536
 942 00a2 00F0CB80 		beq	.L78
 943 00a6 5EDD     		ble	.L110
 944 00a8 B7F5106F 		cmp	r7, #2304
 945 00ac 00F0B380 		beq	.L80
 946 00b0 40F60242 		movw	r2, #3074
 947 00b4 9742     		cmp	r7, r2
 948 00b6 69D0     		beq	.L71
 949 00b8 B7F5006F 		cmp	r7, #2048
 950 00bc D2D1     		bne	.L68
 951              		.loc 1 142 0
ARM GAS  C:\Users\z80\AppData\Local\Temp\cctIXSBd.s 			page 18


 952 00be 0125     		movs	r5, #1
 953 00c0 04F14B02 		add	r2, r4, #75
 954 00c4 6263     		str	r2, [r4, #52]
 955 00c6 A563     		str	r5, [r4, #56]
 956 00c8 E663     		str	r6, [r4, #60]
 957 00ca ACE7     		b	.L103
 958              	.L109:
 959              		.loc 1 93 0
 960 00cc 022F     		cmp	r7, #2
 961 00ce 74D0     		beq	.L72
 962 00d0 57DD     		ble	.L111
 963 00d2 B7F5807F 		cmp	r7, #256
 964 00d6 60D0     		beq	.L73
 965 00d8 B7F5817F 		cmp	r7, #258
 966 00dc C2D1     		bne	.L68
 967              		.loc 1 188 0
 968 00de 94F84230 		ldrb	r3, [r4, #66]	@ zero_extendqisi2
 969 00e2 002B     		cmp	r3, #0
 970 00e4 BED1     		bne	.L68
 971              		.loc 1 191 0
 972 00e6 94F84430 		ldrb	r3, [r4, #68]	@ zero_extendqisi2
 973 00ea 13F00F01 		ands	r1, r3, #15
 974 00ee 09D0     		beq	.L95
 975              		.loc 1 192 0
 976 00f0 13F0800F 		tst	r3, #128
 977 00f4 40F0DE80 		bne	.L112
 978              		.loc 1 195 0
 979 00f8 C9B2     		uxtb	r1, r1
 980 00fa 2046     		mov	r0, r4
 981 00fc FFF7FEFF 		bl	usb_lld_clear_out
 982 0100 94F84020 		ldrb	r2, [r4, #64]	@ zero_extendqisi2
 983              	.L95:
 984              		.loc 1 210 0
 985 0104 0025     		movs	r5, #0
 986 0106 6563     		str	r5, [r4, #52]
 987 0108 A563     		str	r5, [r4, #56]
 988 010a E563     		str	r5, [r4, #60]
 989 010c 1346     		mov	r3, r2
 990 010e 8AE7     		b	.L103
 991              	.LVL65:
 992              	.L107:
 993              	.LBE9:
 994              	.LBE8:
 995              		.loc 1 551 0
 996 0110 0323     		movs	r3, #3
 997 0112 84F83030 		strb	r3, [r4, #48]
 998              		.loc 1 552 0
 999 0116 2046     		mov	r0, r4
 1000 0118 0021     		movs	r1, #0
 1001 011a 626B     		ldr	r2, [r4, #52]
 1002              	.LVL66:
 1003 011c 2B46     		mov	r3, r5
 1004 011e FFF7FEFF 		bl	usb_lld_prepare_receive
 1005              		.loc 1 553 0
 1006 0122 2046     		mov	r0, r4
 1007 0124 0021     		movs	r1, #0
 1008 0126 FFF7FEFF 		bl	usb_lld_start_out
ARM GAS  C:\Users\z80\AppData\Local\Temp\cctIXSBd.s 			page 19


 1009 012a 94E7     		b	.L65
 1010              	.LVL67:
 1011              	.L106:
 1012              		.loc 1 533 0
 1013 012c 6DB1     		cbz	r5, .L101
 1014              		.loc 1 535 0
 1015 012e 0123     		movs	r3, #1
 1016 0130 84F83030 		strb	r3, [r4, #48]
 1017              		.loc 1 536 0
 1018 0134 2046     		mov	r0, r4
 1019 0136 0021     		movs	r1, #0
 1020 0138 626B     		ldr	r2, [r4, #52]
 1021              	.LVL68:
 1022 013a 2B46     		mov	r3, r5
 1023 013c FFF7FEFF 		bl	usb_lld_prepare_transmit
 1024              		.loc 1 537 0
 1025 0140 2046     		mov	r0, r4
 1026 0142 0021     		movs	r1, #0
 1027 0144 FFF7FEFF 		bl	usb_lld_start_in
 1028 0148 85E7     		b	.L65
 1029              	.LVL69:
 1030              	.L101:
 1031              		.loc 1 542 0
 1032 014a 0223     		movs	r3, #2
 1033 014c 84F83030 		strb	r3, [r4, #48]
 1034              		.loc 1 543 0
 1035 0150 2046     		mov	r0, r4
 1036 0152 2946     		mov	r1, r5
 1037 0154 2A46     		mov	r2, r5
 1038              	.LVL70:
 1039 0156 2B46     		mov	r3, r5
 1040 0158 FFF7FEFF 		bl	usb_lld_prepare_receive
 1041              		.loc 1 544 0
 1042 015c 2046     		mov	r0, r4
 1043 015e 2946     		mov	r1, r5
 1044 0160 FFF7FEFF 		bl	usb_lld_start_out
 1045 0164 77E7     		b	.L65
 1046              	.LVL71:
 1047              	.L110:
 1048              	.LBB11:
 1049              	.LBB10:
 1050              		.loc 1 93 0
 1051 0166 40F20231 		movw	r1, #770
 1052 016a 8F42     		cmp	r7, r1
 1053 016c 7BD0     		beq	.L76
 1054 016e B7F5A06F 		cmp	r7, #1280
 1055 0172 7FF477AF 		bne	.L68
 1056              		.loc 1 128 0
 1057 0176 564A     		ldr	r2, .L115
 1058 0178 6663     		str	r6, [r4, #52]
 1059 017a A663     		str	r6, [r4, #56]
 1060 017c E263     		str	r2, [r4, #60]
 1061 017e 3546     		mov	r5, r6
 1062 0180 51E7     		b	.L103
 1063              	.L111:
 1064              		.loc 1 93 0
 1065 0182 002F     		cmp	r7, #0
ARM GAS  C:\Users\z80\AppData\Local\Temp\cctIXSBd.s 			page 20


 1066 0184 40D0     		beq	.L70
 1067 0186 012F     		cmp	r7, #1
 1068 0188 7FF46CAF 		bne	.L68
 1069              	.L71:
 1070              		.loc 1 158 0
 1071 018c 514A     		ldr	r2, .L115+4
 1072 018e 0225     		movs	r5, #2
 1073 0190 6263     		str	r2, [r4, #52]
 1074 0192 0022     		movs	r2, #0
 1075 0194 A563     		str	r5, [r4, #56]
 1076 0196 E263     		str	r2, [r4, #60]
 1077 0198 45E7     		b	.L103
 1078              	.L73:
 1079              		.loc 1 103 0
 1080 019a 94F84220 		ldrb	r2, [r4, #66]	@ zero_extendqisi2
 1081 019e 012A     		cmp	r2, #1
 1082 01a0 7FF460AF 		bne	.L68
 1083              		.loc 1 104 0
 1084 01a4 B4F84820 		ldrh	r2, [r4, #72]
 1085              		.loc 1 105 0
 1086 01a8 6663     		str	r6, [r4, #52]
 1087              		.loc 1 104 0
 1088 01aa 22F00202 		bic	r2, r2, #2
 1089 01ae A4F84820 		strh	r2, [r4, #72]	@ movhi
 1090              		.loc 1 105 0
 1091 01b2 A663     		str	r6, [r4, #56]
 1092 01b4 E663     		str	r6, [r4, #60]
 1093 01b6 3546     		mov	r5, r6
 1094 01b8 35E7     		b	.L103
 1095              	.L72:
 1096              		.loc 1 162 0
 1097 01ba 94F84410 		ldrb	r1, [r4, #68]	@ zero_extendqisi2
 1098 01be 11F0800F 		tst	r1, #128
 1099 01c2 68D1     		bne	.L113
 1100              		.loc 1 175 0
 1101 01c4 01F00F01 		and	r1, r1, #15
 1102 01c8 2046     		mov	r0, r4
 1103 01ca FFF7FEFF 		bl	usb_lld_get_status_out
 1104 01ce 0128     		cmp	r0, #1
 1105 01d0 68D0     		beq	.L91
 1106              	.L105:
 1107 01d2 0228     		cmp	r0, #2
 1108 01d4 7FF446AF 		bne	.L68
 1109              		.loc 1 180 0
 1110 01d8 3F4B     		ldr	r3, .L115+8
 1111 01da A063     		str	r0, [r4, #56]
 1112 01dc 6363     		str	r3, [r4, #52]
 1113 01de E663     		str	r6, [r4, #60]
 1114 01e0 94F84030 		ldrb	r3, [r4, #64]	@ zero_extendqisi2
 1115 01e4 0546     		mov	r5, r0
 1116 01e6 1EE7     		b	.L103
 1117              	.L75:
 1118              		.loc 1 112 0
 1119 01e8 94F84220 		ldrb	r2, [r4, #66]	@ zero_extendqisi2
 1120 01ec 012A     		cmp	r2, #1
 1121 01ee 7FF439AF 		bne	.L68
 1122              		.loc 1 113 0
ARM GAS  C:\Users\z80\AppData\Local\Temp\cctIXSBd.s 			page 21


 1123 01f2 B4F84820 		ldrh	r2, [r4, #72]
 1124              		.loc 1 114 0
 1125 01f6 6663     		str	r6, [r4, #52]
 1126              		.loc 1 113 0
 1127 01f8 42F00202 		orr	r2, r2, #2
 1128 01fc A4F84820 		strh	r2, [r4, #72]	@ movhi
 1129              		.loc 1 114 0
 1130 0200 A663     		str	r6, [r4, #56]
 1131 0202 E663     		str	r6, [r4, #60]
 1132 0204 3546     		mov	r5, r6
 1133 0206 0EE7     		b	.L103
 1134              	.L70:
 1135              		.loc 1 98 0
 1136 0208 0225     		movs	r5, #2
 1137 020a 04F14802 		add	r2, r4, #72
 1138 020e 6263     		str	r2, [r4, #52]
 1139 0210 A563     		str	r5, [r4, #56]
 1140 0212 E763     		str	r7, [r4, #60]
 1141 0214 07E7     		b	.L103
 1142              	.L80:
 1143              		.loc 1 146 0
 1144 0216 94F84230 		ldrb	r3, [r4, #66]	@ zero_extendqisi2
 1145 021a 84F84B30 		strb	r3, [r4, #75]
 1146              		.loc 1 147 0
 1147 021e 002B     		cmp	r3, #0
 1148 0220 36D1     		bne	.L85
 1149              		.loc 1 148 0
 1150 0222 0323     		movs	r3, #3
 1151 0224 2370     		strb	r3, [r4, #0]
 1152              	.L86:
 1153              		.loc 1 151 0
 1154 0226 6368     		ldr	r3, [r4, #4]
 1155 0228 1B68     		ldr	r3, [r3, #0]
 1156 022a 002B     		cmp	r3, #0
 1157 022c 3FF46AAF 		beq	.L95
 1158 0230 2046     		mov	r0, r4
 1159 0232 0221     		movs	r1, #2
 1160 0234 9847     		blx	r3
 1161 0236 94F84020 		ldrb	r2, [r4, #64]	@ zero_extendqisi2
 1162 023a 63E7     		b	.L95
 1163              	.L78:
 1164              		.loc 1 133 0
 1165 023c 6068     		ldr	r0, [r4, #4]
 1166 023e 94F84310 		ldrb	r1, [r4, #67]	@ zero_extendqisi2
 1167 0242 4568     		ldr	r5, [r0, #4]
 1168 0244 94F84220 		ldrb	r2, [r4, #66]	@ zero_extendqisi2
 1169 0248 B4F84430 		ldrh	r3, [r4, #68]
 1170 024c 2046     		mov	r0, r4
 1171 024e A847     		blx	r5
 1172              	.LVL72:
 1173              		.loc 1 136 0
 1174 0250 0028     		cmp	r0, #0
 1175 0252 3FF407AF 		beq	.L68
 1176              		.loc 1 138 0
 1177 0256 4368     		ldr	r3, [r0, #4]
 1178 0258 0568     		ldr	r5, [r0, #0]
 1179 025a 6363     		str	r3, [r4, #52]
ARM GAS  C:\Users\z80\AppData\Local\Temp\cctIXSBd.s 			page 22


 1180 025c A563     		str	r5, [r4, #56]
 1181 025e E663     		str	r6, [r4, #60]
 1182 0260 94F84030 		ldrb	r3, [r4, #64]	@ zero_extendqisi2
 1183 0264 DFE6     		b	.L103
 1184              	.LVL73:
 1185              	.L76:
 1186              		.loc 1 201 0
 1187 0266 94F84230 		ldrb	r3, [r4, #66]	@ zero_extendqisi2
 1188 026a 002B     		cmp	r3, #0
 1189 026c 7FF4FAAE 		bne	.L68
 1190              		.loc 1 204 0
 1191 0270 94F84430 		ldrb	r3, [r4, #68]	@ zero_extendqisi2
 1192 0274 13F00F01 		ands	r1, r3, #15
 1193 0278 3FF444AF 		beq	.L95
 1194              		.loc 1 205 0
 1195 027c 13F0800F 		tst	r3, #128
 1196 0280 1FD1     		bne	.L114
 1197              		.loc 1 208 0
 1198 0282 C9B2     		uxtb	r1, r1
 1199 0284 2046     		mov	r0, r4
 1200 0286 FFF7FEFF 		bl	usb_lld_stall_out
 1201 028a 94F84020 		ldrb	r2, [r4, #64]	@ zero_extendqisi2
 1202 028e 39E7     		b	.L95
 1203              	.L85:
 1204              		.loc 1 150 0
 1205 0290 0423     		movs	r3, #4
 1206 0292 2370     		strb	r3, [r4, #0]
 1207 0294 C7E7     		b	.L86
 1208              	.L113:
 1209              		.loc 1 163 0
 1210 0296 01F00F01 		and	r1, r1, #15
 1211 029a 2046     		mov	r0, r4
 1212 029c FFF7FEFF 		bl	usb_lld_get_status_in
 1213 02a0 0128     		cmp	r0, #1
 1214 02a2 96D1     		bne	.L105
 1215              	.L91:
 1216              		.loc 1 177 0
 1217 02a4 0D4B     		ldr	r3, .L115+12
 1218 02a6 A763     		str	r7, [r4, #56]
 1219 02a8 6363     		str	r3, [r4, #52]
 1220 02aa E663     		str	r6, [r4, #60]
 1221 02ac 94F84030 		ldrb	r3, [r4, #64]	@ zero_extendqisi2
 1222 02b0 3D46     		mov	r5, r7
 1223 02b2 B8E6     		b	.L103
 1224              	.L112:
 1225              		.loc 1 193 0
 1226 02b4 C9B2     		uxtb	r1, r1
 1227 02b6 2046     		mov	r0, r4
 1228 02b8 FFF7FEFF 		bl	usb_lld_clear_in
 1229 02bc 94F84020 		ldrb	r2, [r4, #64]	@ zero_extendqisi2
 1230 02c0 20E7     		b	.L95
 1231              	.L114:
 1232              		.loc 1 206 0
 1233 02c2 C9B2     		uxtb	r1, r1
 1234 02c4 2046     		mov	r0, r4
 1235 02c6 FFF7FEFF 		bl	usb_lld_stall_in
 1236 02ca 94F84020 		ldrb	r2, [r4, #64]	@ zero_extendqisi2
ARM GAS  C:\Users\z80\AppData\Local\Temp\cctIXSBd.s 			page 23


 1237 02ce 19E7     		b	.L95
 1238              	.L116:
 1239              		.align	2
 1240              	.L115:
 1241 02d0 00000000 		.word	set_address
 1242 02d4 00000000 		.word	.LANCHOR0
 1243 02d8 00000000 		.word	.LANCHOR2
 1244 02dc 00000000 		.word	.LANCHOR1
 1245              	.LBE10:
 1246              	.LBE11:
 1247              		.cfi_endproc
 1248              	.LFE75:
 1249              		.size	_usb_ep0setup, .-_usb_ep0setup
 1250              		.section	.text._usb_ep0in,"ax",%progbits
 1251              		.align	2
 1252              		.p2align 4,,15
 1253              		.global	_usb_ep0in
 1254              		.thumb
 1255              		.thumb_func
 1256              		.type	_usb_ep0in, %function
 1257              	_usb_ep0in:
 1258              	.LFB76:
 1259              		.loc 1 575 0
 1260              		.cfi_startproc
 1261              		@ args = 0, pretend = 0, frame = 0
 1262              		@ frame_needed = 0, uses_anonymous_args = 0
 1263              	.LVL74:
 1264 0000 38B5     		push	{r3, r4, r5, lr}
 1265              	.LCFI12:
 1266              		.cfi_def_cfa_offset 16
 1267              		.loc 1 579 0
 1268 0002 90F83030 		ldrb	r3, [r0, #48]	@ zero_extendqisi2
 1269              		.cfi_offset 14, -4
 1270              		.cfi_offset 5, -8
 1271              		.cfi_offset 4, -12
 1272              		.cfi_offset 3, -16
 1273              		.loc 1 575 0
 1274 0006 0446     		mov	r4, r0
 1275              		.loc 1 579 0
 1276 0008 012B     		cmp	r3, #1
 1277 000a 19D0     		beq	.L119
 1278 000c 042B     		cmp	r3, #4
 1279 000e 10D0     		beq	.L126
 1280              		.loc 1 609 0
 1281 0010 0021     		movs	r1, #0
 1282              	.LVL75:
 1283 0012 FFF7FEFF 		bl	usb_lld_stall_in
 1284              	.LVL76:
 1285              		.loc 1 610 0
 1286 0016 2046     		mov	r0, r4
 1287 0018 0021     		movs	r1, #0
 1288 001a FFF7FEFF 		bl	usb_lld_stall_out
 1289              		.loc 1 611 0
 1290 001e 6368     		ldr	r3, [r4, #4]
 1291 0020 1B68     		ldr	r3, [r3, #0]
 1292 0022 13B1     		cbz	r3, .L124
 1293              		.loc 1 611 0 is_stmt 0 discriminator 1
ARM GAS  C:\Users\z80\AppData\Local\Temp\cctIXSBd.s 			page 24


 1294 0024 2046     		mov	r0, r4
 1295 0026 0521     		movs	r1, #5
 1296 0028 9847     		blx	r3
 1297              	.L124:
 1298              		.loc 1 612 0 is_stmt 1
 1299 002a 0523     		movs	r3, #5
 1300 002c 84F83030 		strb	r3, [r4, #48]
 1301              	.L117:
 1302              		.loc 1 613 0
 1303 0030 38BD     		pop	{r3, r4, r5, pc}
 1304              	.LVL77:
 1305              	.L126:
 1306              		.loc 1 599 0
 1307 0032 C36B     		ldr	r3, [r0, #60]
 1308 0034 03B1     		cbz	r3, .L123
 1309              		.loc 1 600 0
 1310 0036 9847     		blx	r3
 1311              	.LVL78:
 1312              	.L123:
 1313              		.loc 1 601 0
 1314 0038 0023     		movs	r3, #0
 1315 003a 84F83030 		strb	r3, [r4, #48]
 1316              		.loc 1 602 0
 1317 003e F7E7     		b	.L117
 1318              	.LVL79:
 1319              	.L119:
 1320              		.loc 1 585 0
 1321 0040 836B     		ldr	r3, [r0, #56]
 1322              		.loc 1 581 0
 1323 0042 B0F84620 		ldrh	r2, [r0, #70]
 1324              		.loc 1 585 0
 1325 0046 9A42     		cmp	r2, r3
 1326 0048 06D9     		bls	.L121
 1327              		.loc 1 586 0 discriminator 1
 1328 004a 0269     		ldr	r2, [r0, #16]
 1329 004c 128A     		ldrh	r2, [r2, #16]
 1330 004e B3FBF2F5 		udiv	r5, r3, r2
 1331 0052 02FB1535 		mls	r5, r2, r5, r3
 1332              		.loc 1 585 0 discriminator 1
 1333 0056 6DB1     		cbz	r5, .L127
 1334              	.L121:
 1335              		.loc 1 594 0
 1336 0058 0021     		movs	r1, #0
 1337              	.LVL80:
 1338              		.loc 1 593 0
 1339 005a 0223     		movs	r3, #2
 1340 005c 84F83030 		strb	r3, [r4, #48]
 1341              		.loc 1 594 0
 1342 0060 2046     		mov	r0, r4
 1343 0062 0A46     		mov	r2, r1
 1344 0064 0B46     		mov	r3, r1
 1345 0066 FFF7FEFF 		bl	usb_lld_prepare_receive
 1346              	.LVL81:
 1347              		.loc 1 595 0
 1348 006a 2046     		mov	r0, r4
 1349 006c 0021     		movs	r1, #0
 1350 006e FFF7FEFF 		bl	usb_lld_start_out
ARM GAS  C:\Users\z80\AppData\Local\Temp\cctIXSBd.s 			page 25


 1351              		.loc 1 596 0
 1352 0072 DDE7     		b	.L117
 1353              	.LVL82:
 1354              	.L127:
 1355              		.loc 1 587 0
 1356 0074 2946     		mov	r1, r5
 1357              	.LVL83:
 1358 0076 2A46     		mov	r2, r5
 1359 0078 2B46     		mov	r3, r5
 1360 007a FFF7FEFF 		bl	usb_lld_prepare_transmit
 1361              	.LVL84:
 1362              		.loc 1 588 0
 1363 007e 2046     		mov	r0, r4
 1364 0080 2946     		mov	r1, r5
 1365 0082 FFF7FEFF 		bl	usb_lld_start_in
 1366              		.loc 1 589 0
 1367 0086 D3E7     		b	.L117
 1368              		.cfi_endproc
 1369              	.LFE76:
 1370              		.size	_usb_ep0in, .-_usb_ep0in
 1371 0088 AFF30080 		.section	.text._usb_ep0out,"ax",%progbits
 1371      AFF30080 
 1372              		.align	2
 1373              		.p2align 4,,15
 1374              		.global	_usb_ep0out
 1375              		.thumb
 1376              		.thumb_func
 1377              		.type	_usb_ep0out, %function
 1378              	_usb_ep0out:
 1379              	.LFB77:
 1380              		.loc 1 625 0
 1381              		.cfi_startproc
 1382              		@ args = 0, pretend = 0, frame = 0
 1383              		@ frame_needed = 0, uses_anonymous_args = 0
 1384              	.LVL85:
 1385              		.loc 1 628 0
 1386 0000 90F83030 		ldrb	r3, [r0, #48]	@ zero_extendqisi2
 1387              		.loc 1 625 0
 1388 0004 10B5     		push	{r4, lr}
 1389              	.LCFI13:
 1390              		.cfi_def_cfa_offset 8
 1391              		.loc 1 628 0
 1392 0006 022B     		cmp	r3, #2
 1393              		.loc 1 625 0
 1394 0008 0446     		mov	r4, r0
 1395              		.cfi_offset 14, -4
 1396              		.cfi_offset 4, -8
 1397              		.loc 1 628 0
 1398 000a 20D0     		beq	.L130
 1399 000c 032B     		cmp	r3, #3
 1400 000e 11D0     		beq	.L135
 1401              	.L129:
 1402              		.loc 1 650 0
 1403 0010 0021     		movs	r1, #0
 1404              	.LVL86:
 1405 0012 2046     		mov	r0, r4
 1406              	.LVL87:
ARM GAS  C:\Users\z80\AppData\Local\Temp\cctIXSBd.s 			page 26


 1407 0014 FFF7FEFF 		bl	usb_lld_stall_in
 1408              		.loc 1 651 0
 1409 0018 2046     		mov	r0, r4
 1410 001a 0021     		movs	r1, #0
 1411 001c FFF7FEFF 		bl	usb_lld_stall_out
 1412              		.loc 1 652 0
 1413 0020 6368     		ldr	r3, [r4, #4]
 1414 0022 1B68     		ldr	r3, [r3, #0]
 1415 0024 13B1     		cbz	r3, .L134
 1416              		.loc 1 652 0 is_stmt 0 discriminator 1
 1417 0026 2046     		mov	r0, r4
 1418 0028 0521     		movs	r1, #5
 1419 002a 9847     		blx	r3
 1420              	.L134:
 1421              		.loc 1 653 0 is_stmt 1
 1422 002c 0523     		movs	r3, #5
 1423 002e 84F83030 		strb	r3, [r4, #48]
 1424              	.L128:
 1425              		.loc 1 654 0
 1426 0032 10BD     		pop	{r4, pc}
 1427              	.LVL88:
 1428              	.L135:
 1429              		.loc 1 632 0
 1430 0034 0021     		movs	r1, #0
 1431              	.LVL89:
 1432              		.loc 1 631 0
 1433 0036 0423     		movs	r3, #4
 1434 0038 80F83030 		strb	r3, [r0, #48]
 1435              		.loc 1 632 0
 1436 003c 0A46     		mov	r2, r1
 1437 003e 0B46     		mov	r3, r1
 1438 0040 FFF7FEFF 		bl	usb_lld_prepare_transmit
 1439              		.loc 1 633 0
 1440 0044 2046     		mov	r0, r4
 1441 0046 0021     		movs	r1, #0
 1442 0048 FFF7FEFF 		bl	usb_lld_start_in
 1443              		.loc 1 634 0
 1444 004c F1E7     		b	.L128
 1445              	.LVL90:
 1446              	.L130:
 1447              		.loc 1 638 0
 1448 004e 0369     		ldr	r3, [r0, #16]
 1449 0050 9B69     		ldr	r3, [r3, #24]
 1450 0052 DB68     		ldr	r3, [r3, #12]
 1451 0054 002B     		cmp	r3, #0
 1452 0056 DBD1     		bne	.L129
 1453              		.loc 1 640 0
 1454 0058 C36B     		ldr	r3, [r0, #60]
 1455 005a 03B1     		cbz	r3, .L133
 1456              		.loc 1 641 0
 1457 005c 9847     		blx	r3
 1458              	.LVL91:
 1459              	.L133:
 1460              		.loc 1 642 0
 1461 005e 0023     		movs	r3, #0
 1462 0060 84F83030 		strb	r3, [r4, #48]
 1463              		.loc 1 643 0
ARM GAS  C:\Users\z80\AppData\Local\Temp\cctIXSBd.s 			page 27


 1464 0064 E5E7     		b	.L128
 1465              		.cfi_endproc
 1466              	.LFE77:
 1467              		.size	_usb_ep0out, .-_usb_ep0out
 1468 0066 00BFAFF3 		.section	.rodata.zero_status,"a",%progbits
 1468      0080AFF3 
 1468      0080
 1469              		.align	2
 1470              		.set	.LANCHOR0,. + 0
 1471              		.type	zero_status, %object
 1472              		.size	zero_status, 2
 1473              	zero_status:
 1474 0000 0000     		.space	2
 1475 0002 0000     		.section	.rodata.active_status,"a",%progbits
 1476              		.align	2
 1477              		.set	.LANCHOR2,. + 0
 1478              		.type	active_status, %object
 1479              		.size	active_status, 2
 1480              	active_status:
 1481 0000 0000     		.space	2
 1482 0002 0000     		.section	.rodata.str1.4,"aMS",%progbits,1
 1483              		.align	2
 1484              	.LC0:
 1485 0000 22757362 		.ascii	"\"usbStart\"()\000"
 1485      53746172 
 1485      74222829 
 1485      00
 1486 000d 000000   		.space	3
 1487              	.LC1:
 1488 0010 75736253 		.ascii	"usbStart(), #1\000"
 1488      74617274 
 1488      28292C20 
 1488      233100
 1489 001f 00       		.space	1
 1490              	.LC2:
 1491 0020 22757362 		.ascii	"\"usbStop\"()\000"
 1491      53746F70 
 1491      22282900 
 1492              	.LC3:
 1493 002c 75736253 		.ascii	"usbStop(), #1\000"
 1493      746F7028 
 1493      292C2023 
 1493      3100
 1494 003a 0000     		.space	2
 1495              	.LC4:
 1496 003c 22757362 		.ascii	"\"usbInitEndpointI\"()\000"
 1496      496E6974 
 1496      456E6470 
 1496      6F696E74 
 1496      49222829 
 1497 0051 000000   		.space	3
 1498              	.LC5:
 1499 0054 75736245 		.ascii	"usbEnableEndpointI(), #1\000"
 1499      6E61626C 
 1499      65456E64 
 1499      706F696E 
 1499      74492829 
ARM GAS  C:\Users\z80\AppData\Local\Temp\cctIXSBd.s 			page 28


 1500 006d 000000   		.space	3
 1501              	.LC6:
 1502 0070 75736245 		.ascii	"usbEnableEndpointI(), #2\000"
 1502      6E61626C 
 1502      65456E64 
 1502      706F696E 
 1502      74492829 
 1503 0089 000000   		.space	3
 1504              	.LC7:
 1505 008c 22757362 		.ascii	"\"usbDisableEndpointsI\"()\000"
 1505      44697361 
 1505      626C6545 
 1505      6E64706F 
 1505      696E7473 
 1506 00a5 000000   		.space	3
 1507              	.LC8:
 1508 00a8 75736244 		.ascii	"usbDisableEndpointsI(), #1\000"
 1508      69736162 
 1508      6C65456E 
 1508      64706F69 
 1508      6E747349 
 1509 00c3 00       		.space	1
 1510              	.LC9:
 1511 00c4 22757362 		.ascii	"\"usbStartReceiveI\"()\000"
 1511      53746172 
 1511      74526563 
 1511      65697665 
 1511      49222829 
 1512 00d9 000000   		.space	3
 1513              	.LC10:
 1514 00dc 22757362 		.ascii	"\"usbStartTransmitI\"()\000"
 1514      53746172 
 1514      74547261 
 1514      6E736D69 
 1514      74492228 
 1515 00f2 0000     		.space	2
 1516              	.LC11:
 1517 00f4 22757362 		.ascii	"\"usbStallReceiveI\"()\000"
 1517      5374616C 
 1517      6C526563 
 1517      65697665 
 1517      49222829 
 1518 0109 000000   		.space	3
 1519              	.LC12:
 1520 010c 22757362 		.ascii	"\"usbStallTransmitI\"()\000"
 1520      5374616C 
 1520      6C547261 
 1520      6E736D69 
 1520      74492228 
 1521 0122 0000     		.section	.rodata.halted_status,"a",%progbits
 1522              		.align	2
 1523              		.set	.LANCHOR1,. + 0
 1524              		.type	halted_status, %object
 1525              		.size	halted_status, 2
 1526              	halted_status:
 1527 0000 01       		.byte	1
 1528 0001 00       		.byte	0
ARM GAS  C:\Users\z80\AppData\Local\Temp\cctIXSBd.s 			page 29


 1529 0002 0000     		.text
 1530              	.Letext0: