ARM GAS  C:\Users\z80\AppData\Local\Temp\cctIXSBd.s 			page 1


   1              		.syntax unified
   2              		.cpu cortex-m3
   3              		.fpu softvfp
   4              		.eabi_attribute 20, 1
   5              		.eabi_attribute 21, 1
   6              		.eabi_attribute 23, 3
   7              		.eabi_attribute 24, 1
   8              		.eabi_attribute 25, 1
   9              		.eabi_attribute 26, 1
  10              		.eabi_attribute 30, 2
  11              		.eabi_attribute 18, 4
  12              		.thumb
  13              		.file	"usb.c"
  14              		.section	.debug_abbrev,"",%progbits
  15              	.Ldebug_abbrev0:
  16              		.section	.debug_info,"",%progbits
  17              	.Ldebug_info0:
  18              		.section	.debug_line,"",%progbits
  19              	.Ldebug_line0:
  20 0000 5B040000 		.text
  20      0200A501 
  20      00000201 
  20      FB0E0D00 
  20      01010101 
  21              	.Ltext0:
  22              		.cfi_sections	.debug_frame
  23              		.section	.text.set_address,"ax",%progbits
  24              		.align	2
  25              		.p2align 4,,15
  26              		.thumb
  27              		.thumb_func
  28              		.type	set_address, %function
  29              	set_address:
  30              	.LFB62:
  31              		.file 1 "../chibios_2.4.x/os/hal/src/usb.c"
  32              		.loc 1 69 0
  33              		.cfi_startproc
  34              		@ args = 0, pretend = 0, frame = 0
  35              		@ frame_needed = 0, uses_anonymous_args = 0
  36              	.LVL0:
  37 0000 10B5     		push	{r4, lr}
  38              	.LCFI0:
  39              		.cfi_def_cfa_offset 8
  40              		.loc 1 71 0
  41 0002 90F84230 		ldrb	r3, [r0, #66]	@ zero_extendqisi2
  42              		.loc 1 69 0
  43 0006 0446     		mov	r4, r0
  44              		.cfi_offset 14, -4
  45              		.cfi_offset 4, -8
  46              		.loc 1 71 0
  47 0008 84F84A30 		strb	r3, [r4, #74]
  48              		.loc 1 72 0
  49 000c FFF7FEFF 		bl	usb_lld_set_address
  50              	.LVL1:
  51              		.loc 1 73 0
  52 0010 6368     		ldr	r3, [r4, #4]
  53 0012 1B68     		ldr	r3, [r3, #0]
ARM GAS  C:\Users\z80\AppData\Local\Temp\cctIXSBd.s 			page 2


  54 0014 13B1     		cbz	r3, .L2
  55              		.loc 1 73 0 is_stmt 0 discriminator 1
  56 0016 2046     		mov	r0, r4
  57 0018 0121     		movs	r1, #1
  58 001a 9847     		blx	r3
  59              	.L2:
  60              		.loc 1 74 0 is_stmt 1
  61 001c 0323     		movs	r3, #3
  62 001e 2370     		strb	r3, [r4, #0]
  63              		.loc 1 75 0
  64 0020 10BD     		pop	{r4, pc}
  65              		.cfi_endproc
  66              	.LFE62:
  67              		.size	set_address, .-set_address
  68 0022 00BFAFF3 		.section	.text.usbInit,"ax",%progbits
  68      0080AFF3 
  68      0080AFF3 
  68      0080
  69              		.align	2
  70              		.p2align 4,,15
  71              		.global	usbInit
  72              		.thumb
  73              		.thumb_func
  74              		.type	usbInit, %function
  75              	usbInit:
  76              	.LFB64:
  77              		.loc 1 235 0
  78              		.cfi_startproc
  79              		@ args = 0, pretend = 0, frame = 0
  80              		@ frame_needed = 0, uses_anonymous_args = 0
  81 0000 08B5     		push	{r3, lr}
  82              	.LCFI1:
  83              		.cfi_def_cfa_offset 8
  84              		.loc 1 237 0
  85              		.cfi_offset 14, -4
  86              		.cfi_offset 3, -8
  87 0002 FFF7FEFF 		bl	usb_lld_init
  88              		.loc 1 238 0
  89 0006 08BD     		pop	{r3, pc}
  90              		.cfi_endproc
  91              	.LFE64:
  92              		.size	usbInit, .-usbInit
  93 0008 AFF30080 		.section	.text.usbObjectInit,"ax",%progbits
  93      AFF30080 
  94              		.align	2
  95              		.p2align 4,,15
  96              		.global	usbObjectInit
  97              		.thumb
  98              		.thumb_func
  99              		.type	usbObjectInit, %function
 100              	usbObjectInit:
 101              	.LFB65:
 102              		.loc 1 247 0
 103              		.cfi_startproc
 104              		@ args = 0, pretend = 0, frame = 0
 105              		@ frame_needed = 0, uses_anonymous_args = 0
 106              		@ link register save eliminated.
ARM GAS  C:\Users\z80\AppData\Local\Temp\cctIXSBd.s 			page 3


 107              	.LVL2:
 108              		.loc 1 250 0
 109 0000 0023     		movs	r3, #0
 110              		.loc 1 249 0
 111 0002 0122     		movs	r2, #1
 112 0004 0270     		strb	r2, [r0, #0]
 113              		.loc 1 250 0
 114 0006 4360     		str	r3, [r0, #4]
 115              		.loc 1 251 0
 116 0008 8360     		str	r3, [r0, #8]
 117              		.loc 1 252 0
 118 000a 8381     		strh	r3, [r0, #12]	@ movhi
 119              		.loc 1 253 0
 120 000c C381     		strh	r3, [r0, #14]	@ movhi
 121              		.loc 1 254 0
 122 000e 7047     		bx	lr
 123              		.cfi_endproc
 124              	.LFE65:
 125              		.size	usbObjectInit, .-usbObjectInit
 126              		.section	.text.usbStart,"ax",%progbits
 127              		.align	2
 128              		.p2align 4,,15
 129              		.global	usbStart
 130              		.thumb
 131              		.thumb_func
 132              		.type	usbStart, %function
 133              	usbStart:
 134              	.LFB66:
 135              		.loc 1 264 0
 136              		.cfi_startproc
 137              		@ args = 0, pretend = 0, frame = 0
 138              		@ frame_needed = 0, uses_anonymous_args = 0
 139              	.LVL3:
 140              		.loc 1 267 0
 141 0000 D0F10103 		rsbs	r3, r0, #1
 142 0004 38BF     		it	cc
 143 0006 0023     		movcc	r3, #0
 144 0008 0029     		cmp	r1, #0
 145 000a 08BF     		it	eq
 146 000c 43F00103 		orreq	r3, r3, #1
 147              		.loc 1 264 0
 148 0010 70B5     		push	{r4, r5, r6, lr}
 149              	.LCFI2:
 150              		.cfi_def_cfa_offset 16
 151              		.loc 1 264 0
 152 0012 0446     		mov	r4, r0
 153              		.cfi_offset 14, -4
 154              		.cfi_offset 6, -8
 155              		.cfi_offset 5, -12
 156              		.cfi_offset 4, -16
 157 0014 0D46     		mov	r5, r1
 158              		.loc 1 267 0
 159 0016 002B     		cmp	r3, #0
 160 0018 21D1     		bne	.L9
 161              	.LVL4:
 162              	.L7:
 163              	.LBB2:
ARM GAS  C:\Users\z80\AppData\Local\Temp\cctIXSBd.s 			page 4


 164              		.loc 1 269 0
 165 001a 2023     		movs	r3, #32
 166              	.LVL5:
 167              	@ 269 "../chibios_2.4.x/os/hal/src/usb.c" 1
 168 001c 83F31188 		msr     BASEPRI, r3
 169              	@ 0 "" 2
 170              	.LVL6:
 171              		.thumb
 172              	.LBE2:
 173 0020 FFF7FEFF 		bl	dbg_check_lock
 174              	.LVL7:
 175              		.loc 1 270 0
 176 0024 2378     		ldrb	r3, [r4, #0]	@ zero_extendqisi2
 177 0026 013B     		subs	r3, r3, #1
 178 0028 DBB2     		uxtb	r3, r3
 179 002a 012B     		cmp	r3, #1
 180 002c 02D9     		bls	.L8
 181              		.loc 1 270 0 is_stmt 0 discriminator 1
 182 002e 0E48     		ldr	r0, .L10
 183 0030 FFF7FEFF 		bl	chDbgPanic
 184              	.L8:
 185              		.loc 1 274 0 is_stmt 1
 186 0034 0026     		movs	r6, #0
 187              		.loc 1 275 0
 188 0036 2046     		mov	r0, r4
 189              		.loc 1 272 0
 190 0038 6560     		str	r5, [r4, #4]
 191              	.LVL8:
 192              		.loc 1 274 0
 193 003a 2661     		str	r6, [r4, #16]
 194              	.LVL9:
 195 003c 6661     		str	r6, [r4, #20]
 196              	.LVL10:
 197 003e A661     		str	r6, [r4, #24]
 198              	.LVL11:
 199 0040 E661     		str	r6, [r4, #28]
 200              	.LVL12:
 201 0042 2662     		str	r6, [r4, #32]
 202              	.LVL13:
 203 0044 6662     		str	r6, [r4, #36]
 204              	.LVL14:
 205 0046 A662     		str	r6, [r4, #40]
 206              	.LVL15:
 207 0048 E662     		str	r6, [r4, #44]
 208              	.LVL16:
 209              		.loc 1 275 0
 210 004a FFF7FEFF 		bl	usb_lld_start
 211              		.loc 1 276 0
 212 004e 0223     		movs	r3, #2
 213 0050 2370     		strb	r3, [r4, #0]
 214              		.loc 1 277 0
 215 0052 FFF7FEFF 		bl	dbg_check_unlock
 216              	.LBB3:
 217 0056 3346     		mov	r3, r6
 218              	.LVL17:
 219              	@ 277 "../chibios_2.4.x/os/hal/src/usb.c" 1
 220 0058 83F31188 		msr     BASEPRI, r3
ARM GAS  C:\Users\z80\AppData\Local\Temp\cctIXSBd.s 			page 5


 221              	@ 0 "" 2
 222              	.LVL18:
 223              		.thumb
 224              	.LBE3:
 225              		.loc 1 278 0
 226 005c 70BD     		pop	{r4, r5, r6, pc}
 227              	.LVL19:
 228              	.L9:
 229              		.loc 1 267 0 discriminator 1
 230 005e 0348     		ldr	r0, .L10+4
 231 0060 FFF7FEFF 		bl	chDbgPanic
 232 0064 D9E7     		b	.L7
 233              	.L11:
 234 0066 00BF     		.align	2
 235              	.L10:
 236 0068 10000000 		.word	.LC1
 237 006c 00000000 		.word	.LC0
 238              		.cfi_endproc
 239              	.LFE66:
 240              		.size	usbStart, .-usbStart
 241              		.section	.text.usbStop,"ax",%progbits
 242              		.align	2
 243              		.p2align 4,,15
 244              		.global	usbStop
 245              		.thumb
 246              		.thumb_func
 247              		.type	usbStop, %function
 248              	usbStop:
 249              	.LFB67:
 250              		.loc 1 287 0
 251              		.cfi_startproc
 252              		@ args = 0, pretend = 0, frame = 0
 253              		@ frame_needed = 0, uses_anonymous_args = 0
 254              	.LVL20:
 255 0000 10B5     		push	{r4, lr}
 256              	.LCFI3:
 257              		.cfi_def_cfa_offset 8
 258              		.loc 1 287 0
 259 0002 0446     		mov	r4, r0
 260              		.cfi_offset 14, -4
 261              		.cfi_offset 4, -8
 262              		.loc 1 289 0
 263 0004 B8B1     		cbz	r0, .L15
 264              	.LVL21:
 265              	.L13:
 266              	.LBB4:
 267              		.loc 1 291 0
 268 0006 2023     		movs	r3, #32
 269              	.LVL22:
 270              	@ 291 "../chibios_2.4.x/os/hal/src/usb.c" 1
 271 0008 83F31188 		msr     BASEPRI, r3
 272              	@ 0 "" 2
 273              	.LVL23:
 274              		.thumb
 275              	.LBE4:
 276 000c FFF7FEFF 		bl	dbg_check_lock
 277              	.LVL24:
ARM GAS  C:\Users\z80\AppData\Local\Temp\cctIXSBd.s 			page 6


 278              		.loc 1 292 0
 279 0010 2378     		ldrb	r3, [r4, #0]	@ zero_extendqisi2
 280 0012 013B     		subs	r3, r3, #1
 281 0014 DBB2     		uxtb	r3, r3
 282 0016 012B     		cmp	r3, #1
 283 0018 02D9     		bls	.L14
 284              		.loc 1 292 0 is_stmt 0 discriminator 1
 285 001a 0948     		ldr	r0, .L16
 286 001c FFF7FEFF 		bl	chDbgPanic
 287              	.L14:
 288              		.loc 1 294 0 is_stmt 1
 289 0020 2046     		mov	r0, r4
 290 0022 FFF7FEFF 		bl	usb_lld_stop
 291              		.loc 1 295 0
 292 0026 0123     		movs	r3, #1
 293 0028 2370     		strb	r3, [r4, #0]
 294              		.loc 1 296 0
 295 002a FFF7FEFF 		bl	dbg_check_unlock
 296              	.LBB5:
 297 002e 0023     		movs	r3, #0
 298              	.LVL25:
 299              	@ 296 "../chibios_2.4.x/os/hal/src/usb.c" 1
 300 0030 83F31188 		msr     BASEPRI, r3
 301              	@ 0 "" 2
 302              	.LVL26:
 303              		.thumb
 304              	.LBE5:
 305              		.loc 1 297 0
 306 0034 10BD     		pop	{r4, pc}
 307              	.LVL27:
 308              	.L15:
 309              		.loc 1 289 0 discriminator 1
 310 0036 0348     		ldr	r0, .L16+4
 311 0038 FFF7FEFF 		bl	chDbgPanic
 312 003c E3E7     		b	.L13
 313              	.L17:
 314 003e 00BF     		.align	2
 315              	.L16:
 316 0040 2C000000 		.word	.LC3
 317 0044 20000000 		.word	.LC2
 318              		.cfi_endproc
 319              	.LFE67:
 320              		.size	usbStop, .-usbStop
 321 0048 AFF30080 		.section	.text.usbInitEndpointI,"ax",%progbits
 321      AFF30080 
 322              		.align	2
 323              		.p2align 4,,15
 324              		.global	usbInitEndpointI
 325              		.thumb
 326              		.thumb_func
 327              		.type	usbInitEndpointI, %function
 328              	usbInitEndpointI:
 329              	.LFB68:
 330              		.loc 1 313 0
 331              		.cfi_startproc
 332              		@ args = 0, pretend = 0, frame = 0
 333              		@ frame_needed = 0, uses_anonymous_args = 0
ARM GAS  C:\Users\z80\AppData\Local\Temp\cctIXSBd.s 			page 7


 334              	.LVL28:
 335 0000 F8B5     		push	{r3, r4, r5, r6, r7, lr}
 336              	.LCFI4:
 337              		.cfi_def_cfa_offset 24
 338              		.loc 1 313 0
 339 0002 0446     		mov	r4, r0
 340              		.cfi_offset 14, -4
 341              		.cfi_offset 7, -8
 342              		.cfi_offset 6, -12
 343              		.cfi_offset 5, -16
 344              		.cfi_offset 4, -20
 345              		.cfi_offset 3, -24
 346 0004 1546     		mov	r5, r2
 347 0006 0E46     		mov	r6, r1
 348              		.loc 1 315 0
 349 0008 FFF7FEFF 		bl	chDbgCheckClassI
 350              	.LVL29:
 351              		.loc 1 316 0
 352 000c D4F10103 		rsbs	r3, r4, #1
 353 0010 38BF     		it	cc
 354 0012 0023     		movcc	r3, #0
 355 0014 002D     		cmp	r5, #0
 356 0016 08BF     		it	eq
 357 0018 43F00103 		orreq	r3, r3, #1
 358 001c 002B     		cmp	r3, #0
 359 001e 26D1     		bne	.L23
 360              	.L19:
 361              		.loc 1 317 0
 362 0020 2378     		ldrb	r3, [r4, #0]	@ zero_extendqisi2
 363 0022 042B     		cmp	r3, #4
 364 0024 02D0     		beq	.L20
 365              		.loc 1 317 0 is_stmt 0 discriminator 1
 366 0026 1448     		ldr	r0, .L24
 367 0028 FFF7FEFF 		bl	chDbgPanic
 368              	.L20:
 369              		.loc 1 319 0 is_stmt 1
 370 002c 371D     		adds	r7, r6, #4
 371 002e 54F82730 		ldr	r3, [r4, r7, lsl #2]
 372 0032 13B1     		cbz	r3, .L21
 373              		.loc 1 319 0 is_stmt 0 discriminator 1
 374 0034 1148     		ldr	r0, .L24+4
 375 0036 FFF7FEFF 		bl	chDbgPanic
 376              	.L21:
 377              		.loc 1 323 0 is_stmt 1
 378 003a 2B68     		ldr	r3, [r5, #0]
 379 003c 13F01003 		ands	r3, r3, #16
 380 0040 0ED1     		bne	.L22
 381              		.loc 1 324 0
 382 0042 6969     		ldr	r1, [r5, #20]
 383 0044 0A46     		mov	r2, r1
 384 0046 42F8043B 		str	r3, [r2], #4
 385 004a 4B60     		str	r3, [r1, #4]
 386 004c 5360     		str	r3, [r2, #4]
 387              		.loc 1 325 0
 388 004e A969     		ldr	r1, [r5, #24]
 389 0050 0A46     		mov	r2, r1
 390 0052 42F8043B 		str	r3, [r2], #4
ARM GAS  C:\Users\z80\AppData\Local\Temp\cctIXSBd.s 			page 8


 391 0056 0432     		adds	r2, r2, #4
 392 0058 4B60     		str	r3, [r1, #4]
 393 005a 42F8043B 		str	r3, [r2], #4
 394 005e 1360     		str	r3, [r2, #0]
 395              	.L22:
 396              		.loc 1 327 0
 397 0060 44F82750 		str	r5, [r4, r7, lsl #2]
 398              		.loc 1 330 0
 399 0064 2046     		mov	r0, r4
 400 0066 3146     		mov	r1, r6
 401 0068 FFF7FEFF 		bl	usb_lld_init_endpoint
 402              		.loc 1 331 0
 403 006c F8BD     		pop	{r3, r4, r5, r6, r7, pc}
 404              	.L23:
 405              		.loc 1 316 0 discriminator 1
 406 006e 0448     		ldr	r0, .L24+8
 407 0070 FFF7FEFF 		bl	chDbgPanic
 408 0074 D4E7     		b	.L19
 409              	.L25:
 410 0076 00BF     		.align	2
 411              	.L24:
 412 0078 54000000 		.word	.LC5
 413 007c 70000000 		.word	.LC6
 414 0080 3C000000 		.word	.LC4
 415              		.cfi_endproc
 416              	.LFE68:
 417              		.size	usbInitEndpointI, .-usbInitEndpointI
 418 0084 AFF30080 		.section	.text.usbDisableEndpointsI,"ax",%progbits
 418      AFF30080 
 418      AFF30080 
 419              		.align	2
 420              		.p2align 4,,15
 421              		.global	usbDisableEndpointsI
 422              		.thumb
 423              		.thumb_func
 424              		.type	usbDisableEndpointsI, %function
 425              	usbDisableEndpointsI:
 426              	.LFB69:
 427              		.loc 1 344 0
 428              		.cfi_startproc
 429              		@ args = 0, pretend = 0, frame = 0
 430              		@ frame_needed = 0, uses_anonymous_args = 0
 431              	.LVL30:
 432 0000 10B5     		push	{r4, lr}
 433              	.LCFI5:
 434              		.cfi_def_cfa_offset 8
 435              		.loc 1 344 0
 436 0002 0446     		mov	r4, r0
 437              		.cfi_offset 14, -4
 438              		.cfi_offset 4, -8
 439              		.loc 1 347 0
 440 0004 FFF7FEFF 		bl	chDbgCheckClassI
 441              	.LVL31:
 442              		.loc 1 348 0
 443 0008 CCB1     		cbz	r4, .L29
 444              	.L27:
 445              		.loc 1 349 0
ARM GAS  C:\Users\z80\AppData\Local\Temp\cctIXSBd.s 			page 9


 446 000a 2378     		ldrb	r3, [r4, #0]	@ zero_extendqisi2
 447 000c 032B     		cmp	r3, #3
 448 000e 02D0     		beq	.L28
 449              		.loc 1 349 0 is_stmt 0 discriminator 1
 450 0010 0D48     		ldr	r0, .L30
 451 0012 FFF7FEFF 		bl	chDbgPanic
 452              	.L28:
 453              		.loc 1 352 0 is_stmt 1
 454 0016 A189     		ldrh	r1, [r4, #12]
 455              		.loc 1 353 0
 456 0018 E289     		ldrh	r2, [r4, #14]
 457              		.loc 1 355 0
 458 001a 0023     		movs	r3, #0
 459              		.loc 1 352 0
 460 001c 21F00101 		bic	r1, r1, #1
 461              		.loc 1 353 0
 462 0020 22F00102 		bic	r2, r2, #1
 463              		.loc 1 352 0
 464 0024 A181     		strh	r1, [r4, #12]	@ movhi
 465              		.loc 1 353 0
 466 0026 E281     		strh	r2, [r4, #14]	@ movhi
 467              	.LVL32:
 468              		.loc 1 355 0
 469 0028 6361     		str	r3, [r4, #20]
 470              	.LVL33:
 471 002a A361     		str	r3, [r4, #24]
 472              	.LVL34:
 473 002c E361     		str	r3, [r4, #28]
 474              	.LVL35:
 475 002e 2362     		str	r3, [r4, #32]
 476              	.LVL36:
 477 0030 6362     		str	r3, [r4, #36]
 478              	.LVL37:
 479 0032 A362     		str	r3, [r4, #40]
 480              	.LVL38:
 481 0034 E362     		str	r3, [r4, #44]
 482              	.LVL39:
 483              		.loc 1 358 0
 484 0036 2046     		mov	r0, r4
 485 0038 FFF7FEFF 		bl	usb_lld_disable_endpoints
 486              		.loc 1 359 0
 487 003c 10BD     		pop	{r4, pc}
 488              	.LVL40:
 489              	.L29:
 490              		.loc 1 348 0 discriminator 1
 491 003e 0348     		ldr	r0, .L30+4
 492 0040 FFF7FEFF 		bl	chDbgPanic
 493 0044 E1E7     		b	.L27
 494              	.L31:
 495 0046 00BF     		.align	2
 496              	.L30:
 497 0048 A8000000 		.word	.LC8
 498 004c 8C000000 		.word	.LC7
 499              		.cfi_endproc
 500              	.LFE69:
 501              		.size	usbDisableEndpointsI, .-usbDisableEndpointsI
 502              		.section	.text.usbStartReceiveI,"ax",%progbits
ARM GAS  C:\Users\z80\AppData\Local\Temp\cctIXSBd.s 			page 10


 503              		.align	2
 504              		.p2align 4,,15
 505              		.global	usbStartReceiveI
 506              		.thumb
 507              		.thumb_func
 508              		.type	usbStartReceiveI, %function
 509              	usbStartReceiveI:
 510              	.LFB70:
 511              		.loc 1 374 0
 512              		.cfi_startproc
 513              		@ args = 0, pretend = 0, frame = 0
 514              		@ frame_needed = 0, uses_anonymous_args = 0
 515              	.LVL41:
 516 0000 70B5     		push	{r4, r5, r6, lr}
 517              	.LCFI6:
 518              		.cfi_def_cfa_offset 16
 519              		.loc 1 374 0
 520 0002 0446     		mov	r4, r0
 521              		.cfi_offset 14, -4
 522              		.cfi_offset 6, -8
 523              		.cfi_offset 5, -12
 524              		.cfi_offset 4, -16
 525 0004 0E46     		mov	r6, r1
 526              		.loc 1 376 0
 527 0006 FFF7FEFF 		bl	chDbgCheckClassI
 528              	.LVL42:
 529              		.loc 1 377 0
 530 000a 94B1     		cbz	r4, .L36
 531              	.L33:
 532              		.loc 1 379 0
 533 000c E389     		ldrh	r3, [r4, #14]
 534 000e 53FA06F5 		asrs	r5, r3, r6
 535 0012 15F00105 		ands	r5, r5, #1
 536 0016 01D0     		beq	.L37
 537              		.loc 1 380 0
 538 0018 0120     		movs	r0, #1
 539              	.L34:
 540              		.loc 1 385 0
 541 001a 70BD     		pop	{r4, r5, r6, pc}
 542              	.L37:
 543              		.loc 1 382 0
 544 001c 0122     		movs	r2, #1
 545 001e B240     		lsls	r2, r2, r6
 546 0020 42EA0303 		orr	r3, r2, r3
 547              		.loc 1 383 0
 548 0024 2046     		mov	r0, r4
 549              		.loc 1 382 0
 550 0026 E381     		strh	r3, [r4, #14]	@ movhi
 551              		.loc 1 383 0
 552 0028 3146     		mov	r1, r6
 553 002a FFF7FEFF 		bl	usb_lld_start_out
 554              		.loc 1 384 0
 555 002e 2846     		mov	r0, r5
 556 0030 F3E7     		b	.L34
 557              	.L36:
 558              		.loc 1 377 0 discriminator 1
 559 0032 0248     		ldr	r0, .L38
ARM GAS  C:\Users\z80\AppData\Local\Temp\cctIXSBd.s 			page 11


 560 0034 FFF7FEFF 		bl	chDbgPanic
 561 0038 E8E7     		b	.L33
 562              	.L39:
 563 003a 00BF     		.align	2
 564              	.L38:
 565 003c C4000000 		.word	.LC9
 566              		.cfi_endproc
 567              	.LFE70:
 568              		.size	usbStartReceiveI, .-usbStartReceiveI
 569              		.section	.text.usbStartTransmitI,"ax",%progbits
 570              		.align	2
 571              		.p2align 4,,15
 572              		.global	usbStartTransmitI
 573              		.thumb
 574              		.thumb_func
 575              		.type	usbStartTransmitI, %function
 576              	usbStartTransmitI:
 577              	.LFB71:
 578              		.loc 1 400 0
 579              		.cfi_startproc
 580              		@ args = 0, pretend = 0, frame = 0
 581              		@ frame_needed = 0, uses_anonymous_args = 0
 582              	.LVL43:
 583 0000 70B5     		push	{r4, r5, r6, lr}
 584              	.LCFI7:
 585              		.cfi_def_cfa_offset 16
 586              		.loc 1 400 0
 587 0002 0446     		mov	r4, r0
 588              		.cfi_offset 14, -4
 589              		.cfi_offset 6, -8
 590              		.cfi_offset 5, -12
 591              		.cfi_offset 4, -16
 592 0004 0E46     		mov	r6, r1
 593              		.loc 1 402 0
 594 0006 FFF7FEFF 		bl	chDbgCheckClassI
 595              	.LVL44:
 596              		.loc 1 403 0
 597 000a 94B1     		cbz	r4, .L44
 598              	.L41:
 599              		.loc 1 405 0
 600 000c A389     		ldrh	r3, [r4, #12]
 601 000e 53FA06F5 		asrs	r5, r3, r6
 602 0012 15F00105 		ands	r5, r5, #1
 603 0016 01D0     		beq	.L45
 604              		.loc 1 406 0
 605 0018 0120     		movs	r0, #1
 606              	.L42:
 607              		.loc 1 411 0
 608 001a 70BD     		pop	{r4, r5, r6, pc}
 609              	.L45:
 610              		.loc 1 408 0
 611 001c 0122     		movs	r2, #1
 612 001e B240     		lsls	r2, r2, r6
 613 0020 42EA0303 		orr	r3, r2, r3
 614              		.loc 1 409 0
 615 0024 2046     		mov	r0, r4
 616              		.loc 1 408 0
ARM GAS  C:\Users\z80\AppData\Local\Temp\cctIXSBd.s 			page 12


 617 0026 A381     		strh	r3, [r4, #12]	@ movhi
 618              		.loc 1 409 0
 619 0028 3146     		mov	r1, r6
 620 002a FFF7FEFF 		bl	usb_lld_start_in
 621              		.loc 1 410 0
 622 002e 2846     		mov	r0, r5
 623 0030 F3E7     		b	.L42
 624              	.L44:
 625              		.loc 1 403 0 discriminator 1
 626 0032 0248     		ldr	r0, .L46
 627 0034 FFF7FEFF 		bl	chDbgPanic
 628 0038 E8E7     		b	.L41
 629              	.L47:
 630 003a 00BF     		.align	2
 631              	.L46:
 632 003c DC000000 		.word	.LC10
 633              		.cfi_endproc
 634              	.LFE71:
 635              		.size	usbStartTransmitI, .-usbStartTransmitI
 636              		.section	.text.usbStallReceiveI,"ax",%progbits
 637              		.align	2
 638              		.p2align 4,,15
 639              		.global	usbStallReceiveI
 640              		.thumb
 641              		.thumb_func
 642              		.type	usbStallReceiveI, %function
 643              	usbStallReceiveI:
 644              	.LFB72:
 645              		.loc 1 424 0
 646              		.cfi_startproc
 647              		@ args = 0, pretend = 0, frame = 0
 648              		@ frame_needed = 0, uses_anonymous_args = 0
 649              	.LVL45:
 650 0000 70B5     		push	{r4, r5, r6, lr}
 651              	.LCFI8:
 652              		.cfi_def_cfa_offset 16
 653              		.loc 1 424 0
 654 0002 0446     		mov	r4, r0
 655              		.cfi_offset 14, -4
 656              		.cfi_offset 6, -8
 657              		.cfi_offset 5, -12
 658              		.cfi_offset 4, -16
 659 0004 0E46     		mov	r6, r1
 660              		.loc 1 426 0
 661 0006 FFF7FEFF 		bl	chDbgCheckClassI
 662              	.LVL46:
 663              		.loc 1 427 0
 664 000a 64B1     		cbz	r4, .L52
 665              	.L49:
 666              		.loc 1 429 0
 667 000c E589     		ldrh	r5, [r4, #14]
 668 000e 3541     		asrs	r5, r5, r6
 669 0010 15F00105 		ands	r5, r5, #1
 670 0014 01D0     		beq	.L53
 671              		.loc 1 430 0
 672 0016 0120     		movs	r0, #1
 673              	.L50:
ARM GAS  C:\Users\z80\AppData\Local\Temp\cctIXSBd.s 			page 13


 674              		.loc 1 434 0
 675 0018 70BD     		pop	{r4, r5, r6, pc}
 676              	.L53:
 677              		.loc 1 432 0
 678 001a 2046     		mov	r0, r4
 679 001c 3146     		mov	r1, r6
 680 001e FFF7FEFF 		bl	usb_lld_stall_out
 681              		.loc 1 433 0
 682 0022 2846     		mov	r0, r5
 683 0024 F8E7     		b	.L50
 684              	.L52:
 685              		.loc 1 427 0 discriminator 1
 686 0026 0248     		ldr	r0, .L54
 687 0028 FFF7FEFF 		bl	chDbgPanic
 688 002c EEE7     		b	.L49
 689              	.L55:
 690 002e 00BF     		.align	2
 691              	.L54:
 692 0030 F4000000 		.word	.LC11
 693              		.cfi_endproc
 694              	.LFE72:
 695              		.size	usbStallReceiveI, .-usbStallReceiveI
 696 0034 AFF30080 		.section	.text.usbStallTransmitI,"ax",%progbits
 696      AFF30080 
 696      AFF30080 
 697              		.align	2
 698              		.p2align 4,,15
 699              		.global	usbStallTransmitI
 700              		.thumb
 701              		.thumb_func
 702              		.type	usbStallTransmitI, %function
 703              	usbStallTransmitI:
 704              	.LFB73:
 705              		.loc 1 447 0
 706              		.cfi_startproc
 707              		@ args = 0, pretend = 0, frame = 0
 708              		@ frame_needed = 0, uses_anonymous_args = 0
 709              	.LVL47:
 710 0000 70B5     		push	{r4, r5, r6, lr}
 711              	.LCFI9:
 712              		.cfi_def_cfa_offset 16
 713              		.loc 1 447 0
 714 0002 0446     		mov	r4, r0
 715              		.cfi_offset 14, -4
 716              		.cfi_offset 6, -8
 717              		.cfi_offset 5, -12
 718              		.cfi_offset 4, -16
 719 0004 0E46     		mov	r6, r1
 720              		.loc 1 449 0
 721 0006 FFF7FEFF 		bl	chDbgCheckClassI
 722              	.LVL48:
 723              		.loc 1 450 0
 724 000a 64B1     		cbz	r4, .L60
 725              	.L57:
 726              		.loc 1 452 0
 727 000c A589     		ldrh	r5, [r4, #12]
 728 000e 3541     		asrs	r5, r5, r6
ARM GAS  C:\Users\z80\AppData\Local\Temp\cctIXSBd.s 			page 14


 729 0010 15F00105 		ands	r5, r5, #1
 730 0014 01D0     		beq	.L61
 731              		.loc 1 453 0
 732 0016 0120     		movs	r0, #1
 733              	.L58:
 734              		.loc 1 457 0
 735 0018 70BD     		pop	{r4, r5, r6, pc}
 736              	.L61:
 737              		.loc 1 455 0
 738 001a 2046     		mov	r0, r4
 739 001c 3146     		mov	r1, r6
 740 001e FFF7FEFF 		bl	usb_lld_stall_in
 741              		.loc 1 456 0
 742 0022 2846     		mov	r0, r5
 743 0024 F8E7     		b	.L58
 744              	.L60:
 745              		.loc 1 450 0 discriminator 1
 746 0026 0248     		ldr	r0, .L62
 747 0028 FFF7FEFF 		bl	chDbgPanic
 748 002c EEE7     		b	.L57
 749              	.L63:
 750 002e 00BF     		.align	2
 751              	.L62:
 752 0030 0C010000 		.word	.LC12
 753              		.cfi_endproc
 754              	.LFE73:
 755              		.size	usbStallTransmitI, .-usbStallTransmitI
 756 0034 AFF30080 		.section	.text._usb_reset,"ax",%progbits
 756      AFF30080 
 756      AFF30080 
 757              		.align	2
 758              		.p2align 4,,15
 759              		.global	_usb_reset
 760              		.thumb
 761              		.thumb_func
 762              		.type	_usb_reset, %function
 763              	_usb_reset:
 764              	.LFB74:
 765              		.loc 1 468 0
 766              		.cfi_startproc
 767              		@ args = 0, pretend = 0, frame = 0
 768              		@ frame_needed = 0, uses_anonymous_args = 0
 769              	.LVL49:
 770 0000 08B5     		push	{r3, lr}
 771              	.LCFI10:
 772              		.cfi_def_cfa_offset 8
 773              		.loc 1 471 0
 774 0002 0221     		movs	r1, #2
 775              		.loc 1 472 0
 776 0004 0023     		movs	r3, #0
 777              		.cfi_offset 14, -4
 778              		.cfi_offset 3, -8
 779              		.loc 1 471 0
 780 0006 0170     		strb	r1, [r0, #0]
 781              		.loc 1 472 0
 782 0008 A0F84830 		strh	r3, [r0, #72]	@ movhi
 783              		.loc 1 473 0
ARM GAS  C:\Users\z80\AppData\Local\Temp\cctIXSBd.s 			page 15


 784 000c 80F84A30 		strb	r3, [r0, #74]
 785              		.loc 1 474 0
 786 0010 80F84B30 		strb	r3, [r0, #75]
 787              		.loc 1 475 0
 788 0014 8381     		strh	r3, [r0, #12]	@ movhi
 789              		.loc 1 476 0
 790 0016 C381     		strh	r3, [r0, #14]	@ movhi
 791              	.LVL50:
 792              		.loc 1 480 0
 793 0018 0361     		str	r3, [r0, #16]
 794              	.LVL51:
 795 001a 4361     		str	r3, [r0, #20]
 796              	.LVL52:
 797 001c 8361     		str	r3, [r0, #24]
 798              	.LVL53:
 799 001e C361     		str	r3, [r0, #28]
 800              	.LVL54:
 801 0020 0362     		str	r3, [r0, #32]
 802              	.LVL55:
 803 0022 4362     		str	r3, [r0, #36]
 804              	.LVL56:
 805 0024 8362     		str	r3, [r0, #40]
 806              	.LVL57:
 807 0026 C362     		str	r3, [r0, #44]
 808              	.LVL58:
 809              		.loc 1 483 0
 810 0028 80F83030 		strb	r3, [r0, #48]
 811              		.loc 1 486 0
 812 002c FFF7FEFF 		bl	usb_lld_reset
 813              	.LVL59:
 814              		.loc 1 487 0
 815 0030 08BD     		pop	{r3, pc}
 816              		.cfi_endproc
 817              	.LFE74:
 818              		.size	_usb_reset, .-_usb_reset
 819 0032 00BFAFF3 		.section	.text._usb_ep0setup,"ax",%progbits
 819      0080AFF3 
 819      0080AFF3 
 819      0080
 820              		.align	2
 821              		.p2align 4,,15
 822              		.global	_usb_ep0setup
 823              		.thumb
 824              		.thumb_func
 825              		.type	_usb_ep0setup, %function
 826              	_usb_ep0setup:
 827              	.LFB75:
 828              		.loc 1 499 0
 829              		.cfi_startproc
 830              		@ args = 0, pretend = 0, frame = 0
 831              		@ frame_needed = 0, uses_anonymous_args = 0
 832              	.LVL60:
 833 0000 F8B5     		push	{r3, r4, r5, r6, r7, lr}
 834              	.LCFI11:
 835              		.cfi_def_cfa_offset 24
 836              		.loc 1 502 0
 837 0002 0023     		movs	r3, #0
ARM GAS  C:\Users\z80\AppData\Local\Temp\cctIXSBd.s 			page 16


 838              		.cfi_offset 14, -4
 839              		.cfi_offset 7, -8
 840              		.cfi_offset 6, -12
 841              		.cfi_offset 5, -16
 842              		.cfi_offset 4, -20
 843              		.cfi_offset 3, -24
 844              		.loc 1 499 0
 845 0004 0446     		mov	r4, r0
 846              		.loc 1 502 0
 847 0006 80F83030 		strb	r3, [r0, #48]
 848              		.loc 1 503 0
 849 000a 00F14002 		add	r2, r0, #64
 850 000e FFF7FEFF 		bl	usb_lld_read_setup
 851              	.LVL61:
 852              		.loc 1 507 0
 853 0012 6368     		ldr	r3, [r4, #4]
 854 0014 9B68     		ldr	r3, [r3, #8]
 855 0016 002B     		cmp	r3, #0
 856 0018 1ED0     		beq	.L66
 857              		.loc 1 508 0 discriminator 1
 858 001a 2046     		mov	r0, r4
 859 001c 9847     		blx	r3
 860              		.loc 1 507 0 discriminator 1
 861 001e D8B1     		cbz	r0, .L66
 862              		.loc 1 520 0
 863 0020 A56B     		ldr	r5, [r4, #56]
 864 0022 94F84030 		ldrb	r3, [r4, #64]	@ zero_extendqisi2
 865              	.L103:
 866              		.loc 1 527 0
 867 0026 B4F84620 		ldrh	r2, [r4, #70]
 868              	.LVL62:
 869              		.loc 1 529 0
 870 002a AA42     		cmp	r2, r5
 871              		.loc 1 530 0
 872 002c 3CBF     		itt	cc
 873 002e A263     		strcc	r2, [r4, #56]
 874 0030 1546     		movcc	r5, r2
 875              		.loc 1 531 0
 876 0032 13F0800F 		tst	r3, #128
 877 0036 79D1     		bne	.L106
 878              		.loc 1 549 0
 879 0038 002D     		cmp	r5, #0
 880 003a 69D1     		bne	.L107
 881              		.loc 1 558 0
 882 003c 0423     		movs	r3, #4
 883 003e 84F83030 		strb	r3, [r4, #48]
 884              		.loc 1 559 0
 885 0042 2046     		mov	r0, r4
 886 0044 2946     		mov	r1, r5
 887 0046 2A46     		mov	r2, r5
 888              	.LVL63:
 889 0048 2B46     		mov	r3, r5
 890 004a FFF7FEFF 		bl	usb_lld_prepare_transmit
 891              		.loc 1 560 0
 892 004e 2046     		mov	r0, r4
 893 0050 2946     		mov	r1, r5
 894 0052 FFF7FEFF 		bl	usb_lld_start_in
ARM GAS  C:\Users\z80\AppData\Local\Temp\cctIXSBd.s 			page 17


 895              	.L65:
 896              		.loc 1 563 0
 897 0056 F8BD     		pop	{r3, r4, r5, r6, r7, pc}
 898              	.L66:
 899              		.loc 1 511 0
 900 0058 94F84030 		ldrb	r3, [r4, #64]	@ zero_extendqisi2
 901 005c 13F06006 		ands	r6, r3, #96
 902 0060 1A46     		mov	r2, r3
 903 0062 11D0     		beq	.L108
 904              	.L68:
 905              		.loc 1 516 0
 906 0064 0021     		movs	r1, #0
 907 0066 2046     		mov	r0, r4
 908 0068 FFF7FEFF 		bl	usb_lld_stall_in
 909              		.loc 1 517 0
 910 006c 2046     		mov	r0, r4
 911 006e 0021     		movs	r1, #0
 912 0070 FFF7FEFF 		bl	usb_lld_stall_out
 913              		.loc 1 518 0
 914 0074 6368     		ldr	r3, [r4, #4]
 915 0076 1B68     		ldr	r3, [r3, #0]
 916 0078 13B1     		cbz	r3, .L97
 917              		.loc 1 518 0 is_stmt 0 discriminator 1
 918 007a 2046     		mov	r0, r4
 919 007c 0521     		movs	r1, #5
 920 007e 9847     		blx	r3
 921              	.L97:
 922              		.loc 1 519 0 is_stmt 1
 923 0080 0523     		movs	r3, #5
 924 0082 84F83030 		strb	r3, [r4, #48]
 925              		.loc 1 520 0
 926 0086 E6E7     		b	.L65
 927              	.L108:
 928              	.LVL64:
 929              	.LBB8:
 930              	.LBB9:
 931              		.loc 1 95 0
 932 0088 94F84170 		ldrb	r7, [r4, #65]	@ zero_extendqisi2
 933              		.loc 1 93 0
 934 008c 03F07F01 		and	r1, r3, #127
 935              		.loc 1 94 0
 936 0090 41EA0727 		orr	r7, r1, r7, lsl #8
 937              		.loc 1 93 0
 938 0094 B7F5407F 		cmp	r7, #768
 939 0098 00F0A680 		beq	.L75
 940 009c 16DD     		ble	.L109
 941 009e B7F5C06F 		cmp	r7, #1536
 942 00a2 00F0CB80 		beq	.L78
 943 00a6 5EDD     		ble	.L110
 944 00a8 B7F5106F 		cmp	r7, #2304
 945 00ac 00F0B380 		beq	.L80
 946 00b0 40F60242 		movw	r2, #3074
 947 00b4 9742     		cmp	r7, r2
 948 00b6 69D0     		beq	.L71
 949 00b8 B7F5006F 		cmp	r7, #2048
 950 00bc D2D1     		bne	.L68
 951              		.loc 1 142 0
ARM GAS  C:\Users\z80\AppData\Local\Temp\cctIXSBd.s 			page 18


 952 00be 0125     		movs	r5, #1
 953 00c0 04F14B02 		add	r2, r4, #75
 954 00c4 6263     		str	r2, [r4, #52]
 955 00c6 A563     		str	r5, [r4, #56]
 956 00c8 E663     		str	r6, [r4, #60]
 957 00ca ACE7     		b	.L103
 958              	.L109:
 959              		.loc 1 93 0
 960 00cc 022F     		cmp	r7, #2
 961 00ce 74D0     		beq	.L72
 962 00d0 57DD     		ble	.L111
 963 00d2 B7F5807F 		cmp	r7, #256
 964 00d6 60D0     		beq	.L73
 965 00d8 B7F5817F 		cmp	r7, #258
 966 00dc C2D1     		bne	.L68
 967              		.loc 1 188 0
 968 00de 94F84230 		ldrb	r3, [r4, #66]	@ zero_extendqisi2
 969 00e2 002B     		cmp	r3, #0
 970 00e4 BED1     		bne	.L68
 971              		.loc 1 191 0
 972 00e6 94F84430 		ldrb	r3, [r4, #68]	@ zero_extendqisi2
 973 00ea 13F00F01 		ands	r1, r3, #15
 974 00ee 09D0     		beq	.L95
 975              		.loc 1 192 0
 976 00f0 13F0800F 		tst	r3, #128
 977 00f4 40F0DE80 		bne	.L112
 978              		.loc 1 195 0
 979 00f8 C9B2     		uxtb	r1, r1
 980 00fa 2046     		mov	r0, r4
 981 00fc FFF7FEFF 		bl	usb_lld_clear_out
 982 0100 94F84020 		ldrb	r2, [r4, #64]	@ zero_extendqisi2
 983              	.L95:
 984              		.loc 1 210 0
 985 0104 0025     		movs	r5, #0
 986 0106 6563     		str	r5, [r4, #52]
 987 0108 A563     		str	r5, [r4, #56]
 988 010a E563     		str	r5, [r4, #60]
 989 010c 1346     		mov	r3, r2
 990 010e 8AE7     		b	.L103
 991              	.LVL65:
 992              	.L107:
 993              	.LBE9:
 994              	.LBE8:
 995              		.loc 1 551 0
 996 0110 0323     		movs	r3, #3
 997 0112 84F83030 		strb	r3, [r4, #48]
 998              		.loc 1 552 0
 999 0116 2046     		mov	r0, r4
 1000 0118 0021     		movs	r1, #0
 1001 011a 626B     		ldr	r2, [r4, #52]
 1002              	.LVL66:
 1003 011c 2B46     		mov	r3, r5
 1004 011e FFF7FEFF 		bl	usb_lld_prepare_receive
 1005              		.loc 1 553 0
 1006 0122 2046     		mov	r0, r4
 1007 0124 0021     		movs	r1, #0
 1008 0126 FFF7FEFF 		bl	usb_lld_start_out
ARM GAS  C:\Users\z80\AppData\Local\Temp\cctIXSBd.s 			page 19


 1009 012a 94E7     		b	.L65
 1010              	.LVL67:
 1011              	.L106:
 1012              		.loc 1 533 0
 1013 012c 6DB1     		cbz	r5, .L101
 1014              		.loc 1 535 0
 1015 012e 0123     		movs	r3, #1
 1016 0130 84F83030 		strb	r3, [r4, #48]
 1017              		.loc 1 536 0
 1018 0134 2046     		mov	r0, r4
 1019 0136 0021     		movs	r1, #0
 1020 0138 626B     		ldr	r2, [r4, #52]
 1021              	.LVL68:
 1022 013a 2B46     		mov	r3, r5
 1023 013c FFF7FEFF 		bl	usb_lld_prepare_transmit
 1024              		.loc 1 537 0
 1025 0140 2046     		mov	r0, r4
 1026 0142 0021     		movs	r1, #0
 1027 0144 FFF7FEFF 		bl	usb_lld_start_in
 1028 0148 85E7     		b	.L65
 1029              	.LVL69:
 1030              	.L101:
 1031              		.loc 1 542 0
 1032 014a 0223     		movs	r3, #2
 1033 014c 84F83030 		strb	r3, [r4, #48]
 1034              		.loc 1 543 0
 1035 0150 2046     		mov	r0, r4
 1036 0152 2946     		mov	r1, r5
 1037 0154 2A46     		mov	r2, r5
 1038              	.LVL70:
 1039 0156 2B46     		mov	r3, r5
 1040 0158 FFF7FEFF 		bl	usb_lld_prepare_receive
 1041              		.loc 1 544 0
 1042 015c 2046     		mov	r0, r4
 1043 015e 2946     		mov	r1, r5
 1044 0160 FFF7FEFF 		bl	usb_lld_start_out
 1045 0164 77E7     		b	.L65
 1046              	.LVL71:
 1047              	.L110:
 1048              	.LBB11:
 1049              	.LBB10:
 1050              		.loc 1 93 0
 1051 0166 40F20231 		movw	r1, #770
 1052 016a 8F42     		cmp	r7, r1
 1053 016c 7BD0     		beq	.L76
 1054 016e B7F5A06F 		cmp	r7, #1280
 1055 0172 7FF477AF 		bne	.L68
 1056              		.loc 1 128 0
 1057 0176 564A     		ldr	r2, .L115
 1058 0178 6663     		str	r6, [r4, #52]
 1059 017a A663     		str	r6, [r4, #56]
 1060 017c E263     		str	r2, [r4, #60]
 1061 017e 3546     		mov	r5, r6
 1062 0180 51E7     		b	.L103
 1063              	.L111:
 1064              		.loc 1 93 0
 1065 0182 002F     		cmp	r7, #0
ARM GAS  C:\Users\z80\AppData\Local\Temp\cctIXSBd.s 			page 20


 1066 0184 40D0     		beq	.L70
 1067 0186 012F     		cmp	r7, #1
 1068 0188 7FF46CAF 		bne	.L68
 1069              	.L71:
 1070              		.loc 1 158 0
 1071 018c 514A     		ldr	r2, .L115+4
 1072 018e 0225     		movs	r5, #2
 1073 0190 6263     		str	r2, [r4, #52]
 1074 0192 0022     		movs	r2, #0
 1075 0194 A563     		str	r5, [r4, #56]
 1076 0196 E263     		str	r2, [r4, #60]
 1077 0198 45E7     		b	.L103
 1078              	.L73:
 1079              		.loc 1 103 0
 1080 019a 94F84220 		ldrb	r2, [r4, #66]	@ zero_extendqisi2
 1081 019e 012A     		cmp	r2, #1
 1082 01a0 7FF460AF 		bne	.L68
 1083              		.loc 1 104 0
 1084 01a4 B4F84820 		ldrh	r2, [r4, #72]
 1085              		.loc 1 105 0
 1086 01a8 6663     		str	r6, [r4, #52]
 1087              		.loc 1 104 0
 1088 01aa 22F00202 		bic	r2, r2, #2
 1089 01ae A4F84820 		strh	r2, [r4, #72]	@ movhi
 1090              		.loc 1 105 0
 1091 01b2 A663     		str	r6, [r4, #56]
 1092 01b4 E663     		str	r6, [r4, #60]
 1093 01b6 3546     		mov	r5, r6
 1094 01b8 35E7     		b	.L103
 1095              	.L72:
 1096              		.loc 1 162 0
 1097 01ba 94F84410 		ldrb	r1, [r4, #68]	@ zero_extendqisi2
 1098 01be 11F0800F 		tst	r1, #128
 1099 01c2 68D1     		bne	.L113
 1100              		.loc 1 175 0
 1101 01c4 01F00F01 		and	r1, r1, #15
 1102 01c8 2046     		mov	r0, r4
 1103 01ca FFF7FEFF 		bl	usb_lld_get_status_out
 1104 01ce 0128     		cmp	r0, #1
 1105 01d0 68D0     		beq	.L91
 1106              	.L105:
 1107 01d2 0228     		cmp	r0, #2
 1108 01d4 7FF446AF 		bne	.L68
 1109              		.loc 1 180 0
 1110 01d8 3F4B     		ldr	r3, .L115+8
 1111 01da A063     		str	r0, [r4, #56]
 1112 01dc 6363     		str	r3, [r4, #52]
 1113 01de E663     		str	r6, [r4, #60]
 1114 01e0 94F84030 		ldrb	r3, [r4, #64]	@ zero_extendqisi2
 1115 01e4 0546     		mov	r5, r0
 1116 01e6 1EE7     		b	.L103
 1117              	.L75:
 1118              		.loc 1 112 0
 1119 01e8 94F84220 		ldrb	r2, [r4, #66]	@ zero_extendqisi2
 1120 01ec 012A     		cmp	r2, #1
 1121 01ee 7FF439AF 		bne	.L68
 1122              		.loc 1 113 0
ARM GAS  C:\Users\z80\AppData\Local\Temp\cctIXSBd.s 			page 21


 1123 01f2 B4F84820 		ldrh	r2, [r4, #72]
 1124              		.loc 1 114 0
 1125 01f6 6663     		str	r6, [r4, #52]
 1126              		.loc 1 113 0
 1127 01f8 42F00202 		orr	r2, r2, #2
 1128 01fc A4F84820 		strh	r2, [r4, #72]	@ movhi
 1129              		.loc 1 114 0
 1130 0200 A663     		str	r6, [r4, #56]
 1131 0202 E663     		str	r6, [r4, #60]
 1132 0204 3546     		mov	r5, r6
 1133 0206 0EE7     		b	.L103
 1134              	.L70:
 1135              		.loc 1 98 0
 1136 0208 0225     		movs	r5, #2
 1137 020a 04F14802 		add	r2, r4, #72
 1138 020e 6263     		str	r2, [r4, #52]
 1139 0210 A563     		str	r5, [r4, #56]
 1140 0212 E763     		str	r7, [r4, #60]
 1141 0214 07E7     		b	.L103
 1142              	.L80:
 1143              		.loc 1 146 0
 1144 0216 94F84230 		ldrb	r3, [r4, #66]	@ zero_extendqisi2
 1145 021a 84F84B30 		strb	r3, [r4, #75]
 1146              		.loc 1 147 0
 1147 021e 002B     		cmp	r3, #0
 1148 0220 36D1     		bne	.L85
 1149              		.loc 1 148 0
 1150 0222 0323     		movs	r3, #3
 1151 0224 2370     		strb	r3, [r4, #0]
 1152              	.L86:
 1153              		.loc 1 151 0
 1154 0226 6368     		ldr	r3, [r4, #4]
 1155 0228 1B68     		ldr	r3, [r3, #0]
 1156 022a 002B     		cmp	r3, #0
 1157 022c 3FF46AAF 		beq	.L95
 1158 0230 2046     		mov	r0, r4
 1159 0232 0221     		movs	r1, #2
 1160 0234 9847     		blx	r3
 1161 0236 94F84020 		ldrb	r2, [r4, #64]	@ zero_extendqisi2
 1162 023a 63E7     		b	.L95
 1163              	.L78:
 1164              		.loc 1 133 0
 1165 023c 6068     		ldr	r0, [r4, #4]
 1166 023e 94F84310 		ldrb	r1, [r4, #67]	@ zero_extendqisi2
 1167 0242 4568     		ldr	r5, [r0, #4]
 1168 0244 94F84220 		ldrb	r2, [r4, #66]	@ zero_extendqisi2
 1169 0248 B4F84430 		ldrh	r3, [r4, #68]
 1170 024c 2046     		mov	r0, r4
 1171 024e A847     		blx	r5
 1172              	.LVL72:
 1173              		.loc 1 136 0
 1174 0250 0028     		cmp	r0, #0
 1175 0252 3FF407AF 		beq	.L68
 1176              		.loc 1 138 0
 1177 0256 4368     		ldr	r3, [r0, #4]
 1178 0258 0568     		ldr	r5, [r0, #0]
 1179 025a 6363     		str	r3, [r4, #52]
ARM GAS  C:\Users\z80\AppData\Local\Temp\cctIXSBd.s 			page 22


 1180 025c A563     		str	r5, [r4, #56]
 1181 025e E663     		str	r6, [r4, #60]
 1182 0260 94F84030 		ldrb	r3, [r4, #64]	@ zero_extendqisi2
 1183 0264 DFE6     		b	.L103
 1184              	.LVL73:
 1185              	.L76:
 1186              		.loc 1 201 0
 1187 0266 94F84230 		ldrb	r3, [r4, #66]	@ zero_extendqisi2
 1188 026a 002B     		cmp	r3, #0
 1189 026c 7FF4FAAE 		bne	.L68
 1190              		.loc 1 204 0
 1191 0270 94F84430 		ldrb	r3, [r4, #68]	@ zero_extendqisi2
 1192 0274 13F00F01 		ands	r1, r3, #15
 1193 0278 3FF444AF 		beq	.L95
 1194              		.loc 1 205 0
 1195 027c 13F0800F 		tst	r3, #128
 1196 0280 1FD1     		bne	.L114
 1197              		.loc 1 208 0
 1198 0282 C9B2     		uxtb	r1, r1
 1199 0284 2046     		mov	r0, r4
 1200 0286 FFF7FEFF 		bl	usb_lld_stall_out
 1201 028a 94F84020 		ldrb	r2, [r4, #64]	@ zero_extendqisi2
 1202 028e 39E7     		b	.L95
 1203              	.L85:
 1204              		.loc 1 150 0
 1205 0290 0423     		movs	r3, #4
 1206 0292 2370     		strb	r3, [r4, #0]
 1207 0294 C7E7     		b	.L86
 1208              	.L113:
 1209              		.loc 1 163 0
 1210 0296 01F00F01 		and	r1, r1, #15
 1211 029a 2046     		mov	r0, r4
 1212 029c FFF7FEFF 		bl	usb_lld_get_status_in
 1213 02a0 0128     		cmp	r0, #1
 1214 02a2 96D1     		bne	.L105
 1215              	.L91:
 1216              		.loc 1 177 0
 1217 02a4 0D4B     		ldr	r3, .L115+12
 1218 02a6 A763     		str	r7, [r4, #56]
 1219 02a8 6363     		str	r3, [r4, #52]
 1220 02aa E663     		str	r6, [r4, #60]
 1221 02ac 94F84030 		ldrb	r3, [r4, #64]	@ zero_extendqisi2
 1222 02b0 3D46     		mov	r5, r7
 1223 02b2 B8E6     		b	.L103
 1224              	.L112:
 1225              		.loc 1 193 0
 1226 02b4 C9B2     		uxtb	r1, r1
 1227 02b6 2046     		mov	r0, r4
 1228 02b8 FFF7FEFF 		bl	usb_lld_clear_in
 1229 02bc 94F84020 		ldrb	r2, [r4, #64]	@ zero_extendqisi2
 1230 02c0 20E7     		b	.L95
 1231              	.L114:
 1232              		.loc 1 206 0
 1233 02c2 C9B2     		uxtb	r1, r1
 1234 02c4 2046     		mov	r0, r4
 1235 02c6 FFF7FEFF 		bl	usb_lld_stall_in
 1236 02ca 94F84020 		ldrb	r2, [r4, #64]	@ zero_extendqisi2
ARM GAS  C:\Users\z80\AppData\Local\Temp\cctIXSBd.s 			page 23


 1237 02ce 19E7     		b	.L95
 1238              	.L116:
 1239              		.align	2
 1240              	.L115:
 1241 02d0 00000000 		.word	set_address
 1242 02d4 00000000 		.word	.LANCHOR0
 1243 02d8 00000000 		.word	.LANCHOR2
 1244 02dc 00000000 		.word	.LANCHOR1
 1245              	.LBE10:
 1246              	.LBE11:
 1247              		.cfi_endproc
 1248              	.LFE75:
 1249              		.size	_usb_ep0setup, .-_usb_ep0setup
 1250              		.section	.text._usb_ep0in,"ax",%progbits
 1251              		.align	2
 1252              		.p2align 4,,15
 1253              		.global	_usb_ep0in
 1254              		.thumb
 1255              		.thumb_func
 1256              		.type	_usb_ep0in, %function
 1257              	_usb_ep0in:
 1258              	.LFB76:
 1259              		.loc 1 575 0
 1260              		.cfi_startproc
 1261              		@ args = 0, pretend = 0, frame = 0
 1262              		@ frame_needed = 0, uses_anonymous_args = 0
 1263              	.LVL74:
 1264 0000 38B5     		push	{r3, r4, r5, lr}
 1265              	.LCFI12:
 1266              		.cfi_def_cfa_offset 16
 1267              		.loc 1 579 0
 1268 0002 90F83030 		ldrb	r3, [r0, #48]	@ zero_extendqisi2
 1269              		.cfi_offset 14, -4
 1270              		.cfi_offset 5, -8
 1271              		.cfi_offset 4, -12
 1272              		.cfi_offset 3, -16
 1273              		.loc 1 575 0
 1274 0006 0446     		mov	r4, r0
 1275              		.loc 1 579 0
 1276 0008 012B     		cmp	r3, #1
 1277 000a 19D0     		beq	.L119
 1278 000c 042B     		cmp	r3, #4
 1279 000e 10D0     		beq	.L126
 1280              		.loc 1 609 0
 1281 0010 0021     		movs	r1, #0
 1282              	.LVL75:
 1283 0012 FFF7FEFF 		bl	usb_lld_stall_in
 1284              	.LVL76:
 1285              		.loc 1 610 0
 1286 0016 2046     		mov	r0, r4
 1287 0018 0021     		movs	r1, #0
 1288 001a FFF7FEFF 		bl	usb_lld_stall_out
 1289              		.loc 1 611 0
 1290 001e 6368     		ldr	r3, [r4, #4]
 1291 0020 1B68     		ldr	r3, [r3, #0]
 1292 0022 13B1     		cbz	r3, .L124
 1293              		.loc 1 611 0 is_stmt 0 discriminator 1
ARM GAS  C:\Users\z80\AppData\Local\Temp\cctIXSBd.s 			page 24


 1294 0024 2046     		mov	r0, r4
 1295 0026 0521     		movs	r1, #5
 1296 0028 9847     		blx	r3
 1297              	.L124:
 1298              		.loc 1 612 0 is_stmt 1
 1299 002a 0523     		movs	r3, #5
 1300 002c 84F83030 		strb	r3, [r4, #48]
 1301              	.L117:
 1302              		.loc 1 613 0
 1303 0030 38BD     		pop	{r3, r4, r5, pc}
 1304              	.LVL77:
 1305              	.L126:
 1306              		.loc 1 599 0
 1307 0032 C36B     		ldr	r3, [r0, #60]
 1308 0034 03B1     		cbz	r3, .L123
 1309              		.loc 1 600 0
 1310 0036 9847     		blx	r3
 1311              	.LVL78:
 1312              	.L123:
 1313              		.loc 1 601 0
 1314 0038 0023     		movs	r3, #0
 1315 003a 84F83030 		strb	r3, [r4, #48]
 1316              		.loc 1 602 0
 1317 003e F7E7     		b	.L117
 1318              	.LVL79:
 1319              	.L119:
 1320              		.loc 1 585 0
 1321 0040 836B     		ldr	r3, [r0, #56]
 1322              		.loc 1 581 0
 1323 0042 B0F84620 		ldrh	r2, [r0, #70]
 1324              		.loc 1 585 0
 1325 0046 9A42     		cmp	r2, r3
 1326 0048 06D9     		bls	.L121
 1327              		.loc 1 586 0 discriminator 1
 1328 004a 0269     		ldr	r2, [r0, #16]
 1329 004c 128A     		ldrh	r2, [r2, #16]
 1330 004e B3FBF2F5 		udiv	r5, r3, r2
 1331 0052 02FB1535 		mls	r5, r2, r5, r3
 1332              		.loc 1 585 0 discriminator 1
 1333 0056 6DB1     		cbz	r5, .L127
 1334              	.L121:
 1335              		.loc 1 594 0
 1336 0058 0021     		movs	r1, #0
 1337              	.LVL80:
 1338              		.loc 1 593 0
 1339 005a 0223     		movs	r3, #2
 1340 005c 84F83030 		strb	r3, [r4, #48]
 1341              		.loc 1 594 0
 1342 0060 2046     		mov	r0, r4
 1343 0062 0A46     		mov	r2, r1
 1344 0064 0B46     		mov	r3, r1
 1345 0066 FFF7FEFF 		bl	usb_lld_prepare_receive
 1346              	.LVL81:
 1347              		.loc 1 595 0
 1348 006a 2046     		mov	r0, r4
 1349 006c 0021     		movs	r1, #0
 1350 006e FFF7FEFF 		bl	usb_lld_start_out
ARM GAS  C:\Users\z80\AppData\Local\Temp\cctIXSBd.s 			page 25


 1351              		.loc 1 596 0
 1352 0072 DDE7     		b	.L117
 1353              	.LVL82:
 1354              	.L127:
 1355              		.loc 1 587 0
 1356 0074 2946     		mov	r1, r5
 1357              	.LVL83:
 1358 0076 2A46     		mov	r2, r5
 1359 0078 2B46     		mov	r3, r5
 1360 007a FFF7FEFF 		bl	usb_lld_prepare_transmit
 1361              	.LVL84:
 1362              		.loc 1 588 0
 1363 007e 2046     		mov	r0, r4
 1364 0080 2946     		mov	r1, r5
 1365 0082 FFF7FEFF 		bl	usb_lld_start_in
 1366              		.loc 1 589 0
 1367 0086 D3E7     		b	.L117
 1368              		.cfi_endproc
 1369              	.LFE76:
 1370              		.size	_usb_ep0in, .-_usb_ep0in
 1371 0088 AFF30080 		.section	.text._usb_ep0out,"ax",%progbits
 1371      AFF30080 
 1372              		.align	2
 1373              		.p2align 4,,15
 1374              		.global	_usb_ep0out
 1375              		.thumb
 1376              		.thumb_func
 1377              		.type	_usb_ep0out, %function
 1378              	_usb_ep0out:
 1379              	.LFB77:
 1380              		.loc 1 625 0
 1381              		.cfi_startproc
 1382              		@ args = 0, pretend = 0, frame = 0
 1383              		@ frame_needed = 0, uses_anonymous_args = 0
 1384              	.LVL85:
 1385              		.loc 1 628 0
 1386 0000 90F83030 		ldrb	r3, [r0, #48]	@ zero_extendqisi2
 1387              		.loc 1 625 0
 1388 0004 10B5     		push	{r4, lr}
 1389              	.LCFI13:
 1390              		.cfi_def_cfa_offset 8
 1391              		.loc 1 628 0
 1392 0006 022B     		cmp	r3, #2
 1393              		.loc 1 625 0
 1394 0008 0446     		mov	r4, r0
 1395              		.cfi_offset 14, -4
 1396              		.cfi_offset 4, -8
 1397              		.loc 1 628 0
 1398 000a 20D0     		beq	.L130
 1399 000c 032B     		cmp	r3, #3
 1400 000e 11D0     		beq	.L135
 1401              	.L129:
 1402              		.loc 1 650 0
 1403 0010 0021     		movs	r1, #0
 1404              	.LVL86:
 1405 0012 2046     		mov	r0, r4
 1406              	.LVL87:
ARM GAS  C:\Users\z80\AppData\Local\Temp\cctIXSBd.s 			page 26


 1407 0014 FFF7FEFF 		bl	usb_lld_stall_in
 1408              		.loc 1 651 0
 1409 0018 2046     		mov	r0, r4
 1410 001a 0021     		movs	r1, #0
 1411 001c FFF7FEFF 		bl	usb_lld_stall_out
 1412              		.loc 1 652 0
 1413 0020 6368     		ldr	r3, [r4, #4]
 1414 0022 1B68     		ldr	r3, [r3, #0]
 1415 0024 13B1     		cbz	r3, .L134
 1416              		.loc 1 652 0 is_stmt 0 discriminator 1
 1417 0026 2046     		mov	r0, r4
 1418 0028 0521     		movs	r1, #5
 1419 002a 9847     		blx	r3
 1420              	.L134:
 1421              		.loc 1 653 0 is_stmt 1
 1422 002c 0523     		movs	r3, #5
 1423 002e 84F83030 		strb	r3, [r4, #48]
 1424              	.L128:
 1425              		.loc 1 654 0
 1426 0032 10BD     		pop	{r4, pc}
 1427              	.LVL88:
 1428              	.L135:
 1429              		.loc 1 632 0
 1430 0034 0021     		movs	r1, #0
 1431              	.LVL89:
 1432              		.loc 1 631 0
 1433 0036 0423     		movs	r3, #4
 1434 0038 80F83030 		strb	r3, [r0, #48]
 1435              		.loc 1 632 0
 1436 003c 0A46     		mov	r2, r1
 1437 003e 0B46     		mov	r3, r1
 1438 0040 FFF7FEFF 		bl	usb_lld_prepare_transmit
 1439              		.loc 1 633 0
 1440 0044 2046     		mov	r0, r4
 1441 0046 0021     		movs	r1, #0
 1442 0048 FFF7FEFF 		bl	usb_lld_start_in
 1443              		.loc 1 634 0
 1444 004c F1E7     		b	.L128
 1445              	.LVL90:
 1446              	.L130:
 1447              		.loc 1 638 0
 1448 004e 0369     		ldr	r3, [r0, #16]
 1449 0050 9B69     		ldr	r3, [r3, #24]
 1450 0052 DB68     		ldr	r3, [r3, #12]
 1451 0054 002B     		cmp	r3, #0
 1452 0056 DBD1     		bne	.L129
 1453              		.loc 1 640 0
 1454 0058 C36B     		ldr	r3, [r0, #60]
 1455 005a 03B1     		cbz	r3, .L133
 1456              		.loc 1 641 0
 1457 005c 9847     		blx	r3
 1458              	.LVL91:
 1459              	.L133:
 1460              		.loc 1 642 0
 1461 005e 0023     		movs	r3, #0
 1462 0060 84F83030 		strb	r3, [r4, #48]
 1463              		.loc 1 643 0
ARM GAS  C:\Users\z80\AppData\Local\Temp\cctIXSBd.s 			page 27


 1464 0064 E5E7     		b	.L128
 1465              		.cfi_endproc
 1466              	.LFE77:
 1467              		.size	_usb_ep0out, .-_usb_ep0out
 1468 0066 00BFAFF3 		.section	.rodata.zero_status,"a",%progbits
 1468      0080AFF3 
 1468      0080
 1469              		.align	2
 1470              		.set	.LANCHOR0,. + 0
 1471              		.type	zero_status, %object
 1472              		.size	zero_status, 2
 1473              	zero_status:
 1474 0000 0000     		.space	2
 1475 0002 0000     		.section	.rodata.active_status,"a",%progbits
 1476              		.align	2
 1477              		.set	.LANCHOR2,. + 0
 1478              		.type	active_status, %object
 1479              		.size	active_status, 2
 1480              	active_status:
 1481 0000 0000     		.space	2
 1482 0002 0000     		.section	.rodata.str1.4,"aMS",%progbits,1
 1483              		.align	2
 1484              	.LC0:
 1485 0000 22757362 		.ascii	"\"usbStart\"()\000"
 1485      53746172 
 1485      74222829 
 1485      00
 1486 000d 000000   		.space	3
 1487              	.LC1:
 1488 0010 75736253 		.ascii	"usbStart(), #1\000"
 1488      74617274 
 1488      28292C20 
 1488      233100
 1489 001f 00       		.space	1
 1490              	.LC2:
 1491 0020 22757362 		.ascii	"\"usbStop\"()\000"
 1491      53746F70 
 1491      22282900 
 1492              	.LC3:
 1493 002c 75736253 		.ascii	"usbStop(), #1\000"
 1493      746F7028 
 1493      292C2023 
 1493      3100
 1494 003a 0000     		.space	2
 1495              	.LC4:
 1496 003c 22757362 		.ascii	"\"usbInitEndpointI\"()\000"
 1496      496E6974 
 1496      456E6470 
 1496      6F696E74 
 1496      49222829 
 1497 0051 000000   		.space	3
 1498              	.LC5:
 1499 0054 75736245 		.ascii	"usbEnableEndpointI(), #1\000"
 1499      6E61626C 
 1499      65456E64 
 1499      706F696E 
 1499      74492829 
ARM GAS  C:\Users\z80\AppData\Local\Temp\cctIXSBd.s 			page 28


 1500 006d 000000   		.space	3
 1501              	.LC6:
 1502 0070 75736245 		.ascii	"usbEnableEndpointI(), #2\000"
 1502      6E61626C 
 1502      65456E64 
 1502      706F696E 
 1502      74492829 
 1503 0089 000000   		.space	3
 1504              	.LC7:
 1505 008c 22757362 		.ascii	"\"usbDisableEndpointsI\"()\000"
 1505      44697361 
 1505      626C6545 
 1505      6E64706F 
 1505      696E7473 
 1506 00a5 000000   		.space	3
 1507              	.LC8:
 1508 00a8 75736244 		.ascii	"usbDisableEndpointsI(), #1\000"
 1508      69736162 
 1508      6C65456E 
 1508      64706F69 
 1508      6E747349 
 1509 00c3 00       		.space	1
 1510              	.LC9:
 1511 00c4 22757362 		.ascii	"\"usbStartReceiveI\"()\000"
 1511      53746172 
 1511      74526563 
 1511      65697665 
 1511      49222829 
 1512 00d9 000000   		.space	3
 1513              	.LC10:
 1514 00dc 22757362 		.ascii	"\"usbStartTransmitI\"()\000"
 1514      53746172 
 1514      74547261 
 1514      6E736D69 
 1514      74492228 
 1515 00f2 0000     		.space	2
 1516              	.LC11:
 1517 00f4 22757362 		.ascii	"\"usbStallReceiveI\"()\000"
 1517      5374616C 
 1517      6C526563 
 1517      65697665 
 1517      49222829 
 1518 0109 000000   		.space	3
 1519              	.LC12:
 1520 010c 22757362 		.ascii	"\"usbStallTransmitI\"()\000"
 1520      5374616C 
 1520      6C547261 
 1520      6E736D69 
 1520      74492228 
 1521 0122 0000     		.section	.rodata.halted_status,"a",%progbits
 1522              		.align	2
 1523              		.set	.LANCHOR1,. + 0
 1524              		.type	halted_status, %object
 1525              		.size	halted_status, 2
 1526              	halted_status:
 1527 0000 01       		.byte	1
 1528 0001 00       		.byte	0
ARM GAS  C:\Users\z80\AppData\Local\Temp\cctIXSBd.s 			page 29


 1529 0002 0000     		.text
 1530              	.Letext0:
 1531              		.section	.debug_loc,"",%progbits
 1532              	.Ldebug_loc0:
 1533              	.LLST0:
 1534 0000 00000000 		.4byte	.LFB62
 1535 0004 02000000 		.4byte	.LCFI0
 1536 0008 0200     		.2byte	0x2
 1537 000a 7D       		.byte	0x7d
 1538 000b 00       		.sleb128 0
 1539 000c 02000000 		.4byte	.LCFI0
 1540 0010 22000000 		.4byte	.LFE62
 1541 0014 0200     		.2byte	0x2
 1542 0016 7D       		.byte	0x7d
 1543 0017 08       		.sleb128 8
 1544 0018 00000000 		.4byte	0x0
 1545 001c 00000000 		.4byte	0x0
 1546              	.LLST1:
 1547 0020 00000000 		.4byte	.LVL0
 1548 0024 0F000000 		.4byte	.LVL1-1
 1549 0028 0100     		.2byte	0x1
 1550 002a 50       		.byte	0x50
 1551 002b 0F000000 		.4byte	.LVL1-1
 1552 002f 22000000 		.4byte	.LFE62
 1553 0033 0100     		.2byte	0x1
 1554 0035 54       		.byte	0x54
 1555 0036 00000000 		.4byte	0x0
 1556 003a 00000000 		.4byte	0x0
 1557              	.LLST2:
 1558 003e 00000000 		.4byte	.LFB64
 1559 0042 02000000 		.4byte	.LCFI1
 1560 0046 0200     		.2byte	0x2
 1561 0048 7D       		.byte	0x7d
 1562 0049 00       		.sleb128 0
 1563 004a 02000000 		.4byte	.LCFI1
 1564 004e 08000000 		.4byte	.LFE64
 1565 0052 0200     		.2byte	0x2
 1566 0054 7D       		.byte	0x7d
 1567 0055 08       		.sleb128 8
 1568 0056 00000000 		.4byte	0x0
 1569 005a 00000000 		.4byte	0x0
 1570              	.LLST3:
 1571 005e 00000000 		.4byte	.LFB66
 1572 0062 12000000 		.4byte	.LCFI2
 1573 0066 0200     		.2byte	0x2
 1574 0068 7D       		.byte	0x7d
 1575 0069 00       		.sleb128 0
 1576 006a 12000000 		.4byte	.LCFI2
 1577 006e 70000000 		.4byte	.LFE66
 1578 0072 0200     		.2byte	0x2
 1579 0074 7D       		.byte	0x7d
 1580 0075 10       		.sleb128 16
 1581 0076 00000000 		.4byte	0x0
 1582 007a 00000000 		.4byte	0x0
 1583              	.LLST4:
 1584 007e 00000000 		.4byte	.LVL3
 1585 0082 1A000000 		.4byte	.LVL4
ARM GAS  C:\Users\z80\AppData\Local\Temp\cctIXSBd.s 			page 30


 1586 0086 0100     		.2byte	0x1
 1587 0088 50       		.byte	0x50
 1588 0089 1A000000 		.4byte	.LVL4
 1589 008d 70000000 		.4byte	.LFE66
 1590 0091 0100     		.2byte	0x1
 1591 0093 54       		.byte	0x54
 1592 0094 00000000 		.4byte	0x0
 1593 0098 00000000 		.4byte	0x0
 1594              	.LLST5:
 1595 009c 00000000 		.4byte	.LVL3
 1596 00a0 1A000000 		.4byte	.LVL4
 1597 00a4 0100     		.2byte	0x1
 1598 00a6 51       		.byte	0x51
 1599 00a7 1A000000 		.4byte	.LVL4
 1600 00ab 70000000 		.4byte	.LFE66
 1601 00af 0100     		.2byte	0x1
 1602 00b1 55       		.byte	0x55
 1603 00b2 00000000 		.4byte	0x0
 1604 00b6 00000000 		.4byte	0x0
 1605              	.LLST6:
 1606 00ba 3A000000 		.4byte	.LVL8
 1607 00be 3C000000 		.4byte	.LVL9
 1608 00c2 0200     		.2byte	0x2
 1609 00c4 30       		.byte	0x30
 1610 00c5 9F       		.byte	0x9f
 1611 00c6 3C000000 		.4byte	.LVL9
 1612 00ca 3E000000 		.4byte	.LVL10
 1613 00ce 0200     		.2byte	0x2
 1614 00d0 31       		.byte	0x31
 1615 00d1 9F       		.byte	0x9f
 1616 00d2 3E000000 		.4byte	.LVL10
 1617 00d6 40000000 		.4byte	.LVL11
 1618 00da 0200     		.2byte	0x2
 1619 00dc 32       		.byte	0x32
 1620 00dd 9F       		.byte	0x9f
 1621 00de 40000000 		.4byte	.LVL11
 1622 00e2 42000000 		.4byte	.LVL12
 1623 00e6 0200     		.2byte	0x2
 1624 00e8 33       		.byte	0x33
 1625 00e9 9F       		.byte	0x9f
 1626 00ea 42000000 		.4byte	.LVL12
 1627 00ee 44000000 		.4byte	.LVL13
 1628 00f2 0200     		.2byte	0x2
 1629 00f4 34       		.byte	0x34
 1630 00f5 9F       		.byte	0x9f
 1631 00f6 44000000 		.4byte	.LVL13
 1632 00fa 46000000 		.4byte	.LVL14
 1633 00fe 0200     		.2byte	0x2
 1634 0100 35       		.byte	0x35
 1635 0101 9F       		.byte	0x9f
 1636 0102 46000000 		.4byte	.LVL14
 1637 0106 48000000 		.4byte	.LVL15
 1638 010a 0200     		.2byte	0x2
 1639 010c 36       		.byte	0x36
 1640 010d 9F       		.byte	0x9f
 1641 010e 48000000 		.4byte	.LVL15
 1642 0112 4A000000 		.4byte	.LVL16
ARM GAS  C:\Users\z80\AppData\Local\Temp\cctIXSBd.s 			page 31


 1643 0116 0200     		.2byte	0x2
 1644 0118 37       		.byte	0x37
 1645 0119 9F       		.byte	0x9f
 1646 011a 4A000000 		.4byte	.LVL16
 1647 011e 5E000000 		.4byte	.LVL19
 1648 0122 0200     		.2byte	0x2
 1649 0124 38       		.byte	0x38
 1650 0125 9F       		.byte	0x9f
 1651 0126 00000000 		.4byte	0x0
 1652 012a 00000000 		.4byte	0x0
 1653              	.LLST7:
 1654 012e 20000000 		.4byte	.LVL6
 1655 0132 23000000 		.4byte	.LVL7-1
 1656 0136 0100     		.2byte	0x1
 1657 0138 53       		.byte	0x53
 1658 0139 00000000 		.4byte	0x0
 1659 013d 00000000 		.4byte	0x0
 1660              	.LLST8:
 1661 0141 5C000000 		.4byte	.LVL18
 1662 0145 5E000000 		.4byte	.LVL19
 1663 0149 0100     		.2byte	0x1
 1664 014b 53       		.byte	0x53
 1665 014c 00000000 		.4byte	0x0
 1666 0150 00000000 		.4byte	0x0
 1667              	.LLST9:
 1668 0154 00000000 		.4byte	.LFB67
 1669 0158 02000000 		.4byte	.LCFI3
 1670 015c 0200     		.2byte	0x2
 1671 015e 7D       		.byte	0x7d
 1672 015f 00       		.sleb128 0
 1673 0160 02000000 		.4byte	.LCFI3
 1674 0164 48000000 		.4byte	.LFE67
 1675 0168 0200     		.2byte	0x2
 1676 016a 7D       		.byte	0x7d
 1677 016b 08       		.sleb128 8
 1678 016c 00000000 		.4byte	0x0
 1679 0170 00000000 		.4byte	0x0
 1680              	.LLST10:
 1681 0174 00000000 		.4byte	.LVL20
 1682 0178 06000000 		.4byte	.LVL21
 1683 017c 0100     		.2byte	0x1
 1684 017e 50       		.byte	0x50
 1685 017f 06000000 		.4byte	.LVL21
 1686 0183 48000000 		.4byte	.LFE67
 1687 0187 0100     		.2byte	0x1
 1688 0189 54       		.byte	0x54
 1689 018a 00000000 		.4byte	0x0
 1690 018e 00000000 		.4byte	0x0
 1691              	.LLST11:
 1692 0192 0C000000 		.4byte	.LVL23
 1693 0196 0F000000 		.4byte	.LVL24-1
 1694 019a 0100     		.2byte	0x1
 1695 019c 53       		.byte	0x53
 1696 019d 00000000 		.4byte	0x0
 1697 01a1 00000000 		.4byte	0x0
 1698              	.LLST12:
 1699 01a5 34000000 		.4byte	.LVL26
ARM GAS  C:\Users\z80\AppData\Local\Temp\cctIXSBd.s 			page 32


 1700 01a9 36000000 		.4byte	.LVL27
 1701 01ad 0100     		.2byte	0x1
 1702 01af 53       		.byte	0x53
 1703 01b0 00000000 		.4byte	0x0
 1704 01b4 00000000 		.4byte	0x0
 1705              	.LLST13:
 1706 01b8 00000000 		.4byte	.LFB68
 1707 01bc 02000000 		.4byte	.LCFI4
 1708 01c0 0200     		.2byte	0x2
 1709 01c2 7D       		.byte	0x7d
 1710 01c3 00       		.sleb128 0
 1711 01c4 02000000 		.4byte	.LCFI4
 1712 01c8 84000000 		.4byte	.LFE68
 1713 01cc 0200     		.2byte	0x2
 1714 01ce 7D       		.byte	0x7d
 1715 01cf 18       		.sleb128 24
 1716 01d0 00000000 		.4byte	0x0
 1717 01d4 00000000 		.4byte	0x0
 1718              	.LLST14:
 1719 01d8 00000000 		.4byte	.LVL28
 1720 01dc 0B000000 		.4byte	.LVL29-1
 1721 01e0 0100     		.2byte	0x1
 1722 01e2 50       		.byte	0x50
 1723 01e3 0B000000 		.4byte	.LVL29-1
 1724 01e7 84000000 		.4byte	.LFE68
 1725 01eb 0100     		.2byte	0x1
 1726 01ed 54       		.byte	0x54
 1727 01ee 00000000 		.4byte	0x0
 1728 01f2 00000000 		.4byte	0x0
 1729              	.LLST15:
 1730 01f6 00000000 		.4byte	.LVL28
 1731 01fa 0B000000 		.4byte	.LVL29-1
 1732 01fe 0100     		.2byte	0x1
 1733 0200 51       		.byte	0x51
 1734 0201 00000000 		.4byte	0x0
 1735 0205 00000000 		.4byte	0x0
 1736              	.LLST16:
 1737 0209 00000000 		.4byte	.LVL28
 1738 020d 0B000000 		.4byte	.LVL29-1
 1739 0211 0100     		.2byte	0x1
 1740 0213 52       		.byte	0x52
 1741 0214 0B000000 		.4byte	.LVL29-1
 1742 0218 84000000 		.4byte	.LFE68
 1743 021c 0100     		.2byte	0x1
 1744 021e 55       		.byte	0x55
 1745 021f 00000000 		.4byte	0x0
 1746 0223 00000000 		.4byte	0x0
 1747              	.LLST17:
 1748 0227 00000000 		.4byte	.LFB69
 1749 022b 02000000 		.4byte	.LCFI5
 1750 022f 0200     		.2byte	0x2
 1751 0231 7D       		.byte	0x7d
 1752 0232 00       		.sleb128 0
 1753 0233 02000000 		.4byte	.LCFI5
 1754 0237 50000000 		.4byte	.LFE69
 1755 023b 0200     		.2byte	0x2
 1756 023d 7D       		.byte	0x7d
ARM GAS  C:\Users\z80\AppData\Local\Temp\cctIXSBd.s 			page 33


 1757 023e 08       		.sleb128 8
 1758 023f 00000000 		.4byte	0x0
 1759 0243 00000000 		.4byte	0x0
 1760              	.LLST18:
 1761 0247 00000000 		.4byte	.LVL30
 1762 024b 07000000 		.4byte	.LVL31-1
 1763 024f 0100     		.2byte	0x1
 1764 0251 50       		.byte	0x50
 1765 0252 07000000 		.4byte	.LVL31-1
 1766 0256 50000000 		.4byte	.LFE69
 1767 025a 0100     		.2byte	0x1
 1768 025c 54       		.byte	0x54
 1769 025d 00000000 		.4byte	0x0
 1770 0261 00000000 		.4byte	0x0
 1771              	.LLST19:
 1772 0265 28000000 		.4byte	.LVL32
 1773 0269 2A000000 		.4byte	.LVL33
 1774 026d 0200     		.2byte	0x2
 1775 026f 31       		.byte	0x31
 1776 0270 9F       		.byte	0x9f
 1777 0271 2A000000 		.4byte	.LVL33
 1778 0275 2C000000 		.4byte	.LVL34
 1779 0279 0200     		.2byte	0x2
 1780 027b 32       		.byte	0x32
 1781 027c 9F       		.byte	0x9f
 1782 027d 2C000000 		.4byte	.LVL34
 1783 0281 2E000000 		.4byte	.LVL35
 1784 0285 0200     		.2byte	0x2
 1785 0287 33       		.byte	0x33
 1786 0288 9F       		.byte	0x9f
 1787 0289 2E000000 		.4byte	.LVL35
 1788 028d 30000000 		.4byte	.LVL36
 1789 0291 0200     		.2byte	0x2
 1790 0293 34       		.byte	0x34
 1791 0294 9F       		.byte	0x9f
 1792 0295 30000000 		.4byte	.LVL36
 1793 0299 32000000 		.4byte	.LVL37
 1794 029d 0200     		.2byte	0x2
 1795 029f 35       		.byte	0x35
 1796 02a0 9F       		.byte	0x9f
 1797 02a1 32000000 		.4byte	.LVL37
 1798 02a5 34000000 		.4byte	.LVL38
 1799 02a9 0200     		.2byte	0x2
 1800 02ab 36       		.byte	0x36
 1801 02ac 9F       		.byte	0x9f
 1802 02ad 34000000 		.4byte	.LVL38
 1803 02b1 36000000 		.4byte	.LVL39
 1804 02b5 0200     		.2byte	0x2
 1805 02b7 37       		.byte	0x37
 1806 02b8 9F       		.byte	0x9f
 1807 02b9 36000000 		.4byte	.LVL39
 1808 02bd 3E000000 		.4byte	.LVL40
 1809 02c1 0200     		.2byte	0x2
 1810 02c3 38       		.byte	0x38
 1811 02c4 9F       		.byte	0x9f
 1812 02c5 00000000 		.4byte	0x0
 1813 02c9 00000000 		.4byte	0x0
ARM GAS  C:\Users\z80\AppData\Local\Temp\cctIXSBd.s 			page 34


 1814              	.LLST20:
 1815 02cd 00000000 		.4byte	.LFB70
 1816 02d1 02000000 		.4byte	.LCFI6
 1817 02d5 0200     		.2byte	0x2
 1818 02d7 7D       		.byte	0x7d
 1819 02d8 00       		.sleb128 0
 1820 02d9 02000000 		.4byte	.LCFI6
 1821 02dd 40000000 		.4byte	.LFE70
 1822 02e1 0200     		.2byte	0x2
 1823 02e3 7D       		.byte	0x7d
 1824 02e4 10       		.sleb128 16
 1825 02e5 00000000 		.4byte	0x0
 1826 02e9 00000000 		.4byte	0x0
 1827              	.LLST21:
 1828 02ed 00000000 		.4byte	.LVL41
 1829 02f1 09000000 		.4byte	.LVL42-1
 1830 02f5 0100     		.2byte	0x1
 1831 02f7 50       		.byte	0x50
 1832 02f8 09000000 		.4byte	.LVL42-1
 1833 02fc 40000000 		.4byte	.LFE70
 1834 0300 0100     		.2byte	0x1
 1835 0302 54       		.byte	0x54
 1836 0303 00000000 		.4byte	0x0
 1837 0307 00000000 		.4byte	0x0
 1838              	.LLST22:
 1839 030b 00000000 		.4byte	.LVL41
 1840 030f 09000000 		.4byte	.LVL42-1
 1841 0313 0100     		.2byte	0x1
 1842 0315 51       		.byte	0x51
 1843 0316 00000000 		.4byte	0x0
 1844 031a 00000000 		.4byte	0x0
 1845              	.LLST23:
 1846 031e 00000000 		.4byte	.LFB71
 1847 0322 02000000 		.4byte	.LCFI7
 1848 0326 0200     		.2byte	0x2
 1849 0328 7D       		.byte	0x7d
 1850 0329 00       		.sleb128 0
 1851 032a 02000000 		.4byte	.LCFI7
 1852 032e 40000000 		.4byte	.LFE71
 1853 0332 0200     		.2byte	0x2
 1854 0334 7D       		.byte	0x7d
 1855 0335 10       		.sleb128 16
 1856 0336 00000000 		.4byte	0x0
 1857 033a 00000000 		.4byte	0x0
 1858              	.LLST24:
 1859 033e 00000000 		.4byte	.LVL43
 1860 0342 09000000 		.4byte	.LVL44-1
 1861 0346 0100     		.2byte	0x1
 1862 0348 50       		.byte	0x50
 1863 0349 09000000 		.4byte	.LVL44-1
 1864 034d 40000000 		.4byte	.LFE71
 1865 0351 0100     		.2byte	0x1
 1866 0353 54       		.byte	0x54
 1867 0354 00000000 		.4byte	0x0
 1868 0358 00000000 		.4byte	0x0
 1869              	.LLST25:
 1870 035c 00000000 		.4byte	.LVL43
ARM GAS  C:\Users\z80\AppData\Local\Temp\cctIXSBd.s 			page 35


 1871 0360 09000000 		.4byte	.LVL44-1
 1872 0364 0100     		.2byte	0x1
 1873 0366 51       		.byte	0x51
 1874 0367 00000000 		.4byte	0x0
 1875 036b 00000000 		.4byte	0x0
 1876              	.LLST26:
 1877 036f 00000000 		.4byte	.LFB72
 1878 0373 02000000 		.4byte	.LCFI8
 1879 0377 0200     		.2byte	0x2
 1880 0379 7D       		.byte	0x7d
 1881 037a 00       		.sleb128 0
 1882 037b 02000000 		.4byte	.LCFI8
 1883 037f 34000000 		.4byte	.LFE72
 1884 0383 0200     		.2byte	0x2
 1885 0385 7D       		.byte	0x7d
 1886 0386 10       		.sleb128 16
 1887 0387 00000000 		.4byte	0x0
 1888 038b 00000000 		.4byte	0x0
 1889              	.LLST27:
 1890 038f 00000000 		.4byte	.LVL45
 1891 0393 09000000 		.4byte	.LVL46-1
 1892 0397 0100     		.2byte	0x1
 1893 0399 50       		.byte	0x50
 1894 039a 09000000 		.4byte	.LVL46-1
 1895 039e 34000000 		.4byte	.LFE72
 1896 03a2 0100     		.2byte	0x1
 1897 03a4 54       		.byte	0x54
 1898 03a5 00000000 		.4byte	0x0
 1899 03a9 00000000 		.4byte	0x0
 1900              	.LLST28:
 1901 03ad 00000000 		.4byte	.LVL45
 1902 03b1 09000000 		.4byte	.LVL46-1
 1903 03b5 0100     		.2byte	0x1
 1904 03b7 51       		.byte	0x51
 1905 03b8 00000000 		.4byte	0x0
 1906 03bc 00000000 		.4byte	0x0
 1907              	.LLST29:
 1908 03c0 00000000 		.4byte	.LFB73
 1909 03c4 02000000 		.4byte	.LCFI9
 1910 03c8 0200     		.2byte	0x2
 1911 03ca 7D       		.byte	0x7d
 1912 03cb 00       		.sleb128 0
 1913 03cc 02000000 		.4byte	.LCFI9
 1914 03d0 34000000 		.4byte	.LFE73
 1915 03d4 0200     		.2byte	0x2
 1916 03d6 7D       		.byte	0x7d
 1917 03d7 10       		.sleb128 16
 1918 03d8 00000000 		.4byte	0x0
 1919 03dc 00000000 		.4byte	0x0
 1920              	.LLST30:
 1921 03e0 00000000 		.4byte	.LVL47
 1922 03e4 09000000 		.4byte	.LVL48-1
 1923 03e8 0100     		.2byte	0x1
 1924 03ea 50       		.byte	0x50
 1925 03eb 09000000 		.4byte	.LVL48-1
 1926 03ef 34000000 		.4byte	.LFE73
 1927 03f3 0100     		.2byte	0x1
ARM GAS  C:\Users\z80\AppData\Local\Temp\cctIXSBd.s 			page 36


 1928 03f5 54       		.byte	0x54
 1929 03f6 00000000 		.4byte	0x0
 1930 03fa 00000000 		.4byte	0x0
 1931              	.LLST31:
 1932 03fe 00000000 		.4byte	.LVL47
 1933 0402 09000000 		.4byte	.LVL48-1
 1934 0406 0100     		.2byte	0x1
 1935 0408 51       		.byte	0x51
 1936 0409 00000000 		.4byte	0x0
 1937 040d 00000000 		.4byte	0x0
 1938              	.LLST32:
 1939 0411 00000000 		.4byte	.LFB74
 1940 0415 02000000 		.4byte	.LCFI10
 1941 0419 0200     		.2byte	0x2
 1942 041b 7D       		.byte	0x7d
 1943 041c 00       		.sleb128 0
 1944 041d 02000000 		.4byte	.LCFI10
 1945 0421 32000000 		.4byte	.LFE74
 1946 0425 0200     		.2byte	0x2
 1947 0427 7D       		.byte	0x7d
 1948 0428 08       		.sleb128 8
 1949 0429 00000000 		.4byte	0x0
 1950 042d 00000000 		.4byte	0x0
 1951              	.LLST33:
 1952 0431 00000000 		.4byte	.LVL49
 1953 0435 2F000000 		.4byte	.LVL59-1
 1954 0439 0100     		.2byte	0x1
 1955 043b 50       		.byte	0x50
 1956 043c 00000000 		.4byte	0x0
 1957 0440 00000000 		.4byte	0x0
 1958              	.LLST34:
 1959 0444 18000000 		.4byte	.LVL50
 1960 0448 1A000000 		.4byte	.LVL51
 1961 044c 0200     		.2byte	0x2
 1962 044e 30       		.byte	0x30
 1963 044f 9F       		.byte	0x9f
 1964 0450 1A000000 		.4byte	.LVL51
 1965 0454 1C000000 		.4byte	.LVL52
 1966 0458 0200     		.2byte	0x2
 1967 045a 31       		.byte	0x31
 1968 045b 9F       		.byte	0x9f
 1969 045c 1C000000 		.4byte	.LVL52
 1970 0460 1E000000 		.4byte	.LVL53
 1971 0464 0200     		.2byte	0x2
 1972 0466 32       		.byte	0x32
 1973 0467 9F       		.byte	0x9f
 1974 0468 1E000000 		.4byte	.LVL53
 1975 046c 20000000 		.4byte	.LVL54
 1976 0470 0200     		.2byte	0x2
 1977 0472 33       		.byte	0x33
 1978 0473 9F       		.byte	0x9f
 1979 0474 20000000 		.4byte	.LVL54
 1980 0478 22000000 		.4byte	.LVL55
 1981 047c 0200     		.2byte	0x2
 1982 047e 34       		.byte	0x34
 1983 047f 9F       		.byte	0x9f
 1984 0480 22000000 		.4byte	.LVL55
ARM GAS  C:\Users\z80\AppData\Local\Temp\cctIXSBd.s 			page 37


 1985 0484 24000000 		.4byte	.LVL56
 1986 0488 0200     		.2byte	0x2
 1987 048a 35       		.byte	0x35
 1988 048b 9F       		.byte	0x9f
 1989 048c 24000000 		.4byte	.LVL56
 1990 0490 26000000 		.4byte	.LVL57
 1991 0494 0200     		.2byte	0x2
 1992 0496 36       		.byte	0x36
 1993 0497 9F       		.byte	0x9f
 1994 0498 26000000 		.4byte	.LVL57
 1995 049c 28000000 		.4byte	.LVL58
 1996 04a0 0200     		.2byte	0x2
 1997 04a2 37       		.byte	0x37
 1998 04a3 9F       		.byte	0x9f
 1999 04a4 28000000 		.4byte	.LVL58
 2000 04a8 32000000 		.4byte	.LFE74
 2001 04ac 0200     		.2byte	0x2
 2002 04ae 38       		.byte	0x38
 2003 04af 9F       		.byte	0x9f
 2004 04b0 00000000 		.4byte	0x0
 2005 04b4 00000000 		.4byte	0x0
 2006              	.LLST35:
 2007 04b8 00000000 		.4byte	.LFB75
 2008 04bc 02000000 		.4byte	.LCFI11
 2009 04c0 0200     		.2byte	0x2
 2010 04c2 7D       		.byte	0x7d
 2011 04c3 00       		.sleb128 0
 2012 04c4 02000000 		.4byte	.LCFI11
 2013 04c8 E0020000 		.4byte	.LFE75
 2014 04cc 0200     		.2byte	0x2
 2015 04ce 7D       		.byte	0x7d
 2016 04cf 18       		.sleb128 24
 2017 04d0 00000000 		.4byte	0x0
 2018 04d4 00000000 		.4byte	0x0
 2019              	.LLST36:
 2020 04d8 00000000 		.4byte	.LVL60
 2021 04dc 11000000 		.4byte	.LVL61-1
 2022 04e0 0100     		.2byte	0x1
 2023 04e2 50       		.byte	0x50
 2024 04e3 11000000 		.4byte	.LVL61-1
 2025 04e7 E0020000 		.4byte	.LFE75
 2026 04eb 0100     		.2byte	0x1
 2027 04ed 54       		.byte	0x54
 2028 04ee 00000000 		.4byte	0x0
 2029 04f2 00000000 		.4byte	0x0
 2030              	.LLST37:
 2031 04f6 00000000 		.4byte	.LVL60
 2032 04fa 11000000 		.4byte	.LVL61-1
 2033 04fe 0100     		.2byte	0x1
 2034 0500 51       		.byte	0x51
 2035 0501 00000000 		.4byte	0x0
 2036 0505 00000000 		.4byte	0x0
 2037              	.LLST38:
 2038 0509 2A000000 		.4byte	.LVL62
 2039 050d 48000000 		.4byte	.LVL63
 2040 0511 0100     		.2byte	0x1
 2041 0513 52       		.byte	0x52
ARM GAS  C:\Users\z80\AppData\Local\Temp\cctIXSBd.s 			page 38


 2042 0514 10010000 		.4byte	.LVL65
 2043 0518 1C010000 		.4byte	.LVL66
 2044 051c 0100     		.2byte	0x1
 2045 051e 52       		.byte	0x52
 2046 051f 2C010000 		.4byte	.LVL67
 2047 0523 3A010000 		.4byte	.LVL68
 2048 0527 0100     		.2byte	0x1
 2049 0529 52       		.byte	0x52
 2050 052a 4A010000 		.4byte	.LVL69
 2051 052e 56010000 		.4byte	.LVL70
 2052 0532 0100     		.2byte	0x1
 2053 0534 52       		.byte	0x52
 2054 0535 00000000 		.4byte	0x0
 2055 0539 00000000 		.4byte	0x0
 2056              	.LLST39:
 2057 053d 88000000 		.4byte	.LVL64
 2058 0541 10010000 		.4byte	.LVL65
 2059 0545 0100     		.2byte	0x1
 2060 0547 54       		.byte	0x54
 2061 0548 66010000 		.4byte	.LVL71
 2062 054c E0020000 		.4byte	.LFE75
 2063 0550 0100     		.2byte	0x1
 2064 0552 54       		.byte	0x54
 2065 0553 00000000 		.4byte	0x0
 2066 0557 00000000 		.4byte	0x0
 2067              	.LLST40:
 2068 055b 50020000 		.4byte	.LVL72
 2069 055f 66020000 		.4byte	.LVL73
 2070 0563 0100     		.2byte	0x1
 2071 0565 50       		.byte	0x50
 2072 0566 00000000 		.4byte	0x0
 2073 056a 00000000 		.4byte	0x0
 2074              	.LLST41:
 2075 056e 00000000 		.4byte	.LFB76
 2076 0572 02000000 		.4byte	.LCFI12
 2077 0576 0200     		.2byte	0x2
 2078 0578 7D       		.byte	0x7d
 2079 0579 00       		.sleb128 0
 2080 057a 02000000 		.4byte	.LCFI12
 2081 057e 88000000 		.4byte	.LFE76
 2082 0582 0200     		.2byte	0x2
 2083 0584 7D       		.byte	0x7d
 2084 0585 10       		.sleb128 16
 2085 0586 00000000 		.4byte	0x0
 2086 058a 00000000 		.4byte	0x0
 2087              	.LLST42:
 2088 058e 00000000 		.4byte	.LVL74
 2089 0592 15000000 		.4byte	.LVL76-1
 2090 0596 0100     		.2byte	0x1
 2091 0598 50       		.byte	0x50
 2092 0599 15000000 		.4byte	.LVL76-1
 2093 059d 88000000 		.4byte	.LFE76
 2094 05a1 0100     		.2byte	0x1
 2095 05a3 54       		.byte	0x54
 2096 05a4 00000000 		.4byte	0x0
 2097 05a8 00000000 		.4byte	0x0
 2098              	.LLST43:
ARM GAS  C:\Users\z80\AppData\Local\Temp\cctIXSBd.s 			page 39


 2099 05ac 00000000 		.4byte	.LVL74
 2100 05b0 12000000 		.4byte	.LVL75
 2101 05b4 0100     		.2byte	0x1
 2102 05b6 51       		.byte	0x51
 2103 05b7 32000000 		.4byte	.LVL77
 2104 05bb 37000000 		.4byte	.LVL78-1
 2105 05bf 0100     		.2byte	0x1
 2106 05c1 51       		.byte	0x51
 2107 05c2 40000000 		.4byte	.LVL79
 2108 05c6 5A000000 		.4byte	.LVL80
 2109 05ca 0100     		.2byte	0x1
 2110 05cc 51       		.byte	0x51
 2111 05cd 74000000 		.4byte	.LVL82
 2112 05d1 76000000 		.4byte	.LVL83
 2113 05d5 0100     		.2byte	0x1
 2114 05d7 51       		.byte	0x51
 2115 05d8 00000000 		.4byte	0x0
 2116 05dc 00000000 		.4byte	0x0
 2117              	.LLST44:
 2118 05e0 40000000 		.4byte	.LVL79
 2119 05e4 69000000 		.4byte	.LVL81-1
 2120 05e8 0300     		.2byte	0x3
 2121 05ea 74       		.byte	0x74
 2122 05eb C600     		.sleb128 70
 2123 05ed 74000000 		.4byte	.LVL82
 2124 05f1 7D000000 		.4byte	.LVL84-1
 2125 05f5 0300     		.2byte	0x3
 2126 05f7 74       		.byte	0x74
 2127 05f8 C600     		.sleb128 70
 2128 05fa 00000000 		.4byte	0x0
 2129 05fe 00000000 		.4byte	0x0
 2130              	.LLST45:
 2131 0602 00000000 		.4byte	.LFB77
 2132 0606 06000000 		.4byte	.LCFI13
 2133 060a 0200     		.2byte	0x2
 2134 060c 7D       		.byte	0x7d
 2135 060d 00       		.sleb128 0
 2136 060e 06000000 		.4byte	.LCFI13
 2137 0612 66000000 		.4byte	.LFE77
 2138 0616 0200     		.2byte	0x2
 2139 0618 7D       		.byte	0x7d
 2140 0619 08       		.sleb128 8
 2141 061a 00000000 		.4byte	0x0
 2142 061e 00000000 		.4byte	0x0
 2143              	.LLST46:
 2144 0622 00000000 		.4byte	.LVL85
 2145 0626 14000000 		.4byte	.LVL87
 2146 062a 0100     		.2byte	0x1
 2147 062c 50       		.byte	0x50
 2148 062d 14000000 		.4byte	.LVL87
 2149 0631 66000000 		.4byte	.LFE77
 2150 0635 0100     		.2byte	0x1
 2151 0637 54       		.byte	0x54
 2152 0638 00000000 		.4byte	0x0
 2153 063c 00000000 		.4byte	0x0
 2154              	.LLST47:
 2155 0640 00000000 		.4byte	.LVL85
ARM GAS  C:\Users\z80\AppData\Local\Temp\cctIXSBd.s 			page 40


 2156 0644 12000000 		.4byte	.LVL86
 2157 0648 0100     		.2byte	0x1
 2158 064a 51       		.byte	0x51
 2159 064b 34000000 		.4byte	.LVL88
 2160 064f 36000000 		.4byte	.LVL89
 2161 0653 0100     		.2byte	0x1
 2162 0655 51       		.byte	0x51
 2163 0656 4E000000 		.4byte	.LVL90
 2164 065a 5D000000 		.4byte	.LVL91-1
 2165 065e 0100     		.2byte	0x1
 2166 0660 51       		.byte	0x51
 2167 0661 00000000 		.4byte	0x0
 2168 0665 00000000 		.4byte	0x0
 2169              		.file 2 "c:\\programs\\yagarto\\bin\\../lib/gcc/arm-none-eabi/4.5.0/include/stddef.h"
 2170              		.file 3 "c:/programs/yagarto/lib/gcc/../../arm-none-eabi/sys-include/stdint.h"
 2171              		.file 4 "../chibios_2.4.x/os/ports/GCC/ARMCMx/chtypes.h"
 2172              		.file 5 "../chibios_2.4.x/os/hal/include/usb.h"
 2173              		.file 6 "../chibios_2.4.x/os/hal/platforms/STM32/USBv1/usb_lld.h"
 2174              		.file 7 "../chibios_2.4.x/os/ports/common/ARMCMx/CMSIS/include/core_cm3.h"
 2175              		.section	.debug_info
 2176 0000 AE090000 		.4byte	0x9ae
 2177 0004 0200     		.2byte	0x2
 2178 0006 00000000 		.4byte	.Ldebug_abbrev0
 2179 000a 04       		.byte	0x4
 2180 000b 01       		.uleb128 0x1
 2181 000c 40040000 		.4byte	.LASF105
 2182 0010 01       		.byte	0x1
 2183 0011 BE000000 		.4byte	.LASF106
 2184 0015 09030000 		.4byte	.LASF107
 2185 0019 00000000 		.4byte	0x0
 2186 001d 00000000 		.4byte	0x0
 2187 0021 30000000 		.4byte	.Ldebug_ranges0+0x30
 2188 0025 00000000 		.4byte	.Ldebug_line0
 2189 0029 02       		.uleb128 0x2
 2190 002a 01       		.byte	0x1
 2191 002b 06       		.byte	0x6
 2192 002c 89020000 		.4byte	.LASF0
 2193 0030 02       		.uleb128 0x2
 2194 0031 01       		.byte	0x1
 2195 0032 08       		.byte	0x8
 2196 0033 58020000 		.4byte	.LASF1
 2197 0037 02       		.uleb128 0x2
 2198 0038 02       		.byte	0x2
 2199 0039 05       		.byte	0x5
 2200 003a 3E000000 		.4byte	.LASF2
 2201 003e 02       		.uleb128 0x2
 2202 003f 02       		.byte	0x2
 2203 0040 07       		.byte	0x7
 2204 0041 7A030000 		.4byte	.LASF3
 2205 0045 03       		.uleb128 0x3
 2206 0046 04       		.byte	0x4
 2207 0047 05       		.byte	0x5
 2208 0048 696E7400 		.ascii	"int\000"
 2209 004c 02       		.uleb128 0x2
 2210 004d 04       		.byte	0x4
 2211 004e 07       		.byte	0x7
 2212 004f F1040000 		.4byte	.LASF4
ARM GAS  C:\Users\z80\AppData\Local\Temp\cctIXSBd.s 			page 41


 2213 0053 02       		.uleb128 0x2
 2214 0054 08       		.byte	0x8
 2215 0055 05       		.byte	0x5
 2216 0056 98010000 		.4byte	.LASF5
 2217 005a 02       		.uleb128 0x2
 2218 005b 08       		.byte	0x8
 2219 005c 07       		.byte	0x7
 2220 005d A6010000 		.4byte	.LASF6
 2221 0061 02       		.uleb128 0x2
 2222 0062 04       		.byte	0x4
 2223 0063 05       		.byte	0x5
 2224 0064 D0010000 		.4byte	.LASF7
 2225 0068 04       		.uleb128 0x4
 2226 0069 04       		.byte	0x4
 2227 006a 07       		.byte	0x7
 2228 006b 05       		.uleb128 0x5
 2229 006c 04       		.byte	0x4
 2230 006d 02       		.uleb128 0x2
 2231 006e 04       		.byte	0x4
 2232 006f 07       		.byte	0x7
 2233 0070 F1030000 		.4byte	.LASF8
 2234 0074 02       		.uleb128 0x2
 2235 0075 01       		.byte	0x1
 2236 0076 08       		.byte	0x8
 2237 0077 44030000 		.4byte	.LASF9
 2238 007b 06       		.uleb128 0x6
 2239 007c 48000000 		.4byte	.LASF10
 2240 0080 02       		.byte	0x2
 2241 0081 D3       		.byte	0xd3
 2242 0082 4C000000 		.4byte	0x4c
 2243 0086 06       		.uleb128 0x6
 2244 0087 89040000 		.4byte	.LASF11
 2245 008b 03       		.byte	0x3
 2246 008c 2A       		.byte	0x2a
 2247 008d 30000000 		.4byte	0x30
 2248 0091 06       		.uleb128 0x6
 2249 0092 49030000 		.4byte	.LASF12
 2250 0096 03       		.byte	0x3
 2251 0097 36       		.byte	0x36
 2252 0098 3E000000 		.4byte	0x3e
 2253 009c 06       		.uleb128 0x6
 2254 009d 64030000 		.4byte	.LASF13
 2255 00a1 03       		.byte	0x3
 2256 00a2 4F       		.byte	0x4f
 2257 00a3 61000000 		.4byte	0x61
 2258 00a7 06       		.uleb128 0x6
 2259 00a8 9D020000 		.4byte	.LASF14
 2260 00ac 03       		.byte	0x3
 2261 00ad 50       		.byte	0x50
 2262 00ae 6D000000 		.4byte	0x6d
 2263 00b2 06       		.uleb128 0x6
 2264 00b3 82010000 		.4byte	.LASF15
 2265 00b7 04       		.byte	0x4
 2266 00b8 2E       		.byte	0x2e
 2267 00b9 9C000000 		.4byte	0x9c
 2268 00bd 07       		.uleb128 0x7
 2269 00be 04       		.byte	0x4
ARM GAS  C:\Users\z80\AppData\Local\Temp\cctIXSBd.s 			page 42


 2270 00bf 86000000 		.4byte	0x86
 2271 00c3 07       		.uleb128 0x7
 2272 00c4 04       		.byte	0x4
 2273 00c5 C9000000 		.4byte	0xc9
 2274 00c9 08       		.uleb128 0x8
 2275 00ca 86000000 		.4byte	0x86
 2276 00ce 09       		.uleb128 0x9
 2277 00cf 9C000000 		.4byte	0x9c
 2278 00d3 06       		.uleb128 0x6
 2279 00d4 50050000 		.4byte	.LASF16
 2280 00d8 05       		.byte	0x5
 2281 00d9 D2       		.byte	0xd2
 2282 00da DE000000 		.4byte	0xde
 2283 00de 0A       		.uleb128 0xa
 2284 00df 50050000 		.4byte	.LASF16
 2285 00e3 50       		.byte	0x50
 2286 00e4 06       		.byte	0x6
 2287 00e5 F2       		.byte	0xf2
 2288 00e6 C9010000 		.4byte	0x1c9
 2289 00ea 0B       		.uleb128 0xb
 2290 00eb 1A000000 		.4byte	.LASF17
 2291 00ef 06       		.byte	0x6
 2292 00f0 F6       		.byte	0xf6
 2293 00f1 FB010000 		.4byte	0x1fb
 2294 00f5 02       		.byte	0x2
 2295 00f6 23       		.byte	0x23
 2296 00f7 00       		.uleb128 0x0
 2297 00f8 0B       		.uleb128 0xb
 2298 00f9 06010000 		.4byte	.LASF18
 2299 00fd 06       		.byte	0x6
 2300 00fe FA       		.byte	0xfa
 2301 00ff F4040000 		.4byte	0x4f4
 2302 0103 02       		.byte	0x2
 2303 0104 23       		.byte	0x23
 2304 0105 04       		.uleb128 0x4
 2305 0106 0B       		.uleb128 0xb
 2306 0107 EC020000 		.4byte	.LASF19
 2307 010b 06       		.byte	0x6
 2308 010c FF       		.byte	0xff
 2309 010d 6B000000 		.4byte	0x6b
 2310 0111 02       		.byte	0x2
 2311 0112 23       		.byte	0x23
 2312 0113 08       		.uleb128 0x8
 2313 0114 0C       		.uleb128 0xc
 2314 0115 07050000 		.4byte	.LASF20
 2315 0119 06       		.byte	0x6
 2316 011a 0301     		.2byte	0x103
 2317 011c 91000000 		.4byte	0x91
 2318 0120 02       		.byte	0x2
 2319 0121 23       		.byte	0x23
 2320 0122 0C       		.uleb128 0xc
 2321 0123 0C       		.uleb128 0xc
 2322 0124 45020000 		.4byte	.LASF21
 2323 0128 06       		.byte	0x6
 2324 0129 0701     		.2byte	0x107
 2325 012b 91000000 		.4byte	0x91
 2326 012f 02       		.byte	0x2
ARM GAS  C:\Users\z80\AppData\Local\Temp\cctIXSBd.s 			page 43


 2327 0130 23       		.byte	0x23
 2328 0131 0E       		.uleb128 0xe
 2329 0132 0D       		.uleb128 0xd
 2330 0133 65706300 		.ascii	"epc\000"
 2331 0137 06       		.byte	0x6
 2332 0138 0B01     		.2byte	0x10b
 2333 013a FF040000 		.4byte	0x4ff
 2334 013e 02       		.byte	0x2
 2335 013f 23       		.byte	0x23
 2336 0140 10       		.uleb128 0x10
 2337 0141 0C       		.uleb128 0xc
 2338 0142 09020000 		.4byte	.LASF22
 2339 0146 06       		.byte	0x6
 2340 0147 0F01     		.2byte	0x10f
 2341 0149 4E020000 		.4byte	0x24e
 2342 014d 02       		.byte	0x2
 2343 014e 23       		.byte	0x23
 2344 014f 30       		.uleb128 0x30
 2345 0150 0C       		.uleb128 0xc
 2346 0151 AB030000 		.4byte	.LASF23
 2347 0155 06       		.byte	0x6
 2348 0156 1301     		.2byte	0x113
 2349 0158 BD000000 		.4byte	0xbd
 2350 015c 02       		.byte	0x2
 2351 015d 23       		.byte	0x23
 2352 015e 34       		.uleb128 0x34
 2353 015f 0C       		.uleb128 0xc
 2354 0160 8B000000 		.4byte	.LASF24
 2355 0164 06       		.byte	0x6
 2356 0165 1701     		.2byte	0x117
 2357 0167 7B000000 		.4byte	0x7b
 2358 016b 02       		.byte	0x2
 2359 016c 23       		.byte	0x23
 2360 016d 38       		.uleb128 0x38
 2361 016e 0C       		.uleb128 0xc
 2362 016f 80020000 		.4byte	.LASF25
 2363 0173 06       		.byte	0x6
 2364 0174 1B01     		.2byte	0x11b
 2365 0176 C6020000 		.4byte	0x2c6
 2366 017a 02       		.byte	0x2
 2367 017b 23       		.byte	0x23
 2368 017c 3C       		.uleb128 0x3c
 2369 017d 0C       		.uleb128 0xc
 2370 017e 89010000 		.4byte	.LASF26
 2371 0182 06       		.byte	0x6
 2372 0183 1F01     		.2byte	0x11f
 2373 0185 1A050000 		.4byte	0x51a
 2374 0189 02       		.byte	0x2
 2375 018a 23       		.byte	0x23
 2376 018b 40       		.uleb128 0x40
 2377 018c 0C       		.uleb128 0xc
 2378 018d F2020000 		.4byte	.LASF27
 2379 0191 06       		.byte	0x6
 2380 0192 2301     		.2byte	0x123
 2381 0194 91000000 		.4byte	0x91
 2382 0198 02       		.byte	0x2
 2383 0199 23       		.byte	0x23
ARM GAS  C:\Users\z80\AppData\Local\Temp\cctIXSBd.s 			page 44


 2384 019a 48       		.uleb128 0x48
 2385 019b 0C       		.uleb128 0xc
 2386 019c 95020000 		.4byte	.LASF28
 2387 01a0 06       		.byte	0x6
 2388 01a1 2701     		.2byte	0x127
 2389 01a3 86000000 		.4byte	0x86
 2390 01a7 02       		.byte	0x2
 2391 01a8 23       		.byte	0x23
 2392 01a9 4A       		.uleb128 0x4a
 2393 01aa 0C       		.uleb128 0xc
 2394 01ab A6020000 		.4byte	.LASF29
 2395 01af 06       		.byte	0x6
 2396 01b0 2B01     		.2byte	0x12b
 2397 01b2 86000000 		.4byte	0x86
 2398 01b6 02       		.byte	0x2
 2399 01b7 23       		.byte	0x23
 2400 01b8 4B       		.uleb128 0x4b
 2401 01b9 0C       		.uleb128 0xc
 2402 01ba 2D000000 		.4byte	.LASF30
 2403 01be 06       		.byte	0x6
 2404 01bf 3301     		.2byte	0x133
 2405 01c1 A7000000 		.4byte	0xa7
 2406 01c5 02       		.byte	0x2
 2407 01c6 23       		.byte	0x23
 2408 01c7 4C       		.uleb128 0x4c
 2409 01c8 00       		.byte	0x0
 2410 01c9 06       		.uleb128 0x6
 2411 01ca 4F000000 		.4byte	.LASF31
 2412 01ce 05       		.byte	0x5
 2413 01cf D7       		.byte	0xd7
 2414 01d0 86000000 		.4byte	0x86
 2415 01d4 0E       		.uleb128 0xe
 2416 01d5 01       		.byte	0x1
 2417 01d6 05       		.byte	0x5
 2418 01d7 DC       		.byte	0xdc
 2419 01d8 FB010000 		.4byte	0x1fb
 2420 01dc 0F       		.uleb128 0xf
 2421 01dd C4020000 		.4byte	.LASF32
 2422 01e1 00       		.sleb128 0
 2423 01e2 0F       		.uleb128 0xf
 2424 01e3 4F020000 		.4byte	.LASF33
 2425 01e7 01       		.sleb128 1
 2426 01e8 0F       		.uleb128 0xf
 2427 01e9 08040000 		.4byte	.LASF34
 2428 01ed 02       		.sleb128 2
 2429 01ee 0F       		.uleb128 0xf
 2430 01ef 20000000 		.4byte	.LASF35
 2431 01f3 03       		.sleb128 3
 2432 01f4 0F       		.uleb128 0xf
 2433 01f5 A0030000 		.4byte	.LASF36
 2434 01f9 04       		.sleb128 4
 2435 01fa 00       		.byte	0x0
 2436 01fb 06       		.uleb128 0x6
 2437 01fc 7E040000 		.4byte	.LASF37
 2438 0200 05       		.byte	0x5
 2439 0201 E2       		.byte	0xe2
 2440 0202 D4010000 		.4byte	0x1d4
ARM GAS  C:\Users\z80\AppData\Local\Temp\cctIXSBd.s 			page 45


 2441 0206 0E       		.uleb128 0xe
 2442 0207 01       		.byte	0x1
 2443 0208 05       		.byte	0x5
 2444 0209 E7       		.byte	0xe7
 2445 020a 21020000 		.4byte	0x221
 2446 020e 0F       		.uleb128 0xf
 2447 020f 1E020000 		.4byte	.LASF38
 2448 0213 00       		.sleb128 0
 2449 0214 0F       		.uleb128 0xf
 2450 0215 98000000 		.4byte	.LASF39
 2451 0219 01       		.sleb128 1
 2452 021a 0F       		.uleb128 0xf
 2453 021b 1E010000 		.4byte	.LASF40
 2454 021f 02       		.sleb128 2
 2455 0220 00       		.byte	0x0
 2456 0221 0E       		.uleb128 0xe
 2457 0222 01       		.byte	0x1
 2458 0223 05       		.byte	0x5
 2459 0224 F0       		.byte	0xf0
 2460 0225 4E020000 		.4byte	0x24e
 2461 0229 0F       		.uleb128 0xf
 2462 022a 9A040000 		.4byte	.LASF41
 2463 022e 00       		.sleb128 0
 2464 022f 0F       		.uleb128 0xf
 2465 0230 D9010000 		.4byte	.LASF42
 2466 0234 01       		.sleb128 1
 2467 0235 0F       		.uleb128 0xf
 2468 0236 31020000 		.4byte	.LASF43
 2469 023a 02       		.sleb128 2
 2470 023b 0F       		.uleb128 0xf
 2471 023c 65010000 		.4byte	.LASF44
 2472 0240 03       		.sleb128 3
 2473 0241 0F       		.uleb128 0xf
 2474 0242 57000000 		.4byte	.LASF45
 2475 0246 04       		.sleb128 4
 2476 0247 0F       		.uleb128 0xf
 2477 0248 EC000000 		.4byte	.LASF46
 2478 024c 05       		.sleb128 5
 2479 024d 00       		.byte	0x0
 2480 024e 06       		.uleb128 0x6
 2481 024f B9030000 		.4byte	.LASF47
 2482 0253 05       		.byte	0x5
 2483 0254 F7       		.byte	0xf7
 2484 0255 21020000 		.4byte	0x221
 2485 0259 0E       		.uleb128 0xe
 2486 025a 01       		.byte	0x1
 2487 025b 05       		.byte	0x5
 2488 025c FC       		.byte	0xfc
 2489 025d 86020000 		.4byte	0x286
 2490 0261 0F       		.uleb128 0xf
 2491 0262 F9020000 		.4byte	.LASF48
 2492 0266 00       		.sleb128 0
 2493 0267 0F       		.uleb128 0xf
 2494 0268 F7010000 		.4byte	.LASF49
 2495 026c 01       		.sleb128 1
 2496 026d 0F       		.uleb128 0xf
 2497 026e 2F010000 		.4byte	.LASF50
ARM GAS  C:\Users\z80\AppData\Local\Temp\cctIXSBd.s 			page 46


 2498 0272 02       		.sleb128 2
 2499 0273 0F       		.uleb128 0xf
 2500 0274 D2040000 		.4byte	.LASF51
 2501 0278 03       		.sleb128 3
 2502 0279 0F       		.uleb128 0xf
 2503 027a 51040000 		.4byte	.LASF52
 2504 027e 04       		.sleb128 4
 2505 027f 0F       		.uleb128 0xf
 2506 0280 3E050000 		.4byte	.LASF53
 2507 0284 05       		.sleb128 5
 2508 0285 00       		.byte	0x0
 2509 0286 10       		.uleb128 0x10
 2510 0287 BD010000 		.4byte	.LASF54
 2511 028b 05       		.byte	0x5
 2512 028c 0301     		.2byte	0x103
 2513 028e 59020000 		.4byte	0x259
 2514 0292 11       		.uleb128 0x11
 2515 0293 08       		.byte	0x8
 2516 0294 05       		.byte	0x5
 2517 0295 0801     		.2byte	0x108
 2518 0297 BA020000 		.4byte	0x2ba
 2519 029b 0C       		.uleb128 0xc
 2520 029c 5D010000 		.4byte	.LASF55
 2521 02a0 05       		.byte	0x5
 2522 02a1 0C01     		.2byte	0x10c
 2523 02a3 7B000000 		.4byte	0x7b
 2524 02a7 02       		.byte	0x2
 2525 02a8 23       		.byte	0x23
 2526 02a9 00       		.uleb128 0x0
 2527 02aa 0C       		.uleb128 0xc
 2528 02ab 26040000 		.4byte	.LASF56
 2529 02af 05       		.byte	0x5
 2530 02b0 1001     		.2byte	0x110
 2531 02b2 C3000000 		.4byte	0xc3
 2532 02b6 02       		.byte	0x2
 2533 02b7 23       		.byte	0x23
 2534 02b8 04       		.uleb128 0x4
 2535 02b9 00       		.byte	0x0
 2536 02ba 10       		.uleb128 0x10
 2537 02bb 6B000000 		.4byte	.LASF57
 2538 02bf 05       		.byte	0x5
 2539 02c0 1101     		.2byte	0x111
 2540 02c2 92020000 		.4byte	0x292
 2541 02c6 10       		.uleb128 0x10
 2542 02c7 D5030000 		.4byte	.LASF58
 2543 02cb 05       		.byte	0x5
 2544 02cc 1901     		.2byte	0x119
 2545 02ce D2020000 		.4byte	0x2d2
 2546 02d2 07       		.uleb128 0x7
 2547 02d3 04       		.byte	0x4
 2548 02d4 D8020000 		.4byte	0x2d8
 2549 02d8 12       		.uleb128 0x12
 2550 02d9 01       		.byte	0x1
 2551 02da E4020000 		.4byte	0x2e4
 2552 02de 13       		.uleb128 0x13
 2553 02df E4020000 		.4byte	0x2e4
 2554 02e3 00       		.byte	0x0
ARM GAS  C:\Users\z80\AppData\Local\Temp\cctIXSBd.s 			page 47


 2555 02e4 07       		.uleb128 0x7
 2556 02e5 04       		.byte	0x4
 2557 02e6 D3000000 		.4byte	0xd3
 2558 02ea 10       		.uleb128 0x10
 2559 02eb B4020000 		.4byte	.LASF59
 2560 02ef 05       		.byte	0x5
 2561 02f0 2201     		.2byte	0x122
 2562 02f2 F6020000 		.4byte	0x2f6
 2563 02f6 07       		.uleb128 0x7
 2564 02f7 04       		.byte	0x4
 2565 02f8 FC020000 		.4byte	0x2fc
 2566 02fc 12       		.uleb128 0x12
 2567 02fd 01       		.byte	0x1
 2568 02fe 0D030000 		.4byte	0x30d
 2569 0302 13       		.uleb128 0x13
 2570 0303 E4020000 		.4byte	0x2e4
 2571 0307 13       		.uleb128 0x13
 2572 0308 C9010000 		.4byte	0x1c9
 2573 030c 00       		.byte	0x0
 2574 030d 10       		.uleb128 0x10
 2575 030e DF020000 		.4byte	.LASF60
 2576 0312 05       		.byte	0x5
 2577 0313 2B01     		.2byte	0x12b
 2578 0315 19030000 		.4byte	0x319
 2579 0319 07       		.uleb128 0x7
 2580 031a 04       		.byte	0x4
 2581 031b 1F030000 		.4byte	0x31f
 2582 031f 12       		.uleb128 0x12
 2583 0320 01       		.byte	0x1
 2584 0321 30030000 		.4byte	0x330
 2585 0325 13       		.uleb128 0x13
 2586 0326 E4020000 		.4byte	0x2e4
 2587 032a 13       		.uleb128 0x13
 2588 032b 86020000 		.4byte	0x286
 2589 032f 00       		.byte	0x0
 2590 0330 10       		.uleb128 0x10
 2591 0331 30040000 		.4byte	.LASF61
 2592 0335 05       		.byte	0x5
 2593 0336 3701     		.2byte	0x137
 2594 0338 3C030000 		.4byte	0x33c
 2595 033c 07       		.uleb128 0x7
 2596 033d 04       		.byte	0x4
 2597 033e 42030000 		.4byte	0x342
 2598 0342 14       		.uleb128 0x14
 2599 0343 01       		.byte	0x1
 2600 0344 B2000000 		.4byte	0xb2
 2601 0348 52030000 		.4byte	0x352
 2602 034c 13       		.uleb128 0x13
 2603 034d E4020000 		.4byte	0x2e4
 2604 0351 00       		.byte	0x0
 2605 0352 10       		.uleb128 0x10
 2606 0353 8D030000 		.4byte	.LASF62
 2607 0357 05       		.byte	0x5
 2608 0358 3C01     		.2byte	0x13c
 2609 035a 5E030000 		.4byte	0x35e
 2610 035e 07       		.uleb128 0x7
 2611 035f 04       		.byte	0x4
ARM GAS  C:\Users\z80\AppData\Local\Temp\cctIXSBd.s 			page 48


 2612 0360 64030000 		.4byte	0x364
 2613 0364 14       		.uleb128 0x14
 2614 0365 01       		.byte	0x1
 2615 0366 83030000 		.4byte	0x383
 2616 036a 83030000 		.4byte	0x383
 2617 036e 13       		.uleb128 0x13
 2618 036f E4020000 		.4byte	0x2e4
 2619 0373 13       		.uleb128 0x13
 2620 0374 86000000 		.4byte	0x86
 2621 0378 13       		.uleb128 0x13
 2622 0379 86000000 		.4byte	0x86
 2623 037d 13       		.uleb128 0x13
 2624 037e 91000000 		.4byte	0x91
 2625 0382 00       		.byte	0x0
 2626 0383 07       		.uleb128 0x7
 2627 0384 04       		.byte	0x4
 2628 0385 89030000 		.4byte	0x389
 2629 0389 08       		.uleb128 0x8
 2630 038a BA020000 		.4byte	0x2ba
 2631 038e 15       		.uleb128 0x15
 2632 038f 0C       		.byte	0xc
 2633 0390 06       		.byte	0x6
 2634 0391 72       		.byte	0x72
 2635 0392 C1030000 		.4byte	0x3c1
 2636 0396 0B       		.uleb128 0xb
 2637 0397 34030000 		.4byte	.LASF63
 2638 039b 06       		.byte	0x6
 2639 039c 76       		.byte	0x76
 2640 039d C3000000 		.4byte	0xc3
 2641 03a1 02       		.byte	0x2
 2642 03a2 23       		.byte	0x23
 2643 03a3 00       		.uleb128 0x0
 2644 03a4 0B       		.uleb128 0xb
 2645 03a5 E3030000 		.4byte	.LASF64
 2646 03a9 06       		.byte	0x6
 2647 03aa 7A       		.byte	0x7a
 2648 03ab 7B000000 		.4byte	0x7b
 2649 03af 02       		.byte	0x2
 2650 03b0 23       		.byte	0x23
 2651 03b1 04       		.uleb128 0x4
 2652 03b2 0B       		.uleb128 0xb
 2653 03b3 B3030000 		.4byte	.LASF65
 2654 03b7 06       		.byte	0x6
 2655 03b8 7E       		.byte	0x7e
 2656 03b9 7B000000 		.4byte	0x7b
 2657 03bd 02       		.byte	0x2
 2658 03be 23       		.byte	0x23
 2659 03bf 08       		.uleb128 0x8
 2660 03c0 00       		.byte	0x0
 2661 03c1 06       		.uleb128 0x6
 2662 03c2 66020000 		.4byte	.LASF66
 2663 03c6 06       		.byte	0x6
 2664 03c7 7F       		.byte	0x7f
 2665 03c8 8E030000 		.4byte	0x38e
 2666 03cc 15       		.uleb128 0x15
 2667 03cd 10       		.byte	0x10
 2668 03ce 06       		.byte	0x6
ARM GAS  C:\Users\z80\AppData\Local\Temp\cctIXSBd.s 			page 49


 2669 03cf 84       		.byte	0x84
 2670 03d0 0D040000 		.4byte	0x40d
 2671 03d4 0B       		.uleb128 0xb
 2672 03d5 79020000 		.4byte	.LASF67
 2673 03d9 06       		.byte	0x6
 2674 03da 88       		.byte	0x88
 2675 03db 91000000 		.4byte	0x91
 2676 03df 02       		.byte	0x2
 2677 03e0 23       		.byte	0x23
 2678 03e1 00       		.uleb128 0x0
 2679 03e2 0B       		.uleb128 0xb
 2680 03e3 CC040000 		.4byte	.LASF68
 2681 03e7 06       		.byte	0x6
 2682 03e8 8C       		.byte	0x8c
 2683 03e9 BD000000 		.4byte	0xbd
 2684 03ed 02       		.byte	0x2
 2685 03ee 23       		.byte	0x23
 2686 03ef 04       		.uleb128 0x4
 2687 03f0 0B       		.uleb128 0xb
 2688 03f1 EA030000 		.4byte	.LASF69
 2689 03f5 06       		.byte	0x6
 2690 03f6 90       		.byte	0x90
 2691 03f7 7B000000 		.4byte	0x7b
 2692 03fb 02       		.byte	0x2
 2693 03fc 23       		.byte	0x23
 2694 03fd 08       		.uleb128 0x8
 2695 03fe 0B       		.uleb128 0xb
 2696 03ff E0000000 		.4byte	.LASF70
 2697 0403 06       		.byte	0x6
 2698 0404 94       		.byte	0x94
 2699 0405 7B000000 		.4byte	0x7b
 2700 0409 02       		.byte	0x2
 2701 040a 23       		.byte	0x23
 2702 040b 0C       		.uleb128 0xc
 2703 040c 00       		.byte	0x0
 2704 040d 06       		.uleb128 0x6
 2705 040e 12040000 		.4byte	.LASF71
 2706 0412 06       		.byte	0x6
 2707 0413 95       		.byte	0x95
 2708 0414 CC030000 		.4byte	0x3cc
 2709 0418 15       		.uleb128 0x15
 2710 0419 1C       		.byte	0x1c
 2711 041a 06       		.byte	0x6
 2712 041b 9B       		.byte	0x9b
 2713 041c 91040000 		.4byte	0x491
 2714 0420 0B       		.uleb128 0xb
 2715 0421 C8010000 		.4byte	.LASF72
 2716 0425 06       		.byte	0x6
 2717 0426 9F       		.byte	0x9f
 2718 0427 A7000000 		.4byte	0xa7
 2719 042b 02       		.byte	0x2
 2720 042c 23       		.byte	0x23
 2721 042d 00       		.uleb128 0x0
 2722 042e 0B       		.uleb128 0xb
 2723 042f 91040000 		.4byte	.LASF73
 2724 0433 06       		.byte	0x6
 2725 0434 AA       		.byte	0xaa
ARM GAS  C:\Users\z80\AppData\Local\Temp\cctIXSBd.s 			page 50


 2726 0435 EA020000 		.4byte	0x2ea
 2727 0439 02       		.byte	0x2
 2728 043a 23       		.byte	0x23
 2729 043b 04       		.uleb128 0x4
 2730 043c 0B       		.uleb128 0xb
 2731 043d E6000000 		.4byte	.LASF74
 2732 0441 06       		.byte	0x6
 2733 0442 B0       		.byte	0xb0
 2734 0443 EA020000 		.4byte	0x2ea
 2735 0447 02       		.byte	0x2
 2736 0448 23       		.byte	0x23
 2737 0449 08       		.uleb128 0x8
 2738 044a 0B       		.uleb128 0xb
 2739 044b 14050000 		.4byte	.LASF75
 2740 044f 06       		.byte	0x6
 2741 0450 B6       		.byte	0xb6
 2742 0451 EA020000 		.4byte	0x2ea
 2743 0455 02       		.byte	0x2
 2744 0456 23       		.byte	0x23
 2745 0457 0C       		.uleb128 0xc
 2746 0458 0B       		.uleb128 0xb
 2747 0459 B3000000 		.4byte	.LASF76
 2748 045d 06       		.byte	0x6
 2749 045e BC       		.byte	0xbc
 2750 045f 91000000 		.4byte	0x91
 2751 0463 02       		.byte	0x2
 2752 0464 23       		.byte	0x23
 2753 0465 10       		.uleb128 0x10
 2754 0466 0B       		.uleb128 0xb
 2755 0467 EB010000 		.4byte	.LASF77
 2756 046b 06       		.byte	0x6
 2757 046c C2       		.byte	0xc2
 2758 046d 91000000 		.4byte	0x91
 2759 0471 02       		.byte	0x2
 2760 0472 23       		.byte	0x23
 2761 0473 12       		.uleb128 0x12
 2762 0474 0B       		.uleb128 0xb
 2763 0475 8F010000 		.4byte	.LASF78
 2764 0479 06       		.byte	0x6
 2765 047a C9       		.byte	0xc9
 2766 047b 91040000 		.4byte	0x491
 2767 047f 02       		.byte	0x2
 2768 0480 23       		.byte	0x23
 2769 0481 14       		.uleb128 0x14
 2770 0482 0B       		.uleb128 0xb
 2771 0483 3A030000 		.4byte	.LASF79
 2772 0487 06       		.byte	0x6
 2773 0488 D0       		.byte	0xd0
 2774 0489 97040000 		.4byte	0x497
 2775 048d 02       		.byte	0x2
 2776 048e 23       		.byte	0x23
 2777 048f 18       		.uleb128 0x18
 2778 0490 00       		.byte	0x0
 2779 0491 07       		.uleb128 0x7
 2780 0492 04       		.byte	0x4
 2781 0493 C1030000 		.4byte	0x3c1
 2782 0497 07       		.uleb128 0x7
ARM GAS  C:\Users\z80\AppData\Local\Temp\cctIXSBd.s 			page 51


 2783 0498 04       		.byte	0x4
 2784 0499 0D040000 		.4byte	0x40d
 2785 049d 06       		.uleb128 0x6
 2786 049e 70010000 		.4byte	.LASF80
 2787 04a2 06       		.byte	0x6
 2788 04a3 D2       		.byte	0xd2
 2789 04a4 18040000 		.4byte	0x418
 2790 04a8 15       		.uleb128 0x15
 2791 04a9 10       		.byte	0x10
 2792 04aa 06       		.byte	0x6
 2793 04ab D7       		.byte	0xd7
 2794 04ac E9040000 		.4byte	0x4e9
 2795 04b0 0B       		.uleb128 0xb
 2796 04b1 AA000000 		.4byte	.LASF81
 2797 04b5 06       		.byte	0x6
 2798 04b6 DC       		.byte	0xdc
 2799 04b7 0D030000 		.4byte	0x30d
 2800 04bb 02       		.byte	0x2
 2801 04bc 23       		.byte	0x23
 2802 04bd 00       		.uleb128 0x0
 2803 04be 0B       		.uleb128 0xb
 2804 04bf 52030000 		.4byte	.LASF82
 2805 04c3 06       		.byte	0x6
 2806 04c4 E1       		.byte	0xe1
 2807 04c5 52030000 		.4byte	0x352
 2808 04c9 02       		.byte	0x2
 2809 04ca 23       		.byte	0x23
 2810 04cb 04       		.uleb128 0x4
 2811 04cc 0B       		.uleb128 0xb
 2812 04cd 4C010000 		.4byte	.LASF83
 2813 04d1 06       		.byte	0x6
 2814 04d2 E7       		.byte	0xe7
 2815 04d3 30030000 		.4byte	0x330
 2816 04d7 02       		.byte	0x2
 2817 04d8 23       		.byte	0x23
 2818 04d9 08       		.uleb128 0x8
 2819 04da 0B       		.uleb128 0xb
 2820 04db E4010000 		.4byte	.LASF84
 2821 04df 06       		.byte	0x6
 2822 04e0 EB       		.byte	0xeb
 2823 04e1 C6020000 		.4byte	0x2c6
 2824 04e5 02       		.byte	0x2
 2825 04e6 23       		.byte	0x23
 2826 04e7 0C       		.uleb128 0xc
 2827 04e8 00       		.byte	0x0
 2828 04e9 06       		.uleb128 0x6
 2829 04ea 34000000 		.4byte	.LASF85
 2830 04ee 06       		.byte	0x6
 2831 04ef ED       		.byte	0xed
 2832 04f0 A8040000 		.4byte	0x4a8
 2833 04f4 07       		.uleb128 0x7
 2834 04f5 04       		.byte	0x4
 2835 04f6 FA040000 		.4byte	0x4fa
 2836 04fa 08       		.uleb128 0x8
 2837 04fb E9040000 		.4byte	0x4e9
 2838 04ff 16       		.uleb128 0x16
 2839 0500 0F050000 		.4byte	0x50f
ARM GAS  C:\Users\z80\AppData\Local\Temp\cctIXSBd.s 			page 52


 2840 0504 0F050000 		.4byte	0x50f
 2841 0508 17       		.uleb128 0x17
 2842 0509 68000000 		.4byte	0x68
 2843 050d 07       		.byte	0x7
 2844 050e 00       		.byte	0x0
 2845 050f 07       		.uleb128 0x7
 2846 0510 04       		.byte	0x4
 2847 0511 15050000 		.4byte	0x515
 2848 0515 08       		.uleb128 0x8
 2849 0516 9D040000 		.4byte	0x49d
 2850 051a 16       		.uleb128 0x16
 2851 051b 86000000 		.4byte	0x86
 2852 051f 2A050000 		.4byte	0x52a
 2853 0523 17       		.uleb128 0x17
 2854 0524 68000000 		.4byte	0x68
 2855 0528 07       		.byte	0x7
 2856 0529 00       		.byte	0x0
 2857 052a 18       		.uleb128 0x18
 2858 052b 12020000 		.4byte	.LASF108
 2859 052f 01       		.byte	0x1
 2860 0530 45       		.byte	0x45
 2861 0531 01       		.byte	0x1
 2862 0532 00000000 		.4byte	.LFB62
 2863 0536 22000000 		.4byte	.LFE62
 2864 053a 00000000 		.4byte	.LLST0
 2865 053e 52050000 		.4byte	0x552
 2866 0542 19       		.uleb128 0x19
 2867 0543 4C040000 		.4byte	.LASF86
 2868 0547 01       		.byte	0x1
 2869 0548 45       		.byte	0x45
 2870 0549 E4020000 		.4byte	0x2e4
 2871 054d 20000000 		.4byte	.LLST1
 2872 0551 00       		.byte	0x0
 2873 0552 1A       		.uleb128 0x1a
 2874 0553 01       		.byte	0x1
 2875 0554 90000000 		.4byte	.LASF109
 2876 0558 01       		.byte	0x1
 2877 0559 EB       		.byte	0xeb
 2878 055a 01       		.byte	0x1
 2879 055b 00000000 		.4byte	.LFB64
 2880 055f 08000000 		.4byte	.LFE64
 2881 0563 3E000000 		.4byte	.LLST2
 2882 0567 1B       		.uleb128 0x1b
 2883 0568 01       		.byte	0x1
 2884 0569 30050000 		.4byte	.LASF87
 2885 056d 01       		.byte	0x1
 2886 056e F7       		.byte	0xf7
 2887 056f 01       		.byte	0x1
 2888 0570 00000000 		.4byte	.LFB65
 2889 0574 10000000 		.4byte	.LFE65
 2890 0578 02       		.byte	0x2
 2891 0579 7D       		.byte	0x7d
 2892 057a 00       		.sleb128 0
 2893 057b 8D050000 		.4byte	0x58d
 2894 057f 1C       		.uleb128 0x1c
 2895 0580 4C040000 		.4byte	.LASF86
 2896 0584 01       		.byte	0x1
ARM GAS  C:\Users\z80\AppData\Local\Temp\cctIXSBd.s 			page 53


 2897 0585 F7       		.byte	0xf7
 2898 0586 E4020000 		.4byte	0x2e4
 2899 058a 01       		.byte	0x1
 2900 058b 50       		.byte	0x50
 2901 058c 00       		.byte	0x0
 2902 058d 1D       		.uleb128 0x1d
 2903 058e 01       		.byte	0x1
 2904 058f FE040000 		.4byte	.LASF88
 2905 0593 01       		.byte	0x1
 2906 0594 0801     		.2byte	0x108
 2907 0596 01       		.byte	0x1
 2908 0597 00000000 		.4byte	.LFB66
 2909 059b 70000000 		.4byte	.LFE66
 2910 059f 5E000000 		.4byte	.LLST3
 2911 05a3 0E060000 		.4byte	0x60e
 2912 05a7 1E       		.uleb128 0x1e
 2913 05a8 4C040000 		.4byte	.LASF86
 2914 05ac 01       		.byte	0x1
 2915 05ad 0801     		.2byte	0x108
 2916 05af E4020000 		.4byte	0x2e4
 2917 05b3 7E000000 		.4byte	.LLST4
 2918 05b7 1E       		.uleb128 0x1e
 2919 05b8 06010000 		.4byte	.LASF18
 2920 05bc 01       		.byte	0x1
 2921 05bd 0801     		.2byte	0x108
 2922 05bf F4040000 		.4byte	0x4f4
 2923 05c3 9C000000 		.4byte	.LLST5
 2924 05c7 1F       		.uleb128 0x1f
 2925 05c8 6900     		.ascii	"i\000"
 2926 05ca 01       		.byte	0x1
 2927 05cb 0901     		.2byte	0x109
 2928 05cd 4C000000 		.4byte	0x4c
 2929 05d1 BA000000 		.4byte	.LLST6
 2930 05d5 20       		.uleb128 0x20
 2931 05d6 1A000000 		.4byte	.LBB2
 2932 05da 20000000 		.4byte	.LBE2
 2933 05de F3050000 		.4byte	0x5f3
 2934 05e2 1F       		.uleb128 0x1f
 2935 05e3 746D7000 		.ascii	"tmp\000"
 2936 05e7 01       		.byte	0x1
 2937 05e8 0D01     		.2byte	0x10d
 2938 05ea A7000000 		.4byte	0xa7
 2939 05ee 2E010000 		.4byte	.LLST7
 2940 05f2 00       		.byte	0x0
 2941 05f3 21       		.uleb128 0x21
 2942 05f4 56000000 		.4byte	.LBB3
 2943 05f8 5C000000 		.4byte	.LBE3
 2944 05fc 1F       		.uleb128 0x1f
 2945 05fd 746D7000 		.ascii	"tmp\000"
 2946 0601 01       		.byte	0x1
 2947 0602 1501     		.2byte	0x115
 2948 0604 A7000000 		.4byte	0xa7
 2949 0608 41010000 		.4byte	.LLST8
 2950 060c 00       		.byte	0x0
 2951 060d 00       		.byte	0x0
 2952 060e 1D       		.uleb128 0x1d
 2953 060f 01       		.byte	0x1
ARM GAS  C:\Users\z80\AppData\Local\Temp\cctIXSBd.s 			page 54


 2954 0610 44010000 		.4byte	.LASF89
 2955 0614 01       		.byte	0x1
 2956 0615 1F01     		.2byte	0x11f
 2957 0617 01       		.byte	0x1
 2958 0618 00000000 		.4byte	.LFB67
 2959 061c 48000000 		.4byte	.LFE67
 2960 0620 54010000 		.4byte	.LLST9
 2961 0624 71060000 		.4byte	0x671
 2962 0628 1E       		.uleb128 0x1e
 2963 0629 4C040000 		.4byte	.LASF86
 2964 062d 01       		.byte	0x1
 2965 062e 1F01     		.2byte	0x11f
 2966 0630 E4020000 		.4byte	0x2e4
 2967 0634 74010000 		.4byte	.LLST10
 2968 0638 20       		.uleb128 0x20
 2969 0639 06000000 		.4byte	.LBB4
 2970 063d 0C000000 		.4byte	.LBE4
 2971 0641 56060000 		.4byte	0x656
 2972 0645 1F       		.uleb128 0x1f
 2973 0646 746D7000 		.ascii	"tmp\000"
 2974 064a 01       		.byte	0x1
 2975 064b 2301     		.2byte	0x123
 2976 064d A7000000 		.4byte	0xa7
 2977 0651 92010000 		.4byte	.LLST11
 2978 0655 00       		.byte	0x0
 2979 0656 21       		.uleb128 0x21
 2980 0657 2E000000 		.4byte	.LBB5
 2981 065b 34000000 		.4byte	.LBE5
 2982 065f 1F       		.uleb128 0x1f
 2983 0660 746D7000 		.ascii	"tmp\000"
 2984 0664 01       		.byte	0x1
 2985 0665 2801     		.2byte	0x128
 2986 0667 A7000000 		.4byte	0xa7
 2987 066b A5010000 		.4byte	.LLST12
 2988 066f 00       		.byte	0x0
 2989 0670 00       		.byte	0x0
 2990 0671 1D       		.uleb128 0x1d
 2991 0672 01       		.byte	0x1
 2992 0673 62040000 		.4byte	.LASF90
 2993 0677 01       		.byte	0x1
 2994 0678 3801     		.2byte	0x138
 2995 067a 01       		.byte	0x1
 2996 067b 00000000 		.4byte	.LFB68
 2997 067f 84000000 		.4byte	.LFE68
 2998 0683 B8010000 		.4byte	.LLST13
 2999 0687 BB060000 		.4byte	0x6bb
 3000 068b 1E       		.uleb128 0x1e
 3001 068c 4C040000 		.4byte	.LASF86
 3002 0690 01       		.byte	0x1
 3003 0691 3801     		.2byte	0x138
 3004 0693 E4020000 		.4byte	0x2e4
 3005 0697 D8010000 		.4byte	.LLST14
 3006 069b 22       		.uleb128 0x22
 3007 069c 657000   		.ascii	"ep\000"
 3008 069f 01       		.byte	0x1
 3009 06a0 3801     		.2byte	0x138
 3010 06a2 C9010000 		.4byte	0x1c9
ARM GAS  C:\Users\z80\AppData\Local\Temp\cctIXSBd.s 			page 55


 3011 06a6 F6010000 		.4byte	.LLST15
 3012 06aa 1E       		.uleb128 0x1e
 3013 06ab 03040000 		.4byte	.LASF91
 3014 06af 01       		.byte	0x1
 3015 06b0 3901     		.2byte	0x139
 3016 06b2 0F050000 		.4byte	0x50f
 3017 06b6 09020000 		.4byte	.LLST16
 3018 06ba 00       		.byte	0x0
 3019 06bb 1D       		.uleb128 0x1d
 3020 06bc 01       		.byte	0x1
 3021 06bd 1B050000 		.4byte	.LASF92
 3022 06c1 01       		.byte	0x1
 3023 06c2 5801     		.2byte	0x158
 3024 06c4 01       		.byte	0x1
 3025 06c5 00000000 		.4byte	.LFB69
 3026 06c9 50000000 		.4byte	.LFE69
 3027 06cd 27020000 		.4byte	.LLST17
 3028 06d1 F4060000 		.4byte	0x6f4
 3029 06d5 1E       		.uleb128 0x1e
 3030 06d6 4C040000 		.4byte	.LASF86
 3031 06da 01       		.byte	0x1
 3032 06db 5801     		.2byte	0x158
 3033 06dd E4020000 		.4byte	0x2e4
 3034 06e1 47020000 		.4byte	.LLST18
 3035 06e5 1F       		.uleb128 0x1f
 3036 06e6 6900     		.ascii	"i\000"
 3037 06e8 01       		.byte	0x1
 3038 06e9 5901     		.2byte	0x159
 3039 06eb 4C000000 		.4byte	0x4c
 3040 06ef 65020000 		.4byte	.LLST19
 3041 06f3 00       		.byte	0x0
 3042 06f4 23       		.uleb128 0x23
 3043 06f5 01       		.byte	0x1
 3044 06f6 BB040000 		.4byte	.LASF93
 3045 06fa 01       		.byte	0x1
 3046 06fb 7601     		.2byte	0x176
 3047 06fd 01       		.byte	0x1
 3048 06fe B2000000 		.4byte	0xb2
 3049 0702 00000000 		.4byte	.LFB70
 3050 0706 40000000 		.4byte	.LFE70
 3051 070a CD020000 		.4byte	.LLST20
 3052 070e 32070000 		.4byte	0x732
 3053 0712 1E       		.uleb128 0x1e
 3054 0713 4C040000 		.4byte	.LASF86
 3055 0717 01       		.byte	0x1
 3056 0718 7601     		.2byte	0x176
 3057 071a E4020000 		.4byte	0x2e4
 3058 071e ED020000 		.4byte	.LLST21
 3059 0722 22       		.uleb128 0x22
 3060 0723 657000   		.ascii	"ep\000"
 3061 0726 01       		.byte	0x1
 3062 0727 7601     		.2byte	0x176
 3063 0729 C9010000 		.4byte	0x1c9
 3064 072d 0B030000 		.4byte	.LLST22
 3065 0731 00       		.byte	0x0
 3066 0732 23       		.uleb128 0x23
 3067 0733 01       		.byte	0x1
ARM GAS  C:\Users\z80\AppData\Local\Temp\cctIXSBd.s 			page 56


 3068 0734 79000000 		.4byte	.LASF94
 3069 0738 01       		.byte	0x1
 3070 0739 9001     		.2byte	0x190
 3071 073b 01       		.byte	0x1
 3072 073c B2000000 		.4byte	0xb2
 3073 0740 00000000 		.4byte	.LFB71
 3074 0744 40000000 		.4byte	.LFE71
 3075 0748 1E030000 		.4byte	.LLST23
 3076 074c 70070000 		.4byte	0x770
 3077 0750 1E       		.uleb128 0x1e
 3078 0751 4C040000 		.4byte	.LASF86
 3079 0755 01       		.byte	0x1
 3080 0756 9001     		.2byte	0x190
 3081 0758 E4020000 		.4byte	0x2e4
 3082 075c 3E030000 		.4byte	.LLST24
 3083 0760 22       		.uleb128 0x22
 3084 0761 657000   		.ascii	"ep\000"
 3085 0764 01       		.byte	0x1
 3086 0765 9001     		.2byte	0x190
 3087 0767 C9010000 		.4byte	0x1c9
 3088 076b 5C030000 		.4byte	.LLST25
 3089 076f 00       		.byte	0x0
 3090 0770 23       		.uleb128 0x23
 3091 0771 01       		.byte	0x1
 3092 0772 0D010000 		.4byte	.LASF95
 3093 0776 01       		.byte	0x1
 3094 0777 A801     		.2byte	0x1a8
 3095 0779 01       		.byte	0x1
 3096 077a B2000000 		.4byte	0xb2
 3097 077e 00000000 		.4byte	.LFB72
 3098 0782 34000000 		.4byte	.LFE72
 3099 0786 6F030000 		.4byte	.LLST26
 3100 078a AE070000 		.4byte	0x7ae
 3101 078e 1E       		.uleb128 0x1e
 3102 078f 4C040000 		.4byte	.LASF86
 3103 0793 01       		.byte	0x1
 3104 0794 A801     		.2byte	0x1a8
 3105 0796 E4020000 		.4byte	0x2e4
 3106 079a 8F030000 		.4byte	.LLST27
 3107 079e 22       		.uleb128 0x22
 3108 079f 657000   		.ascii	"ep\000"
 3109 07a2 01       		.byte	0x1
 3110 07a3 A801     		.2byte	0x1a8
 3111 07a5 C9010000 		.4byte	0x1c9
 3112 07a9 AD030000 		.4byte	.LLST28
 3113 07ad 00       		.byte	0x0
 3114 07ae 23       		.uleb128 0x23
 3115 07af 01       		.byte	0x1
 3116 07b0 5A050000 		.4byte	.LASF96
 3117 07b4 01       		.byte	0x1
 3118 07b5 BF01     		.2byte	0x1bf
 3119 07b7 01       		.byte	0x1
 3120 07b8 B2000000 		.4byte	0xb2
 3121 07bc 00000000 		.4byte	.LFB73
 3122 07c0 34000000 		.4byte	.LFE73
 3123 07c4 C0030000 		.4byte	.LLST29
 3124 07c8 EC070000 		.4byte	0x7ec
ARM GAS  C:\Users\z80\AppData\Local\Temp\cctIXSBd.s 			page 57


 3125 07cc 1E       		.uleb128 0x1e
 3126 07cd 4C040000 		.4byte	.LASF86
 3127 07d1 01       		.byte	0x1
 3128 07d2 BF01     		.2byte	0x1bf
 3129 07d4 E4020000 		.4byte	0x2e4
 3130 07d8 E0030000 		.4byte	.LLST30
 3131 07dc 22       		.uleb128 0x22
 3132 07dd 657000   		.ascii	"ep\000"
 3133 07e0 01       		.byte	0x1
 3134 07e1 BF01     		.2byte	0x1bf
 3135 07e3 C9010000 		.4byte	0x1c9
 3136 07e7 FE030000 		.4byte	.LLST31
 3137 07eb 00       		.byte	0x0
 3138 07ec 1D       		.uleb128 0x1d
 3139 07ed 01       		.byte	0x1
 3140 07ee B0040000 		.4byte	.LASF97
 3141 07f2 01       		.byte	0x1
 3142 07f3 D401     		.2byte	0x1d4
 3143 07f5 01       		.byte	0x1
 3144 07f6 00000000 		.4byte	.LFB74
 3145 07fa 32000000 		.4byte	.LFE74
 3146 07fe 11040000 		.4byte	.LLST32
 3147 0802 25080000 		.4byte	0x825
 3148 0806 1E       		.uleb128 0x1e
 3149 0807 4C040000 		.4byte	.LASF86
 3150 080b 01       		.byte	0x1
 3151 080c D401     		.2byte	0x1d4
 3152 080e E4020000 		.4byte	0x2e4
 3153 0812 31040000 		.4byte	.LLST33
 3154 0816 1F       		.uleb128 0x1f
 3155 0817 6900     		.ascii	"i\000"
 3156 0819 01       		.byte	0x1
 3157 081a D501     		.2byte	0x1d5
 3158 081c 4C000000 		.4byte	0x4c
 3159 0820 44040000 		.4byte	.LLST34
 3160 0824 00       		.byte	0x0
 3161 0825 24       		.uleb128 0x24
 3162 0826 CF020000 		.4byte	.LASF110
 3163 082a 01       		.byte	0x1
 3164 082b 59       		.byte	0x59
 3165 082c 01       		.byte	0x1
 3166 082d B2000000 		.4byte	0xb2
 3167 0831 01       		.byte	0x1
 3168 0832 4C080000 		.4byte	0x84c
 3169 0836 25       		.uleb128 0x25
 3170 0837 4C040000 		.4byte	.LASF86
 3171 083b 01       		.byte	0x1
 3172 083c 59       		.byte	0x59
 3173 083d E4020000 		.4byte	0x2e4
 3174 0841 26       		.uleb128 0x26
 3175 0842 647000   		.ascii	"dp\000"
 3176 0845 01       		.byte	0x1
 3177 0846 5A       		.byte	0x5a
 3178 0847 83030000 		.4byte	0x383
 3179 084b 00       		.byte	0x0
 3180 084c 1D       		.uleb128 0x1d
 3181 084d 01       		.byte	0x1
ARM GAS  C:\Users\z80\AppData\Local\Temp\cctIXSBd.s 			page 58


 3182 084e 0C000000 		.4byte	.LASF98
 3183 0852 01       		.byte	0x1
 3184 0853 F301     		.2byte	0x1f3
 3185 0855 01       		.byte	0x1
 3186 0856 00000000 		.4byte	.LFB75
 3187 085a E0020000 		.4byte	.LFE75
 3188 085e B8040000 		.4byte	.LLST35
 3189 0862 BF080000 		.4byte	0x8bf
 3190 0866 1E       		.uleb128 0x1e
 3191 0867 4C040000 		.4byte	.LASF86
 3192 086b 01       		.byte	0x1
 3193 086c F301     		.2byte	0x1f3
 3194 086e E4020000 		.4byte	0x2e4
 3195 0872 D8040000 		.4byte	.LLST36
 3196 0876 22       		.uleb128 0x22
 3197 0877 657000   		.ascii	"ep\000"
 3198 087a 01       		.byte	0x1
 3199 087b F301     		.2byte	0x1f3
 3200 087d C9010000 		.4byte	0x1c9
 3201 0881 F6040000 		.4byte	.LLST37
 3202 0885 1F       		.uleb128 0x1f
 3203 0886 6D617800 		.ascii	"max\000"
 3204 088a 01       		.byte	0x1
 3205 088b F401     		.2byte	0x1f4
 3206 088d 7B000000 		.4byte	0x7b
 3207 0891 09050000 		.4byte	.LLST38
 3208 0895 27       		.uleb128 0x27
 3209 0896 25080000 		.4byte	0x825
 3210 089a 88000000 		.4byte	.LBB8
 3211 089e 00000000 		.4byte	.Ldebug_ranges0+0x0
 3212 08a2 01       		.byte	0x1
 3213 08a3 0002     		.2byte	0x200
 3214 08a5 28       		.uleb128 0x28
 3215 08a6 36080000 		.4byte	0x836
 3216 08aa 3D050000 		.4byte	.LLST39
 3217 08ae 29       		.uleb128 0x29
 3218 08af 18000000 		.4byte	.Ldebug_ranges0+0x18
 3219 08b3 2A       		.uleb128 0x2a
 3220 08b4 41080000 		.4byte	0x841
 3221 08b8 5B050000 		.4byte	.LLST40
 3222 08bc 00       		.byte	0x0
 3223 08bd 00       		.byte	0x0
 3224 08be 00       		.byte	0x0
 3225 08bf 1D       		.uleb128 0x1d
 3226 08c0 01       		.byte	0x1
 3227 08c1 73040000 		.4byte	.LASF99
 3228 08c5 01       		.byte	0x1
 3229 08c6 3F02     		.2byte	0x23f
 3230 08c8 01       		.byte	0x1
 3231 08c9 00000000 		.4byte	.LFB76
 3232 08cd 88000000 		.4byte	.LFE76
 3233 08d1 6E050000 		.4byte	.LLST41
 3234 08d5 09090000 		.4byte	0x909
 3235 08d9 1E       		.uleb128 0x1e
 3236 08da 4C040000 		.4byte	.LASF86
 3237 08de 01       		.byte	0x1
 3238 08df 3F02     		.2byte	0x23f
ARM GAS  C:\Users\z80\AppData\Local\Temp\cctIXSBd.s 			page 59


 3239 08e1 E4020000 		.4byte	0x2e4
 3240 08e5 8E050000 		.4byte	.LLST42
 3241 08e9 22       		.uleb128 0x22
 3242 08ea 657000   		.ascii	"ep\000"
 3243 08ed 01       		.byte	0x1
 3244 08ee 3F02     		.2byte	0x23f
 3245 08f0 C9010000 		.4byte	0x1c9
 3246 08f4 AC050000 		.4byte	.LLST43
 3247 08f8 1F       		.uleb128 0x1f
 3248 08f9 6D617800 		.ascii	"max\000"
 3249 08fd 01       		.byte	0x1
 3250 08fe 4002     		.2byte	0x240
 3251 0900 7B000000 		.4byte	0x7b
 3252 0904 E0050000 		.4byte	.LLST44
 3253 0908 00       		.byte	0x0
 3254 0909 1D       		.uleb128 0x1d
 3255 090a 01       		.byte	0x1
 3256 090b FA000000 		.4byte	.LASF100
 3257 090f 01       		.byte	0x1
 3258 0910 7102     		.2byte	0x271
 3259 0912 01       		.byte	0x1
 3260 0913 00000000 		.4byte	.LFB77
 3261 0917 66000000 		.4byte	.LFE77
 3262 091b 02060000 		.4byte	.LLST45
 3263 091f 43090000 		.4byte	0x943
 3264 0923 1E       		.uleb128 0x1e
 3265 0924 4C040000 		.4byte	.LASF86
 3266 0928 01       		.byte	0x1
 3267 0929 7102     		.2byte	0x271
 3268 092b E4020000 		.4byte	0x2e4
 3269 092f 22060000 		.4byte	.LLST46
 3270 0933 22       		.uleb128 0x22
 3271 0934 657000   		.ascii	"ep\000"
 3272 0937 01       		.byte	0x1
 3273 0938 7102     		.2byte	0x271
 3274 093a C9010000 		.4byte	0x1c9
 3275 093e 40060000 		.4byte	.LLST47
 3276 0942 00       		.byte	0x0
 3277 0943 2B       		.uleb128 0x2b
 3278 0944 E4040000 		.4byte	.LASF104
 3279 0948 07       		.byte	0x7
 3280 0949 9404     		.2byte	0x494
 3281 094b CE000000 		.4byte	0xce
 3282 094f 01       		.byte	0x1
 3283 0950 01       		.byte	0x1
 3284 0951 16       		.uleb128 0x16
 3285 0952 86000000 		.4byte	0x86
 3286 0956 61090000 		.4byte	0x961
 3287 095a 17       		.uleb128 0x17
 3288 095b 68000000 		.4byte	0x68
 3289 095f 01       		.byte	0x1
 3290 0960 00       		.byte	0x0
 3291 0961 2C       		.uleb128 0x2c
 3292 0962 00000000 		.4byte	.LASF101
 3293 0966 01       		.byte	0x1
 3294 0967 38       		.byte	0x38
 3295 0968 72090000 		.4byte	0x972
ARM GAS  C:\Users\z80\AppData\Local\Temp\cctIXSBd.s 			page 60


 3296 096c 05       		.byte	0x5
 3297 096d 03       		.byte	0x3
 3298 096e 00000000 		.4byte	zero_status
 3299 0972 08       		.uleb128 0x8
 3300 0973 51090000 		.4byte	0x951
 3301 0977 2C       		.uleb128 0x2c
 3302 0978 6C030000 		.4byte	.LASF102
 3303 097c 01       		.byte	0x1
 3304 097d 39       		.byte	0x39
 3305 097e 88090000 		.4byte	0x988
 3306 0982 05       		.byte	0x5
 3307 0983 03       		.byte	0x3
 3308 0984 00000000 		.4byte	active_status
 3309 0988 08       		.uleb128 0x8
 3310 0989 51090000 		.4byte	0x951
 3311 098d 2C       		.uleb128 0x2c
 3312 098e C7030000 		.4byte	.LASF103
 3313 0992 01       		.byte	0x1
 3314 0993 3A       		.byte	0x3a
 3315 0994 9E090000 		.4byte	0x99e
 3316 0998 05       		.byte	0x5
 3317 0999 03       		.byte	0x3
 3318 099a 00000000 		.4byte	halted_status
 3319 099e 08       		.uleb128 0x8
 3320 099f 51090000 		.4byte	0x951
 3321 09a3 2B       		.uleb128 0x2b
 3322 09a4 E4040000 		.4byte	.LASF104
 3323 09a8 07       		.byte	0x7
 3324 09a9 9404     		.2byte	0x494
 3325 09ab CE000000 		.4byte	0xce
 3326 09af 01       		.byte	0x1
 3327 09b0 01       		.byte	0x1
 3328 09b1 00       		.byte	0x0
 3329              		.section	.debug_abbrev
 3330 0000 01       		.uleb128 0x1
 3331 0001 11       		.uleb128 0x11
 3332 0002 01       		.byte	0x1
 3333 0003 25       		.uleb128 0x25
 3334 0004 0E       		.uleb128 0xe
 3335 0005 13       		.uleb128 0x13
 3336 0006 0B       		.uleb128 0xb
 3337 0007 03       		.uleb128 0x3
 3338 0008 0E       		.uleb128 0xe
 3339 0009 1B       		.uleb128 0x1b
 3340 000a 0E       		.uleb128 0xe
 3341 000b 11       		.uleb128 0x11
 3342 000c 01       		.uleb128 0x1
 3343 000d 52       		.uleb128 0x52
 3344 000e 01       		.uleb128 0x1
 3345 000f 55       		.uleb128 0x55
 3346 0010 06       		.uleb128 0x6
 3347 0011 10       		.uleb128 0x10
 3348 0012 06       		.uleb128 0x6
 3349 0013 00       		.byte	0x0
 3350 0014 00       		.byte	0x0
 3351 0015 02       		.uleb128 0x2
 3352 0016 24       		.uleb128 0x24
ARM GAS  C:\Users\z80\AppData\Local\Temp\cctIXSBd.s 			page 61


 3353 0017 00       		.byte	0x0
 3354 0018 0B       		.uleb128 0xb
 3355 0019 0B       		.uleb128 0xb
 3356 001a 3E       		.uleb128 0x3e
 3357 001b 0B       		.uleb128 0xb
 3358 001c 03       		.uleb128 0x3
 3359 001d 0E       		.uleb128 0xe
 3360 001e 00       		.byte	0x0
 3361 001f 00       		.byte	0x0
 3362 0020 03       		.uleb128 0x3
 3363 0021 24       		.uleb128 0x24
 3364 0022 00       		.byte	0x0
 3365 0023 0B       		.uleb128 0xb
 3366 0024 0B       		.uleb128 0xb
 3367 0025 3E       		.uleb128 0x3e
 3368 0026 0B       		.uleb128 0xb
 3369 0027 03       		.uleb128 0x3
 3370 0028 08       		.uleb128 0x8
 3371 0029 00       		.byte	0x0
 3372 002a 00       		.byte	0x0
 3373 002b 04       		.uleb128 0x4
 3374 002c 24       		.uleb128 0x24
 3375 002d 00       		.byte	0x0
 3376 002e 0B       		.uleb128 0xb
 3377 002f 0B       		.uleb128 0xb
 3378 0030 3E       		.uleb128 0x3e
 3379 0031 0B       		.uleb128 0xb
 3380 0032 00       		.byte	0x0
 3381 0033 00       		.byte	0x0
 3382 0034 05       		.uleb128 0x5
 3383 0035 0F       		.uleb128 0xf
 3384 0036 00       		.byte	0x0
 3385 0037 0B       		.uleb128 0xb
 3386 0038 0B       		.uleb128 0xb
 3387 0039 00       		.byte	0x0
 3388 003a 00       		.byte	0x0
 3389 003b 06       		.uleb128 0x6
 3390 003c 16       		.uleb128 0x16
 3391 003d 00       		.byte	0x0
 3392 003e 03       		.uleb128 0x3
 3393 003f 0E       		.uleb128 0xe
 3394 0040 3A       		.uleb128 0x3a
 3395 0041 0B       		.uleb128 0xb
 3396 0042 3B       		.uleb128 0x3b
 3397 0043 0B       		.uleb128 0xb
 3398 0044 49       		.uleb128 0x49
 3399 0045 13       		.uleb128 0x13
 3400 0046 00       		.byte	0x0
 3401 0047 00       		.byte	0x0
 3402 0048 07       		.uleb128 0x7
 3403 0049 0F       		.uleb128 0xf
 3404 004a 00       		.byte	0x0
 3405 004b 0B       		.uleb128 0xb
 3406 004c 0B       		.uleb128 0xb
 3407 004d 49       		.uleb128 0x49
 3408 004e 13       		.uleb128 0x13
 3409 004f 00       		.byte	0x0
ARM GAS  C:\Users\z80\AppData\Local\Temp\cctIXSBd.s 			page 62


 3410 0050 00       		.byte	0x0
 3411 0051 08       		.uleb128 0x8
 3412 0052 26       		.uleb128 0x26
 3413 0053 00       		.byte	0x0
 3414 0054 49       		.uleb128 0x49
 3415 0055 13       		.uleb128 0x13
 3416 0056 00       		.byte	0x0
 3417 0057 00       		.byte	0x0
 3418 0058 09       		.uleb128 0x9
 3419 0059 35       		.uleb128 0x35
 3420 005a 00       		.byte	0x0
 3421 005b 49       		.uleb128 0x49
 3422 005c 13       		.uleb128 0x13
 3423 005d 00       		.byte	0x0
 3424 005e 00       		.byte	0x0
 3425 005f 0A       		.uleb128 0xa
 3426 0060 13       		.uleb128 0x13
 3427 0061 01       		.byte	0x1
 3428 0062 03       		.uleb128 0x3
 3429 0063 0E       		.uleb128 0xe
 3430 0064 0B       		.uleb128 0xb
 3431 0065 0B       		.uleb128 0xb
 3432 0066 3A       		.uleb128 0x3a
 3433 0067 0B       		.uleb128 0xb
 3434 0068 3B       		.uleb128 0x3b
 3435 0069 0B       		.uleb128 0xb
 3436 006a 01       		.uleb128 0x1
 3437 006b 13       		.uleb128 0x13
 3438 006c 00       		.byte	0x0
 3439 006d 00       		.byte	0x0
 3440 006e 0B       		.uleb128 0xb
 3441 006f 0D       		.uleb128 0xd
 3442 0070 00       		.byte	0x0
 3443 0071 03       		.uleb128 0x3
 3444 0072 0E       		.uleb128 0xe
 3445 0073 3A       		.uleb128 0x3a
 3446 0074 0B       		.uleb128 0xb
 3447 0075 3B       		.uleb128 0x3b
 3448 0076 0B       		.uleb128 0xb
 3449 0077 49       		.uleb128 0x49
 3450 0078 13       		.uleb128 0x13
 3451 0079 38       		.uleb128 0x38
 3452 007a 0A       		.uleb128 0xa
 3453 007b 00       		.byte	0x0
 3454 007c 00       		.byte	0x0
 3455 007d 0C       		.uleb128 0xc
 3456 007e 0D       		.uleb128 0xd
 3457 007f 00       		.byte	0x0
 3458 0080 03       		.uleb128 0x3
 3459 0081 0E       		.uleb128 0xe
 3460 0082 3A       		.uleb128 0x3a
 3461 0083 0B       		.uleb128 0xb
 3462 0084 3B       		.uleb128 0x3b
 3463 0085 05       		.uleb128 0x5
 3464 0086 49       		.uleb128 0x49
 3465 0087 13       		.uleb128 0x13
 3466 0088 38       		.uleb128 0x38
ARM GAS  C:\Users\z80\AppData\Local\Temp\cctIXSBd.s 			page 63


 3467 0089 0A       		.uleb128 0xa
 3468 008a 00       		.byte	0x0
 3469 008b 00       		.byte	0x0
 3470 008c 0D       		.uleb128 0xd
 3471 008d 0D       		.uleb128 0xd
 3472 008e 00       		.byte	0x0
 3473 008f 03       		.uleb128 0x3
 3474 0090 08       		.uleb128 0x8
 3475 0091 3A       		.uleb128 0x3a
 3476 0092 0B       		.uleb128 0xb
 3477 0093 3B       		.uleb128 0x3b
 3478 0094 05       		.uleb128 0x5
 3479 0095 49       		.uleb128 0x49
 3480 0096 13       		.uleb128 0x13
 3481 0097 38       		.uleb128 0x38
 3482 0098 0A       		.uleb128 0xa
 3483 0099 00       		.byte	0x0
 3484 009a 00       		.byte	0x0
 3485 009b 0E       		.uleb128 0xe
 3486 009c 04       		.uleb128 0x4
 3487 009d 01       		.byte	0x1
 3488 009e 0B       		.uleb128 0xb
 3489 009f 0B       		.uleb128 0xb
 3490 00a0 3A       		.uleb128 0x3a
 3491 00a1 0B       		.uleb128 0xb
 3492 00a2 3B       		.uleb128 0x3b
 3493 00a3 0B       		.uleb128 0xb
 3494 00a4 01       		.uleb128 0x1
 3495 00a5 13       		.uleb128 0x13
 3496 00a6 00       		.byte	0x0
 3497 00a7 00       		.byte	0x0
 3498 00a8 0F       		.uleb128 0xf
 3499 00a9 28       		.uleb128 0x28
 3500 00aa 00       		.byte	0x0
 3501 00ab 03       		.uleb128 0x3
 3502 00ac 0E       		.uleb128 0xe
 3503 00ad 1C       		.uleb128 0x1c
 3504 00ae 0D       		.uleb128 0xd
 3505 00af 00       		.byte	0x0
 3506 00b0 00       		.byte	0x0
 3507 00b1 10       		.uleb128 0x10
 3508 00b2 16       		.uleb128 0x16
 3509 00b3 00       		.byte	0x0
 3510 00b4 03       		.uleb128 0x3
 3511 00b5 0E       		.uleb128 0xe
 3512 00b6 3A       		.uleb128 0x3a
 3513 00b7 0B       		.uleb128 0xb
 3514 00b8 3B       		.uleb128 0x3b
 3515 00b9 05       		.uleb128 0x5
 3516 00ba 49       		.uleb128 0x49
 3517 00bb 13       		.uleb128 0x13
 3518 00bc 00       		.byte	0x0
 3519 00bd 00       		.byte	0x0
 3520 00be 11       		.uleb128 0x11
 3521 00bf 13       		.uleb128 0x13
 3522 00c0 01       		.byte	0x1
 3523 00c1 0B       		.uleb128 0xb
ARM GAS  C:\Users\z80\AppData\Local\Temp\cctIXSBd.s 			page 64


 3524 00c2 0B       		.uleb128 0xb
 3525 00c3 3A       		.uleb128 0x3a
 3526 00c4 0B       		.uleb128 0xb
 3527 00c5 3B       		.uleb128 0x3b
 3528 00c6 05       		.uleb128 0x5
 3529 00c7 01       		.uleb128 0x1
 3530 00c8 13       		.uleb128 0x13
 3531 00c9 00       		.byte	0x0
 3532 00ca 00       		.byte	0x0
 3533 00cb 12       		.uleb128 0x12
 3534 00cc 15       		.uleb128 0x15
 3535 00cd 01       		.byte	0x1
 3536 00ce 27       		.uleb128 0x27
 3537 00cf 0C       		.uleb128 0xc
 3538 00d0 01       		.uleb128 0x1
 3539 00d1 13       		.uleb128 0x13
 3540 00d2 00       		.byte	0x0
 3541 00d3 00       		.byte	0x0
 3542 00d4 13       		.uleb128 0x13
 3543 00d5 05       		.uleb128 0x5
 3544 00d6 00       		.byte	0x0
 3545 00d7 49       		.uleb128 0x49
 3546 00d8 13       		.uleb128 0x13
 3547 00d9 00       		.byte	0x0
 3548 00da 00       		.byte	0x0
 3549 00db 14       		.uleb128 0x14
 3550 00dc 15       		.uleb128 0x15
 3551 00dd 01       		.byte	0x1
 3552 00de 27       		.uleb128 0x27
 3553 00df 0C       		.uleb128 0xc
 3554 00e0 49       		.uleb128 0x49
 3555 00e1 13       		.uleb128 0x13
 3556 00e2 01       		.uleb128 0x1
 3557 00e3 13       		.uleb128 0x13
 3558 00e4 00       		.byte	0x0
 3559 00e5 00       		.byte	0x0
 3560 00e6 15       		.uleb128 0x15
 3561 00e7 13       		.uleb128 0x13
 3562 00e8 01       		.byte	0x1
 3563 00e9 0B       		.uleb128 0xb
 3564 00ea 0B       		.uleb128 0xb
 3565 00eb 3A       		.uleb128 0x3a
 3566 00ec 0B       		.uleb128 0xb
 3567 00ed 3B       		.uleb128 0x3b
 3568 00ee 0B       		.uleb128 0xb
 3569 00ef 01       		.uleb128 0x1
 3570 00f0 13       		.uleb128 0x13
 3571 00f1 00       		.byte	0x0
 3572 00f2 00       		.byte	0x0
 3573 00f3 16       		.uleb128 0x16
 3574 00f4 01       		.uleb128 0x1
 3575 00f5 01       		.byte	0x1
 3576 00f6 49       		.uleb128 0x49
 3577 00f7 13       		.uleb128 0x13
 3578 00f8 01       		.uleb128 0x1
 3579 00f9 13       		.uleb128 0x13
 3580 00fa 00       		.byte	0x0
ARM GAS  C:\Users\z80\AppData\Local\Temp\cctIXSBd.s 			page 65


 3581 00fb 00       		.byte	0x0
 3582 00fc 17       		.uleb128 0x17
 3583 00fd 21       		.uleb128 0x21
 3584 00fe 00       		.byte	0x0
 3585 00ff 49       		.uleb128 0x49
 3586 0100 13       		.uleb128 0x13
 3587 0101 2F       		.uleb128 0x2f
 3588 0102 0B       		.uleb128 0xb
 3589 0103 00       		.byte	0x0
 3590 0104 00       		.byte	0x0
 3591 0105 18       		.uleb128 0x18
 3592 0106 2E       		.uleb128 0x2e
 3593 0107 01       		.byte	0x1
 3594 0108 03       		.uleb128 0x3
 3595 0109 0E       		.uleb128 0xe
 3596 010a 3A       		.uleb128 0x3a
 3597 010b 0B       		.uleb128 0xb
 3598 010c 3B       		.uleb128 0x3b
 3599 010d 0B       		.uleb128 0xb
 3600 010e 27       		.uleb128 0x27
 3601 010f 0C       		.uleb128 0xc
 3602 0110 11       		.uleb128 0x11
 3603 0111 01       		.uleb128 0x1
 3604 0112 12       		.uleb128 0x12
 3605 0113 01       		.uleb128 0x1
 3606 0114 40       		.uleb128 0x40
 3607 0115 06       		.uleb128 0x6
 3608 0116 01       		.uleb128 0x1
 3609 0117 13       		.uleb128 0x13
 3610 0118 00       		.byte	0x0
 3611 0119 00       		.byte	0x0
 3612 011a 19       		.uleb128 0x19
 3613 011b 05       		.uleb128 0x5
 3614 011c 00       		.byte	0x0
 3615 011d 03       		.uleb128 0x3
 3616 011e 0E       		.uleb128 0xe
 3617 011f 3A       		.uleb128 0x3a
 3618 0120 0B       		.uleb128 0xb
 3619 0121 3B       		.uleb128 0x3b
 3620 0122 0B       		.uleb128 0xb
 3621 0123 49       		.uleb128 0x49
 3622 0124 13       		.uleb128 0x13
 3623 0125 02       		.uleb128 0x2
 3624 0126 06       		.uleb128 0x6
 3625 0127 00       		.byte	0x0
 3626 0128 00       		.byte	0x0
 3627 0129 1A       		.uleb128 0x1a
 3628 012a 2E       		.uleb128 0x2e
 3629 012b 00       		.byte	0x0
 3630 012c 3F       		.uleb128 0x3f
 3631 012d 0C       		.uleb128 0xc
 3632 012e 03       		.uleb128 0x3
 3633 012f 0E       		.uleb128 0xe
 3634 0130 3A       		.uleb128 0x3a
 3635 0131 0B       		.uleb128 0xb
 3636 0132 3B       		.uleb128 0x3b
 3637 0133 0B       		.uleb128 0xb
ARM GAS  C:\Users\z80\AppData\Local\Temp\cctIXSBd.s 			page 66


 3638 0134 27       		.uleb128 0x27
 3639 0135 0C       		.uleb128 0xc
 3640 0136 11       		.uleb128 0x11
 3641 0137 01       		.uleb128 0x1
 3642 0138 12       		.uleb128 0x12
 3643 0139 01       		.uleb128 0x1
 3644 013a 40       		.uleb128 0x40
 3645 013b 06       		.uleb128 0x6
 3646 013c 00       		.byte	0x0
 3647 013d 00       		.byte	0x0
 3648 013e 1B       		.uleb128 0x1b
 3649 013f 2E       		.uleb128 0x2e
 3650 0140 01       		.byte	0x1
 3651 0141 3F       		.uleb128 0x3f
 3652 0142 0C       		.uleb128 0xc
 3653 0143 03       		.uleb128 0x3
 3654 0144 0E       		.uleb128 0xe
 3655 0145 3A       		.uleb128 0x3a
 3656 0146 0B       		.uleb128 0xb
 3657 0147 3B       		.uleb128 0x3b
 3658 0148 0B       		.uleb128 0xb
 3659 0149 27       		.uleb128 0x27
 3660 014a 0C       		.uleb128 0xc
 3661 014b 11       		.uleb128 0x11
 3662 014c 01       		.uleb128 0x1
 3663 014d 12       		.uleb128 0x12
 3664 014e 01       		.uleb128 0x1
 3665 014f 40       		.uleb128 0x40
 3666 0150 0A       		.uleb128 0xa
 3667 0151 01       		.uleb128 0x1
 3668 0152 13       		.uleb128 0x13
 3669 0153 00       		.byte	0x0
 3670 0154 00       		.byte	0x0
 3671 0155 1C       		.uleb128 0x1c
 3672 0156 05       		.uleb128 0x5
 3673 0157 00       		.byte	0x0
 3674 0158 03       		.uleb128 0x3
 3675 0159 0E       		.uleb128 0xe
 3676 015a 3A       		.uleb128 0x3a
 3677 015b 0B       		.uleb128 0xb
 3678 015c 3B       		.uleb128 0x3b
 3679 015d 0B       		.uleb128 0xb
 3680 015e 49       		.uleb128 0x49
 3681 015f 13       		.uleb128 0x13
 3682 0160 02       		.uleb128 0x2
 3683 0161 0A       		.uleb128 0xa
 3684 0162 00       		.byte	0x0
 3685 0163 00       		.byte	0x0
 3686 0164 1D       		.uleb128 0x1d
 3687 0165 2E       		.uleb128 0x2e
 3688 0166 01       		.byte	0x1
 3689 0167 3F       		.uleb128 0x3f
 3690 0168 0C       		.uleb128 0xc
 3691 0169 03       		.uleb128 0x3
 3692 016a 0E       		.uleb128 0xe
 3693 016b 3A       		.uleb128 0x3a
 3694 016c 0B       		.uleb128 0xb
ARM GAS  C:\Users\z80\AppData\Local\Temp\cctIXSBd.s 			page 67


 3695 016d 3B       		.uleb128 0x3b
 3696 016e 05       		.uleb128 0x5
 3697 016f 27       		.uleb128 0x27
 3698 0170 0C       		.uleb128 0xc
 3699 0171 11       		.uleb128 0x11
 3700 0172 01       		.uleb128 0x1
 3701 0173 12       		.uleb128 0x12
 3702 0174 01       		.uleb128 0x1
 3703 0175 40       		.uleb128 0x40
 3704 0176 06       		.uleb128 0x6
 3705 0177 01       		.uleb128 0x1
 3706 0178 13       		.uleb128 0x13
 3707 0179 00       		.byte	0x0
 3708 017a 00       		.byte	0x0
 3709 017b 1E       		.uleb128 0x1e
 3710 017c 05       		.uleb128 0x5
 3711 017d 00       		.byte	0x0
 3712 017e 03       		.uleb128 0x3
 3713 017f 0E       		.uleb128 0xe
 3714 0180 3A       		.uleb128 0x3a
 3715 0181 0B       		.uleb128 0xb
 3716 0182 3B       		.uleb128 0x3b
 3717 0183 05       		.uleb128 0x5
 3718 0184 49       		.uleb128 0x49
 3719 0185 13       		.uleb128 0x13
 3720 0186 02       		.uleb128 0x2
 3721 0187 06       		.uleb128 0x6
 3722 0188 00       		.byte	0x0
 3723 0189 00       		.byte	0x0
 3724 018a 1F       		.uleb128 0x1f
 3725 018b 34       		.uleb128 0x34
 3726 018c 00       		.byte	0x0
 3727 018d 03       		.uleb128 0x3
 3728 018e 08       		.uleb128 0x8
 3729 018f 3A       		.uleb128 0x3a
 3730 0190 0B       		.uleb128 0xb
 3731 0191 3B       		.uleb128 0x3b
 3732 0192 05       		.uleb128 0x5
 3733 0193 49       		.uleb128 0x49
 3734 0194 13       		.uleb128 0x13
 3735 0195 02       		.uleb128 0x2
 3736 0196 06       		.uleb128 0x6
 3737 0197 00       		.byte	0x0
 3738 0198 00       		.byte	0x0
 3739 0199 20       		.uleb128 0x20
 3740 019a 0B       		.uleb128 0xb
 3741 019b 01       		.byte	0x1
 3742 019c 11       		.uleb128 0x11
 3743 019d 01       		.uleb128 0x1
 3744 019e 12       		.uleb128 0x12
 3745 019f 01       		.uleb128 0x1
 3746 01a0 01       		.uleb128 0x1
 3747 01a1 13       		.uleb128 0x13
 3748 01a2 00       		.byte	0x0
 3749 01a3 00       		.byte	0x0
 3750 01a4 21       		.uleb128 0x21
 3751 01a5 0B       		.uleb128 0xb
ARM GAS  C:\Users\z80\AppData\Local\Temp\cctIXSBd.s 			page 68


 3752 01a6 01       		.byte	0x1
 3753 01a7 11       		.uleb128 0x11
 3754 01a8 01       		.uleb128 0x1
 3755 01a9 12       		.uleb128 0x12
 3756 01aa 01       		.uleb128 0x1
 3757 01ab 00       		.byte	0x0
 3758 01ac 00       		.byte	0x0
 3759 01ad 22       		.uleb128 0x22
 3760 01ae 05       		.uleb128 0x5
 3761 01af 00       		.byte	0x0
 3762 01b0 03       		.uleb128 0x3
 3763 01b1 08       		.uleb128 0x8
 3764 01b2 3A       		.uleb128 0x3a
 3765 01b3 0B       		.uleb128 0xb
 3766 01b4 3B       		.uleb128 0x3b
 3767 01b5 05       		.uleb128 0x5
 3768 01b6 49       		.uleb128 0x49
 3769 01b7 13       		.uleb128 0x13
 3770 01b8 02       		.uleb128 0x2
 3771 01b9 06       		.uleb128 0x6
 3772 01ba 00       		.byte	0x0
 3773 01bb 00       		.byte	0x0
 3774 01bc 23       		.uleb128 0x23
 3775 01bd 2E       		.uleb128 0x2e
 3776 01be 01       		.byte	0x1
 3777 01bf 3F       		.uleb128 0x3f
 3778 01c0 0C       		.uleb128 0xc
 3779 01c1 03       		.uleb128 0x3
 3780 01c2 0E       		.uleb128 0xe
 3781 01c3 3A       		.uleb128 0x3a
 3782 01c4 0B       		.uleb128 0xb
 3783 01c5 3B       		.uleb128 0x3b
 3784 01c6 05       		.uleb128 0x5
 3785 01c7 27       		.uleb128 0x27
 3786 01c8 0C       		.uleb128 0xc
 3787 01c9 49       		.uleb128 0x49
 3788 01ca 13       		.uleb128 0x13
 3789 01cb 11       		.uleb128 0x11
 3790 01cc 01       		.uleb128 0x1
 3791 01cd 12       		.uleb128 0x12
 3792 01ce 01       		.uleb128 0x1
 3793 01cf 40       		.uleb128 0x40
 3794 01d0 06       		.uleb128 0x6
 3795 01d1 01       		.uleb128 0x1
 3796 01d2 13       		.uleb128 0x13
 3797 01d3 00       		.byte	0x0
 3798 01d4 00       		.byte	0x0
 3799 01d5 24       		.uleb128 0x24
 3800 01d6 2E       		.uleb128 0x2e
 3801 01d7 01       		.byte	0x1
 3802 01d8 03       		.uleb128 0x3
 3803 01d9 0E       		.uleb128 0xe
 3804 01da 3A       		.uleb128 0x3a
 3805 01db 0B       		.uleb128 0xb
 3806 01dc 3B       		.uleb128 0x3b
 3807 01dd 0B       		.uleb128 0xb
 3808 01de 27       		.uleb128 0x27
ARM GAS  C:\Users\z80\AppData\Local\Temp\cctIXSBd.s 			page 69


 3809 01df 0C       		.uleb128 0xc
 3810 01e0 49       		.uleb128 0x49
 3811 01e1 13       		.uleb128 0x13
 3812 01e2 20       		.uleb128 0x20
 3813 01e3 0B       		.uleb128 0xb
 3814 01e4 01       		.uleb128 0x1
 3815 01e5 13       		.uleb128 0x13
 3816 01e6 00       		.byte	0x0
 3817 01e7 00       		.byte	0x0
 3818 01e8 25       		.uleb128 0x25
 3819 01e9 05       		.uleb128 0x5
 3820 01ea 00       		.byte	0x0
 3821 01eb 03       		.uleb128 0x3
 3822 01ec 0E       		.uleb128 0xe
 3823 01ed 3A       		.uleb128 0x3a
 3824 01ee 0B       		.uleb128 0xb
 3825 01ef 3B       		.uleb128 0x3b
 3826 01f0 0B       		.uleb128 0xb
 3827 01f1 49       		.uleb128 0x49
 3828 01f2 13       		.uleb128 0x13
 3829 01f3 00       		.byte	0x0
 3830 01f4 00       		.byte	0x0
 3831 01f5 26       		.uleb128 0x26
 3832 01f6 34       		.uleb128 0x34
 3833 01f7 00       		.byte	0x0
 3834 01f8 03       		.uleb128 0x3
 3835 01f9 08       		.uleb128 0x8
 3836 01fa 3A       		.uleb128 0x3a
 3837 01fb 0B       		.uleb128 0xb
 3838 01fc 3B       		.uleb128 0x3b
 3839 01fd 0B       		.uleb128 0xb
 3840 01fe 49       		.uleb128 0x49
 3841 01ff 13       		.uleb128 0x13
 3842 0200 00       		.byte	0x0
 3843 0201 00       		.byte	0x0
 3844 0202 27       		.uleb128 0x27
 3845 0203 1D       		.uleb128 0x1d
 3846 0204 01       		.byte	0x1
 3847 0205 31       		.uleb128 0x31
 3848 0206 13       		.uleb128 0x13
 3849 0207 52       		.uleb128 0x52
 3850 0208 01       		.uleb128 0x1
 3851 0209 55       		.uleb128 0x55
 3852 020a 06       		.uleb128 0x6
 3853 020b 58       		.uleb128 0x58
 3854 020c 0B       		.uleb128 0xb
 3855 020d 59       		.uleb128 0x59
 3856 020e 05       		.uleb128 0x5
 3857 020f 00       		.byte	0x0
 3858 0210 00       		.byte	0x0
 3859 0211 28       		.uleb128 0x28
 3860 0212 05       		.uleb128 0x5
 3861 0213 00       		.byte	0x0
 3862 0214 31       		.uleb128 0x31
 3863 0215 13       		.uleb128 0x13
 3864 0216 02       		.uleb128 0x2
 3865 0217 06       		.uleb128 0x6
ARM GAS  C:\Users\z80\AppData\Local\Temp\cctIXSBd.s 			page 70


 3866 0218 00       		.byte	0x0
 3867 0219 00       		.byte	0x0
 3868 021a 29       		.uleb128 0x29
 3869 021b 0B       		.uleb128 0xb
 3870 021c 01       		.byte	0x1
 3871 021d 55       		.uleb128 0x55
 3872 021e 06       		.uleb128 0x6
 3873 021f 00       		.byte	0x0
 3874 0220 00       		.byte	0x0
 3875 0221 2A       		.uleb128 0x2a
 3876 0222 34       		.uleb128 0x34
 3877 0223 00       		.byte	0x0
 3878 0224 31       		.uleb128 0x31
 3879 0225 13       		.uleb128 0x13
 3880 0226 02       		.uleb128 0x2
 3881 0227 06       		.uleb128 0x6
 3882 0228 00       		.byte	0x0
 3883 0229 00       		.byte	0x0
 3884 022a 2B       		.uleb128 0x2b
 3885 022b 34       		.uleb128 0x34
 3886 022c 00       		.byte	0x0
 3887 022d 03       		.uleb128 0x3
 3888 022e 0E       		.uleb128 0xe
 3889 022f 3A       		.uleb128 0x3a
 3890 0230 0B       		.uleb128 0xb
 3891 0231 3B       		.uleb128 0x3b
 3892 0232 05       		.uleb128 0x5
 3893 0233 49       		.uleb128 0x49
 3894 0234 13       		.uleb128 0x13
 3895 0235 3F       		.uleb128 0x3f
 3896 0236 0C       		.uleb128 0xc
 3897 0237 3C       		.uleb128 0x3c
 3898 0238 0C       		.uleb128 0xc
 3899 0239 00       		.byte	0x0
 3900 023a 00       		.byte	0x0
 3901 023b 2C       		.uleb128 0x2c
 3902 023c 34       		.uleb128 0x34
 3903 023d 00       		.byte	0x0
 3904 023e 03       		.uleb128 0x3
 3905 023f 0E       		.uleb128 0xe
 3906 0240 3A       		.uleb128 0x3a
 3907 0241 0B       		.uleb128 0xb
 3908 0242 3B       		.uleb128 0x3b
 3909 0243 0B       		.uleb128 0xb
 3910 0244 49       		.uleb128 0x49
 3911 0245 13       		.uleb128 0x13
 3912 0246 02       		.uleb128 0x2
 3913 0247 0A       		.uleb128 0xa
 3914 0248 00       		.byte	0x0
 3915 0249 00       		.byte	0x0
 3916 024a 00       		.byte	0x0
 3917              		.section	.debug_pubnames,"",%progbits
 3918 0000 09010000 		.4byte	0x109
 3919 0004 0200     		.2byte	0x2
 3920 0006 00000000 		.4byte	.Ldebug_info0
 3921 000a B2090000 		.4byte	0x9b2
 3922 000e 52050000 		.4byte	0x552
ARM GAS  C:\Users\z80\AppData\Local\Temp\cctIXSBd.s 			page 71


 3923 0012 75736249 		.ascii	"usbInit\000"
 3923      6E697400 
 3924 001a 67050000 		.4byte	0x567
 3925 001e 7573624F 		.ascii	"usbObjectInit\000"
 3925      626A6563 
 3925      74496E69 
 3925      7400
 3926 002c 8D050000 		.4byte	0x58d
 3927 0030 75736253 		.ascii	"usbStart\000"
 3927      74617274 
 3927      00
 3928 0039 0E060000 		.4byte	0x60e
 3929 003d 75736253 		.ascii	"usbStop\000"
 3929      746F7000 
 3930 0045 71060000 		.4byte	0x671
 3931 0049 75736249 		.ascii	"usbInitEndpointI\000"
 3931      6E697445 
 3931      6E64706F 
 3931      696E7449 
 3931      00
 3932 005a BB060000 		.4byte	0x6bb
 3933 005e 75736244 		.ascii	"usbDisableEndpointsI\000"
 3933      69736162 
 3933      6C65456E 
 3933      64706F69 
 3933      6E747349 
 3934 0073 F4060000 		.4byte	0x6f4
 3935 0077 75736253 		.ascii	"usbStartReceiveI\000"
 3935      74617274 
 3935      52656365 
 3935      69766549 
 3935      00
 3936 0088 32070000 		.4byte	0x732
 3937 008c 75736253 		.ascii	"usbStartTransmitI\000"
 3937      74617274 
 3937      5472616E 
 3937      736D6974 
 3937      4900
 3938 009e 70070000 		.4byte	0x770
 3939 00a2 75736253 		.ascii	"usbStallReceiveI\000"
 3939      74616C6C 
 3939      52656365 
 3939      69766549 
 3939      00
 3940 00b3 AE070000 		.4byte	0x7ae
 3941 00b7 75736253 		.ascii	"usbStallTransmitI\000"
 3941      74616C6C 
 3941      5472616E 
 3941      736D6974 
 3941      4900
 3942 00c9 EC070000 		.4byte	0x7ec
 3943 00cd 5F757362 		.ascii	"_usb_reset\000"
 3943      5F726573 
 3943      657400
 3944 00d8 4C080000 		.4byte	0x84c
 3945 00dc 5F757362 		.ascii	"_usb_ep0setup\000"
 3945      5F657030 
ARM GAS  C:\Users\z80\AppData\Local\Temp\cctIXSBd.s 			page 72


 3945      73657475 
 3945      7000
 3946 00ea BF080000 		.4byte	0x8bf
 3947 00ee 5F757362 		.ascii	"_usb_ep0in\000"
 3947      5F657030 
 3947      696E00
 3948 00f9 09090000 		.4byte	0x909
 3949 00fd 5F757362 		.ascii	"_usb_ep0out\000"
 3949      5F657030 
 3949      6F757400 
 3950 0109 00000000 		.4byte	0x0
 3951              		.section	.debug_pubtypes,"",%progbits
 3952 0000 75010000 		.4byte	0x175
 3953 0004 0200     		.2byte	0x2
 3954 0006 00000000 		.4byte	.Ldebug_info0
 3955 000a B2090000 		.4byte	0x9b2
 3956 000e 7B000000 		.4byte	0x7b
 3957 0012 73697A65 		.ascii	"size_t\000"
 3957      5F7400
 3958 0019 86000000 		.4byte	0x86
 3959 001d 75696E74 		.ascii	"uint8_t\000"
 3959      385F7400 
 3960 0025 91000000 		.4byte	0x91
 3961 0029 75696E74 		.ascii	"uint16_t\000"
 3961      31365F74 
 3961      00
 3962 0032 9C000000 		.4byte	0x9c
 3963 0036 696E7433 		.ascii	"int32_t\000"
 3963      325F7400 
 3964 003e A7000000 		.4byte	0xa7
 3965 0042 75696E74 		.ascii	"uint32_t\000"
 3965      33325F74 
 3965      00
 3966 004b B2000000 		.4byte	0xb2
 3967 004f 626F6F6C 		.ascii	"bool_t\000"
 3967      5F7400
 3968 0056 D3000000 		.4byte	0xd3
 3969 005a 55534244 		.ascii	"USBDriver\000"
 3969      72697665 
 3969      7200
 3970 0064 C9010000 		.4byte	0x1c9
 3971 0068 75736265 		.ascii	"usbep_t\000"
 3971      705F7400 
 3972 0070 FB010000 		.4byte	0x1fb
 3973 0074 75736273 		.ascii	"usbstate_t\000"
 3973      74617465 
 3973      5F7400
 3974 007f 4E020000 		.4byte	0x24e
 3975 0083 75736265 		.ascii	"usbep0state_t\000"
 3975      70307374 
 3975      6174655F 
 3975      7400
 3976 0091 86020000 		.4byte	0x286
 3977 0095 75736265 		.ascii	"usbevent_t\000"
 3977      76656E74 
 3977      5F7400
 3978 00a0 BA020000 		.4byte	0x2ba
ARM GAS  C:\Users\z80\AppData\Local\Temp\cctIXSBd.s 			page 73


 3979 00a4 55534244 		.ascii	"USBDescriptor\000"
 3979      65736372 
 3979      6970746F 
 3979      7200
 3980 00b2 C6020000 		.4byte	0x2c6
 3981 00b6 75736263 		.ascii	"usbcallback_t\000"
 3981      616C6C62 
 3981      61636B5F 
 3981      7400
 3982 00c4 EA020000 		.4byte	0x2ea
 3983 00c8 75736265 		.ascii	"usbepcallback_t\000"
 3983      7063616C 
 3983      6C626163 
 3983      6B5F7400 
 3984 00d8 0D030000 		.4byte	0x30d
 3985 00dc 75736265 		.ascii	"usbeventcb_t\000"
 3985      76656E74 
 3985      63625F74 
 3985      00
 3986 00e9 30030000 		.4byte	0x330
 3987 00ed 75736272 		.ascii	"usbreqhandler_t\000"
 3987      65716861 
 3987      6E646C65 
 3987      725F7400 
 3988 00fd 52030000 		.4byte	0x352
 3989 0101 75736267 		.ascii	"usbgetdescriptor_t\000"
 3989      65746465 
 3989      73637269 
 3989      70746F72 
 3989      5F7400
 3990 0114 C1030000 		.4byte	0x3c1
 3991 0118 55534249 		.ascii	"USBInEndpointState\000"
 3991      6E456E64 
 3991      706F696E 
 3991      74537461 
 3991      746500
 3992 012b 0D040000 		.4byte	0x40d
 3993 012f 5553424F 		.ascii	"USBOutEndpointState\000"
 3993      7574456E 
 3993      64706F69 
 3993      6E745374 
 3993      61746500 
 3994 0143 9D040000 		.4byte	0x49d
 3995 0147 55534245 		.ascii	"USBEndpointConfig\000"
 3995      6E64706F 
 3995      696E7443 
 3995      6F6E6669 
 3995      6700
 3996 0159 E9040000 		.4byte	0x4e9
 3997 015d 55534243 		.ascii	"USBConfig\000"
 3997      6F6E6669 
 3997      6700
 3998 0167 DE000000 		.4byte	0xde
 3999 016b 55534244 		.ascii	"USBDriver\000"
 3999      72697665 
 3999      7200
 4000 0175 00000000 		.4byte	0x0
ARM GAS  C:\Users\z80\AppData\Local\Temp\cctIXSBd.s 			page 74


 4001              		.section	.debug_aranges,"",%progbits
 4002 0000 8C000000 		.4byte	0x8c
 4003 0004 0200     		.2byte	0x2
 4004 0006 00000000 		.4byte	.Ldebug_info0
 4005 000a 04       		.byte	0x4
 4006 000b 00       		.byte	0x0
 4007 000c 0000     		.2byte	0x0
 4008 000e 0000     		.2byte	0x0
 4009 0010 00000000 		.4byte	.LFB62
 4010 0014 22000000 		.4byte	.LFE62-.LFB62
 4011 0018 00000000 		.4byte	.LFB64
 4012 001c 08000000 		.4byte	.LFE64-.LFB64
 4013 0020 00000000 		.4byte	.LFB65
 4014 0024 10000000 		.4byte	.LFE65-.LFB65
 4015 0028 00000000 		.4byte	.LFB66
 4016 002c 70000000 		.4byte	.LFE66-.LFB66
 4017 0030 00000000 		.4byte	.LFB67
 4018 0034 48000000 		.4byte	.LFE67-.LFB67
 4019 0038 00000000 		.4byte	.LFB68
 4020 003c 84000000 		.4byte	.LFE68-.LFB68
 4021 0040 00000000 		.4byte	.LFB69
 4022 0044 50000000 		.4byte	.LFE69-.LFB69
 4023 0048 00000000 		.4byte	.LFB70
 4024 004c 40000000 		.4byte	.LFE70-.LFB70
 4025 0050 00000000 		.4byte	.LFB71
 4026 0054 40000000 		.4byte	.LFE71-.LFB71
 4027 0058 00000000 		.4byte	.LFB72
 4028 005c 34000000 		.4byte	.LFE72-.LFB72
 4029 0060 00000000 		.4byte	.LFB73
 4030 0064 34000000 		.4byte	.LFE73-.LFB73
 4031 0068 00000000 		.4byte	.LFB74
 4032 006c 32000000 		.4byte	.LFE74-.LFB74
 4033 0070 00000000 		.4byte	.LFB75
 4034 0074 E0020000 		.4byte	.LFE75-.LFB75
 4035 0078 00000000 		.4byte	.LFB76
 4036 007c 88000000 		.4byte	.LFE76-.LFB76
 4037 0080 00000000 		.4byte	.LFB77
 4038 0084 66000000 		.4byte	.LFE77-.LFB77
 4039 0088 00000000 		.4byte	0x0
 4040 008c 00000000 		.4byte	0x0
 4041              		.section	.debug_ranges,"",%progbits
 4042              	.Ldebug_ranges0:
 4043 0000 88000000 		.4byte	.LBB8
 4044 0004 10010000 		.4byte	.LBE8
 4045 0008 66010000 		.4byte	.LBB11
 4046 000c E0020000 		.4byte	.LBE11
 4047 0010 00000000 		.4byte	0x0
 4048 0014 00000000 		.4byte	0x0
 4049 0018 88000000 		.4byte	.LBB9
 4050 001c 10010000 		.4byte	.LBE9
 4051 0020 66010000 		.4byte	.LBB10
 4052 0024 E0020000 		.4byte	.LBE10
 4053 0028 00000000 		.4byte	0x0
 4054 002c 00000000 		.4byte	0x0
 4055 0030 00000000 		.4byte	.LFB62
 4056 0034 22000000 		.4byte	.LFE62
 4057 0038 00000000 		.4byte	.LFB64
ARM GAS  C:\Users\z80\AppData\Local\Temp\cctIXSBd.s 			page 75


 4058 003c 08000000 		.4byte	.LFE64
 4059 0040 00000000 		.4byte	.LFB65
 4060 0044 10000000 		.4byte	.LFE65
 4061 0048 00000000 		.4byte	.LFB66
 4062 004c 70000000 		.4byte	.LFE66
 4063 0050 00000000 		.4byte	.LFB67
 4064 0054 48000000 		.4byte	.LFE67
 4065 0058 00000000 		.4byte	.LFB68
 4066 005c 84000000 		.4byte	.LFE68
 4067 0060 00000000 		.4byte	.LFB69
 4068 0064 50000000 		.4byte	.LFE69
 4069 0068 00000000 		.4byte	.LFB70
 4070 006c 40000000 		.4byte	.LFE70
 4071 0070 00000000 		.4byte	.LFB71
 4072 0074 40000000 		.4byte	.LFE71
 4073 0078 00000000 		.4byte	.LFB72
 4074 007c 34000000 		.4byte	.LFE72
 4075 0080 00000000 		.4byte	.LFB73
 4076 0084 34000000 		.4byte	.LFE73
 4077 0088 00000000 		.4byte	.LFB74
 4078 008c 32000000 		.4byte	.LFE74
 4079 0090 00000000 		.4byte	.LFB75
 4080 0094 E0020000 		.4byte	.LFE75
 4081 0098 00000000 		.4byte	.LFB76
 4082 009c 88000000 		.4byte	.LFE76
 4083 00a0 00000000 		.4byte	.LFB77
 4084 00a4 66000000 		.4byte	.LFE77
 4085 00a8 00000000 		.4byte	0x0
 4086 00ac 00000000 		.4byte	0x0
 4087              		.section	.debug_str,"MS",%progbits,1
 4088              	.LASF101:
 4089 0000 7A65726F 		.ascii	"zero_status\000"
 4089      5F737461 
 4089      74757300 
 4090              	.LASF98:
 4091 000c 5F757362 		.ascii	"_usb_ep0setup\000"
 4091      5F657030 
 4091      73657475 
 4091      7000
 4092              	.LASF17:
 4093 001a 73746174 		.ascii	"state\000"
 4093      6500
 4094              	.LASF35:
 4095 0020 5553425F 		.ascii	"USB_SELECTED\000"
 4095      53454C45 
 4095      43544544 
 4095      00
 4096              	.LASF30:
 4097 002d 706D6E65 		.ascii	"pmnext\000"
 4097      787400
 4098              	.LASF85:
 4099 0034 55534243 		.ascii	"USBConfig\000"
 4099      6F6E6669 
 4099      6700
 4100              	.LASF2:
 4101 003e 73686F72 		.ascii	"short int\000"
 4101      7420696E 
ARM GAS  C:\Users\z80\AppData\Local\Temp\cctIXSBd.s 			page 76


 4101      7400
 4102              	.LASF10:
 4103 0048 73697A65 		.ascii	"size_t\000"
 4103      5F7400
 4104              	.LASF31:
 4105 004f 75736265 		.ascii	"usbep_t\000"
 4105      705F7400 
 4106              	.LASF45:
 4107 0057 5553425F 		.ascii	"USB_EP0_SENDING_STS\000"
 4107      4550305F 
 4107      53454E44 
 4107      494E475F 
 4107      53545300 
 4108              	.LASF57:
 4109 006b 55534244 		.ascii	"USBDescriptor\000"
 4109      65736372 
 4109      6970746F 
 4109      7200
 4110              	.LASF94:
 4111 0079 75736253 		.ascii	"usbStartTransmitI\000"
 4111      74617274 
 4111      5472616E 
 4111      736D6974 
 4111      4900
 4112              	.LASF24:
 4113 008b 6570306E 		.ascii	"ep0n\000"
 4113      00
 4114              	.LASF109:
 4115 0090 75736249 		.ascii	"usbInit\000"
 4115      6E697400 
 4116              	.LASF39:
 4117 0098 45505F53 		.ascii	"EP_STATUS_STALLED\000"
 4117      54415455 
 4117      535F5354 
 4117      414C4C45 
 4117      4400
 4118              	.LASF81:
 4119 00aa 6576656E 		.ascii	"event_cb\000"
 4119      745F6362 
 4119      00
 4120              	.LASF76:
 4121 00b3 696E5F6D 		.ascii	"in_maxsize\000"
 4121      61787369 
 4121      7A6500
 4122              	.LASF106:
 4123 00be 2E2E2F63 		.ascii	"../chibios_2.4.x/os/hal/src/usb.c\000"
 4123      68696269 
 4123      6F735F32 
 4123      2E342E78 
 4123      2F6F732F 
 4124              	.LASF70:
 4125 00e0 7278636E 		.ascii	"rxcnt\000"
 4125      7400
 4126              	.LASF74:
 4127 00e6 696E5F63 		.ascii	"in_cb\000"
 4127      6200
 4128              	.LASF46:
ARM GAS  C:\Users\z80\AppData\Local\Temp\cctIXSBd.s 			page 77


 4129 00ec 5553425F 		.ascii	"USB_EP0_ERROR\000"
 4129      4550305F 
 4129      4552524F 
 4129      5200
 4130              	.LASF100:
 4131 00fa 5F757362 		.ascii	"_usb_ep0out\000"
 4131      5F657030 
 4131      6F757400 
 4132              	.LASF18:
 4133 0106 636F6E66 		.ascii	"config\000"
 4133      696700
 4134              	.LASF95:
 4135 010d 75736253 		.ascii	"usbStallReceiveI\000"
 4135      74616C6C 
 4135      52656365 
 4135      69766549 
 4135      00
 4136              	.LASF40:
 4137 011e 45505F53 		.ascii	"EP_STATUS_ACTIVE\000"
 4137      54415455 
 4137      535F4143 
 4137      54495645 
 4137      00
 4138              	.LASF50:
 4139 012f 5553425F 		.ascii	"USB_EVENT_CONFIGURED\000"
 4139      4556454E 
 4139      545F434F 
 4139      4E464947 
 4139      55524544 
 4140              	.LASF89:
 4141 0144 75736253 		.ascii	"usbStop\000"
 4141      746F7000 
 4142              	.LASF83:
 4143 014c 72657175 		.ascii	"requests_hook_cb\000"
 4143      65737473 
 4143      5F686F6F 
 4143      6B5F6362 
 4143      00
 4144              	.LASF55:
 4145 015d 75645F73 		.ascii	"ud_size\000"
 4145      697A6500 
 4146              	.LASF44:
 4147 0165 5553425F 		.ascii	"USB_EP0_RX\000"
 4147      4550305F 
 4147      525800
 4148              	.LASF80:
 4149 0170 55534245 		.ascii	"USBEndpointConfig\000"
 4149      6E64706F 
 4149      696E7443 
 4149      6F6E6669 
 4149      6700
 4150              	.LASF15:
 4151 0182 626F6F6C 		.ascii	"bool_t\000"
 4151      5F7400
 4152              	.LASF26:
 4153 0189 73657475 		.ascii	"setup\000"
 4153      7000
ARM GAS  C:\Users\z80\AppData\Local\Temp\cctIXSBd.s 			page 78


 4154              	.LASF78:
 4155 018f 696E5F73 		.ascii	"in_state\000"
 4155      74617465 
 4155      00
 4156              	.LASF5:
 4157 0198 6C6F6E67 		.ascii	"long long int\000"
 4157      206C6F6E 
 4157      6720696E 
 4157      7400
 4158              	.LASF6:
 4159 01a6 6C6F6E67 		.ascii	"long long unsigned int\000"
 4159      206C6F6E 
 4159      6720756E 
 4159      7369676E 
 4159      65642069 
 4160              	.LASF54:
 4161 01bd 75736265 		.ascii	"usbevent_t\000"
 4161      76656E74 
 4161      5F7400
 4162              	.LASF72:
 4163 01c8 65705F6D 		.ascii	"ep_mode\000"
 4163      6F646500 
 4164              	.LASF7:
 4165 01d0 6C6F6E67 		.ascii	"long int\000"
 4165      20696E74 
 4165      00
 4166              	.LASF42:
 4167 01d9 5553425F 		.ascii	"USB_EP0_TX\000"
 4167      4550305F 
 4167      545800
 4168              	.LASF84:
 4169 01e4 736F665F 		.ascii	"sof_cb\000"
 4169      636200
 4170              	.LASF77:
 4171 01eb 6F75745F 		.ascii	"out_maxsize\000"
 4171      6D617873 
 4171      697A6500 
 4172              	.LASF49:
 4173 01f7 5553425F 		.ascii	"USB_EVENT_ADDRESS\000"
 4173      4556454E 
 4173      545F4144 
 4173      44524553 
 4173      5300
 4174              	.LASF22:
 4175 0209 65703073 		.ascii	"ep0state\000"
 4175      74617465 
 4175      00
 4176              	.LASF108:
 4177 0212 7365745F 		.ascii	"set_address\000"
 4177      61646472 
 4177      65737300 
 4178              	.LASF38:
 4179 021e 45505F53 		.ascii	"EP_STATUS_DISABLED\000"
 4179      54415455 
 4179      535F4449 
 4179      5341424C 
 4179      454400
ARM GAS  C:\Users\z80\AppData\Local\Temp\cctIXSBd.s 			page 79


 4180              	.LASF43:
 4181 0231 5553425F 		.ascii	"USB_EP0_WAITING_STS\000"
 4181      4550305F 
 4181      57414954 
 4181      494E475F 
 4181      53545300 
 4182              	.LASF21:
 4183 0245 72656365 		.ascii	"receiving\000"
 4183      6976696E 
 4183      6700
 4184              	.LASF33:
 4185 024f 5553425F 		.ascii	"USB_STOP\000"
 4185      53544F50 
 4185      00
 4186              	.LASF1:
 4187 0258 756E7369 		.ascii	"unsigned char\000"
 4187      676E6564 
 4187      20636861 
 4187      7200
 4188              	.LASF66:
 4189 0266 55534249 		.ascii	"USBInEndpointState\000"
 4189      6E456E64 
 4189      706F696E 
 4189      74537461 
 4189      746500
 4190              	.LASF67:
 4191 0279 7278706B 		.ascii	"rxpkts\000"
 4191      747300
 4192              	.LASF25:
 4193 0280 65703065 		.ascii	"ep0endcb\000"
 4193      6E646362 
 4193      00
 4194              	.LASF0:
 4195 0289 7369676E 		.ascii	"signed char\000"
 4195      65642063 
 4195      68617200 
 4196              	.LASF28:
 4197 0295 61646472 		.ascii	"address\000"
 4197      65737300 
 4198              	.LASF14:
 4199 029d 75696E74 		.ascii	"uint32_t\000"
 4199      33325F74 
 4199      00
 4200              	.LASF29:
 4201 02a6 636F6E66 		.ascii	"configuration\000"
 4201      69677572 
 4201      6174696F 
 4201      6E00
 4202              	.LASF59:
 4203 02b4 75736265 		.ascii	"usbepcallback_t\000"
 4203      7063616C 
 4203      6C626163 
 4203      6B5F7400 
 4204              	.LASF32:
 4205 02c4 5553425F 		.ascii	"USB_UNINIT\000"
 4205      554E494E 
 4205      495400
ARM GAS  C:\Users\z80\AppData\Local\Temp\cctIXSBd.s 			page 80


 4206              	.LASF110:
 4207 02cf 64656661 		.ascii	"default_handler\000"
 4207      756C745F 
 4207      68616E64 
 4207      6C657200 
 4208              	.LASF60:
 4209 02df 75736265 		.ascii	"usbeventcb_t\000"
 4209      76656E74 
 4209      63625F74 
 4209      00
 4210              	.LASF19:
 4211 02ec 70617261 		.ascii	"param\000"
 4211      6D00
 4212              	.LASF27:
 4213 02f2 73746174 		.ascii	"status\000"
 4213      757300
 4214              	.LASF48:
 4215 02f9 5553425F 		.ascii	"USB_EVENT_RESET\000"
 4215      4556454E 
 4215      545F5245 
 4215      53455400 
 4216              	.LASF107:
 4217 0309 433A5C70 		.ascii	"C:\\projects\\voltamper.git\\firmware\\voltamp\000"
 4217      726F6A65 
 4217      6374735C 
 4217      766F6C74 
 4217      616D7065 
 4218              	.LASF63:
 4219 0334 74786275 		.ascii	"txbuf\000"
 4219      6600
 4220              	.LASF79:
 4221 033a 6F75745F 		.ascii	"out_state\000"
 4221      73746174 
 4221      6500
 4222              	.LASF9:
 4223 0344 63686172 		.ascii	"char\000"
 4223      00
 4224              	.LASF12:
 4225 0349 75696E74 		.ascii	"uint16_t\000"
 4225      31365F74 
 4225      00
 4226              	.LASF82:
 4227 0352 6765745F 		.ascii	"get_descriptor_cb\000"
 4227      64657363 
 4227      72697074 
 4227      6F725F63 
 4227      6200
 4228              	.LASF13:
 4229 0364 696E7433 		.ascii	"int32_t\000"
 4229      325F7400 
 4230              	.LASF102:
 4231 036c 61637469 		.ascii	"active_status\000"
 4231      76655F73 
 4231      74617475 
 4231      7300
 4232              	.LASF3:
 4233 037a 73686F72 		.ascii	"short unsigned int\000"
ARM GAS  C:\Users\z80\AppData\Local\Temp\cctIXSBd.s 			page 81


 4233      7420756E 
 4233      7369676E 
 4233      65642069 
 4233      6E7400
 4234              	.LASF62:
 4235 038d 75736267 		.ascii	"usbgetdescriptor_t\000"
 4235      65746465 
 4235      73637269 
 4235      70746F72 
 4235      5F7400
 4236              	.LASF36:
 4237 03a0 5553425F 		.ascii	"USB_ACTIVE\000"
 4237      41435449 
 4237      564500
 4238              	.LASF23:
 4239 03ab 6570306E 		.ascii	"ep0next\000"
 4239      65787400 
 4240              	.LASF65:
 4241 03b3 7478636E 		.ascii	"txcnt\000"
 4241      7400
 4242              	.LASF47:
 4243 03b9 75736265 		.ascii	"usbep0state_t\000"
 4243      70307374 
 4243      6174655F 
 4243      7400
 4244              	.LASF103:
 4245 03c7 68616C74 		.ascii	"halted_status\000"
 4245      65645F73 
 4245      74617475 
 4245      7300
 4246              	.LASF58:
 4247 03d5 75736263 		.ascii	"usbcallback_t\000"
 4247      616C6C62 
 4247      61636B5F 
 4247      7400
 4248              	.LASF64:
 4249 03e3 74787369 		.ascii	"txsize\000"
 4249      7A6500
 4250              	.LASF69:
 4251 03ea 72787369 		.ascii	"rxsize\000"
 4251      7A6500
 4252              	.LASF8:
 4253 03f1 6C6F6E67 		.ascii	"long unsigned int\000"
 4253      20756E73 
 4253      69676E65 
 4253      6420696E 
 4253      7400
 4254              	.LASF91:
 4255 0403 65706370 		.ascii	"epcp\000"
 4255      00
 4256              	.LASF34:
 4257 0408 5553425F 		.ascii	"USB_READY\000"
 4257      52454144 
 4257      5900
 4258              	.LASF71:
 4259 0412 5553424F 		.ascii	"USBOutEndpointState\000"
 4259      7574456E 
ARM GAS  C:\Users\z80\AppData\Local\Temp\cctIXSBd.s 			page 82


 4259      64706F69 
 4259      6E745374 
 4259      61746500 
 4260              	.LASF56:
 4261 0426 75645F73 		.ascii	"ud_string\000"
 4261      7472696E 
 4261      6700
 4262              	.LASF61:
 4263 0430 75736272 		.ascii	"usbreqhandler_t\000"
 4263      65716861 
 4263      6E646C65 
 4263      725F7400 
 4264              	.LASF105:
 4265 0440 474E5520 		.ascii	"GNU C 4.5.0\000"
 4265      4320342E 
 4265      352E3000 
 4266              	.LASF86:
 4267 044c 75736270 		.ascii	"usbp\000"
 4267      00
 4268              	.LASF52:
 4269 0451 5553425F 		.ascii	"USB_EVENT_WAKEUP\000"
 4269      4556454E 
 4269      545F5741 
 4269      4B455550 
 4269      00
 4270              	.LASF90:
 4271 0462 75736249 		.ascii	"usbInitEndpointI\000"
 4271      6E697445 
 4271      6E64706F 
 4271      696E7449 
 4271      00
 4272              	.LASF99:
 4273 0473 5F757362 		.ascii	"_usb_ep0in\000"
 4273      5F657030 
 4273      696E00
 4274              	.LASF37:
 4275 047e 75736273 		.ascii	"usbstate_t\000"
 4275      74617465 
 4275      5F7400
 4276              	.LASF11:
 4277 0489 75696E74 		.ascii	"uint8_t\000"
 4277      385F7400 
 4278              	.LASF73:
 4279 0491 73657475 		.ascii	"setup_cb\000"
 4279      705F6362 
 4279      00
 4280              	.LASF41:
 4281 049a 5553425F 		.ascii	"USB_EP0_WAITING_SETUP\000"
 4281      4550305F 
 4281      57414954 
 4281      494E475F 
 4281      53455455 
 4282              	.LASF97:
 4283 04b0 5F757362 		.ascii	"_usb_reset\000"
 4283      5F726573 
 4283      657400
 4284              	.LASF93:
ARM GAS  C:\Users\z80\AppData\Local\Temp\cctIXSBd.s 			page 83


 4285 04bb 75736253 		.ascii	"usbStartReceiveI\000"
 4285      74617274 
 4285      52656365 
 4285      69766549 
 4285      00
 4286              	.LASF68:
 4287 04cc 72786275 		.ascii	"rxbuf\000"
 4287      6600
 4288              	.LASF51:
 4289 04d2 5553425F 		.ascii	"USB_EVENT_SUSPEND\000"
 4289      4556454E 
 4289      545F5355 
 4289      5350454E 
 4289      4400
 4290              	.LASF104:
 4291 04e4 49544D5F 		.ascii	"ITM_RxBuffer\000"
 4291      52784275 
 4291      66666572 
 4291      00
 4292              	.LASF4:
 4293 04f1 756E7369 		.ascii	"unsigned int\000"
 4293      676E6564 
 4293      20696E74 
 4293      00
 4294              	.LASF88:
 4295 04fe 75736253 		.ascii	"usbStart\000"
 4295      74617274 
 4295      00
 4296              	.LASF20:
 4297 0507 7472616E 		.ascii	"transmitting\000"
 4297      736D6974 
 4297      74696E67 
 4297      00
 4298              	.LASF75:
 4299 0514 6F75745F 		.ascii	"out_cb\000"
 4299      636200
 4300              	.LASF92:
 4301 051b 75736244 		.ascii	"usbDisableEndpointsI\000"
 4301      69736162 
 4301      6C65456E 
 4301      64706F69 
 4301      6E747349 
 4302              	.LASF87:
 4303 0530 7573624F 		.ascii	"usbObjectInit\000"
 4303      626A6563 
 4303      74496E69 
 4303      7400
 4304              	.LASF53:
 4305 053e 5553425F 		.ascii	"USB_EVENT_STALLED\000"
 4305      4556454E 
 4305      545F5354 
 4305      414C4C45 
 4305      4400
 4306              	.LASF16:
 4307 0550 55534244 		.ascii	"USBDriver\000"
 4307      72697665 
 4307      7200
ARM GAS  C:\Users\z80\AppData\Local\Temp\cctIXSBd.s 			page 84


 4308              	.LASF96:
 4309 055a 75736253 		.ascii	"usbStallTransmitI\000"
 4309      74616C6C 
 4309      5472616E 
 4309      736D6974 
 4309      4900
 4310              		.ident	"GCC: (GNU) 4.5.0"
ARM GAS  C:\Users\z80\AppData\Local\Temp\cctIXSBd.s 			page 85


DEFINED SYMBOLS
                            *ABS*:00000000 usb.c
C:\Users\z80\AppData\Local\Temp\cctIXSBd.s:24     .text.set_address:00000000 $t
C:\Users\z80\AppData\Local\Temp\cctIXSBd.s:29     .text.set_address:00000000 set_address
C:\Users\z80\AppData\Local\Temp\cctIXSBd.s:69     .text.usbInit:00000000 $t
C:\Users\z80\AppData\Local\Temp\cctIXSBd.s:75     .text.usbInit:00000000 usbInit
C:\Users\z80\AppData\Local\Temp\cctIXSBd.s:94     .text.usbObjectInit:00000000 $t
C:\Users\z80\AppData\Local\Temp\cctIXSBd.s:100    .text.usbObjectInit:00000000 usbObjectInit
C:\Users\z80\AppData\Local\Temp\cctIXSBd.s:127    .text.usbStart:00000000 $t
C:\Users\z80\AppData\Local\Temp\cctIXSBd.s:133    .text.usbStart:00000000 usbStart
C:\Users\z80\AppData\Local\Temp\cctIXSBd.s:236    .text.usbStart:00000068 $d
C:\Users\z80\AppData\Local\Temp\cctIXSBd.s:242    .text.usbStop:00000000 $t
C:\Users\z80\AppData\Local\Temp\cctIXSBd.s:248    .text.usbStop:00000000 usbStop
C:\Users\z80\AppData\Local\Temp\cctIXSBd.s:316    .text.usbStop:00000040 $d
C:\Users\z80\AppData\Local\Temp\cctIXSBd.s:322    .text.usbInitEndpointI:00000000 $t
C:\Users\z80\AppData\Local\Temp\cctIXSBd.s:328    .text.usbInitEndpointI:00000000 usbInitEndpointI
C:\Users\z80\AppData\Local\Temp\cctIXSBd.s:412    .text.usbInitEndpointI:00000078 $d
C:\Users\z80\AppData\Local\Temp\cctIXSBd.s:419    .text.usbDisableEndpointsI:00000000 $t
C:\Users\z80\AppData\Local\Temp\cctIXSBd.s:425    .text.usbDisableEndpointsI:00000000 usbDisableEndpointsI
C:\Users\z80\AppData\Local\Temp\cctIXSBd.s:497    .text.usbDisableEndpointsI:00000048 $d
C:\Users\z80\AppData\Local\Temp\cctIXSBd.s:503    .text.usbStartReceiveI:00000000 $t
C:\Users\z80\AppData\Local\Temp\cctIXSBd.s:509    .text.usbStartReceiveI:00000000 usbStartReceiveI
C:\Users\z80\AppData\Local\Temp\cctIXSBd.s:565    .text.usbStartReceiveI:0000003c $d
C:\Users\z80\AppData\Local\Temp\cctIXSBd.s:570    .text.usbStartTransmitI:00000000 $t
C:\Users\z80\AppData\Local\Temp\cctIXSBd.s:576    .text.usbStartTransmitI:00000000 usbStartTransmitI
C:\Users\z80\AppData\Local\Temp\cctIXSBd.s:632    .text.usbStartTransmitI:0000003c $d
C:\Users\z80\AppData\Local\Temp\cctIXSBd.s:637    .text.usbStallReceiveI:00000000 $t
C:\Users\z80\AppData\Local\Temp\cctIXSBd.s:643    .text.usbStallReceiveI:00000000 usbStallReceiveI
C:\Users\z80\AppData\Local\Temp\cctIXSBd.s:692    .text.usbStallReceiveI:00000030 $d
C:\Users\z80\AppData\Local\Temp\cctIXSBd.s:697    .text.usbStallTransmitI:00000000 $t
C:\Users\z80\AppData\Local\Temp\cctIXSBd.s:703    .text.usbStallTransmitI:00000000 usbStallTransmitI
C:\Users\z80\AppData\Local\Temp\cctIXSBd.s:752    .text.usbStallTransmitI:00000030 $d
C:\Users\z80\AppData\Local\Temp\cctIXSBd.s:757    .text._usb_reset:00000000 $t
C:\Users\z80\AppData\Local\Temp\cctIXSBd.s:763    .text._usb_reset:00000000 _usb_reset
C:\Users\z80\AppData\Local\Temp\cctIXSBd.s:820    .text._usb_ep0setup:00000000 $t
C:\Users\z80\AppData\Local\Temp\cctIXSBd.s:826    .text._usb_ep0setup:00000000 _usb_ep0setup
C:\Users\z80\AppData\Local\Temp\cctIXSBd.s:1241   .text._usb_ep0setup:000002d0 $d
C:\Users\z80\AppData\Local\Temp\cctIXSBd.s:1251   .text._usb_ep0in:00000000 $t
C:\Users\z80\AppData\Local\Temp\cctIXSBd.s:1257   .text._usb_ep0in:00000000 _usb_ep0in
C:\Users\z80\AppData\Local\Temp\cctIXSBd.s:1372   .text._usb_ep0out:00000000 $t
C:\Users\z80\AppData\Local\Temp\cctIXSBd.s:1378   .text._usb_ep0out:00000000 _usb_ep0out
C:\Users\z80\AppData\Local\Temp\cctIXSBd.s:1469   .rodata.zero_status:00000000 $d
C:\Users\z80\AppData\Local\Temp\cctIXSBd.s:1473   .rodata.zero_status:00000000 zero_status
C:\Users\z80\AppData\Local\Temp\cctIXSBd.s:1476   .rodata.active_status:00000000 $d
C:\Users\z80\AppData\Local\Temp\cctIXSBd.s:1480   .rodata.active_status:00000000 active_status
C:\Users\z80\AppData\Local\Temp\cctIXSBd.s:1483   .rodata.str1.4:00000000 $d
C:\Users\z80\AppData\Local\Temp\cctIXSBd.s:1522   .rodata.halted_status:00000000 $d
C:\Users\z80\AppData\Local\Temp\cctIXSBd.s:1526   .rodata.halted_status:00000000 halted_status
                     .debug_frame:00000010 $d
C:\Users\z80\AppData\Local\Temp\cctIXSBd.s:321    .text.usbStop:00000048 $t
C:\Users\z80\AppData\Local\Temp\cctIXSBd.s:418    .text.usbInitEndpointI:00000084 $t
C:\Users\z80\AppData\Local\Temp\cctIXSBd.s:696    .text.usbStallReceiveI:00000034 $t
C:\Users\z80\AppData\Local\Temp\cctIXSBd.s:756    .text.usbStallTransmitI:00000034 $t

UNDEFINED SYMBOLS
usb_lld_set_address
usb_lld_init
ARM GAS  C:\Users\z80\AppData\Local\Temp\cctIXSBd.s 			page 86


dbg_check_lock
chDbgPanic
usb_lld_start
dbg_check_unlock
usb_lld_stop
chDbgCheckClassI
usb_lld_init_endpoint
usb_lld_disable_endpoints
usb_lld_start_out
usb_lld_start_in
usb_lld_stall_out
usb_lld_stall_in
usb_lld_reset
usb_lld_read_setup
usb_lld_prepare_transmit
usb_lld_clear_out
usb_lld_prepare_receive
usb_lld_get_status_out
usb_lld_get_status_in
usb_lld_clear_in
