ARM GAS  C:\Users\z80\AppData\Local\Temp\ccbXQlbI.s 			page 1


   1              		.syntax unified
   2              		.cpu cortex-m3
   3              		.fpu softvfp
   4              		.eabi_attribute 20, 1
   5              		.eabi_attribute 21, 1
   6              		.eabi_attribute 23, 3
   7              		.eabi_attribute 24, 1
   8              		.eabi_attribute 25, 1
   9              		.eabi_attribute 26, 1
  10              		.eabi_attribute 30, 2
  11              		.eabi_attribute 18, 4
  12              		.thumb
  13              		.file	"usb_ctrl.c"
  20 0000 A5030000 		.text
  20      0200C402 
  20      00000201 
  20      FB0E0D00 
  20      01010101 
  21              	.Ltext0:
  22              		.cfi_sections	.debug_frame
  23              		.section	.text.get_descriptor,"ax",%progbits
  24              		.align	2
  25              		.p2align 4,,15
  26              		.thumb
  27              		.thumb_func
  28              		.type	get_descriptor, %function
  29              	get_descriptor:
  30              	.LFB62:
  31              		.file 1 "./src/usb_ctrl.c"
  32              		.loc 1 199 0
  33              		.cfi_startproc
  34              		@ args = 0, pretend = 0, frame = 0
  35              		@ frame_needed = 0, uses_anonymous_args = 0
  36              		@ link register save eliminated.
  37              	.LVL0:
  38              		.loc 1 203 0
  39 0000 0229     		cmp	r1, #2
  40              		.loc 1 207 0
  41 0002 08BF     		it	eq
  42 0004 0748     		ldreq	r0, .L9
  43              	.LVL1:
  44              		.loc 1 203 0
  45 0006 05D0     		beq	.L4
  46 0008 0329     		cmp	r1, #3
  47 000a 04D0     		beq	.L5
  48              		.loc 1 212 0
  49 000c 0648     		ldr	r0, .L9+4
  50 000e 0129     		cmp	r1, #1
  51 0010 18BF     		it	ne
  52 0012 0020     		movne	r0, #0
  53              	.L4:
ARM GAS  C:\Users\z80\AppData\Local\Temp\ccbXQlbI.s 			page 2


  54              		.loc 1 213 0
  55 0014 7047     		bx	lr
  56              	.L5:
  57              		.loc 1 209 0
  58 0016 032A     		cmp	r2, #3
  59              		.loc 1 210 0
  60 0018 9ABF     		itte	ls
  61 001a 0448     		ldrls	r0, .L9+8
  62 001c 00EBC200 		addls	r0, r0, r2, lsl #3
  63              		.loc 1 212 0
  64 0020 0020     		movhi	r0, #0
  65 0022 F7E7     		b	.L4
  66              	.L10:
  67              		.align	2
  68              	.L9:
  69 0024 00000000 		.word	.LANCHOR1
  70 0028 00000000 		.word	.LANCHOR0
  71 002c 00000000 		.word	.LANCHOR2
  72              		.cfi_endproc
  73              	.LFE62:
  74              		.size	get_descriptor, .-get_descriptor
  75              		.section	.text.cmd_threads,"ax",%progbits
  76              		.align	2
  77              		.p2align 4,,15
  78              		.thumb
  79              		.thumb_func
  80              		.type	cmd_threads, %function
  81              	cmd_threads:
  82              	.LFB65:
  83              		.loc 1 320 0
  84              		.cfi_startproc
  85              		@ args = 0, pretend = 0, frame = 0
  86              		@ frame_needed = 0, uses_anonymous_args = 0
  87              	.LVL2:
  88 0000 70B5     		push	{r4, r5, r6, lr}
  89              	.LCFI0:
  90              		.cfi_def_cfa_offset 16
  91              		.loc 1 325 0
  92 0002 0029     		cmp	r1, #0
  93              		.loc 1 320 0
  94 0004 84B0     		sub	sp, sp, #16
  95              	.LCFI1:
  96              		.cfi_def_cfa_offset 32
  97              		.loc 1 320 0
  98 0006 0546     		mov	r5, r0
  99              		.cfi_offset 14, -4
 100              		.cfi_offset 6, -8
 101              		.cfi_offset 5, -12
 102              		.cfi_offset 4, -16
 103              		.loc 1 325 0
 104 0008 04DD     		ble	.L12
 105              		.loc 1 326 0
 106 000a 1449     		ldr	r1, .L16
 107              	.LVL3:
 108 000c FFF7FEFF 		bl	chprintf
 109              	.LVL4:
 110              	.L11:
ARM GAS  C:\Users\z80\AppData\Local\Temp\ccbXQlbI.s 			page 3


 111              		.loc 1 338 0
 112 0010 04B0     		add	sp, sp, #16
 113 0012 70BD     		pop	{r4, r5, r6, pc}
 114              	.LVL5:
 115              	.L12:
 116              		.loc 1 329 0
 117 0014 1249     		ldr	r1, .L16+4
 118              	.LVL6:
 119 0016 FFF7FEFF 		bl	chprintf
 120              	.LVL7:
 121              		.loc 1 330 0
 122 001a FFF7FEFF 		bl	chRegFirstThread
 123 001e 114E     		ldr	r6, .L16+8
 124 0020 0446     		mov	r4, r0
 125              	.LVL8:
 126              	.L14:
 127              		.loc 1 332 0 discriminator 1
 128 0022 A268     		ldr	r2, [r4, #8]
 129 0024 E368     		ldr	r3, [r4, #12]
 130 0026 D4F824C0 		ldr	ip, [r4, #36]
 131 002a 0092     		str	r2, [sp, #0]
 132              		.loc 1 334 0 discriminator 1
 133 002c 94F82220 		ldrb	r2, [r4, #34]	@ zero_extendqisi2
 134              		.loc 1 332 0 discriminator 1
 135 0030 0D49     		ldr	r1, .L16+12
 136              		.loc 1 334 0 discriminator 1
 137 0032 013A     		subs	r2, r2, #1
 138              		.loc 1 332 0 discriminator 1
 139 0034 0192     		str	r2, [sp, #4]
 140 0036 94F82000 		ldrb	r0, [r4, #32]	@ zero_extendqisi2
 141              	.LVL9:
 142 003a 2246     		mov	r2, r4
 143 003c 56F820E0 		ldr	lr, [r6, r0, lsl #2]
 144 0040 2846     		mov	r0, r5
 145 0042 CDF808E0 		str	lr, [sp, #8]
 146 0046 CDF80CC0 		str	ip, [sp, #12]
 147 004a FFF7FEFF 		bl	chprintf
 148              		.loc 1 336 0 discriminator 1
 149 004e 2046     		mov	r0, r4
 150 0050 FFF7FEFF 		bl	chRegNextThread
 151 0054 0446     		mov	r4, r0
 152              	.LVL10:
 153              		.loc 1 337 0 discriminator 1
 154 0056 0028     		cmp	r0, #0
 155 0058 E3D1     		bne	.L14
 156 005a D9E7     		b	.L11
 157              	.L17:
 158              		.align	2
 159              	.L16:
 160 005c 00000000 		.word	.LC0
 161 0060 14000000 		.word	.LC1
 162 0064 00000000 		.word	.LANCHOR3
 163 0068 44000000 		.word	.LC2
 164              		.cfi_endproc
 165              	.LFE65:
 166              		.size	cmd_threads, .-cmd_threads
 167 006c AFF30080 		.section	.text.cmd_mem,"ax",%progbits
ARM GAS  C:\Users\z80\AppData\Local\Temp\ccbXQlbI.s 			page 4


 168              		.align	2
 169              		.p2align 4,,15
 170              		.thumb
 171              		.thumb_func
 172              		.type	cmd_mem, %function
 173              	cmd_mem:
 174              	.LFB64:
 175              		.loc 1 306 0
 176              		.cfi_startproc
 177              		@ args = 0, pretend = 0, frame = 8
 178              		@ frame_needed = 0, uses_anonymous_args = 0
 179              	.LVL11:
 180 0000 30B5     		push	{r4, r5, lr}
 181              	.LCFI2:
 182              		.cfi_def_cfa_offset 12
 183              		.loc 1 310 0
 184 0002 0029     		cmp	r1, #0
 185              		.loc 1 306 0
 186 0004 83B0     		sub	sp, sp, #12
 187              	.LCFI3:
 188              		.cfi_def_cfa_offset 24
 189              		.loc 1 306 0
 190 0006 0446     		mov	r4, r0
 191              		.cfi_offset 14, -4
 192              		.cfi_offset 5, -8
 193              		.cfi_offset 4, -12
 194              		.loc 1 310 0
 195 0008 04DD     		ble	.L19
 196              		.loc 1 311 0
 197 000a 0E49     		ldr	r1, .L21
 198              	.LVL12:
 199 000c FFF7FEFF 		bl	chprintf
 200              	.LVL13:
 201              	.L18:
 202              		.loc 1 318 0
 203 0010 03B0     		add	sp, sp, #12
 204 0012 30BD     		pop	{r4, r5, pc}
 205              	.LVL14:
 206              	.L19:
 207              		.loc 1 314 0
 208 0014 01A9     		add	r1, sp, #4
 209              	.LVL15:
 210 0016 0020     		movs	r0, #0
 211 0018 FFF7FEFF 		bl	chHeapStatus
 212              	.LVL16:
 213 001c 0546     		mov	r5, r0
 214              	.LVL17:
 215              		.loc 1 315 0
 216 001e FFF7FEFF 		bl	chCoreStatus
 217              	.LVL18:
 218 0022 0949     		ldr	r1, .L21+4
 219 0024 0246     		mov	r2, r0
 220 0026 2046     		mov	r0, r4
 221 0028 FFF7FEFF 		bl	chprintf
 222              		.loc 1 316 0
 223 002c 2046     		mov	r0, r4
 224 002e 2A46     		mov	r2, r5
ARM GAS  C:\Users\z80\AppData\Local\Temp\ccbXQlbI.s 			page 5


 225 0030 0649     		ldr	r1, .L21+8
 226 0032 FFF7FEFF 		bl	chprintf
 227              		.loc 1 317 0
 228 0036 2046     		mov	r0, r4
 229 0038 0549     		ldr	r1, .L21+12
 230              	.LVL19:
 231 003a 019A     		ldr	r2, [sp, #4]
 232 003c FFF7FEFF 		bl	chprintf
 233 0040 E6E7     		b	.L18
 234              	.L22:
 235 0042 00BF     		.align	2
 236              	.L21:
 237 0044 64000000 		.word	.LC3
 238 0048 74000000 		.word	.LC4
 239 004c 94000000 		.word	.LC5
 240 0050 AC000000 		.word	.LC6
 241              		.cfi_endproc
 242              	.LFE64:
 243              		.size	cmd_mem, .-cmd_mem
 244 0054 AFF30080 		.section	.text.usb_event,"ax",%progbits
 244      AFF30080 
 244      AFF30080 
 245              		.align	2
 246              		.p2align 4,,15
 247              		.thumb
 248              		.thumb_func
 249              		.type	usb_event, %function
 250              	usb_event:
 251              	.LFB63:
 252              		.loc 1 260 0
 253              		.cfi_startproc
 254              		@ args = 0, pretend = 0, frame = 0
 255              		@ frame_needed = 0, uses_anonymous_args = 0
 256              	.LVL20:
 257              		.loc 1 262 0
 258 0000 0229     		cmp	r1, #2
 259              		.loc 1 260 0
 260 0002 38B5     		push	{r3, r4, r5, lr}
 261              	.LCFI4:
 262              		.cfi_def_cfa_offset 16
 263              		.loc 1 260 0
 264 0004 0C46     		mov	r4, r1
 265              		.cfi_offset 14, -4
 266              		.cfi_offset 5, -8
 267              		.cfi_offset 4, -12
 268              		.cfi_offset 3, -16
 269 0006 0546     		mov	r5, r0
 270              		.loc 1 262 0
 271 0008 18D1     		bne	.L23
 272              	.LBB2:
 273              		.loc 1 271 0
 274 000a 2023     		movs	r3, #32
 275              	.LVL21:
 276              	@ 271 "./src/usb_ctrl.c" 1
 277 000c 83F31188 		msr     BASEPRI, r3
 278              	@ 0 "" 2
 279              	.LVL22:
ARM GAS  C:\Users\z80\AppData\Local\Temp\ccbXQlbI.s 			page 6


 280              		.thumb
 281              	.LBE2:
 282 0010 FFF7FEFF 		bl	dbg_check_lock_from_isr
 283              	.LVL23:
 284              		.loc 1 272 0
 285 0014 2846     		mov	r0, r5
 286 0016 0121     		movs	r1, #1
 287 0018 094A     		ldr	r2, .L26
 288 001a FFF7FEFF 		bl	usbInitEndpointI
 289              		.loc 1 273 0
 290 001e 2846     		mov	r0, r5
 291 0020 2146     		mov	r1, r4
 292 0022 084A     		ldr	r2, .L26+4
 293 0024 FFF7FEFF 		bl	usbInitEndpointI
 294              		.loc 1 274 0
 295 0028 2846     		mov	r0, r5
 296 002a 0321     		movs	r1, #3
 297 002c 064A     		ldr	r2, .L26+8
 298 002e FFF7FEFF 		bl	usbInitEndpointI
 299              		.loc 1 275 0
 300 0032 FFF7FEFF 		bl	dbg_check_unlock_from_isr
 301              	.LBB3:
 302 0036 0023     		movs	r3, #0
 303              	.LVL24:
 304              	@ 275 "./src/usb_ctrl.c" 1
 305 0038 83F31188 		msr     BASEPRI, r3
 306              	@ 0 "" 2
 307              	.LVL25:
 308              		.thumb
 309              	.L23:
 310              	.LBE3:
 311              		.loc 1 285 0
 312 003c 38BD     		pop	{r3, r4, r5, pc}
 313              	.L27:
 314 003e 00BF     		.align	2
 315              	.L26:
 316 0040 00000000 		.word	.LANCHOR4
 317 0044 00000000 		.word	.LANCHOR5
 318 0048 00000000 		.word	.LANCHOR6
 319              		.cfi_endproc
 320              	.LFE63:
 321              		.size	usb_event, .-usb_event
 322 004c AFF30080 		.section	.text.initUsb,"ax",%progbits
 323              		.align	2
 324              		.p2align 4,,15
 325              		.global	initUsb
 326              		.thumb
 327              		.thumb_func
 328              		.type	initUsb, %function
 329              	initUsb:
 330              	.LFB66:
 331              		.loc 1 393 0
 332              		.cfi_startproc
 333              		@ args = 0, pretend = 0, frame = 0
 334              		@ frame_needed = 0, uses_anonymous_args = 0
 335 0000 70B5     		push	{r4, r5, r6, lr}
 336              	.LCFI5:
ARM GAS  C:\Users\z80\AppData\Local\Temp\ccbXQlbI.s 			page 7


 337              		.cfi_def_cfa_offset 16
 338              		.loc 1 395 0
 339 0002 4FF48054 		mov	r4, #4096
 340              		.cfi_offset 14, -4
 341              		.cfi_offset 6, -8
 342              		.cfi_offset 5, -12
 343              		.cfi_offset 4, -16
 344 0006 C4F20104 		movt	r4, 16385
 345 000a 4FF40065 		mov	r5, #2048
 346              		.loc 1 399 0
 347 000e 40F20006 		movw	r6, #:lower16:.LANCHOR7
 348 0012 C0F20006 		movt	r6, #:upper16:.LANCHOR7
 349              		.loc 1 397 0
 350 0016 4FF4FA70 		mov	r0, #500
 351              		.loc 1 395 0
 352 001a 2561     		str	r5, [r4, #16]
 353              		.loc 1 397 0
 354 001c FFF7FEFF 		bl	chThdSleep
 355              		.loc 1 399 0
 356 0020 3046     		mov	r0, r6
 357 0022 FFF7FEFF 		bl	sduObjectInit
 358              		.loc 1 400 0
 359 0026 40F20001 		movw	r1, #:lower16:.LANCHOR8
 360 002a C0F20001 		movt	r1, #:upper16:.LANCHOR8
 361 002e 3046     		mov	r0, r6
 362 0030 FFF7FEFF 		bl	sduStart
 363              		.loc 1 402 0
 364 0034 6561     		str	r5, [r4, #20]
 365              		.loc 1 404 0
 366 0036 FFF7FEFF 		bl	shellInit
 367              		.loc 1 405 0
 368 003a 70BD     		pop	{r4, r5, r6, pc}
 369              		.cfi_endproc
 370              	.LFE66:
 371              		.size	initUsb, .-initUsb
 372 003c AFF30080 		.section	.text.finitUsb,"ax",%progbits
 373              		.align	2
 374              		.p2align 4,,15
 375              		.global	finitUsb
 376              		.thumb
 377              		.thumb_func
 378              		.type	finitUsb, %function
 379              	finitUsb:
 380              	.LFB67:
 381              		.loc 1 408 0
 382              		.cfi_startproc
 383              		@ args = 0, pretend = 0, frame = 0
 384              		@ frame_needed = 0, uses_anonymous_args = 0
 385 0000 08B5     		push	{r3, lr}
 386              	.LCFI6:
 387              		.cfi_def_cfa_offset 8
 388              		.loc 1 409 0
 389 0002 4FF48053 		mov	r3, #4096
 390              		.cfi_offset 14, -4
 391              		.cfi_offset 3, -8
 392 0006 C4F20103 		movt	r3, 16385
 393 000a 4FF40062 		mov	r2, #2048
ARM GAS  C:\Users\z80\AppData\Local\Temp\ccbXQlbI.s 			page 8


 394              		.loc 1 410 0
 395 000e 40F20000 		movw	r0, #:lower16:.LANCHOR7
 396 0012 C0F20000 		movt	r0, #:upper16:.LANCHOR7
 397              		.loc 1 409 0
 398 0016 1A61     		str	r2, [r3, #16]
 399              		.loc 1 410 0
 400 0018 FFF7FEFF 		bl	sduStop
 401              		.loc 1 411 0
 402 001c 08BD     		pop	{r3, pc}
 403              		.cfi_endproc
 404              	.LFE67:
 405              		.size	finitUsb, .-finitUsb
 406 001e 00BF     		.section	.text.processShell,"ax",%progbits
 407              		.align	2
 408              		.p2align 4,,15
 409              		.global	processShell
 410              		.thumb
 411              		.thumb_func
 412              		.type	processShell, %function
 413              	processShell:
 414              	.LFB68:
 415              		.loc 1 414 0
 416              		.cfi_startproc
 417              		@ args = 0, pretend = 0, frame = 0
 418              		@ frame_needed = 0, uses_anonymous_args = 0
 419 0000 10B5     		push	{r4, lr}
 420              	.LCFI7:
 421              		.cfi_def_cfa_offset 8
 422              		.loc 1 415 0
 423 0002 0E4C     		ldr	r4, .L35
 424              		.cfi_offset 14, -4
 425              		.cfi_offset 4, -8
 426 0004 2068     		ldr	r0, [r4, #0]
 427 0006 48B1     		cbz	r0, .L33
 428              	.L31:
 429              		.loc 1 417 0
 430 0008 90F82030 		ldrb	r3, [r0, #32]	@ zero_extendqisi2
 431 000c 0E2B     		cmp	r3, #14
 432 000e 00D0     		beq	.L34
 433              	.L30:
 434              		.loc 1 421 0
 435 0010 10BD     		pop	{r4, pc}
 436              	.L34:
 437              		.loc 1 418 0
 438 0012 FFF7FEFF 		bl	chThdRelease
 439              		.loc 1 419 0
 440 0016 0023     		movs	r3, #0
 441 0018 2360     		str	r3, [r4, #0]
 442 001a F9E7     		b	.L30
 443              	.L33:
 444              		.loc 1 415 0 discriminator 1
 445 001c 084B     		ldr	r3, .L35+4
 446 001e D3F8D030 		ldr	r3, [r3, #208]
 447 0022 1B68     		ldr	r3, [r3, #0]
 448 0024 1B78     		ldrb	r3, [r3, #0]	@ zero_extendqisi2
 449 0026 042B     		cmp	r3, #4
 450 0028 EED1     		bne	.L31
ARM GAS  C:\Users\z80\AppData\Local\Temp\ccbXQlbI.s 			page 9


 451              		.loc 1 416 0
 452 002a 0648     		ldr	r0, .L35+8
 453 002c 4FF44B61 		mov	r1, #3248
 454 0030 4022     		movs	r2, #64
 455 0032 FFF7FEFF 		bl	shellCreate
 456 0036 2060     		str	r0, [r4, #0]
 457 0038 EAE7     		b	.L30
 458              	.L36:
 459 003a 00BF     		.align	2
 460              	.L35:
 461 003c 00000000 		.word	.LANCHOR9
 462 0040 00000000 		.word	.LANCHOR7
 463 0044 00000000 		.word	.LANCHOR10
 464              		.cfi_endproc
 465              	.LFE68:
 466              		.size	processShell, .-processShell
 467 0048 AFF30080 		.section	.rodata.ep1config,"a",%progbits
 467      AFF30080 
 468              		.align	2
 469              		.set	.LANCHOR4,. + 0
 470              		.type	ep1config, %object
 471              		.size	ep1config, 28
 472              	ep1config:
 473 0000 12000000 		.word	18
 474 0004 00000000 		.word	0
 475 0008 00000000 		.word	sduDataTransmitted
 476 000c 00000000 		.word	0
 477 0010 4000     		.short	64
 478 0012 0000     		.short	0
 479 0014 00000000 		.word	0
 480 0018 00000000 		.word	0
 481              		.section	.rodata.vcom_configuration_descriptor_data,"a",%progbits
 482              		.align	2
 483              		.type	vcom_configuration_descriptor_data, %object
 484              		.size	vcom_configuration_descriptor_data, 67
 485              	vcom_configuration_descriptor_data:
 486 0000 09       		.byte	9
 487 0001 02       		.byte	2
 488 0002 43       		.byte	67
 489 0003 00       		.byte	0
 490 0004 02       		.byte	2
 491 0005 01       		.byte	1
 492 0006 00       		.byte	0
 493 0007 C0       		.byte	-64
 494 0008 32       		.byte	50
 495 0009 09       		.byte	9
 496 000a 04       		.byte	4
 497 000b 00       		.byte	0
 498 000c 00       		.byte	0
 499 000d 01       		.byte	1
 500 000e 02       		.byte	2
 501 000f 02       		.byte	2
 502 0010 01       		.byte	1
 503 0011 00       		.byte	0
 504 0012 05       		.byte	5
 505 0013 24       		.byte	36
 506 0014 00       		.byte	0
ARM GAS  C:\Users\z80\AppData\Local\Temp\ccbXQlbI.s 			page 10


 507 0015 10       		.byte	16
 508 0016 01       		.byte	1
 509 0017 05       		.byte	5
 510 0018 24       		.byte	36
 511 0019 01       		.byte	1
 512 001a 00       		.byte	0
 513 001b 01       		.byte	1
 514 001c 04       		.byte	4
 515 001d 24       		.byte	36
 516 001e 02       		.byte	2
 517 001f 02       		.byte	2
 518 0020 05       		.byte	5
 519 0021 24       		.byte	36
 520 0022 06       		.byte	6
 521 0023 00       		.byte	0
 522 0024 01       		.byte	1
 523 0025 07       		.byte	7
 524 0026 05       		.byte	5
 525 0027 82       		.byte	-126
 526 0028 03       		.byte	3
 527 0029 08       		.byte	8
 528 002a 00       		.byte	0
 529 002b FF       		.byte	-1
 530 002c 09       		.byte	9
 531 002d 04       		.byte	4
 532 002e 01       		.byte	1
 533 002f 00       		.byte	0
 534 0030 02       		.byte	2
 535 0031 0A       		.byte	10
 536 0032 00       		.byte	0
 537 0033 00       		.byte	0
 538 0034 00       		.byte	0
 539 0035 07       		.byte	7
 540 0036 05       		.byte	5
 541 0037 03       		.byte	3
 542 0038 02       		.byte	2
 543 0039 40       		.byte	64
 544 003a 00       		.byte	0
 545 003b 00       		.byte	0
 546 003c 07       		.byte	7
 547 003d 05       		.byte	5
 548 003e 81       		.byte	-127
 549 003f 02       		.byte	2
 550 0040 40       		.byte	64
 551 0041 00       		.byte	0
 552 0042 00       		.byte	0
 553 0043 00       		.section	.bss.SDU1,"aw",%nobits
 554              		.align	2
 555              		.set	.LANCHOR7,. + 0
 556              		.type	SDU1, %object
 557              		.size	SDU1, 212
 558              	SDU1:
 559 0000 00000000 		.space	212
 559      00000000 
 559      00000000 
 559      00000000 
 559      00000000 
ARM GAS  C:\Users\z80\AppData\Local\Temp\ccbXQlbI.s 			page 11


 560              		.section	.rodata.vcom_configuration_descriptor,"a",%progbits
 561              		.align	2
 562              		.set	.LANCHOR1,. + 0
 563              		.type	vcom_configuration_descriptor, %object
 564              		.size	vcom_configuration_descriptor, 8
 565              	vcom_configuration_descriptor:
 566 0000 43000000 		.word	67
 567 0004 00000000 		.word	vcom_configuration_descriptor_data
 568              		.section	.rodata.ep2config,"a",%progbits
 569              		.align	2
 570              		.set	.LANCHOR5,. + 0
 571              		.type	ep2config, %object
 572              		.size	ep2config, 28
 573              	ep2config:
 574 0000 13000000 		.word	19
 575 0004 00000000 		.word	0
 576 0008 00000000 		.word	sduInterruptTransmitted
 577 000c 00000000 		.word	0
 578 0010 1000     		.short	16
 579 0012 0000     		.short	0
 580 0014 00000000 		.word	0
 581 0018 00000000 		.word	0
 582              		.section	.rodata.commands,"a",%progbits
 583              		.align	2
 584              		.type	commands, %object
 585              		.size	commands, 80
 586              	commands:
 587 0000 50010000 		.word	.LC22
 588 0004 00000000 		.word	cmd_mem
 589 0008 54010000 		.word	.LC23
 590 000c 00000000 		.word	cmd_threads
 591 0010 5C010000 		.word	.LC24
 592 0014 00000000 		.word	cmd_state
 593 0018 60010000 		.word	.LC25
 594 001c 00000000 		.word	cmd_set_output
 595 0020 64010000 		.word	.LC26
 596 0024 00000000 		.word	i2c_set_addr
 597 0028 6C010000 		.word	.LC27
 598 002c 00000000 		.word	i2c_set_buf
 599 0030 74010000 		.word	.LC28
 600 0034 00000000 		.word	i2c_io
 601 0038 78010000 		.word	.LC29
 602 003c 00000000 		.word	i2c_status
 603 0040 80010000 		.word	.LC30
 604 0044 00000000 		.word	i2c_buffer
 605 0048 00000000 		.word	0
 606 004c 00000000 		.word	0
 607              		.section	.rodata.states.4742,"a",%progbits
 608              		.align	2
 609              		.set	.LANCHOR3,. + 0
 610              		.type	states.4742, %object
 611              		.size	states.4742, 60
 612              	states.4742:
 613 0000 CC000000 		.word	.LC7
 614 0004 D4000000 		.word	.LC8
 615 0008 DC000000 		.word	.LC9
 616 000c E8000000 		.word	.LC10
ARM GAS  C:\Users\z80\AppData\Local\Temp\ccbXQlbI.s 			page 12


 617 0010 F0000000 		.word	.LC11
 618 0014 F8000000 		.word	.LC12
 619 0018 00010000 		.word	.LC13
 620 001c 0C010000 		.word	.LC14
 621 0020 14010000 		.word	.LC15
 622 0024 1C010000 		.word	.LC16
 623 0028 28010000 		.word	.LC17
 624 002c 30010000 		.word	.LC18
 625 0030 38010000 		.word	.LC19
 626 0034 40010000 		.word	.LC20
 627 0038 48010000 		.word	.LC21
 628              		.section	.rodata.str1.4,"aMS",%progbits,1
 629              		.align	2
 630              	.LC0:
 631 0000 55736167 		.ascii	"Usage: threads\015\012\000"
 631      653A2074 
 631      68726561 
 631      64730D0A 
 631      00
 632 0011 000000   		.space	3
 633              	.LC1:
 634 0014 20202020 		.ascii	"    addr    stack prio refs     state time\015\012\000"
 634      61646472 
 634      20202020 
 634      73746163 
 634      6B207072 
 635 0041 000000   		.space	3
 636              	.LC2:
 637 0044 252E386C 		.ascii	"%.8lx %.8lx %4lu %4lu %9s %lu\015\012\000"
 637      7820252E 
 637      386C7820 
 637      25346C75 
 637      2025346C 
 638              	.LC3:
 639 0064 55736167 		.ascii	"Usage: mem\015\012\000"
 639      653A206D 
 639      656D0D0A 
 639      00
 640 0071 000000   		.space	3
 641              	.LC4:
 642 0074 636F7265 		.ascii	"core free memory : %u bytes\015\012\000"
 642      20667265 
 642      65206D65 
 642      6D6F7279 
 642      203A2025 
 643 0092 0000     		.space	2
 644              	.LC5:
 645 0094 68656170 		.ascii	"heap fragments   : %u\015\012\000"
 645      20667261 
 645      676D656E 
 645      74732020 
 645      203A2025 
 646              	.LC6:
 647 00ac 68656170 		.ascii	"heap free total  : %u bytes\015\012\000"
 647      20667265 
 647      6520746F 
 647      74616C20 
ARM GAS  C:\Users\z80\AppData\Local\Temp\ccbXQlbI.s 			page 13


 647      203A2025 
 648 00ca 0000     		.space	2
 649              	.LC7:
 650 00cc 52454144 		.ascii	"READY\000"
 650      5900
 651 00d2 0000     		.space	2
 652              	.LC8:
 653 00d4 43555252 		.ascii	"CURRENT\000"
 653      454E5400 
 654              	.LC9:
 655 00dc 53555350 		.ascii	"SUSPENDED\000"
 655      454E4445 
 655      4400
 656 00e6 0000     		.space	2
 657              	.LC10:
 658 00e8 57545345 		.ascii	"WTSEM\000"
 658      4D00
 659 00ee 0000     		.space	2
 660              	.LC11:
 661 00f0 57544D54 		.ascii	"WTMTX\000"
 661      5800
 662 00f6 0000     		.space	2
 663              	.LC12:
 664 00f8 5754434F 		.ascii	"WTCOND\000"
 664      4E4400
 665 00ff 00       		.space	1
 666              	.LC13:
 667 0100 534C4545 		.ascii	"SLEEPING\000"
 667      50494E47 
 667      00
 668 0109 000000   		.space	3
 669              	.LC14:
 670 010c 57544558 		.ascii	"WTEXIT\000"
 670      495400
 671 0113 00       		.space	1
 672              	.LC15:
 673 0114 57544F52 		.ascii	"WTOREVT\000"
 673      45565400 
 674              	.LC16:
 675 011c 5754414E 		.ascii	"WTANDEVT\000"
 675      44455654 
 675      00
 676 0125 000000   		.space	3
 677              	.LC17:
 678 0128 534E444D 		.ascii	"SNDMSGQ\000"
 678      53475100 
 679              	.LC18:
 680 0130 534E444D 		.ascii	"SNDMSG\000"
 680      534700
 681 0137 00       		.space	1
 682              	.LC19:
 683 0138 57544D53 		.ascii	"WTMSG\000"
 683      4700
 684 013e 0000     		.space	2
 685              	.LC20:
 686 0140 57545155 		.ascii	"WTQUEUE\000"
 686      45554500 
ARM GAS  C:\Users\z80\AppData\Local\Temp\ccbXQlbI.s 			page 14


 687              	.LC21:
 688 0148 46494E41 		.ascii	"FINAL\000"
 688      4C00
 689 014e 0000     		.space	2
 690              	.LC22:
 691 0150 6D656D00 		.ascii	"mem\000"
 692              	.LC23:
 693 0154 74687265 		.ascii	"threads\000"
 693      61647300 
 694              	.LC24:
 695 015c 737400   		.ascii	"st\000"
 696 015f 00       		.space	1
 697              	.LC25:
 698 0160 6F757400 		.ascii	"out\000"
 699              	.LC26:
 700 0164 61646472 		.ascii	"addr\000"
 700      00
 701 0169 000000   		.space	3
 702              	.LC27:
 703 016c 7365745F 		.ascii	"set_buf\000"
 703      62756600 
 704              	.LC28:
 705 0174 696F00   		.ascii	"io\000"
 706 0177 00       		.space	1
 707              	.LC29:
 708 0178 73746174 		.ascii	"status\000"
 708      757300
 709 017f 00       		.space	1
 710              	.LC30:
 711 0180 62756666 		.ascii	"buffer\000"
 711      657200
 712 0187 00       		.section	.rodata.vcom_device_descriptor_data,"a",%progbits
 713              		.align	2
 714              		.type	vcom_device_descriptor_data, %object
 715              		.size	vcom_device_descriptor_data, 18
 716              	vcom_device_descriptor_data:
 717 0000 12       		.byte	18
 718 0001 01       		.byte	1
 719 0002 10       		.byte	16
 720 0003 01       		.byte	1
 721 0004 02       		.byte	2
 722 0005 00       		.byte	0
 723 0006 00       		.byte	0
 724 0007 40       		.byte	64
 725 0008 83       		.byte	-125
 726 0009 04       		.byte	4
 727 000a 40       		.byte	64
 728 000b 57       		.byte	87
 729 000c 00       		.byte	0
 730 000d 02       		.byte	2
 731 000e 01       		.byte	1
 732 000f 02       		.byte	2
 733 0010 03       		.byte	3
 734 0011 01       		.byte	1
 735 0012 0000     		.section	.rodata.ep3config,"a",%progbits
 736              		.align	2
 737              		.set	.LANCHOR6,. + 0
ARM GAS  C:\Users\z80\AppData\Local\Temp\ccbXQlbI.s 			page 15


 738              		.type	ep3config, %object
 739              		.size	ep3config, 28
 740              	ep3config:
 741 0000 12000000 		.word	18
 742 0004 00000000 		.word	0
 743 0008 00000000 		.word	0
 744 000c 00000000 		.word	sduDataReceived
 745 0010 0000     		.short	0
 746 0012 4000     		.short	64
 747 0014 00000000 		.word	0
 748 0018 00000000 		.word	0
 749              		.section	.rodata.shell_cfg1,"a",%progbits
 750              		.align	2
 751              		.set	.LANCHOR10,. + 0
 752              		.type	shell_cfg1, %object
 753              		.size	shell_cfg1, 8
 754              	shell_cfg1:
 755 0000 00000000 		.word	SDU1
 756 0004 00000000 		.word	commands
 757              		.section	.rodata.vcom_string0,"a",%progbits
 758              		.align	2
 759              		.type	vcom_string0, %object
 760              		.size	vcom_string0, 4
 761              	vcom_string0:
 762 0000 04       		.byte	4
 763 0001 03       		.byte	3
 764 0002 09       		.byte	9
 765 0003 04       		.byte	4
 766              		.section	.rodata.vcom_string1,"a",%progbits
 767              		.align	2
 768              		.type	vcom_string1, %object
 769              		.size	vcom_string1, 38
 770              	vcom_string1:
 771 0000 26       		.byte	38
 772 0001 03       		.byte	3
 773 0002 53       		.byte	83
 774 0003 00       		.byte	0
 775 0004 54       		.byte	84
 776 0005 00       		.byte	0
 777 0006 4D       		.byte	77
 778 0007 00       		.byte	0
 779 0008 69       		.byte	105
 780 0009 00       		.byte	0
 781 000a 63       		.byte	99
 782 000b 00       		.byte	0
 783 000c 72       		.byte	114
 784 000d 00       		.byte	0
 785 000e 6F       		.byte	111
 786 000f 00       		.byte	0
 787 0010 65       		.byte	101
 788 0011 00       		.byte	0
 789 0012 6C       		.byte	108
 790 0013 00       		.byte	0
 791 0014 65       		.byte	101
 792 0015 00       		.byte	0
 793 0016 63       		.byte	99
 794 0017 00       		.byte	0
ARM GAS  C:\Users\z80\AppData\Local\Temp\ccbXQlbI.s 			page 16


 795 0018 74       		.byte	116
 796 0019 00       		.byte	0
 797 001a 72       		.byte	114
 798 001b 00       		.byte	0
 799 001c 6F       		.byte	111
 800 001d 00       		.byte	0
 801 001e 6E       		.byte	110
 802 001f 00       		.byte	0
 803 0020 69       		.byte	105
 804 0021 00       		.byte	0
 805 0022 63       		.byte	99
 806 0023 00       		.byte	0
 807 0024 73       		.byte	115
 808 0025 00       		.byte	0
 809 0026 0000     		.section	.rodata.vcom_string2,"a",%progbits
 810              		.align	2
 811              		.type	vcom_string2, %object
 812              		.size	vcom_string2, 56
 813              	vcom_string2:
 814 0000 38       		.byte	56
 815 0001 03       		.byte	3
 816 0002 43       		.byte	67
 817 0003 00       		.byte	0
 818 0004 68       		.byte	104
 819 0005 00       		.byte	0
 820 0006 69       		.byte	105
 821 0007 00       		.byte	0
 822 0008 62       		.byte	98
 823 0009 00       		.byte	0
 824 000a 69       		.byte	105
 825 000b 00       		.byte	0
 826 000c 4F       		.byte	79
 827 000d 00       		.byte	0
 828 000e 53       		.byte	83
 829 000f 00       		.byte	0
 830 0010 2F       		.byte	47
 831 0011 00       		.byte	0
 832 0012 52       		.byte	82
 833 0013 00       		.byte	0
 834 0014 54       		.byte	84
 835 0015 00       		.byte	0
 836 0016 20       		.byte	32
 837 0017 00       		.byte	0
 838 0018 56       		.byte	86
 839 0019 00       		.byte	0
 840 001a 69       		.byte	105
 841 001b 00       		.byte	0
 842 001c 72       		.byte	114
 843 001d 00       		.byte	0
 844 001e 74       		.byte	116
 845 001f 00       		.byte	0
 846 0020 75       		.byte	117
 847 0021 00       		.byte	0
 848 0022 61       		.byte	97
 849 0023 00       		.byte	0
 850 0024 6C       		.byte	108
 851 0025 00       		.byte	0
ARM GAS  C:\Users\z80\AppData\Local\Temp\ccbXQlbI.s 			page 17


 852 0026 20       		.byte	32
 853 0027 00       		.byte	0
 854 0028 43       		.byte	67
 855 0029 00       		.byte	0
 856 002a 4F       		.byte	79
 857 002b 00       		.byte	0
 858 002c 4D       		.byte	77
 859 002d 00       		.byte	0
 860 002e 20       		.byte	32
 861 002f 00       		.byte	0
 862 0030 50       		.byte	80
 863 0031 00       		.byte	0
 864 0032 6F       		.byte	111
 865 0033 00       		.byte	0
 866 0034 72       		.byte	114
 867 0035 00       		.byte	0
 868 0036 74       		.byte	116
 869 0037 00       		.byte	0
 870              		.section	.rodata.vcom_string3,"a",%progbits
 871              		.align	2
 872              		.type	vcom_string3, %object
 873              		.size	vcom_string3, 8
 874              	vcom_string3:
 875 0000 08       		.byte	8
 876 0001 03       		.byte	3
 877 0002 32       		.byte	50
 878 0003 00       		.byte	0
 879 0004 34       		.byte	52
 880 0005 00       		.byte	0
 881 0006 33       		.byte	51
 882 0007 00       		.byte	0
 883              		.section	.bss.shelltp,"aw",%nobits
 884              		.align	2
 885              		.set	.LANCHOR9,. + 0
 886              		.type	shelltp, %object
 887              		.size	shelltp, 4
 888              	shelltp:
 889 0000 00000000 		.space	4
 890              		.section	.rodata.vcom_strings,"a",%progbits
 891              		.align	2
 892              		.set	.LANCHOR2,. + 0
 893              		.type	vcom_strings, %object
 894              		.size	vcom_strings, 32
 895              	vcom_strings:
 896 0000 04000000 		.word	4
 897 0004 00000000 		.word	vcom_string0
 898 0008 26000000 		.word	38
 899 000c 00000000 		.word	vcom_string1
 900 0010 38000000 		.word	56
 901 0014 00000000 		.word	vcom_string2
 902 0018 08000000 		.word	8
 903 001c 00000000 		.word	vcom_string3
 904              		.section	.rodata.serusbcfg,"a",%progbits
 905              		.align	2
 906              		.set	.LANCHOR8,. + 0
 907              		.type	serusbcfg, %object
 908              		.size	serusbcfg, 20
ARM GAS  C:\Users\z80\AppData\Local\Temp\ccbXQlbI.s 			page 18


 909              	serusbcfg:
 910 0000 00000000 		.word	USBD1
 911 0004 00000000 		.word	usb_event
 912 0008 00000000 		.word	get_descriptor
 913 000c 00000000 		.word	sduRequestsHook
 914 0010 00000000 		.word	0
 915              		.section	.rodata.vcom_device_descriptor,"a",%progbits
 916              		.align	2
 917              		.set	.LANCHOR0,. + 0
 918              		.type	vcom_device_descriptor, %object
 919              		.size	vcom_device_descriptor, 8
 920              	vcom_device_descriptor:
 921 0000 12000000 		.word	18
 922 0004 00000000 		.word	vcom_device_descriptor_data
 923              		.text
 924              	.Letext0: