ARM GAS  C:\Users\z80\AppData\Local\Temp\cckpho1g.s 			page 1


   1              		.syntax unified
   2              		.cpu cortex-m3
   3              		.fpu softvfp
   4              		.eabi_attribute 20, 1
   5              		.eabi_attribute 21, 1
   6              		.eabi_attribute 23, 3
   7              		.eabi_attribute 24, 1
   8              		.eabi_attribute 25, 1
   9              		.eabi_attribute 26, 1
  10              		.eabi_attribute 30, 2
  11              		.eabi_attribute 18, 4
  12              		.thumb
  13              		.file	"write_ctrl.c"
  20 0000 7F020000 		.text
  20      0200C401 
  20      00000201 
  20      FB0E0D00 
  20      01010101 
  21              	.Ltext0:
  22              		.cfi_sections	.debug_frame
  23              		.section	.text.writeThread,"ax",%progbits
  24              		.align	2
  25              		.p2align 4,,15
  26              		.thumb
  27              		.thumb_func
  28              		.type	writeThread, %function
  29              	writeThread:
  30              	.LFB64:
  31              		.file 1 "./src/write_ctrl.c"
  32              		.loc 1 59 0
  33              		.cfi_startproc
  34              		@ args = 0, pretend = 0, frame = 8
  35              		@ frame_needed = 0, uses_anonymous_args = 0
  36              	.LVL0:
  37 0000 2DE9F04F 		push	{r4, r5, r6, r7, r8, r9, sl, fp, lr}
  38              	.LCFI0:
  39              		.cfi_def_cfa_offset 36
  40              		.loc 1 61 0
  41 0004 484B     		ldr	r3, .L43
  42 0006 4949     		ldr	r1, .L43+4
  43 0008 DA69     		ldr	r2, [r3, #28]
  44              	.LBB24:
  45              	.LBB26:
  46              		.loc 1 29 0
  47 000a 4FF40065 		mov	r5, #2048
  48              		.cfi_offset 14, -4
  49              		.cfi_offset 11, -8
  50              		.cfi_offset 10, -12
  51              		.cfi_offset 9, -16
  52              		.cfi_offset 8, -20
  53              		.cfi_offset 7, -24
ARM GAS  C:\Users\z80\AppData\Local\Temp\cckpho1g.s 			page 2


  54              		.cfi_offset 6, -28
  55              		.cfi_offset 5, -32
  56              		.cfi_offset 4, -36
  57 000e 484B     		ldr	r3, .L43+8
  58 0010 DFF82081 		ldr	r8, .L43+12
  59 0014 484C     		ldr	r4, .L43+16
  60 0016 DFF824B1 		ldr	fp, .L43+20
  61 001a DFF82491 		ldr	r9, .L43+24
  62              	.LBE26:
  63              	.LBE24:
  64              		.loc 1 59 0
  65 001e 83B0     		sub	sp, sp, #12
  66              	.LCFI1:
  67              		.cfi_def_cfa_offset 48
  68              		.loc 1 61 0
  69 0020 9161     		str	r1, [r2, #24]
  70              	.LBB40:
  71              	.LBB25:
  72              		.loc 1 29 0
  73 0022 C4F20105 		movt	r5, 16385
  74              		.loc 1 36 0
  75 0026 4FF0004A 		mov	sl, #-2147483648
  76              		.loc 1 39 0
  77 002a 2026     		movs	r6, #32
  78              		.loc 1 44 0
  79 002c 8027     		movs	r7, #128
  80              	.LVL1:
  81              	.L32:
  82              	.LBE25:
  83              	.LBE40:
  84              		.loc 1 64 0 discriminator 1
  85 002e 0120     		movs	r0, #1
  86 0030 0193     		str	r3, [sp, #4]
  87 0032 FFF7FEFF 		bl	chThdSleep
  88              	.LBB41:
  89              	.LBB39:
  90              		.loc 1 21 0 discriminator 1
  91 0036 4348     		ldr	r0, .L43+28
  92 0038 FFF7FEFF 		bl	chMtxLock
  93              		.loc 1 22 0 discriminator 1
  94 003c 40F20001 		movw	r1, #:lower16:.LANCHOR2
  95 0040 C0F20001 		movt	r1, #:upper16:.LANCHOR2
  96 0044 0A68     		ldr	r2, [r1, #0]
  97 0046 C8F80020 		str	r2, [r8, #0]
  98              		.loc 1 23 0 discriminator 1
  99 004a FFF7FEFF 		bl	chMtxUnlock
 100              		.loc 1 24 0 discriminator 1
 101 004e 019B     		ldr	r3, [sp, #4]
 102 0050 D8F800C0 		ldr	ip, [r8, #0]
 103 0054 1A68     		ldr	r2, [r3, #0]
 104 0056 9445     		cmp	ip, r2
 105 0058 E9D0     		beq	.L32
 106              		.loc 1 27 0
 107 005a 40F20002 		movw	r2, #:lower16:.LANCHOR3
 108 005e C0F20002 		movt	r2, #:upper16:.LANCHOR3
 109              		.loc 1 29 0
 110 0062 2021     		movs	r1, #32
ARM GAS  C:\Users\z80\AppData\Local\Temp\cckpho1g.s 			page 3


 111              		.loc 1 27 0
 112 0064 C2F800C0 		str	ip, [r2, #0]
 113              		.loc 1 29 0
 114 0068 6961     		str	r1, [r5, #20]
 115              	.LBB27:
 116              	.LBB28:
 117              		.loc 1 14 0
 118 006a 0022     		movs	r2, #0
 119 006c 03E0     		b	.L33
 120              	.L38:
 121              		.loc 1 15 0
 122              	@ 15 "./src/write_ctrl.c" 1
 123 006e 00BF     		nop;
 124              	@ 0 "" 2
 125              		.loc 1 14 0
 126              		.thumb
 127 0070 2288     		ldrh	r2, [r4, #0]
 128 0072 0132     		adds	r2, r2, #1
 129 0074 92B2     		uxth	r2, r2
 130              	.L33:
 131 0076 2280     		strh	r2, [r4, #0]	@ movhi
 132 0078 2288     		ldrh	r2, [r4, #0]
 133 007a 92B2     		uxth	r2, r2
 134 007c 1F2A     		cmp	r2, #31
 135 007e F6D9     		bls	.L38
 136              	.LBE28:
 137              	.LBE27:
 138              		.loc 1 32 0
 139 0080 4022     		movs	r2, #64
 140              	.LBB29:
 141              	.LBB30:
 142              		.loc 1 14 0
 143 0082 0021     		movs	r1, #0
 144              	.LBE30:
 145              	.LBE29:
 146              		.loc 1 32 0
 147 0084 2A61     		str	r2, [r5, #16]
 148              	.LBB32:
 149              	.LBB31:
 150              		.loc 1 14 0
 151 0086 2180     		strh	r1, [r4, #0]	@ movhi
 152 0088 2288     		ldrh	r2, [r4, #0]
 153 008a 92B2     		uxth	r2, r2
 154 008c 1F2A     		cmp	r2, #31
 155 008e 08D8     		bhi	.L6
 156              	.L23:
 157              		.loc 1 15 0
 158              	@ 15 "./src/write_ctrl.c" 1
 159 0090 00BF     		nop;
 160              	@ 0 "" 2
 161              		.loc 1 14 0
 162              		.thumb
 163 0092 2288     		ldrh	r2, [r4, #0]
 164 0094 0132     		adds	r2, r2, #1
 165 0096 92B2     		uxth	r2, r2
 166 0098 2280     		strh	r2, [r4, #0]	@ movhi
 167 009a 2288     		ldrh	r2, [r4, #0]
ARM GAS  C:\Users\z80\AppData\Local\Temp\cckpho1g.s 			page 4


 168 009c 92B2     		uxth	r2, r2
 169 009e 1F2A     		cmp	r2, #31
 170 00a0 F6D9     		bls	.L23
 171              	.L6:
 172              	.LBE31:
 173              	.LBE32:
 174              		.loc 1 37 0
 175 00a2 1F22     		movs	r2, #31
 176              		.loc 1 36 0
 177 00a4 CBF800A0 		str	sl, [fp, #0]
 178              		.loc 1 37 0
 179 00a8 A9F80020 		strh	r2, [r9, #0]	@ movhi
 180 00ac 2020     		movs	r0, #32
 181 00ae 5146     		mov	r1, sl
 182              	.L16:
 183              		.loc 1 39 0
 184 00b0 6E61     		str	r6, [r5, #20]
 185              	.LBB33:
 186              	.LBB34:
 187              		.loc 1 14 0
 188 00b2 0022     		movs	r2, #0
 189 00b4 03E0     		b	.L34
 190              	.L39:
 191              		.loc 1 15 0
 192              	@ 15 "./src/write_ctrl.c" 1
 193 00b6 00BF     		nop;
 194              	@ 0 "" 2
 195              		.loc 1 14 0
 196              		.thumb
 197 00b8 2288     		ldrh	r2, [r4, #0]
 198 00ba 0132     		adds	r2, r2, #1
 199 00bc 92B2     		uxth	r2, r2
 200              	.L34:
 201 00be 2280     		strh	r2, [r4, #0]	@ movhi
 202 00c0 2288     		ldrh	r2, [r4, #0]
 203 00c2 92B2     		uxth	r2, r2
 204 00c4 1F2A     		cmp	r2, #31
 205 00c6 F6D9     		bls	.L39
 206              	.LBE34:
 207              	.LBE33:
 208              		.loc 1 41 0
 209 00c8 11EA0C0F 		tst	r1, ip
 210              		.loc 1 42 0
 211 00cc 14BF     		ite	ne
 212 00ce 2F61     		strne	r7, [r5, #16]
 213              		.loc 1 44 0
 214 00d0 6F61     		streq	r7, [r5, #20]
 215              	.LBB35:
 216              	.LBB36:
 217              		.loc 1 14 0
 218 00d2 0022     		movs	r2, #0
 219 00d4 03E0     		b	.L35
 220              	.L40:
 221              		.loc 1 15 0
 222              	@ 15 "./src/write_ctrl.c" 1
 223 00d6 00BF     		nop;
 224              	@ 0 "" 2
ARM GAS  C:\Users\z80\AppData\Local\Temp\cckpho1g.s 			page 5


 225              		.loc 1 14 0
 226              		.thumb
 227 00d8 2288     		ldrh	r2, [r4, #0]
 228 00da 0132     		adds	r2, r2, #1
 229 00dc 92B2     		uxth	r2, r2
 230              	.L35:
 231 00de 2280     		strh	r2, [r4, #0]	@ movhi
 232 00e0 2288     		ldrh	r2, [r4, #0]
 233 00e2 92B2     		uxth	r2, r2
 234 00e4 1F2A     		cmp	r2, #31
 235 00e6 F6D9     		bls	.L40
 236              	.LBE36:
 237              	.LBE35:
 238              		.loc 1 46 0
 239 00e8 2E61     		str	r6, [r5, #16]
 240              	.LBB37:
 241              	.LBB38:
 242              		.loc 1 14 0
 243 00ea 0022     		movs	r2, #0
 244 00ec 03E0     		b	.L36
 245              	.L41:
 246              		.loc 1 15 0
 247              	@ 15 "./src/write_ctrl.c" 1
 248 00ee 00BF     		nop;
 249              	@ 0 "" 2
 250              		.loc 1 14 0
 251              		.thumb
 252 00f0 2288     		ldrh	r2, [r4, #0]
 253 00f2 0132     		adds	r2, r2, #1
 254 00f4 92B2     		uxth	r2, r2
 255              	.L36:
 256 00f6 2280     		strh	r2, [r4, #0]	@ movhi
 257 00f8 2288     		ldrh	r2, [r4, #0]
 258 00fa 92B2     		uxth	r2, r2
 259 00fc 1F2A     		cmp	r2, #31
 260 00fe F6D9     		bls	.L41
 261              	.LBE38:
 262              	.LBE37:
 263              		.loc 1 48 0
 264 0100 0138     		subs	r0, r0, #1
 265 0102 80B2     		uxth	r0, r0
 266 0104 4908     		lsrs	r1, r1, #1
 267              		.loc 1 37 0
 268 0106 0028     		cmp	r0, #0
 269 0108 D2D1     		bne	.L16
 270 010a CBF80010 		str	r1, [fp, #0]
 271 010e 4FF0FF31 		mov	r1, #-1	@ movhi
 272 0112 A9F80010 		strh	r1, [r9, #0]	@ movhi
 273              		.loc 1 51 0
 274 0116 BCF1000F 		cmp	ip, #0
 275 011a 02D0     		beq	.L42
 276              		.loc 1 54 0
 277 011c 1022     		movs	r2, #16
 278 011e 2A61     		str	r2, [r5, #16]
 279 0120 85E7     		b	.L32
 280              	.L42:
 281              		.loc 1 52 0
ARM GAS  C:\Users\z80\AppData\Local\Temp\cckpho1g.s 			page 6


 282 0122 1022     		movs	r2, #16
 283 0124 6A61     		str	r2, [r5, #20]
 284 0126 82E7     		b	.L32
 285              	.L44:
 286              		.align	2
 287              	.L43:
 288 0128 00000000 		.word	rlist
 289 012c 00000000 		.word	.LC0
 290 0130 00000000 		.word	.LANCHOR3
 291 0134 00000000 		.word	.LANCHOR1
 292 0138 00000000 		.word	.LANCHOR4
 293 013c 00000000 		.word	.LANCHOR5
 294 0140 00000000 		.word	.LANCHOR6
 295 0144 00000000 		.word	.LANCHOR0
 296              	.LBE39:
 297              	.LBE41:
 298              		.cfi_endproc
 299              	.LFE64:
 300              		.size	writeThread, .-writeThread
 301 0148 AFF30080 		.section	.text.initWrite,"ax",%progbits
 301      AFF30080 
 302              		.align	2
 303              		.p2align 4,,15
 304              		.global	initWrite
 305              		.thumb
 306              		.thumb_func
 307              		.type	initWrite, %function
 308              	initWrite:
 309              	.LFB65:
 310              		.loc 1 82 0
 311              		.cfi_startproc
 312              		@ args = 0, pretend = 0, frame = 0
 313              		@ frame_needed = 0, uses_anonymous_args = 0
 314 0000 F0B5     		push	{r4, r5, r6, r7, lr}
 315              	.LCFI2:
 316              		.cfi_def_cfa_offset 20
 317              		.loc 1 87 0
 318 0002 4FF40064 		mov	r4, #2048
 319              		.cfi_offset 14, -4
 320              		.cfi_offset 7, -8
 321              		.cfi_offset 6, -12
 322              		.cfi_offset 5, -16
 323              		.cfi_offset 4, -20
 324 0006 C4F20104 		movt	r4, 16385
 325              		.loc 1 88 0
 326 000a 4025     		movs	r5, #64
 327              		.loc 1 87 0
 328 000c 1021     		movs	r1, #16
 329              		.loc 1 89 0
 330 000e 2027     		movs	r7, #32
 331              		.loc 1 90 0
 332 0010 8026     		movs	r6, #128
 333              		.loc 1 82 0
 334 0012 83B0     		sub	sp, sp, #12
 335              	.LCFI3:
 336              		.cfi_def_cfa_offset 32
 337              		.loc 1 87 0
ARM GAS  C:\Users\z80\AppData\Local\Temp\cckpho1g.s 			page 7


 338 0014 6161     		str	r1, [r4, #20]
 339              		.loc 1 91 0
 340 0016 0622     		movs	r2, #6
 341              		.loc 1 88 0
 342 0018 2561     		str	r5, [r4, #16]
 343              		.loc 1 91 0
 344 001a 2046     		mov	r0, r4
 345              		.loc 1 89 0
 346 001c 2761     		str	r7, [r4, #16]
 347              		.loc 1 90 0
 348 001e 2661     		str	r6, [r4, #16]
 349              		.loc 1 91 0
 350 0020 FFF7FEFF 		bl	_pal_lld_setgroupmode
 351              		.loc 1 92 0
 352 0024 2046     		mov	r0, r4
 353 0026 2946     		mov	r1, r5
 354 0028 0622     		movs	r2, #6
 355 002a FFF7FEFF 		bl	_pal_lld_setgroupmode
 356              		.loc 1 93 0
 357 002e 2046     		mov	r0, r4
 358 0030 3946     		mov	r1, r7
 359 0032 0622     		movs	r2, #6
 360 0034 FFF7FEFF 		bl	_pal_lld_setgroupmode
 361              		.loc 1 94 0
 362 0038 3146     		mov	r1, r6
 363 003a 0622     		movs	r2, #6
 364 003c 2046     		mov	r0, r4
 365 003e FFF7FEFF 		bl	_pal_lld_setgroupmode
 366              		.loc 1 97 0
 367 0042 40F20000 		movw	r0, #:lower16:.LANCHOR0
 368 0046 C0F20000 		movt	r0, #:upper16:.LANCHOR0
 369 004a FFF7FEFF 		bl	chMtxInit
 370              		.loc 1 99 0
 371 004e 0022     		movs	r2, #0
 372 0050 40F20000 		movw	r0, #:lower16:.LANCHOR7
 373 0054 40F20003 		movw	r3, #:lower16:writeThread
 374 0058 0092     		str	r2, [sp, #0]
 375 005a C0F20003 		movt	r3, #:upper16:writeThread
 376 005e 4FF4D871 		mov	r1, #432
 377 0062 2A46     		mov	r2, r5
 378 0064 C0F20000 		movt	r0, #:upper16:.LANCHOR7
 379 0068 FFF7FEFF 		bl	chThdCreateStatic
 380              		.loc 1 100 0
 381 006c 03B0     		add	sp, sp, #12
 382 006e F0BD     		pop	{r4, r5, r6, r7, pc}
 383              		.cfi_endproc
 384              	.LFE65:
 385              		.size	initWrite, .-initWrite
 386              		.section	.text.write,"ax",%progbits
 387              		.align	2
 388              		.p2align 4,,15
 389              		.global	write
 390              		.thumb
 391              		.thumb_func
 392              		.type	write, %function
 393              	write:
 394              	.LFB66:
ARM GAS  C:\Users\z80\AppData\Local\Temp\cckpho1g.s 			page 8


 395              		.loc 1 103 0
 396              		.cfi_startproc
 397              		@ args = 0, pretend = 0, frame = 0
 398              		@ frame_needed = 0, uses_anonymous_args = 0
 399              	.LVL2:
 400              		.loc 1 104 0
 401 0000 40F20003 		movw	r3, #:lower16:.LANCHOR0
 402 0004 C0F20003 		movt	r3, #:upper16:.LANCHOR0
 403              		.loc 1 103 0
 404 0008 10B5     		push	{r4, lr}
 405              	.LCFI4:
 406              		.cfi_def_cfa_offset 8
 407              		.loc 1 103 0
 408 000a 0446     		mov	r4, r0
 409              		.cfi_offset 14, -4
 410              		.cfi_offset 4, -8
 411              		.loc 1 104 0
 412 000c 1846     		mov	r0, r3
 413              	.LVL3:
 414 000e FFF7FEFF 		bl	chMtxLock
 415              		.loc 1 105 0
 416 0012 40F20003 		movw	r3, #:lower16:.LANCHOR2
 417 0016 C0F20003 		movt	r3, #:upper16:.LANCHOR2
 418 001a 1C60     		str	r4, [r3, #0]
 419              		.loc 1 106 0
 420 001c FFF7FEFF 		bl	chMtxUnlock
 421              		.loc 1 107 0
 422 0020 10BD     		pop	{r4, pc}
 423              		.cfi_endproc
 424              	.LFE66:
 425              		.size	write, .-write
 426 0022 00BFAFF3 		.section	.bss.mutex,"aw",%nobits
 426      0080AFF3 
 426      0080AFF3 
 426      0080
 427              		.align	2
 428              		.set	.LANCHOR0,. + 0
 429              		.type	mutex, %object
 430              		.size	mutex, 16
 431              	mutex:
 432 0000 00000000 		.space	16
 432      00000000 
 432      00000000 
 432      00000000 
 433              		.section	.bss.waWrite,"aw",%nobits
 434              		.align	3
 435              		.set	.LANCHOR7,. + 0
 436              		.type	waWrite, %object
 437              		.size	waWrite, 432
 438              	waWrite:
 439 0000 00000000 		.space	432
 439      00000000 
 439      00000000 
 439      00000000 
 439      00000000 
 440              		.section	.bss.i.3502,"aw",%nobits
 441              		.align	1
ARM GAS  C:\Users\z80\AppData\Local\Temp\cckpho1g.s 			page 9


 442              		.set	.LANCHOR4,. + 0
 443              		.type	i.3502, %object
 444              		.size	i.3502, 2
 445              	i.3502:
 446 0000 0000     		.space	2
 447              		.section	.rodata.str1.4,"aMS",%progbits,1
 448              		.align	2
 449              	.LC0:
 450 0000 777200   		.ascii	"wr\000"
 451 0003 00       		.section	.bss.val.3509,"aw",%nobits
 452              		.align	2
 453              		.set	.LANCHOR1,. + 0
 454              		.type	val.3509, %object
 455              		.size	val.3509, 4
 456              	val.3509:
 457 0000 00000000 		.space	4
 458              		.section	.bss.i.3510,"aw",%nobits
 459              		.align	1
 460              		.set	.LANCHOR6,. + 0
 461              		.type	i.3510, %object
 462              		.size	i.3510, 2
 463              	i.3510:
 464 0000 0000     		.space	2
 465              		.section	.bss.curValue,"aw",%nobits
 466              		.align	2
 467              		.set	.LANCHOR3,. + 0
 468              		.type	curValue, %object
 469              		.size	curValue, 4
 470              	curValue:
 471 0000 00000000 		.space	4
 472              		.section	.bss.bitVal.3511,"aw",%nobits
 473              		.align	2
 474              		.set	.LANCHOR5,. + 0
 475              		.type	bitVal.3511, %object
 476              		.size	bitVal.3511, 4
 477              	bitVal.3511:
 478 0000 00000000 		.space	4
 479              		.section	.bss.pendValue,"aw",%nobits
 480              		.align	2
 481              		.set	.LANCHOR2,. + 0
 482              		.type	pendValue, %object
 483              		.size	pendValue, 4
 484              	pendValue:
 485 0000 00000000 		.space	4
 486              		.text
 487              	.Letext0: