ARM GAS  C:\Users\z80\AppData\Local\Temp\cckpho1g.s 			page 1


   1              		.syntax unified
   2              		.cpu cortex-m3
   3              		.fpu softvfp
   4              		.eabi_attribute 20, 1
   5              		.eabi_attribute 21, 1
   6              		.eabi_attribute 23, 3
   7              		.eabi_attribute 24, 1
   8              		.eabi_attribute 25, 1
   9              		.eabi_attribute 26, 1
  10              		.eabi_attribute 30, 2
  11              		.eabi_attribute 18, 4
  12              		.thumb
  13              		.file	"write_ctrl.c"
  14              		.section	.debug_abbrev,"",%progbits
  15              	.Ldebug_abbrev0:
  16              		.section	.debug_info,"",%progbits
  17              	.Ldebug_info0:
  18              		.section	.debug_line,"",%progbits
  19              	.Ldebug_line0:
  20 0000 7F020000 		.text
  20      0200C401 
  20      00000201 
  20      FB0E0D00 
  20      01010101 
  21              	.Ltext0:
  22              		.cfi_sections	.debug_frame
  23              		.section	.text.writeThread,"ax",%progbits
  24              		.align	2
  25              		.p2align 4,,15
  26              		.thumb
  27              		.thumb_func
  28              		.type	writeThread, %function
  29              	writeThread:
  30              	.LFB64:
  31              		.file 1 "./src/write_ctrl.c"
  32              		.loc 1 59 0
  33              		.cfi_startproc
  34              		@ args = 0, pretend = 0, frame = 8
  35              		@ frame_needed = 0, uses_anonymous_args = 0
  36              	.LVL0:
  37 0000 2DE9F04F 		push	{r4, r5, r6, r7, r8, r9, sl, fp, lr}
  38              	.LCFI0:
  39              		.cfi_def_cfa_offset 36
  40              		.loc 1 61 0
  41 0004 484B     		ldr	r3, .L43
  42 0006 4949     		ldr	r1, .L43+4
  43 0008 DA69     		ldr	r2, [r3, #28]
  44              	.LBB24:
  45              	.LBB26:
  46              		.loc 1 29 0
  47 000a 4FF40065 		mov	r5, #2048
  48              		.cfi_offset 14, -4
  49              		.cfi_offset 11, -8
  50              		.cfi_offset 10, -12
  51              		.cfi_offset 9, -16
  52              		.cfi_offset 8, -20
  53              		.cfi_offset 7, -24
ARM GAS  C:\Users\z80\AppData\Local\Temp\cckpho1g.s 			page 2


  54              		.cfi_offset 6, -28
  55              		.cfi_offset 5, -32
  56              		.cfi_offset 4, -36
  57 000e 484B     		ldr	r3, .L43+8
  58 0010 DFF82081 		ldr	r8, .L43+12
  59 0014 484C     		ldr	r4, .L43+16
  60 0016 DFF824B1 		ldr	fp, .L43+20
  61 001a DFF82491 		ldr	r9, .L43+24
  62              	.LBE26:
  63              	.LBE24:
  64              		.loc 1 59 0
  65 001e 83B0     		sub	sp, sp, #12
  66              	.LCFI1:
  67              		.cfi_def_cfa_offset 48
  68              		.loc 1 61 0
  69 0020 9161     		str	r1, [r2, #24]
  70              	.LBB40:
  71              	.LBB25:
  72              		.loc 1 29 0
  73 0022 C4F20105 		movt	r5, 16385
  74              		.loc 1 36 0
  75 0026 4FF0004A 		mov	sl, #-2147483648
  76              		.loc 1 39 0
  77 002a 2026     		movs	r6, #32
  78              		.loc 1 44 0
  79 002c 8027     		movs	r7, #128
  80              	.LVL1:
  81              	.L32:
  82              	.LBE25:
  83              	.LBE40:
  84              		.loc 1 64 0 discriminator 1
  85 002e 0120     		movs	r0, #1
  86 0030 0193     		str	r3, [sp, #4]
  87 0032 FFF7FEFF 		bl	chThdSleep
  88              	.LBB41:
  89              	.LBB39:
  90              		.loc 1 21 0 discriminator 1
  91 0036 4348     		ldr	r0, .L43+28
  92 0038 FFF7FEFF 		bl	chMtxLock
  93              		.loc 1 22 0 discriminator 1
  94 003c 40F20001 		movw	r1, #:lower16:.LANCHOR2
  95 0040 C0F20001 		movt	r1, #:upper16:.LANCHOR2
  96 0044 0A68     		ldr	r2, [r1, #0]
  97 0046 C8F80020 		str	r2, [r8, #0]
  98              		.loc 1 23 0 discriminator 1
  99 004a FFF7FEFF 		bl	chMtxUnlock
 100              		.loc 1 24 0 discriminator 1
 101 004e 019B     		ldr	r3, [sp, #4]
 102 0050 D8F800C0 		ldr	ip, [r8, #0]
 103 0054 1A68     		ldr	r2, [r3, #0]
 104 0056 9445     		cmp	ip, r2
 105 0058 E9D0     		beq	.L32
 106              		.loc 1 27 0
 107 005a 40F20002 		movw	r2, #:lower16:.LANCHOR3
 108 005e C0F20002 		movt	r2, #:upper16:.LANCHOR3
 109              		.loc 1 29 0
 110 0062 2021     		movs	r1, #32
ARM GAS  C:\Users\z80\AppData\Local\Temp\cckpho1g.s 			page 3


 111              		.loc 1 27 0
 112 0064 C2F800C0 		str	ip, [r2, #0]
 113              		.loc 1 29 0
 114 0068 6961     		str	r1, [r5, #20]
 115              	.LBB27:
 116              	.LBB28:
 117              		.loc 1 14 0
 118 006a 0022     		movs	r2, #0
 119 006c 03E0     		b	.L33
 120              	.L38:
 121              		.loc 1 15 0
 122              	@ 15 "./src/write_ctrl.c" 1
 123 006e 00BF     		nop;
 124              	@ 0 "" 2
 125              		.loc 1 14 0
 126              		.thumb
 127 0070 2288     		ldrh	r2, [r4, #0]
 128 0072 0132     		adds	r2, r2, #1
 129 0074 92B2     		uxth	r2, r2
 130              	.L33:
 131 0076 2280     		strh	r2, [r4, #0]	@ movhi
 132 0078 2288     		ldrh	r2, [r4, #0]
 133 007a 92B2     		uxth	r2, r2
 134 007c 1F2A     		cmp	r2, #31
 135 007e F6D9     		bls	.L38
 136              	.LBE28:
 137              	.LBE27:
 138              		.loc 1 32 0
 139 0080 4022     		movs	r2, #64
 140              	.LBB29:
 141              	.LBB30:
 142              		.loc 1 14 0
 143 0082 0021     		movs	r1, #0
 144              	.LBE30:
 145              	.LBE29:
 146              		.loc 1 32 0
 147 0084 2A61     		str	r2, [r5, #16]
 148              	.LBB32:
 149              	.LBB31:
 150              		.loc 1 14 0
 151 0086 2180     		strh	r1, [r4, #0]	@ movhi
 152 0088 2288     		ldrh	r2, [r4, #0]
 153 008a 92B2     		uxth	r2, r2
 154 008c 1F2A     		cmp	r2, #31
 155 008e 08D8     		bhi	.L6
 156              	.L23:
 157              		.loc 1 15 0
 158              	@ 15 "./src/write_ctrl.c" 1
 159 0090 00BF     		nop;
 160              	@ 0 "" 2
 161              		.loc 1 14 0
 162              		.thumb
 163 0092 2288     		ldrh	r2, [r4, #0]
 164 0094 0132     		adds	r2, r2, #1
 165 0096 92B2     		uxth	r2, r2
 166 0098 2280     		strh	r2, [r4, #0]	@ movhi
 167 009a 2288     		ldrh	r2, [r4, #0]
ARM GAS  C:\Users\z80\AppData\Local\Temp\cckpho1g.s 			page 4


 168 009c 92B2     		uxth	r2, r2
 169 009e 1F2A     		cmp	r2, #31
 170 00a0 F6D9     		bls	.L23
 171              	.L6:
 172              	.LBE31:
 173              	.LBE32:
 174              		.loc 1 37 0
 175 00a2 1F22     		movs	r2, #31
 176              		.loc 1 36 0
 177 00a4 CBF800A0 		str	sl, [fp, #0]
 178              		.loc 1 37 0
 179 00a8 A9F80020 		strh	r2, [r9, #0]	@ movhi
 180 00ac 2020     		movs	r0, #32
 181 00ae 5146     		mov	r1, sl
 182              	.L16:
 183              		.loc 1 39 0
 184 00b0 6E61     		str	r6, [r5, #20]
 185              	.LBB33:
 186              	.LBB34:
 187              		.loc 1 14 0
 188 00b2 0022     		movs	r2, #0
 189 00b4 03E0     		b	.L34
 190              	.L39:
 191              		.loc 1 15 0
 192              	@ 15 "./src/write_ctrl.c" 1
 193 00b6 00BF     		nop;
 194              	@ 0 "" 2
 195              		.loc 1 14 0
 196              		.thumb
 197 00b8 2288     		ldrh	r2, [r4, #0]
 198 00ba 0132     		adds	r2, r2, #1
 199 00bc 92B2     		uxth	r2, r2
 200              	.L34:
 201 00be 2280     		strh	r2, [r4, #0]	@ movhi
 202 00c0 2288     		ldrh	r2, [r4, #0]
 203 00c2 92B2     		uxth	r2, r2
 204 00c4 1F2A     		cmp	r2, #31
 205 00c6 F6D9     		bls	.L39
 206              	.LBE34:
 207              	.LBE33:
 208              		.loc 1 41 0
 209 00c8 11EA0C0F 		tst	r1, ip
 210              		.loc 1 42 0
 211 00cc 14BF     		ite	ne
 212 00ce 2F61     		strne	r7, [r5, #16]
 213              		.loc 1 44 0
 214 00d0 6F61     		streq	r7, [r5, #20]
 215              	.LBB35:
 216              	.LBB36:
 217              		.loc 1 14 0
 218 00d2 0022     		movs	r2, #0
 219 00d4 03E0     		b	.L35
 220              	.L40:
 221              		.loc 1 15 0
 222              	@ 15 "./src/write_ctrl.c" 1
 223 00d6 00BF     		nop;
 224              	@ 0 "" 2
ARM GAS  C:\Users\z80\AppData\Local\Temp\cckpho1g.s 			page 5


 225              		.loc 1 14 0
 226              		.thumb
 227 00d8 2288     		ldrh	r2, [r4, #0]
 228 00da 0132     		adds	r2, r2, #1
 229 00dc 92B2     		uxth	r2, r2
 230              	.L35:
 231 00de 2280     		strh	r2, [r4, #0]	@ movhi
 232 00e0 2288     		ldrh	r2, [r4, #0]
 233 00e2 92B2     		uxth	r2, r2
 234 00e4 1F2A     		cmp	r2, #31
 235 00e6 F6D9     		bls	.L40
 236              	.LBE36:
 237              	.LBE35:
 238              		.loc 1 46 0
 239 00e8 2E61     		str	r6, [r5, #16]
 240              	.LBB37:
 241              	.LBB38:
 242              		.loc 1 14 0
 243 00ea 0022     		movs	r2, #0
 244 00ec 03E0     		b	.L36
 245              	.L41:
 246              		.loc 1 15 0
 247              	@ 15 "./src/write_ctrl.c" 1
 248 00ee 00BF     		nop;
 249              	@ 0 "" 2
 250              		.loc 1 14 0
 251              		.thumb
 252 00f0 2288     		ldrh	r2, [r4, #0]
 253 00f2 0132     		adds	r2, r2, #1
 254 00f4 92B2     		uxth	r2, r2
 255              	.L36:
 256 00f6 2280     		strh	r2, [r4, #0]	@ movhi
 257 00f8 2288     		ldrh	r2, [r4, #0]
 258 00fa 92B2     		uxth	r2, r2
 259 00fc 1F2A     		cmp	r2, #31
 260 00fe F6D9     		bls	.L41
 261              	.LBE38:
 262              	.LBE37:
 263              		.loc 1 48 0
 264 0100 0138     		subs	r0, r0, #1
 265 0102 80B2     		uxth	r0, r0
 266 0104 4908     		lsrs	r1, r1, #1
 267              		.loc 1 37 0
 268 0106 0028     		cmp	r0, #0
 269 0108 D2D1     		bne	.L16
 270 010a CBF80010 		str	r1, [fp, #0]
 271 010e 4FF0FF31 		mov	r1, #-1	@ movhi
 272 0112 A9F80010 		strh	r1, [r9, #0]	@ movhi
 273              		.loc 1 51 0
 274 0116 BCF1000F 		cmp	ip, #0
 275 011a 02D0     		beq	.L42
 276              		.loc 1 54 0
 277 011c 1022     		movs	r2, #16
 278 011e 2A61     		str	r2, [r5, #16]
 279 0120 85E7     		b	.L32
 280              	.L42:
 281              		.loc 1 52 0
ARM GAS  C:\Users\z80\AppData\Local\Temp\cckpho1g.s 			page 6


 282 0122 1022     		movs	r2, #16
 283 0124 6A61     		str	r2, [r5, #20]
 284 0126 82E7     		b	.L32
 285              	.L44:
 286              		.align	2
 287              	.L43:
 288 0128 00000000 		.word	rlist
 289 012c 00000000 		.word	.LC0
 290 0130 00000000 		.word	.LANCHOR3
 291 0134 00000000 		.word	.LANCHOR1
 292 0138 00000000 		.word	.LANCHOR4
 293 013c 00000000 		.word	.LANCHOR5
 294 0140 00000000 		.word	.LANCHOR6
 295 0144 00000000 		.word	.LANCHOR0
 296              	.LBE39:
 297              	.LBE41:
 298              		.cfi_endproc
 299              	.LFE64:
 300              		.size	writeThread, .-writeThread
 301 0148 AFF30080 		.section	.text.initWrite,"ax",%progbits
 301      AFF30080 
 302              		.align	2
 303              		.p2align 4,,15
 304              		.global	initWrite
 305              		.thumb
 306              		.thumb_func
 307              		.type	initWrite, %function
 308              	initWrite:
 309              	.LFB65:
 310              		.loc 1 82 0
 311              		.cfi_startproc
 312              		@ args = 0, pretend = 0, frame = 0
 313              		@ frame_needed = 0, uses_anonymous_args = 0
 314 0000 F0B5     		push	{r4, r5, r6, r7, lr}
 315              	.LCFI2:
 316              		.cfi_def_cfa_offset 20
 317              		.loc 1 87 0
 318 0002 4FF40064 		mov	r4, #2048
 319              		.cfi_offset 14, -4
 320              		.cfi_offset 7, -8
 321              		.cfi_offset 6, -12
 322              		.cfi_offset 5, -16
 323              		.cfi_offset 4, -20
 324 0006 C4F20104 		movt	r4, 16385
 325              		.loc 1 88 0
 326 000a 4025     		movs	r5, #64
 327              		.loc 1 87 0
 328 000c 1021     		movs	r1, #16
 329              		.loc 1 89 0
 330 000e 2027     		movs	r7, #32
 331              		.loc 1 90 0
 332 0010 8026     		movs	r6, #128
 333              		.loc 1 82 0
 334 0012 83B0     		sub	sp, sp, #12
 335              	.LCFI3:
 336              		.cfi_def_cfa_offset 32
 337              		.loc 1 87 0
ARM GAS  C:\Users\z80\AppData\Local\Temp\cckpho1g.s 			page 7


 338 0014 6161     		str	r1, [r4, #20]
 339              		.loc 1 91 0
 340 0016 0622     		movs	r2, #6
 341              		.loc 1 88 0
 342 0018 2561     		str	r5, [r4, #16]
 343              		.loc 1 91 0
 344 001a 2046     		mov	r0, r4
 345              		.loc 1 89 0
 346 001c 2761     		str	r7, [r4, #16]
 347              		.loc 1 90 0
 348 001e 2661     		str	r6, [r4, #16]
 349              		.loc 1 91 0
 350 0020 FFF7FEFF 		bl	_pal_lld_setgroupmode
 351              		.loc 1 92 0
 352 0024 2046     		mov	r0, r4
 353 0026 2946     		mov	r1, r5
 354 0028 0622     		movs	r2, #6
 355 002a FFF7FEFF 		bl	_pal_lld_setgroupmode
 356              		.loc 1 93 0
 357 002e 2046     		mov	r0, r4
 358 0030 3946     		mov	r1, r7
 359 0032 0622     		movs	r2, #6
 360 0034 FFF7FEFF 		bl	_pal_lld_setgroupmode
 361              		.loc 1 94 0
 362 0038 3146     		mov	r1, r6
 363 003a 0622     		movs	r2, #6
 364 003c 2046     		mov	r0, r4
 365 003e FFF7FEFF 		bl	_pal_lld_setgroupmode
 366              		.loc 1 97 0
 367 0042 40F20000 		movw	r0, #:lower16:.LANCHOR0
 368 0046 C0F20000 		movt	r0, #:upper16:.LANCHOR0
 369 004a FFF7FEFF 		bl	chMtxInit
 370              		.loc 1 99 0
 371 004e 0022     		movs	r2, #0
 372 0050 40F20000 		movw	r0, #:lower16:.LANCHOR7
 373 0054 40F20003 		movw	r3, #:lower16:writeThread
 374 0058 0092     		str	r2, [sp, #0]
 375 005a C0F20003 		movt	r3, #:upper16:writeThread
 376 005e 4FF4D871 		mov	r1, #432
 377 0062 2A46     		mov	r2, r5
 378 0064 C0F20000 		movt	r0, #:upper16:.LANCHOR7
 379 0068 FFF7FEFF 		bl	chThdCreateStatic
 380              		.loc 1 100 0
 381 006c 03B0     		add	sp, sp, #12
 382 006e F0BD     		pop	{r4, r5, r6, r7, pc}
 383              		.cfi_endproc
 384              	.LFE65:
 385              		.size	initWrite, .-initWrite
 386              		.section	.text.write,"ax",%progbits
 387              		.align	2
 388              		.p2align 4,,15
 389              		.global	write
 390              		.thumb
 391              		.thumb_func
 392              		.type	write, %function
 393              	write:
 394              	.LFB66:
ARM GAS  C:\Users\z80\AppData\Local\Temp\cckpho1g.s 			page 8


 395              		.loc 1 103 0
 396              		.cfi_startproc
 397              		@ args = 0, pretend = 0, frame = 0
 398              		@ frame_needed = 0, uses_anonymous_args = 0
 399              	.LVL2:
 400              		.loc 1 104 0
 401 0000 40F20003 		movw	r3, #:lower16:.LANCHOR0
 402 0004 C0F20003 		movt	r3, #:upper16:.LANCHOR0
 403              		.loc 1 103 0
 404 0008 10B5     		push	{r4, lr}
 405              	.LCFI4:
 406              		.cfi_def_cfa_offset 8
 407              		.loc 1 103 0
 408 000a 0446     		mov	r4, r0
 409              		.cfi_offset 14, -4
 410              		.cfi_offset 4, -8
 411              		.loc 1 104 0
 412 000c 1846     		mov	r0, r3
 413              	.LVL3:
 414 000e FFF7FEFF 		bl	chMtxLock
 415              		.loc 1 105 0
 416 0012 40F20003 		movw	r3, #:lower16:.LANCHOR2
 417 0016 C0F20003 		movt	r3, #:upper16:.LANCHOR2
 418 001a 1C60     		str	r4, [r3, #0]
 419              		.loc 1 106 0
 420 001c FFF7FEFF 		bl	chMtxUnlock
 421              		.loc 1 107 0
 422 0020 10BD     		pop	{r4, pc}
 423              		.cfi_endproc
 424              	.LFE66:
 425              		.size	write, .-write
 426 0022 00BFAFF3 		.section	.bss.mutex,"aw",%nobits
 426      0080AFF3 
 426      0080AFF3 
 426      0080
 427              		.align	2
 428              		.set	.LANCHOR0,. + 0
 429              		.type	mutex, %object
 430              		.size	mutex, 16
 431              	mutex:
 432 0000 00000000 		.space	16
 432      00000000 
 432      00000000 
 432      00000000 
 433              		.section	.bss.waWrite,"aw",%nobits
 434              		.align	3
 435              		.set	.LANCHOR7,. + 0
 436              		.type	waWrite, %object
 437              		.size	waWrite, 432
 438              	waWrite:
 439 0000 00000000 		.space	432
 439      00000000 
 439      00000000 
 439      00000000 
 439      00000000 
 440              		.section	.bss.i.3502,"aw",%nobits
 441              		.align	1
ARM GAS  C:\Users\z80\AppData\Local\Temp\cckpho1g.s 			page 9


 442              		.set	.LANCHOR4,. + 0
 443              		.type	i.3502, %object
 444              		.size	i.3502, 2
 445              	i.3502:
 446 0000 0000     		.space	2
 447              		.section	.rodata.str1.4,"aMS",%progbits,1
 448              		.align	2
 449              	.LC0:
 450 0000 777200   		.ascii	"wr\000"
 451 0003 00       		.section	.bss.val.3509,"aw",%nobits
 452              		.align	2
 453              		.set	.LANCHOR1,. + 0
 454              		.type	val.3509, %object
 455              		.size	val.3509, 4
 456              	val.3509:
 457 0000 00000000 		.space	4
 458              		.section	.bss.i.3510,"aw",%nobits
 459              		.align	1
 460              		.set	.LANCHOR6,. + 0
 461              		.type	i.3510, %object
 462              		.size	i.3510, 2
 463              	i.3510:
 464 0000 0000     		.space	2
 465              		.section	.bss.curValue,"aw",%nobits
 466              		.align	2
 467              		.set	.LANCHOR3,. + 0
 468              		.type	curValue, %object
 469              		.size	curValue, 4
 470              	curValue:
 471 0000 00000000 		.space	4
 472              		.section	.bss.bitVal.3511,"aw",%nobits
 473              		.align	2
 474              		.set	.LANCHOR5,. + 0
 475              		.type	bitVal.3511, %object
 476              		.size	bitVal.3511, 4
 477              	bitVal.3511:
 478 0000 00000000 		.space	4
 479              		.section	.bss.pendValue,"aw",%nobits
 480              		.align	2
 481              		.set	.LANCHOR2,. + 0
 482              		.type	pendValue, %object
 483              		.size	pendValue, 4
 484              	pendValue:
 485 0000 00000000 		.space	4
 486              		.text
 487              	.Letext0:
 488              		.section	.debug_loc,"",%progbits
 489              	.Ldebug_loc0:
 490              	.LLST0:
 491 0000 00000000 		.4byte	.LFB64
 492 0004 04000000 		.4byte	.LCFI0
 493 0008 0200     		.2byte	0x2
 494 000a 7D       		.byte	0x7d
 495 000b 00       		.sleb128 0
 496 000c 04000000 		.4byte	.LCFI0
 497 0010 20000000 		.4byte	.LCFI1
 498 0014 0200     		.2byte	0x2
ARM GAS  C:\Users\z80\AppData\Local\Temp\cckpho1g.s 			page 10


 499 0016 7D       		.byte	0x7d
 500 0017 24       		.sleb128 36
 501 0018 20000000 		.4byte	.LCFI1
 502 001c 48010000 		.4byte	.LFE64
 503 0020 0200     		.2byte	0x2
 504 0022 7D       		.byte	0x7d
 505 0023 30       		.sleb128 48
 506 0024 00000000 		.4byte	0x0
 507 0028 00000000 		.4byte	0x0
 508              	.LLST1:
 509 002c 00000000 		.4byte	.LVL0
 510 0030 2E000000 		.4byte	.LVL1
 511 0034 0100     		.2byte	0x1
 512 0036 50       		.byte	0x50
 513 0037 00000000 		.4byte	0x0
 514 003b 00000000 		.4byte	0x0
 515              	.LLST2:
 516 003f 00000000 		.4byte	.LFB65
 517 0043 02000000 		.4byte	.LCFI2
 518 0047 0200     		.2byte	0x2
 519 0049 7D       		.byte	0x7d
 520 004a 00       		.sleb128 0
 521 004b 02000000 		.4byte	.LCFI2
 522 004f 14000000 		.4byte	.LCFI3
 523 0053 0200     		.2byte	0x2
 524 0055 7D       		.byte	0x7d
 525 0056 14       		.sleb128 20
 526 0057 14000000 		.4byte	.LCFI3
 527 005b 70000000 		.4byte	.LFE65
 528 005f 0200     		.2byte	0x2
 529 0061 7D       		.byte	0x7d
 530 0062 20       		.sleb128 32
 531 0063 00000000 		.4byte	0x0
 532 0067 00000000 		.4byte	0x0
 533              	.LLST3:
 534 006b 00000000 		.4byte	.LFB66
 535 006f 0A000000 		.4byte	.LCFI4
 536 0073 0200     		.2byte	0x2
 537 0075 7D       		.byte	0x7d
 538 0076 00       		.sleb128 0
 539 0077 0A000000 		.4byte	.LCFI4
 540 007b 22000000 		.4byte	.LFE66
 541 007f 0200     		.2byte	0x2
 542 0081 7D       		.byte	0x7d
 543 0082 08       		.sleb128 8
 544 0083 00000000 		.4byte	0x0
 545 0087 00000000 		.4byte	0x0
 546              	.LLST4:
 547 008b 00000000 		.4byte	.LVL2
 548 008f 0E000000 		.4byte	.LVL3
 549 0093 0100     		.2byte	0x1
 550 0095 50       		.byte	0x50
 551 0096 0E000000 		.4byte	.LVL3
 552 009a 22000000 		.4byte	.LFE66
 553 009e 0100     		.2byte	0x1
 554 00a0 54       		.byte	0x54
 555 00a1 00000000 		.4byte	0x0
ARM GAS  C:\Users\z80\AppData\Local\Temp\cckpho1g.s 			page 11


 556 00a5 00000000 		.4byte	0x0
 557              		.file 2 "c:/programs/yagarto/lib/gcc/../../arm-none-eabi/sys-include/stdint.h"
 558              		.file 3 "../chibios_2.4.x/os/ports/GCC/ARMCMx/chtypes.h"
 559              		.file 4 "../chibios_2.4.x/os/kernel/include/chlists.h"
 560              		.file 5 "../chibios_2.4.x/os/kernel/include/chthreads.h"
 561              		.file 6 "../chibios_2.4.x/os/ports/GCC/ARMCMx/chcore_v7m.h"
 562              		.file 7 "../chibios_2.4.x/os/kernel/include/chschd.h"
 563              		.file 8 "../chibios_2.4.x/os/kernel/include/chmtx.h"
 564              		.file 9 "../chibios_2.4.x/os/hal/platforms/STM32F1xx/stm32f10x.h"
 565              		.file 10 "../chibios_2.4.x/os/hal/platforms/STM32/GPIOv1/pal_lld.h"
 566              		.file 11 "../chibios_2.4.x/os/ports/common/ARMCMx/CMSIS/include/core_cm3.h"
 567              		.section	.debug_info
 568 0000 3C070000 		.4byte	0x73c
 569 0004 0200     		.2byte	0x2
 570 0006 00000000 		.4byte	.Ldebug_abbrev0
 571 000a 04       		.byte	0x4
 572 000b 01       		.uleb128 0x1
 573 000c 82020000 		.4byte	.LASF79
 574 0010 01       		.byte	0x1
 575 0011 15000000 		.4byte	.LASF80
 576 0015 AE010000 		.4byte	.LASF81
 577 0019 00000000 		.4byte	0x0
 578 001d 00000000 		.4byte	0x0
 579 0021 70000000 		.4byte	.Ldebug_ranges0+0x70
 580 0025 00000000 		.4byte	.Ldebug_line0
 581 0029 02       		.uleb128 0x2
 582 002a 04       		.byte	0x4
 583 002b 05       		.byte	0x5
 584 002c 696E7400 		.ascii	"int\000"
 585 0030 03       		.uleb128 0x3
 586 0031 04       		.byte	0x4
 587 0032 07       		.byte	0x7
 588 0033 6F010000 		.4byte	.LASF0
 589 0037 03       		.uleb128 0x3
 590 0038 01       		.byte	0x1
 591 0039 06       		.byte	0x6
 592 003a 3B010000 		.4byte	.LASF1
 593 003e 04       		.uleb128 0x4
 594 003f AC000000 		.4byte	.LASF3
 595 0043 02       		.byte	0x2
 596 0044 2A       		.byte	0x2a
 597 0045 49000000 		.4byte	0x49
 598 0049 03       		.uleb128 0x3
 599 004a 01       		.byte	0x1
 600 004b 08       		.byte	0x8
 601 004c 26010000 		.4byte	.LASF2
 602 0050 04       		.uleb128 0x4
 603 0051 31020000 		.4byte	.LASF4
 604 0055 02       		.byte	0x2
 605 0056 35       		.byte	0x35
 606 0057 5B000000 		.4byte	0x5b
 607 005b 03       		.uleb128 0x3
 608 005c 02       		.byte	0x2
 609 005d 05       		.byte	0x5
 610 005e 49000000 		.4byte	.LASF5
 611 0062 04       		.uleb128 0x4
 612 0063 7C010000 		.4byte	.LASF6
ARM GAS  C:\Users\z80\AppData\Local\Temp\cckpho1g.s 			page 12


 613 0067 02       		.byte	0x2
 614 0068 36       		.byte	0x36
 615 0069 6D000000 		.4byte	0x6d
 616 006d 03       		.uleb128 0x3
 617 006e 02       		.byte	0x2
 618 006f 07       		.byte	0x7
 619 0070 16020000 		.4byte	.LASF7
 620 0074 04       		.uleb128 0x4
 621 0075 01020000 		.4byte	.LASF8
 622 0079 02       		.byte	0x2
 623 007a 4F       		.byte	0x4f
 624 007b 7F000000 		.4byte	0x7f
 625 007f 03       		.uleb128 0x3
 626 0080 04       		.byte	0x4
 627 0081 05       		.byte	0x5
 628 0082 F8000000 		.4byte	.LASF9
 629 0086 04       		.uleb128 0x4
 630 0087 66010000 		.4byte	.LASF10
 631 008b 02       		.byte	0x2
 632 008c 50       		.byte	0x50
 633 008d 91000000 		.4byte	0x91
 634 0091 03       		.uleb128 0x3
 635 0092 04       		.byte	0x4
 636 0093 07       		.byte	0x7
 637 0094 66020000 		.4byte	.LASF11
 638 0098 03       		.uleb128 0x3
 639 0099 08       		.byte	0x8
 640 009a 05       		.byte	0x5
 641 009b DD000000 		.4byte	.LASF12
 642 009f 04       		.uleb128 0x4
 643 00a0 34000000 		.4byte	.LASF13
 644 00a4 02       		.byte	0x2
 645 00a5 78       		.byte	0x78
 646 00a6 AA000000 		.4byte	0xaa
 647 00aa 03       		.uleb128 0x3
 648 00ab 08       		.byte	0x8
 649 00ac 07       		.byte	0x7
 650 00ad 4F010000 		.4byte	.LASF14
 651 00b1 04       		.uleb128 0x4
 652 00b2 CF000000 		.4byte	.LASF15
 653 00b6 03       		.byte	0x3
 654 00b7 2F       		.byte	0x2f
 655 00b8 3E000000 		.4byte	0x3e
 656 00bc 04       		.uleb128 0x4
 657 00bd B9020000 		.4byte	.LASF16
 658 00c1 03       		.byte	0x3
 659 00c2 30       		.byte	0x30
 660 00c3 3E000000 		.4byte	0x3e
 661 00c7 04       		.uleb128 0x4
 662 00c8 0D000000 		.4byte	.LASF17
 663 00cc 03       		.byte	0x3
 664 00cd 31       		.byte	0x31
 665 00ce 3E000000 		.4byte	0x3e
 666 00d2 04       		.uleb128 0x4
 667 00d3 EB000000 		.4byte	.LASF18
 668 00d7 03       		.byte	0x3
 669 00d8 32       		.byte	0x32
ARM GAS  C:\Users\z80\AppData\Local\Temp\cckpho1g.s 			page 13


 670 00d9 86000000 		.4byte	0x86
 671 00dd 04       		.uleb128 0x4
 672 00de 1F030000 		.4byte	.LASF19
 673 00e2 03       		.byte	0x3
 674 00e3 33       		.byte	0x33
 675 00e4 74000000 		.4byte	0x74
 676 00e8 04       		.uleb128 0x4
 677 00e9 28000000 		.4byte	.LASF20
 678 00ed 03       		.byte	0x3
 679 00ee 35       		.byte	0x35
 680 00ef 86000000 		.4byte	0x86
 681 00f3 04       		.uleb128 0x4
 682 00f4 E4010000 		.4byte	.LASF21
 683 00f8 03       		.byte	0x3
 684 00f9 36       		.byte	0x36
 685 00fa 86000000 		.4byte	0x86
 686 00fe 04       		.uleb128 0x4
 687 00ff 10020000 		.4byte	.LASF22
 688 0103 03       		.byte	0x3
 689 0104 37       		.byte	0x37
 690 0105 74000000 		.4byte	0x74
 691 0109 04       		.uleb128 0x4
 692 010a C8000000 		.4byte	.LASF23
 693 010e 04       		.byte	0x4
 694 010f 2A       		.byte	0x2a
 695 0110 14010000 		.4byte	0x114
 696 0114 05       		.uleb128 0x5
 697 0115 C8000000 		.4byte	.LASF23
 698 0119 4C       		.byte	0x4c
 699 011a 05       		.byte	0x5
 700 011b 5E       		.byte	0x5e
 701 011c 39020000 		.4byte	0x239
 702 0120 06       		.uleb128 0x6
 703 0121 95000000 		.4byte	.LASF24
 704 0125 05       		.byte	0x5
 705 0126 5F       		.byte	0x5f
 706 0127 5E020000 		.4byte	0x25e
 707 012b 02       		.byte	0x2
 708 012c 23       		.byte	0x23
 709 012d 00       		.uleb128 0x0
 710 012e 06       		.uleb128 0x6
 711 012f 70000000 		.4byte	.LASF25
 712 0133 05       		.byte	0x5
 713 0134 61       		.byte	0x61
 714 0135 5E020000 		.4byte	0x25e
 715 0139 02       		.byte	0x2
 716 013a 23       		.byte	0x23
 717 013b 04       		.uleb128 0x4
 718 013c 06       		.uleb128 0x6
 719 013d 8E000000 		.4byte	.LASF26
 720 0141 05       		.byte	0x5
 721 0142 63       		.byte	0x63
 722 0143 D2000000 		.4byte	0xd2
 723 0147 02       		.byte	0x2
 724 0148 23       		.byte	0x23
 725 0149 08       		.uleb128 0x8
 726 014a 06       		.uleb128 0x6
ARM GAS  C:\Users\z80\AppData\Local\Temp\cckpho1g.s 			page 14


 727 014b F8020000 		.4byte	.LASF27
 728 014f 05       		.byte	0x5
 729 0150 64       		.byte	0x64
 730 0151 36030000 		.4byte	0x336
 731 0155 02       		.byte	0x2
 732 0156 23       		.byte	0x23
 733 0157 0C       		.uleb128 0xc
 734 0158 06       		.uleb128 0x6
 735 0159 47010000 		.4byte	.LASF28
 736 015d 05       		.byte	0x5
 737 015e 66       		.byte	0x66
 738 015f 5E020000 		.4byte	0x25e
 739 0163 02       		.byte	0x2
 740 0164 23       		.byte	0x23
 741 0165 10       		.uleb128 0x10
 742 0166 06       		.uleb128 0x6
 743 0167 D6020000 		.4byte	.LASF29
 744 016b 05       		.byte	0x5
 745 016c 67       		.byte	0x67
 746 016d 5E020000 		.4byte	0x25e
 747 0171 02       		.byte	0x2
 748 0172 23       		.byte	0x23
 749 0173 14       		.uleb128 0x14
 750 0174 06       		.uleb128 0x6
 751 0175 FA010000 		.4byte	.LASF30
 752 0179 05       		.byte	0x5
 753 017a 6E       		.byte	0x6e
 754 017b 59040000 		.4byte	0x459
 755 017f 02       		.byte	0x2
 756 0180 23       		.byte	0x23
 757 0181 18       		.uleb128 0x18
 758 0182 06       		.uleb128 0x6
 759 0183 85010000 		.4byte	.LASF31
 760 0187 05       		.byte	0x5
 761 0188 74       		.byte	0x74
 762 0189 6B040000 		.4byte	0x46b
 763 018d 02       		.byte	0x2
 764 018e 23       		.byte	0x23
 765 018f 1C       		.uleb128 0x1c
 766 0190 06       		.uleb128 0x6
 767 0191 29020000 		.4byte	.LASF32
 768 0195 05       		.byte	0x5
 769 0196 79       		.byte	0x79
 770 0197 BC000000 		.4byte	0xbc
 771 019b 02       		.byte	0x2
 772 019c 23       		.byte	0x23
 773 019d 20       		.uleb128 0x20
 774 019e 06       		.uleb128 0x6
 775 019f A6010000 		.4byte	.LASF33
 776 01a3 05       		.byte	0x5
 777 01a4 7D       		.byte	0x7d
 778 01a5 B1000000 		.4byte	0xb1
 779 01a9 02       		.byte	0x2
 780 01aa 23       		.byte	0x23
 781 01ab 21       		.uleb128 0x21
 782 01ac 06       		.uleb128 0x6
 783 01ad E5020000 		.4byte	.LASF34
ARM GAS  C:\Users\z80\AppData\Local\Temp\cckpho1g.s 			page 15


 784 01b1 05       		.byte	0x5
 785 01b2 82       		.byte	0x82
 786 01b3 C7000000 		.4byte	0xc7
 787 01b7 02       		.byte	0x2
 788 01b8 23       		.byte	0x23
 789 01b9 22       		.uleb128 0x22
 790 01ba 06       		.uleb128 0x6
 791 01bb C1000000 		.4byte	.LASF35
 792 01bf 05       		.byte	0x5
 793 01c0 89       		.byte	0x89
 794 01c1 61030000 		.4byte	0x361
 795 01c5 02       		.byte	0x2
 796 01c6 23       		.byte	0x23
 797 01c7 24       		.uleb128 0x24
 798 01c8 07       		.uleb128 0x7
 799 01c9 705F7500 		.ascii	"p_u\000"
 800 01cd 05       		.byte	0x5
 801 01ce AE       		.byte	0xae
 802 01cf 24040000 		.4byte	0x424
 803 01d3 02       		.byte	0x2
 804 01d4 23       		.byte	0x23
 805 01d5 28       		.uleb128 0x28
 806 01d6 06       		.uleb128 0x6
 807 01d7 4B020000 		.4byte	.LASF36
 808 01db 05       		.byte	0x5
 809 01dc B3       		.byte	0xb3
 810 01dd 86020000 		.4byte	0x286
 811 01e1 02       		.byte	0x2
 812 01e2 23       		.byte	0x23
 813 01e3 2C       		.uleb128 0x2c
 814 01e4 06       		.uleb128 0x6
 815 01e5 83000000 		.4byte	.LASF37
 816 01e9 05       		.byte	0x5
 817 01ea B9       		.byte	0xb9
 818 01eb 64020000 		.4byte	0x264
 819 01ef 02       		.byte	0x2
 820 01f0 23       		.byte	0x23
 821 01f1 30       		.uleb128 0x30
 822 01f2 06       		.uleb128 0x6
 823 01f3 20010000 		.4byte	.LASF38
 824 01f7 05       		.byte	0x5
 825 01f8 BD       		.byte	0xbd
 826 01f9 DD000000 		.4byte	0xdd
 827 01fd 02       		.byte	0x2
 828 01fe 23       		.byte	0x23
 829 01ff 38       		.uleb128 0x38
 830 0200 06       		.uleb128 0x6
 831 0201 5B000000 		.4byte	.LASF39
 832 0205 05       		.byte	0x5
 833 0206 C3       		.byte	0xc3
 834 0207 E8000000 		.4byte	0xe8
 835 020b 02       		.byte	0x2
 836 020c 23       		.byte	0x23
 837 020d 3C       		.uleb128 0x3c
 838 020e 06       		.uleb128 0x6
 839 020f 55020000 		.4byte	.LASF40
 840 0213 05       		.byte	0x5
ARM GAS  C:\Users\z80\AppData\Local\Temp\cckpho1g.s 			page 16


 841 0214 CA       		.byte	0xca
 842 0215 71040000 		.4byte	0x471
 843 0219 02       		.byte	0x2
 844 021a 23       		.byte	0x23
 845 021b 40       		.uleb128 0x40
 846 021c 06       		.uleb128 0x6
 847 021d D9010000 		.4byte	.LASF41
 848 0221 05       		.byte	0x5
 849 0222 CE       		.byte	0xce
 850 0223 D2000000 		.4byte	0xd2
 851 0227 02       		.byte	0x2
 852 0228 23       		.byte	0x23
 853 0229 44       		.uleb128 0x44
 854 022a 06       		.uleb128 0x6
 855 022b 90010000 		.4byte	.LASF42
 856 022f 05       		.byte	0x5
 857 0230 D4       		.byte	0xd4
 858 0231 9C020000 		.4byte	0x29c
 859 0235 02       		.byte	0x2
 860 0236 23       		.byte	0x23
 861 0237 48       		.uleb128 0x48
 862 0238 00       		.byte	0x0
 863 0239 08       		.uleb128 0x8
 864 023a 08       		.byte	0x8
 865 023b 04       		.byte	0x4
 866 023c 61       		.byte	0x61
 867 023d 5E020000 		.4byte	0x25e
 868 0241 06       		.uleb128 0x6
 869 0242 95000000 		.4byte	.LASF24
 870 0246 04       		.byte	0x4
 871 0247 62       		.byte	0x62
 872 0248 5E020000 		.4byte	0x25e
 873 024c 02       		.byte	0x2
 874 024d 23       		.byte	0x23
 875 024e 00       		.uleb128 0x0
 876 024f 06       		.uleb128 0x6
 877 0250 70000000 		.4byte	.LASF25
 878 0254 04       		.byte	0x4
 879 0255 64       		.byte	0x64
 880 0256 5E020000 		.4byte	0x25e
 881 025a 02       		.byte	0x2
 882 025b 23       		.byte	0x23
 883 025c 04       		.uleb128 0x4
 884 025d 00       		.byte	0x0
 885 025e 09       		.uleb128 0x9
 886 025f 04       		.byte	0x4
 887 0260 09010000 		.4byte	0x109
 888 0264 04       		.uleb128 0x4
 889 0265 AC020000 		.4byte	.LASF43
 890 0269 04       		.byte	0x4
 891 026a 66       		.byte	0x66
 892 026b 39020000 		.4byte	0x239
 893 026f 08       		.uleb128 0x8
 894 0270 04       		.byte	0x4
 895 0271 04       		.byte	0x4
 896 0272 6B       		.byte	0x6b
 897 0273 86020000 		.4byte	0x286
ARM GAS  C:\Users\z80\AppData\Local\Temp\cckpho1g.s 			page 17


 898 0277 06       		.uleb128 0x6
 899 0278 95000000 		.4byte	.LASF24
 900 027c 04       		.byte	0x4
 901 027d 6D       		.byte	0x6d
 902 027e 5E020000 		.4byte	0x25e
 903 0282 02       		.byte	0x2
 904 0283 23       		.byte	0x23
 905 0284 00       		.uleb128 0x0
 906 0285 00       		.byte	0x0
 907 0286 04       		.uleb128 0x4
 908 0287 3D000000 		.4byte	.LASF44
 909 028b 04       		.byte	0x4
 910 028c 70       		.byte	0x70
 911 028d 6F020000 		.4byte	0x26f
 912 0291 04       		.uleb128 0x4
 913 0292 A3000000 		.4byte	.LASF45
 914 0296 06       		.byte	0x6
 915 0297 D7       		.byte	0xd7
 916 0298 9C020000 		.4byte	0x29c
 917 029c 0A       		.uleb128 0xa
 918 029d 04       		.byte	0x4
 919 029e 04       		.uleb128 0x4
 920 029f C2020000 		.4byte	.LASF46
 921 02a3 06       		.byte	0x6
 922 02a4 DD       		.byte	0xdd
 923 02a5 9F000000 		.4byte	0x9f
 924 02a9 05       		.uleb128 0x5
 925 02aa 5F020000 		.4byte	.LASF47
 926 02ae 24       		.byte	0x24
 927 02af 06       		.byte	0x6
 928 02b0 FE       		.byte	0xfe
 929 02b1 36030000 		.4byte	0x336
 930 02b5 0B       		.uleb128 0xb
 931 02b6 723400   		.ascii	"r4\000"
 932 02b9 06       		.byte	0x6
 933 02ba 1101     		.2byte	0x111
 934 02bc 91020000 		.4byte	0x291
 935 02c0 02       		.byte	0x2
 936 02c1 23       		.byte	0x23
 937 02c2 00       		.uleb128 0x0
 938 02c3 0B       		.uleb128 0xb
 939 02c4 723500   		.ascii	"r5\000"
 940 02c7 06       		.byte	0x6
 941 02c8 1201     		.2byte	0x112
 942 02ca 91020000 		.4byte	0x291
 943 02ce 02       		.byte	0x2
 944 02cf 23       		.byte	0x23
 945 02d0 04       		.uleb128 0x4
 946 02d1 0B       		.uleb128 0xb
 947 02d2 723600   		.ascii	"r6\000"
 948 02d5 06       		.byte	0x6
 949 02d6 1301     		.2byte	0x113
 950 02d8 91020000 		.4byte	0x291
 951 02dc 02       		.byte	0x2
 952 02dd 23       		.byte	0x23
 953 02de 08       		.uleb128 0x8
 954 02df 0B       		.uleb128 0xb
ARM GAS  C:\Users\z80\AppData\Local\Temp\cckpho1g.s 			page 18


 955 02e0 723700   		.ascii	"r7\000"
 956 02e3 06       		.byte	0x6
 957 02e4 1401     		.2byte	0x114
 958 02e6 91020000 		.4byte	0x291
 959 02ea 02       		.byte	0x2
 960 02eb 23       		.byte	0x23
 961 02ec 0C       		.uleb128 0xc
 962 02ed 0B       		.uleb128 0xb
 963 02ee 723800   		.ascii	"r8\000"
 964 02f1 06       		.byte	0x6
 965 02f2 1501     		.2byte	0x115
 966 02f4 91020000 		.4byte	0x291
 967 02f8 02       		.byte	0x2
 968 02f9 23       		.byte	0x23
 969 02fa 10       		.uleb128 0x10
 970 02fb 0B       		.uleb128 0xb
 971 02fc 723900   		.ascii	"r9\000"
 972 02ff 06       		.byte	0x6
 973 0300 1601     		.2byte	0x116
 974 0302 91020000 		.4byte	0x291
 975 0306 02       		.byte	0x2
 976 0307 23       		.byte	0x23
 977 0308 14       		.uleb128 0x14
 978 0309 0B       		.uleb128 0xb
 979 030a 72313000 		.ascii	"r10\000"
 980 030e 06       		.byte	0x6
 981 030f 1701     		.2byte	0x117
 982 0311 91020000 		.4byte	0x291
 983 0315 02       		.byte	0x2
 984 0316 23       		.byte	0x23
 985 0317 18       		.uleb128 0x18
 986 0318 0B       		.uleb128 0xb
 987 0319 72313100 		.ascii	"r11\000"
 988 031d 06       		.byte	0x6
 989 031e 1801     		.2byte	0x118
 990 0320 91020000 		.4byte	0x291
 991 0324 02       		.byte	0x2
 992 0325 23       		.byte	0x23
 993 0326 1C       		.uleb128 0x1c
 994 0327 0B       		.uleb128 0xb
 995 0328 6C7200   		.ascii	"lr\000"
 996 032b 06       		.byte	0x6
 997 032c 1901     		.2byte	0x119
 998 032e 91020000 		.4byte	0x291
 999 0332 02       		.byte	0x2
 1000 0333 23       		.byte	0x23
 1001 0334 20       		.uleb128 0x20
 1002 0335 00       		.byte	0x0
 1003 0336 0C       		.uleb128 0xc
 1004 0337 0E010000 		.4byte	.LASF48
 1005 033b 04       		.byte	0x4
 1006 033c 06       		.byte	0x6
 1007 033d 2301     		.2byte	0x123
 1008 033f 53030000 		.4byte	0x353
 1009 0343 0B       		.uleb128 0xb
 1010 0344 72313300 		.ascii	"r13\000"
 1011 0348 06       		.byte	0x6
ARM GAS  C:\Users\z80\AppData\Local\Temp\cckpho1g.s 			page 19


 1012 0349 2401     		.2byte	0x124
 1013 034b 53030000 		.4byte	0x353
 1014 034f 02       		.byte	0x2
 1015 0350 23       		.byte	0x23
 1016 0351 00       		.uleb128 0x0
 1017 0352 00       		.byte	0x0
 1018 0353 09       		.uleb128 0x9
 1019 0354 04       		.byte	0x4
 1020 0355 A9020000 		.4byte	0x2a9
 1021 0359 0D       		.uleb128 0xd
 1022 035a 86000000 		.4byte	0x86
 1023 035e 0E       		.uleb128 0xe
 1024 035f 04       		.byte	0x4
 1025 0360 07       		.byte	0x7
 1026 0361 0D       		.uleb128 0xd
 1027 0362 F3000000 		.4byte	0xf3
 1028 0366 08       		.uleb128 0x8
 1029 0367 20       		.byte	0x20
 1030 0368 07       		.byte	0x7
 1031 0369 5E       		.byte	0x5e
 1032 036a D1030000 		.4byte	0x3d1
 1033 036e 06       		.uleb128 0x6
 1034 036f 53000000 		.4byte	.LASF49
 1035 0373 07       		.byte	0x7
 1036 0374 5F       		.byte	0x5f
 1037 0375 64020000 		.4byte	0x264
 1038 0379 02       		.byte	0x2
 1039 037a 23       		.byte	0x23
 1040 037b 00       		.uleb128 0x0
 1041 037c 06       		.uleb128 0x6
 1042 037d 09020000 		.4byte	.LASF50
 1043 0381 07       		.byte	0x7
 1044 0382 60       		.byte	0x60
 1045 0383 D2000000 		.4byte	0xd2
 1046 0387 02       		.byte	0x2
 1047 0388 23       		.byte	0x23
 1048 0389 08       		.uleb128 0x8
 1049 038a 06       		.uleb128 0x6
 1050 038b 77000000 		.4byte	.LASF51
 1051 038f 07       		.byte	0x7
 1052 0390 62       		.byte	0x62
 1053 0391 36030000 		.4byte	0x336
 1054 0395 02       		.byte	0x2
 1055 0396 23       		.byte	0x23
 1056 0397 0C       		.uleb128 0xc
 1057 0398 06       		.uleb128 0x6
 1058 0399 9E010000 		.4byte	.LASF52
 1059 039d 07       		.byte	0x7
 1060 039e 65       		.byte	0x65
 1061 039f 5E020000 		.4byte	0x25e
 1062 03a3 02       		.byte	0x2
 1063 03a4 23       		.byte	0x23
 1064 03a5 10       		.uleb128 0x10
 1065 03a6 06       		.uleb128 0x6
 1066 03a7 25030000 		.4byte	.LASF53
 1067 03ab 07       		.byte	0x7
 1068 03ac 66       		.byte	0x66
ARM GAS  C:\Users\z80\AppData\Local\Temp\cckpho1g.s 			page 20


 1069 03ad 5E020000 		.4byte	0x25e
 1070 03b1 02       		.byte	0x2
 1071 03b2 23       		.byte	0x23
 1072 03b3 14       		.uleb128 0x14
 1073 03b4 06       		.uleb128 0x6
 1074 03b5 41020000 		.4byte	.LASF54
 1075 03b9 07       		.byte	0x7
 1076 03ba 6A       		.byte	0x6a
 1077 03bb FE000000 		.4byte	0xfe
 1078 03bf 02       		.byte	0x2
 1079 03c0 23       		.byte	0x23
 1080 03c1 18       		.uleb128 0x18
 1081 03c2 06       		.uleb128 0x6
 1082 03c3 16010000 		.4byte	.LASF55
 1083 03c7 07       		.byte	0x7
 1084 03c8 6C       		.byte	0x6c
 1085 03c9 5E020000 		.4byte	0x25e
 1086 03cd 02       		.byte	0x2
 1087 03ce 23       		.byte	0x23
 1088 03cf 1C       		.uleb128 0x1c
 1089 03d0 00       		.byte	0x0
 1090 03d1 04       		.uleb128 0x4
 1091 03d2 66000000 		.4byte	.LASF56
 1092 03d6 07       		.byte	0x7
 1093 03d7 6E       		.byte	0x6e
 1094 03d8 66030000 		.4byte	0x366
 1095 03dc 05       		.uleb128 0x5
 1096 03dd D7000000 		.4byte	.LASF57
 1097 03e1 10       		.byte	0x10
 1098 03e2 08       		.byte	0x8
 1099 03e3 2C       		.byte	0x2c
 1100 03e4 13040000 		.4byte	0x413
 1101 03e8 06       		.uleb128 0x6
 1102 03e9 06010000 		.4byte	.LASF58
 1103 03ed 08       		.byte	0x8
 1104 03ee 2D       		.byte	0x2d
 1105 03ef 64020000 		.4byte	0x264
 1106 03f3 02       		.byte	0x2
 1107 03f4 23       		.byte	0x23
 1108 03f5 00       		.uleb128 0x0
 1109 03f6 06       		.uleb128 0x6
 1110 03f7 0B030000 		.4byte	.LASF59
 1111 03fb 08       		.byte	0x8
 1112 03fc 2F       		.byte	0x2f
 1113 03fd 5E020000 		.4byte	0x25e
 1114 0401 02       		.byte	0x2
 1115 0402 23       		.byte	0x23
 1116 0403 08       		.uleb128 0x8
 1117 0404 06       		.uleb128 0x6
 1118 0405 9C000000 		.4byte	.LASF60
 1119 0409 08       		.byte	0x8
 1120 040a 31       		.byte	0x31
 1121 040b 13040000 		.4byte	0x413
 1122 040f 02       		.byte	0x2
 1123 0410 23       		.byte	0x23
 1124 0411 0C       		.uleb128 0xc
 1125 0412 00       		.byte	0x0
ARM GAS  C:\Users\z80\AppData\Local\Temp\cckpho1g.s 			page 21


 1126 0413 09       		.uleb128 0x9
 1127 0414 04       		.byte	0x4
 1128 0415 DC030000 		.4byte	0x3dc
 1129 0419 04       		.uleb128 0x4
 1130 041a D7000000 		.4byte	.LASF57
 1131 041e 08       		.byte	0x8
 1132 041f 33       		.byte	0x33
 1133 0420 DC030000 		.4byte	0x3dc
 1134 0424 0F       		.uleb128 0xf
 1135 0425 04       		.byte	0x4
 1136 0426 05       		.byte	0x5
 1137 0427 90       		.byte	0x90
 1138 0428 59040000 		.4byte	0x459
 1139 042c 10       		.uleb128 0x10
 1140 042d 18030000 		.4byte	.LASF61
 1141 0431 05       		.byte	0x5
 1142 0432 97       		.byte	0x97
 1143 0433 DD000000 		.4byte	0xdd
 1144 0437 10       		.uleb128 0x10
 1145 0438 CD020000 		.4byte	.LASF62
 1146 043c 05       		.byte	0x5
 1147 043d 9E       		.byte	0x9e
 1148 043e DD000000 		.4byte	0xdd
 1149 0442 10       		.uleb128 0x10
 1150 0443 A5020000 		.4byte	.LASF63
 1151 0447 05       		.byte	0x5
 1152 0448 A5       		.byte	0xa5
 1153 0449 9C020000 		.4byte	0x29c
 1154 044d 10       		.uleb128 0x10
 1155 044e 34010000 		.4byte	.LASF64
 1156 0452 05       		.byte	0x5
 1157 0453 AC       		.byte	0xac
 1158 0454 E8000000 		.4byte	0xe8
 1159 0458 00       		.byte	0x0
 1160 0459 09       		.uleb128 0x9
 1161 045a 04       		.byte	0x4
 1162 045b 5F040000 		.4byte	0x45f
 1163 045f 11       		.uleb128 0x11
 1164 0460 64040000 		.4byte	0x464
 1165 0464 03       		.uleb128 0x3
 1166 0465 01       		.byte	0x1
 1167 0466 08       		.byte	0x8
 1168 0467 F3000000 		.4byte	.LASF65
 1169 046b 09       		.uleb128 0x9
 1170 046c 04       		.byte	0x4
 1171 046d 9E020000 		.4byte	0x29e
 1172 0471 09       		.uleb128 0x9
 1173 0472 04       		.byte	0x4
 1174 0473 19040000 		.4byte	0x419
 1175 0477 0D       		.uleb128 0xd
 1176 0478 62000000 		.4byte	0x62
 1177 047c 0D       		.uleb128 0xd
 1178 047d 74000000 		.4byte	0x74
 1179 0481 12       		.uleb128 0x12
 1180 0482 1C       		.byte	0x1c
 1181 0483 09       		.byte	0x9
 1182 0484 F803     		.2byte	0x3f8
ARM GAS  C:\Users\z80\AppData\Local\Temp\cckpho1g.s 			page 22


 1183 0486 F4040000 		.4byte	0x4f4
 1184 048a 0B       		.uleb128 0xb
 1185 048b 43524C00 		.ascii	"CRL\000"
 1186 048f 09       		.byte	0x9
 1187 0490 FA03     		.2byte	0x3fa
 1188 0492 59030000 		.4byte	0x359
 1189 0496 02       		.byte	0x2
 1190 0497 23       		.byte	0x23
 1191 0498 00       		.uleb128 0x0
 1192 0499 0B       		.uleb128 0xb
 1193 049a 43524800 		.ascii	"CRH\000"
 1194 049e 09       		.byte	0x9
 1195 049f FB03     		.2byte	0x3fb
 1196 04a1 59030000 		.4byte	0x359
 1197 04a5 02       		.byte	0x2
 1198 04a6 23       		.byte	0x23
 1199 04a7 04       		.uleb128 0x4
 1200 04a8 0B       		.uleb128 0xb
 1201 04a9 49445200 		.ascii	"IDR\000"
 1202 04ad 09       		.byte	0x9
 1203 04ae FC03     		.2byte	0x3fc
 1204 04b0 59030000 		.4byte	0x359
 1205 04b4 02       		.byte	0x2
 1206 04b5 23       		.byte	0x23
 1207 04b6 08       		.uleb128 0x8
 1208 04b7 0B       		.uleb128 0xb
 1209 04b8 4F445200 		.ascii	"ODR\000"
 1210 04bc 09       		.byte	0x9
 1211 04bd FD03     		.2byte	0x3fd
 1212 04bf 59030000 		.4byte	0x359
 1213 04c3 02       		.byte	0x2
 1214 04c4 23       		.byte	0x23
 1215 04c5 0C       		.uleb128 0xc
 1216 04c6 13       		.uleb128 0x13
 1217 04c7 01010000 		.4byte	.LASF66
 1218 04cb 09       		.byte	0x9
 1219 04cc FE03     		.2byte	0x3fe
 1220 04ce 59030000 		.4byte	0x359
 1221 04d2 02       		.byte	0x2
 1222 04d3 23       		.byte	0x23
 1223 04d4 10       		.uleb128 0x10
 1224 04d5 0B       		.uleb128 0xb
 1225 04d6 42525200 		.ascii	"BRR\000"
 1226 04da 09       		.byte	0x9
 1227 04db FF03     		.2byte	0x3ff
 1228 04dd 59030000 		.4byte	0x359
 1229 04e1 02       		.byte	0x2
 1230 04e2 23       		.byte	0x23
 1231 04e3 14       		.uleb128 0x14
 1232 04e4 13       		.uleb128 0x13
 1233 04e5 13030000 		.4byte	.LASF67
 1234 04e9 09       		.byte	0x9
 1235 04ea 0004     		.2byte	0x400
 1236 04ec 59030000 		.4byte	0x359
 1237 04f0 02       		.byte	0x2
 1238 04f1 23       		.byte	0x23
 1239 04f2 18       		.uleb128 0x18
ARM GAS  C:\Users\z80\AppData\Local\Temp\cckpho1g.s 			page 23


 1240 04f3 00       		.byte	0x0
 1241 04f4 14       		.uleb128 0x14
 1242 04f5 00000000 		.4byte	.LASF68
 1243 04f9 09       		.byte	0x9
 1244 04fa 0104     		.2byte	0x401
 1245 04fc 81040000 		.4byte	0x481
 1246 0500 04       		.uleb128 0x4
 1247 0501 B4000000 		.4byte	.LASF69
 1248 0505 0A       		.byte	0xa
 1249 0506 78       		.byte	0x78
 1250 0507 86000000 		.4byte	0x86
 1251 050b 15       		.uleb128 0x15
 1252 050c 7D000000 		.4byte	.LASF70
 1253 0510 01       		.byte	0x1
 1254 0511 0B       		.byte	0xb
 1255 0512 01       		.byte	0x1
 1256 0513 01       		.byte	0x1
 1257 0514 22050000 		.4byte	0x522
 1258 0518 16       		.uleb128 0x16
 1259 0519 6900     		.ascii	"i\000"
 1260 051b 01       		.byte	0x1
 1261 051c 0D       		.byte	0xd
 1262 051d 77040000 		.4byte	0x477
 1263 0521 00       		.byte	0x0
 1264 0522 15       		.uleb128 0x15
 1265 0523 8E020000 		.4byte	.LASF71
 1266 0527 01       		.byte	0x1
 1267 0528 12       		.byte	0x12
 1268 0529 01       		.byte	0x1
 1269 052a 01       		.byte	0x1
 1270 052b 4F050000 		.4byte	0x54f
 1271 052f 16       		.uleb128 0x16
 1272 0530 76616C00 		.ascii	"val\000"
 1273 0534 01       		.byte	0x1
 1274 0535 14       		.byte	0x14
 1275 0536 86000000 		.4byte	0x86
 1276 053a 16       		.uleb128 0x16
 1277 053b 6900     		.ascii	"i\000"
 1278 053d 01       		.byte	0x1
 1279 053e 22       		.byte	0x22
 1280 053f 50000000 		.4byte	0x50
 1281 0543 17       		.uleb128 0x17
 1282 0544 DE020000 		.4byte	.LASF72
 1283 0548 01       		.byte	0x1
 1284 0549 23       		.byte	0x23
 1285 054a 86000000 		.4byte	0x86
 1286 054e 00       		.byte	0x0
 1287 054f 18       		.uleb128 0x18
 1288 0550 EC020000 		.4byte	.LASF82
 1289 0554 01       		.byte	0x1
 1290 0555 3A       		.byte	0x3a
 1291 0556 01       		.byte	0x1
 1292 0557 DD000000 		.4byte	0xdd
 1293 055b 00000000 		.4byte	.LFB64
 1294 055f 48010000 		.4byte	.LFE64
 1295 0563 00000000 		.4byte	.LLST0
 1296 0567 77060000 		.4byte	0x677
ARM GAS  C:\Users\z80\AppData\Local\Temp\cckpho1g.s 			page 24


 1297 056b 19       		.uleb128 0x19
 1298 056c 61726700 		.ascii	"arg\000"
 1299 0570 01       		.byte	0x1
 1300 0571 3A       		.byte	0x3a
 1301 0572 9C020000 		.4byte	0x29c
 1302 0576 2C000000 		.4byte	.LLST1
 1303 057a 1A       		.uleb128 0x1a
 1304 057b 22050000 		.4byte	0x522
 1305 057f 0A000000 		.4byte	.LBB24
 1306 0583 00000000 		.4byte	.Ldebug_ranges0+0x0
 1307 0587 01       		.byte	0x1
 1308 0588 41       		.byte	0x41
 1309 0589 1B       		.uleb128 0x1b
 1310 058a 20000000 		.4byte	.Ldebug_ranges0+0x20
 1311 058e 1C       		.uleb128 0x1c
 1312 058f 2F050000 		.4byte	0x52f
 1313 0593 05       		.byte	0x5
 1314 0594 03       		.byte	0x3
 1315 0595 00000000 		.4byte	val.3509
 1316 0599 1C       		.uleb128 0x1c
 1317 059a 3A050000 		.4byte	0x53a
 1318 059e 05       		.byte	0x5
 1319 059f 03       		.byte	0x3
 1320 05a0 00000000 		.4byte	i.3510
 1321 05a4 1C       		.uleb128 0x1c
 1322 05a5 43050000 		.4byte	0x543
 1323 05a9 05       		.byte	0x5
 1324 05aa 03       		.byte	0x3
 1325 05ab 00000000 		.4byte	bitVal.3511
 1326 05af 1D       		.uleb128 0x1d
 1327 05b0 0B050000 		.4byte	0x50b
 1328 05b4 6A000000 		.4byte	.LBB27
 1329 05b8 80000000 		.4byte	.LBE27
 1330 05bc 01       		.byte	0x1
 1331 05bd 1E       		.byte	0x1e
 1332 05be D8050000 		.4byte	0x5d8
 1333 05c2 1E       		.uleb128 0x1e
 1334 05c3 6A000000 		.4byte	.LBB28
 1335 05c7 80000000 		.4byte	.LBE28
 1336 05cb 1C       		.uleb128 0x1c
 1337 05cc 18050000 		.4byte	0x518
 1338 05d0 05       		.byte	0x5
 1339 05d1 03       		.byte	0x3
 1340 05d2 00000000 		.4byte	i.3502
 1341 05d6 00       		.byte	0x0
 1342 05d7 00       		.byte	0x0
 1343 05d8 1F       		.uleb128 0x1f
 1344 05d9 0B050000 		.4byte	0x50b
 1345 05dd 82000000 		.4byte	.LBB29
 1346 05e1 40000000 		.4byte	.Ldebug_ranges0+0x40
 1347 05e5 01       		.byte	0x1
 1348 05e6 21       		.byte	0x21
 1349 05e7 FD050000 		.4byte	0x5fd
 1350 05eb 1B       		.uleb128 0x1b
 1351 05ec 58000000 		.4byte	.Ldebug_ranges0+0x58
 1352 05f0 1C       		.uleb128 0x1c
 1353 05f1 18050000 		.4byte	0x518
ARM GAS  C:\Users\z80\AppData\Local\Temp\cckpho1g.s 			page 25


 1354 05f5 05       		.byte	0x5
 1355 05f6 03       		.byte	0x3
 1356 05f7 00000000 		.4byte	i.3502
 1357 05fb 00       		.byte	0x0
 1358 05fc 00       		.byte	0x0
 1359 05fd 1D       		.uleb128 0x1d
 1360 05fe 0B050000 		.4byte	0x50b
 1361 0602 B2000000 		.4byte	.LBB33
 1362 0606 C8000000 		.4byte	.LBE33
 1363 060a 01       		.byte	0x1
 1364 060b 28       		.byte	0x28
 1365 060c 26060000 		.4byte	0x626
 1366 0610 1E       		.uleb128 0x1e
 1367 0611 B2000000 		.4byte	.LBB34
 1368 0615 C8000000 		.4byte	.LBE34
 1369 0619 1C       		.uleb128 0x1c
 1370 061a 18050000 		.4byte	0x518
 1371 061e 05       		.byte	0x5
 1372 061f 03       		.byte	0x3
 1373 0620 00000000 		.4byte	i.3502
 1374 0624 00       		.byte	0x0
 1375 0625 00       		.byte	0x0
 1376 0626 1D       		.uleb128 0x1d
 1377 0627 0B050000 		.4byte	0x50b
 1378 062b D2000000 		.4byte	.LBB35
 1379 062f E8000000 		.4byte	.LBE35
 1380 0633 01       		.byte	0x1
 1381 0634 2D       		.byte	0x2d
 1382 0635 4F060000 		.4byte	0x64f
 1383 0639 1E       		.uleb128 0x1e
 1384 063a D2000000 		.4byte	.LBB36
 1385 063e E8000000 		.4byte	.LBE36
 1386 0642 1C       		.uleb128 0x1c
 1387 0643 18050000 		.4byte	0x518
 1388 0647 05       		.byte	0x5
 1389 0648 03       		.byte	0x3
 1390 0649 00000000 		.4byte	i.3502
 1391 064d 00       		.byte	0x0
 1392 064e 00       		.byte	0x0
 1393 064f 20       		.uleb128 0x20
 1394 0650 0B050000 		.4byte	0x50b
 1395 0654 EA000000 		.4byte	.LBB37
 1396 0658 00010000 		.4byte	.LBE37
 1397 065c 01       		.byte	0x1
 1398 065d 2F       		.byte	0x2f
 1399 065e 1E       		.uleb128 0x1e
 1400 065f EA000000 		.4byte	.LBB38
 1401 0663 00010000 		.4byte	.LBE38
 1402 0667 1C       		.uleb128 0x1c
 1403 0668 18050000 		.4byte	0x518
 1404 066c 05       		.byte	0x5
 1405 066d 03       		.byte	0x3
 1406 066e 00000000 		.4byte	i.3502
 1407 0672 00       		.byte	0x0
 1408 0673 00       		.byte	0x0
 1409 0674 00       		.byte	0x0
 1410 0675 00       		.byte	0x0
ARM GAS  C:\Users\z80\AppData\Local\Temp\cckpho1g.s 			page 26


 1411 0676 00       		.byte	0x0
 1412 0677 21       		.uleb128 0x21
 1413 0678 01       		.byte	0x1
 1414 0679 2D030000 		.4byte	.LASF83
 1415 067d 01       		.byte	0x1
 1416 067e 51       		.byte	0x51
 1417 067f 01       		.byte	0x1
 1418 0680 00000000 		.4byte	.LFB65
 1419 0684 70000000 		.4byte	.LFE65
 1420 0688 3F000000 		.4byte	.LLST2
 1421 068c 22       		.uleb128 0x22
 1422 068d 01       		.byte	0x1
 1423 068e F4010000 		.4byte	.LASF84
 1424 0692 01       		.byte	0x1
 1425 0693 66       		.byte	0x66
 1426 0694 01       		.byte	0x1
 1427 0695 00000000 		.4byte	.LFB66
 1428 0699 22000000 		.4byte	.LFE66
 1429 069d 6B000000 		.4byte	.LLST3
 1430 06a1 B5060000 		.4byte	0x6b5
 1431 06a5 19       		.uleb128 0x19
 1432 06a6 76616C00 		.ascii	"val\000"
 1433 06aa 01       		.byte	0x1
 1434 06ab 66       		.byte	0x66
 1435 06ac 86000000 		.4byte	0x86
 1436 06b0 8B000000 		.4byte	.LLST4
 1437 06b4 00       		.byte	0x0
 1438 06b5 23       		.uleb128 0x23
 1439 06b6 EE010000 		.4byte	.LASF73
 1440 06ba 07       		.byte	0x7
 1441 06bb 72       		.byte	0x72
 1442 06bc D1030000 		.4byte	0x3d1
 1443 06c0 01       		.byte	0x1
 1444 06c1 01       		.byte	0x1
 1445 06c2 24       		.uleb128 0x24
 1446 06c3 FE020000 		.4byte	.LASF74
 1447 06c7 0B       		.byte	0xb
 1448 06c8 9404     		.2byte	0x494
 1449 06ca 7C040000 		.4byte	0x47c
 1450 06ce 01       		.byte	0x1
 1451 06cf 01       		.byte	0x1
 1452 06d0 25       		.uleb128 0x25
 1453 06d1 98010000 		.4byte	.LASF75
 1454 06d5 01       		.byte	0x1
 1455 06d6 07       		.byte	0x7
 1456 06d7 19040000 		.4byte	0x419
 1457 06db 05       		.byte	0x5
 1458 06dc 03       		.byte	0x3
 1459 06dd 00000000 		.4byte	mutex
 1460 06e1 25       		.uleb128 0x25
 1461 06e2 9C020000 		.4byte	.LASF76
 1462 06e6 01       		.byte	0x1
 1463 06e7 08       		.byte	0x8
 1464 06e8 86000000 		.4byte	0x86
 1465 06ec 05       		.byte	0x5
 1466 06ed 03       		.byte	0x3
 1467 06ee 00000000 		.4byte	curValue
ARM GAS  C:\Users\z80\AppData\Local\Temp\cckpho1g.s 			page 27


 1468 06f2 25       		.uleb128 0x25
 1469 06f3 78020000 		.4byte	.LASF77
 1470 06f7 01       		.byte	0x1
 1471 06f8 09       		.byte	0x9
 1472 06f9 86000000 		.4byte	0x86
 1473 06fd 05       		.byte	0x5
 1474 06fe 03       		.byte	0x3
 1475 06ff 00000000 		.4byte	pendValue
 1476 0703 26       		.uleb128 0x26
 1477 0704 9E020000 		.4byte	0x29e
 1478 0708 13070000 		.4byte	0x713
 1479 070c 27       		.uleb128 0x27
 1480 070d 5E030000 		.4byte	0x35e
 1481 0711 35       		.byte	0x35
 1482 0712 00       		.byte	0x0
 1483 0713 25       		.uleb128 0x25
 1484 0714 39020000 		.4byte	.LASF78
 1485 0718 01       		.byte	0x1
 1486 0719 39       		.byte	0x39
 1487 071a 03070000 		.4byte	0x703
 1488 071e 05       		.byte	0x5
 1489 071f 03       		.byte	0x3
 1490 0720 00000000 		.4byte	waWrite
 1491 0724 23       		.uleb128 0x23
 1492 0725 EE010000 		.4byte	.LASF73
 1493 0729 07       		.byte	0x7
 1494 072a 72       		.byte	0x72
 1495 072b D1030000 		.4byte	0x3d1
 1496 072f 01       		.byte	0x1
 1497 0730 01       		.byte	0x1
 1498 0731 24       		.uleb128 0x24
 1499 0732 FE020000 		.4byte	.LASF74
 1500 0736 0B       		.byte	0xb
 1501 0737 9404     		.2byte	0x494
 1502 0739 7C040000 		.4byte	0x47c
 1503 073d 01       		.byte	0x1
 1504 073e 01       		.byte	0x1
 1505 073f 00       		.byte	0x0
 1506              		.section	.debug_abbrev
 1507 0000 01       		.uleb128 0x1
 1508 0001 11       		.uleb128 0x11
 1509 0002 01       		.byte	0x1
 1510 0003 25       		.uleb128 0x25
 1511 0004 0E       		.uleb128 0xe
 1512 0005 13       		.uleb128 0x13
 1513 0006 0B       		.uleb128 0xb
 1514 0007 03       		.uleb128 0x3
 1515 0008 0E       		.uleb128 0xe
 1516 0009 1B       		.uleb128 0x1b
 1517 000a 0E       		.uleb128 0xe
 1518 000b 11       		.uleb128 0x11
 1519 000c 01       		.uleb128 0x1
 1520 000d 52       		.uleb128 0x52
 1521 000e 01       		.uleb128 0x1
 1522 000f 55       		.uleb128 0x55
 1523 0010 06       		.uleb128 0x6
 1524 0011 10       		.uleb128 0x10
ARM GAS  C:\Users\z80\AppData\Local\Temp\cckpho1g.s 			page 28


 1525 0012 06       		.uleb128 0x6
 1526 0013 00       		.byte	0x0
 1527 0014 00       		.byte	0x0
 1528 0015 02       		.uleb128 0x2
 1529 0016 24       		.uleb128 0x24
 1530 0017 00       		.byte	0x0
 1531 0018 0B       		.uleb128 0xb
 1532 0019 0B       		.uleb128 0xb
 1533 001a 3E       		.uleb128 0x3e
 1534 001b 0B       		.uleb128 0xb
 1535 001c 03       		.uleb128 0x3
 1536 001d 08       		.uleb128 0x8
 1537 001e 00       		.byte	0x0
 1538 001f 00       		.byte	0x0
 1539 0020 03       		.uleb128 0x3
 1540 0021 24       		.uleb128 0x24
 1541 0022 00       		.byte	0x0
 1542 0023 0B       		.uleb128 0xb
 1543 0024 0B       		.uleb128 0xb
 1544 0025 3E       		.uleb128 0x3e
 1545 0026 0B       		.uleb128 0xb
 1546 0027 03       		.uleb128 0x3
 1547 0028 0E       		.uleb128 0xe
 1548 0029 00       		.byte	0x0
 1549 002a 00       		.byte	0x0
 1550 002b 04       		.uleb128 0x4
 1551 002c 16       		.uleb128 0x16
 1552 002d 00       		.byte	0x0
 1553 002e 03       		.uleb128 0x3
 1554 002f 0E       		.uleb128 0xe
 1555 0030 3A       		.uleb128 0x3a
 1556 0031 0B       		.uleb128 0xb
 1557 0032 3B       		.uleb128 0x3b
 1558 0033 0B       		.uleb128 0xb
 1559 0034 49       		.uleb128 0x49
 1560 0035 13       		.uleb128 0x13
 1561 0036 00       		.byte	0x0
 1562 0037 00       		.byte	0x0
 1563 0038 05       		.uleb128 0x5
 1564 0039 13       		.uleb128 0x13
 1565 003a 01       		.byte	0x1
 1566 003b 03       		.uleb128 0x3
 1567 003c 0E       		.uleb128 0xe
 1568 003d 0B       		.uleb128 0xb
 1569 003e 0B       		.uleb128 0xb
 1570 003f 3A       		.uleb128 0x3a
 1571 0040 0B       		.uleb128 0xb
 1572 0041 3B       		.uleb128 0x3b
 1573 0042 0B       		.uleb128 0xb
 1574 0043 01       		.uleb128 0x1
 1575 0044 13       		.uleb128 0x13
 1576 0045 00       		.byte	0x0
 1577 0046 00       		.byte	0x0
 1578 0047 06       		.uleb128 0x6
 1579 0048 0D       		.uleb128 0xd
 1580 0049 00       		.byte	0x0
 1581 004a 03       		.uleb128 0x3
ARM GAS  C:\Users\z80\AppData\Local\Temp\cckpho1g.s 			page 29


 1582 004b 0E       		.uleb128 0xe
 1583 004c 3A       		.uleb128 0x3a
 1584 004d 0B       		.uleb128 0xb
 1585 004e 3B       		.uleb128 0x3b
 1586 004f 0B       		.uleb128 0xb
 1587 0050 49       		.uleb128 0x49
 1588 0051 13       		.uleb128 0x13
 1589 0052 38       		.uleb128 0x38
 1590 0053 0A       		.uleb128 0xa
 1591 0054 00       		.byte	0x0
 1592 0055 00       		.byte	0x0
 1593 0056 07       		.uleb128 0x7
 1594 0057 0D       		.uleb128 0xd
 1595 0058 00       		.byte	0x0
 1596 0059 03       		.uleb128 0x3
 1597 005a 08       		.uleb128 0x8
 1598 005b 3A       		.uleb128 0x3a
 1599 005c 0B       		.uleb128 0xb
 1600 005d 3B       		.uleb128 0x3b
 1601 005e 0B       		.uleb128 0xb
 1602 005f 49       		.uleb128 0x49
 1603 0060 13       		.uleb128 0x13
 1604 0061 38       		.uleb128 0x38
 1605 0062 0A       		.uleb128 0xa
 1606 0063 00       		.byte	0x0
 1607 0064 00       		.byte	0x0
 1608 0065 08       		.uleb128 0x8
 1609 0066 13       		.uleb128 0x13
 1610 0067 01       		.byte	0x1
 1611 0068 0B       		.uleb128 0xb
 1612 0069 0B       		.uleb128 0xb
 1613 006a 3A       		.uleb128 0x3a
 1614 006b 0B       		.uleb128 0xb
 1615 006c 3B       		.uleb128 0x3b
 1616 006d 0B       		.uleb128 0xb
 1617 006e 01       		.uleb128 0x1
 1618 006f 13       		.uleb128 0x13
 1619 0070 00       		.byte	0x0
 1620 0071 00       		.byte	0x0
 1621 0072 09       		.uleb128 0x9
 1622 0073 0F       		.uleb128 0xf
 1623 0074 00       		.byte	0x0
 1624 0075 0B       		.uleb128 0xb
 1625 0076 0B       		.uleb128 0xb
 1626 0077 49       		.uleb128 0x49
 1627 0078 13       		.uleb128 0x13
 1628 0079 00       		.byte	0x0
 1629 007a 00       		.byte	0x0
 1630 007b 0A       		.uleb128 0xa
 1631 007c 0F       		.uleb128 0xf
 1632 007d 00       		.byte	0x0
 1633 007e 0B       		.uleb128 0xb
 1634 007f 0B       		.uleb128 0xb
 1635 0080 00       		.byte	0x0
 1636 0081 00       		.byte	0x0
 1637 0082 0B       		.uleb128 0xb
 1638 0083 0D       		.uleb128 0xd
ARM GAS  C:\Users\z80\AppData\Local\Temp\cckpho1g.s 			page 30


 1639 0084 00       		.byte	0x0
 1640 0085 03       		.uleb128 0x3
 1641 0086 08       		.uleb128 0x8
 1642 0087 3A       		.uleb128 0x3a
 1643 0088 0B       		.uleb128 0xb
 1644 0089 3B       		.uleb128 0x3b
 1645 008a 05       		.uleb128 0x5
 1646 008b 49       		.uleb128 0x49
 1647 008c 13       		.uleb128 0x13
 1648 008d 38       		.uleb128 0x38
 1649 008e 0A       		.uleb128 0xa
 1650 008f 00       		.byte	0x0
 1651 0090 00       		.byte	0x0
 1652 0091 0C       		.uleb128 0xc
 1653 0092 13       		.uleb128 0x13
 1654 0093 01       		.byte	0x1
 1655 0094 03       		.uleb128 0x3
 1656 0095 0E       		.uleb128 0xe
 1657 0096 0B       		.uleb128 0xb
 1658 0097 0B       		.uleb128 0xb
 1659 0098 3A       		.uleb128 0x3a
 1660 0099 0B       		.uleb128 0xb
 1661 009a 3B       		.uleb128 0x3b
 1662 009b 05       		.uleb128 0x5
 1663 009c 01       		.uleb128 0x1
 1664 009d 13       		.uleb128 0x13
 1665 009e 00       		.byte	0x0
 1666 009f 00       		.byte	0x0
 1667 00a0 0D       		.uleb128 0xd
 1668 00a1 35       		.uleb128 0x35
 1669 00a2 00       		.byte	0x0
 1670 00a3 49       		.uleb128 0x49
 1671 00a4 13       		.uleb128 0x13
 1672 00a5 00       		.byte	0x0
 1673 00a6 00       		.byte	0x0
 1674 00a7 0E       		.uleb128 0xe
 1675 00a8 24       		.uleb128 0x24
 1676 00a9 00       		.byte	0x0
 1677 00aa 0B       		.uleb128 0xb
 1678 00ab 0B       		.uleb128 0xb
 1679 00ac 3E       		.uleb128 0x3e
 1680 00ad 0B       		.uleb128 0xb
 1681 00ae 00       		.byte	0x0
 1682 00af 00       		.byte	0x0
 1683 00b0 0F       		.uleb128 0xf
 1684 00b1 17       		.uleb128 0x17
 1685 00b2 01       		.byte	0x1
 1686 00b3 0B       		.uleb128 0xb
 1687 00b4 0B       		.uleb128 0xb
 1688 00b5 3A       		.uleb128 0x3a
 1689 00b6 0B       		.uleb128 0xb
 1690 00b7 3B       		.uleb128 0x3b
 1691 00b8 0B       		.uleb128 0xb
 1692 00b9 01       		.uleb128 0x1
 1693 00ba 13       		.uleb128 0x13
 1694 00bb 00       		.byte	0x0
 1695 00bc 00       		.byte	0x0
ARM GAS  C:\Users\z80\AppData\Local\Temp\cckpho1g.s 			page 31


 1696 00bd 10       		.uleb128 0x10
 1697 00be 0D       		.uleb128 0xd
 1698 00bf 00       		.byte	0x0
 1699 00c0 03       		.uleb128 0x3
 1700 00c1 0E       		.uleb128 0xe
 1701 00c2 3A       		.uleb128 0x3a
 1702 00c3 0B       		.uleb128 0xb
 1703 00c4 3B       		.uleb128 0x3b
 1704 00c5 0B       		.uleb128 0xb
 1705 00c6 49       		.uleb128 0x49
 1706 00c7 13       		.uleb128 0x13
 1707 00c8 00       		.byte	0x0
 1708 00c9 00       		.byte	0x0
 1709 00ca 11       		.uleb128 0x11
 1710 00cb 26       		.uleb128 0x26
 1711 00cc 00       		.byte	0x0
 1712 00cd 49       		.uleb128 0x49
 1713 00ce 13       		.uleb128 0x13
 1714 00cf 00       		.byte	0x0
 1715 00d0 00       		.byte	0x0
 1716 00d1 12       		.uleb128 0x12
 1717 00d2 13       		.uleb128 0x13
 1718 00d3 01       		.byte	0x1
 1719 00d4 0B       		.uleb128 0xb
 1720 00d5 0B       		.uleb128 0xb
 1721 00d6 3A       		.uleb128 0x3a
 1722 00d7 0B       		.uleb128 0xb
 1723 00d8 3B       		.uleb128 0x3b
 1724 00d9 05       		.uleb128 0x5
 1725 00da 01       		.uleb128 0x1
 1726 00db 13       		.uleb128 0x13
 1727 00dc 00       		.byte	0x0
 1728 00dd 00       		.byte	0x0
 1729 00de 13       		.uleb128 0x13
 1730 00df 0D       		.uleb128 0xd
 1731 00e0 00       		.byte	0x0
 1732 00e1 03       		.uleb128 0x3
 1733 00e2 0E       		.uleb128 0xe
 1734 00e3 3A       		.uleb128 0x3a
 1735 00e4 0B       		.uleb128 0xb
 1736 00e5 3B       		.uleb128 0x3b
 1737 00e6 05       		.uleb128 0x5
 1738 00e7 49       		.uleb128 0x49
 1739 00e8 13       		.uleb128 0x13
 1740 00e9 38       		.uleb128 0x38
 1741 00ea 0A       		.uleb128 0xa
 1742 00eb 00       		.byte	0x0
 1743 00ec 00       		.byte	0x0
 1744 00ed 14       		.uleb128 0x14
 1745 00ee 16       		.uleb128 0x16
 1746 00ef 00       		.byte	0x0
 1747 00f0 03       		.uleb128 0x3
 1748 00f1 0E       		.uleb128 0xe
 1749 00f2 3A       		.uleb128 0x3a
 1750 00f3 0B       		.uleb128 0xb
 1751 00f4 3B       		.uleb128 0x3b
 1752 00f5 05       		.uleb128 0x5
ARM GAS  C:\Users\z80\AppData\Local\Temp\cckpho1g.s 			page 32


 1753 00f6 49       		.uleb128 0x49
 1754 00f7 13       		.uleb128 0x13
 1755 00f8 00       		.byte	0x0
 1756 00f9 00       		.byte	0x0
 1757 00fa 15       		.uleb128 0x15
 1758 00fb 2E       		.uleb128 0x2e
 1759 00fc 01       		.byte	0x1
 1760 00fd 03       		.uleb128 0x3
 1761 00fe 0E       		.uleb128 0xe
 1762 00ff 3A       		.uleb128 0x3a
 1763 0100 0B       		.uleb128 0xb
 1764 0101 3B       		.uleb128 0x3b
 1765 0102 0B       		.uleb128 0xb
 1766 0103 27       		.uleb128 0x27
 1767 0104 0C       		.uleb128 0xc
 1768 0105 20       		.uleb128 0x20
 1769 0106 0B       		.uleb128 0xb
 1770 0107 01       		.uleb128 0x1
 1771 0108 13       		.uleb128 0x13
 1772 0109 00       		.byte	0x0
 1773 010a 00       		.byte	0x0
 1774 010b 16       		.uleb128 0x16
 1775 010c 34       		.uleb128 0x34
 1776 010d 00       		.byte	0x0
 1777 010e 03       		.uleb128 0x3
 1778 010f 08       		.uleb128 0x8
 1779 0110 3A       		.uleb128 0x3a
 1780 0111 0B       		.uleb128 0xb
 1781 0112 3B       		.uleb128 0x3b
 1782 0113 0B       		.uleb128 0xb
 1783 0114 49       		.uleb128 0x49
 1784 0115 13       		.uleb128 0x13
 1785 0116 00       		.byte	0x0
 1786 0117 00       		.byte	0x0
 1787 0118 17       		.uleb128 0x17
 1788 0119 34       		.uleb128 0x34
 1789 011a 00       		.byte	0x0
 1790 011b 03       		.uleb128 0x3
 1791 011c 0E       		.uleb128 0xe
 1792 011d 3A       		.uleb128 0x3a
 1793 011e 0B       		.uleb128 0xb
 1794 011f 3B       		.uleb128 0x3b
 1795 0120 0B       		.uleb128 0xb
 1796 0121 49       		.uleb128 0x49
 1797 0122 13       		.uleb128 0x13
 1798 0123 00       		.byte	0x0
 1799 0124 00       		.byte	0x0
 1800 0125 18       		.uleb128 0x18
 1801 0126 2E       		.uleb128 0x2e
 1802 0127 01       		.byte	0x1
 1803 0128 03       		.uleb128 0x3
 1804 0129 0E       		.uleb128 0xe
 1805 012a 3A       		.uleb128 0x3a
 1806 012b 0B       		.uleb128 0xb
 1807 012c 3B       		.uleb128 0x3b
 1808 012d 0B       		.uleb128 0xb
 1809 012e 27       		.uleb128 0x27
ARM GAS  C:\Users\z80\AppData\Local\Temp\cckpho1g.s 			page 33


 1810 012f 0C       		.uleb128 0xc
 1811 0130 49       		.uleb128 0x49
 1812 0131 13       		.uleb128 0x13
 1813 0132 11       		.uleb128 0x11
 1814 0133 01       		.uleb128 0x1
 1815 0134 12       		.uleb128 0x12
 1816 0135 01       		.uleb128 0x1
 1817 0136 40       		.uleb128 0x40
 1818 0137 06       		.uleb128 0x6
 1819 0138 01       		.uleb128 0x1
 1820 0139 13       		.uleb128 0x13
 1821 013a 00       		.byte	0x0
 1822 013b 00       		.byte	0x0
 1823 013c 19       		.uleb128 0x19
 1824 013d 05       		.uleb128 0x5
 1825 013e 00       		.byte	0x0
 1826 013f 03       		.uleb128 0x3
 1827 0140 08       		.uleb128 0x8
 1828 0141 3A       		.uleb128 0x3a
 1829 0142 0B       		.uleb128 0xb
 1830 0143 3B       		.uleb128 0x3b
 1831 0144 0B       		.uleb128 0xb
 1832 0145 49       		.uleb128 0x49
 1833 0146 13       		.uleb128 0x13
 1834 0147 02       		.uleb128 0x2
 1835 0148 06       		.uleb128 0x6
 1836 0149 00       		.byte	0x0
 1837 014a 00       		.byte	0x0
 1838 014b 1A       		.uleb128 0x1a
 1839 014c 1D       		.uleb128 0x1d
 1840 014d 01       		.byte	0x1
 1841 014e 31       		.uleb128 0x31
 1842 014f 13       		.uleb128 0x13
 1843 0150 52       		.uleb128 0x52
 1844 0151 01       		.uleb128 0x1
 1845 0152 55       		.uleb128 0x55
 1846 0153 06       		.uleb128 0x6
 1847 0154 58       		.uleb128 0x58
 1848 0155 0B       		.uleb128 0xb
 1849 0156 59       		.uleb128 0x59
 1850 0157 0B       		.uleb128 0xb
 1851 0158 00       		.byte	0x0
 1852 0159 00       		.byte	0x0
 1853 015a 1B       		.uleb128 0x1b
 1854 015b 0B       		.uleb128 0xb
 1855 015c 01       		.byte	0x1
 1856 015d 55       		.uleb128 0x55
 1857 015e 06       		.uleb128 0x6
 1858 015f 00       		.byte	0x0
 1859 0160 00       		.byte	0x0
 1860 0161 1C       		.uleb128 0x1c
 1861 0162 34       		.uleb128 0x34
 1862 0163 00       		.byte	0x0
 1863 0164 31       		.uleb128 0x31
 1864 0165 13       		.uleb128 0x13
 1865 0166 02       		.uleb128 0x2
 1866 0167 0A       		.uleb128 0xa
ARM GAS  C:\Users\z80\AppData\Local\Temp\cckpho1g.s 			page 34


 1867 0168 00       		.byte	0x0
 1868 0169 00       		.byte	0x0
 1869 016a 1D       		.uleb128 0x1d
 1870 016b 1D       		.uleb128 0x1d
 1871 016c 01       		.byte	0x1
 1872 016d 31       		.uleb128 0x31
 1873 016e 13       		.uleb128 0x13
 1874 016f 11       		.uleb128 0x11
 1875 0170 01       		.uleb128 0x1
 1876 0171 12       		.uleb128 0x12
 1877 0172 01       		.uleb128 0x1
 1878 0173 58       		.uleb128 0x58
 1879 0174 0B       		.uleb128 0xb
 1880 0175 59       		.uleb128 0x59
 1881 0176 0B       		.uleb128 0xb
 1882 0177 01       		.uleb128 0x1
 1883 0178 13       		.uleb128 0x13
 1884 0179 00       		.byte	0x0
 1885 017a 00       		.byte	0x0
 1886 017b 1E       		.uleb128 0x1e
 1887 017c 0B       		.uleb128 0xb
 1888 017d 01       		.byte	0x1
 1889 017e 11       		.uleb128 0x11
 1890 017f 01       		.uleb128 0x1
 1891 0180 12       		.uleb128 0x12
 1892 0181 01       		.uleb128 0x1
 1893 0182 00       		.byte	0x0
 1894 0183 00       		.byte	0x0
 1895 0184 1F       		.uleb128 0x1f
 1896 0185 1D       		.uleb128 0x1d
 1897 0186 01       		.byte	0x1
 1898 0187 31       		.uleb128 0x31
 1899 0188 13       		.uleb128 0x13
 1900 0189 52       		.uleb128 0x52
 1901 018a 01       		.uleb128 0x1
 1902 018b 55       		.uleb128 0x55
 1903 018c 06       		.uleb128 0x6
 1904 018d 58       		.uleb128 0x58
 1905 018e 0B       		.uleb128 0xb
 1906 018f 59       		.uleb128 0x59
 1907 0190 0B       		.uleb128 0xb
 1908 0191 01       		.uleb128 0x1
 1909 0192 13       		.uleb128 0x13
 1910 0193 00       		.byte	0x0
 1911 0194 00       		.byte	0x0
 1912 0195 20       		.uleb128 0x20
 1913 0196 1D       		.uleb128 0x1d
 1914 0197 01       		.byte	0x1
 1915 0198 31       		.uleb128 0x31
 1916 0199 13       		.uleb128 0x13
 1917 019a 11       		.uleb128 0x11
 1918 019b 01       		.uleb128 0x1
 1919 019c 12       		.uleb128 0x12
 1920 019d 01       		.uleb128 0x1
 1921 019e 58       		.uleb128 0x58
 1922 019f 0B       		.uleb128 0xb
 1923 01a0 59       		.uleb128 0x59
ARM GAS  C:\Users\z80\AppData\Local\Temp\cckpho1g.s 			page 35


 1924 01a1 0B       		.uleb128 0xb
 1925 01a2 00       		.byte	0x0
 1926 01a3 00       		.byte	0x0
 1927 01a4 21       		.uleb128 0x21
 1928 01a5 2E       		.uleb128 0x2e
 1929 01a6 00       		.byte	0x0
 1930 01a7 3F       		.uleb128 0x3f
 1931 01a8 0C       		.uleb128 0xc
 1932 01a9 03       		.uleb128 0x3
 1933 01aa 0E       		.uleb128 0xe
 1934 01ab 3A       		.uleb128 0x3a
 1935 01ac 0B       		.uleb128 0xb
 1936 01ad 3B       		.uleb128 0x3b
 1937 01ae 0B       		.uleb128 0xb
 1938 01af 27       		.uleb128 0x27
 1939 01b0 0C       		.uleb128 0xc
 1940 01b1 11       		.uleb128 0x11
 1941 01b2 01       		.uleb128 0x1
 1942 01b3 12       		.uleb128 0x12
 1943 01b4 01       		.uleb128 0x1
 1944 01b5 40       		.uleb128 0x40
 1945 01b6 06       		.uleb128 0x6
 1946 01b7 00       		.byte	0x0
 1947 01b8 00       		.byte	0x0
 1948 01b9 22       		.uleb128 0x22
 1949 01ba 2E       		.uleb128 0x2e
 1950 01bb 01       		.byte	0x1
 1951 01bc 3F       		.uleb128 0x3f
 1952 01bd 0C       		.uleb128 0xc
 1953 01be 03       		.uleb128 0x3
 1954 01bf 0E       		.uleb128 0xe
 1955 01c0 3A       		.uleb128 0x3a
 1956 01c1 0B       		.uleb128 0xb
 1957 01c2 3B       		.uleb128 0x3b
 1958 01c3 0B       		.uleb128 0xb
 1959 01c4 27       		.uleb128 0x27
 1960 01c5 0C       		.uleb128 0xc
 1961 01c6 11       		.uleb128 0x11
 1962 01c7 01       		.uleb128 0x1
 1963 01c8 12       		.uleb128 0x12
 1964 01c9 01       		.uleb128 0x1
 1965 01ca 40       		.uleb128 0x40
 1966 01cb 06       		.uleb128 0x6
 1967 01cc 01       		.uleb128 0x1
 1968 01cd 13       		.uleb128 0x13
 1969 01ce 00       		.byte	0x0
 1970 01cf 00       		.byte	0x0
 1971 01d0 23       		.uleb128 0x23
 1972 01d1 34       		.uleb128 0x34
 1973 01d2 00       		.byte	0x0
 1974 01d3 03       		.uleb128 0x3
 1975 01d4 0E       		.uleb128 0xe
 1976 01d5 3A       		.uleb128 0x3a
 1977 01d6 0B       		.uleb128 0xb
 1978 01d7 3B       		.uleb128 0x3b
 1979 01d8 0B       		.uleb128 0xb
 1980 01d9 49       		.uleb128 0x49
ARM GAS  C:\Users\z80\AppData\Local\Temp\cckpho1g.s 			page 36


 1981 01da 13       		.uleb128 0x13
 1982 01db 3F       		.uleb128 0x3f
 1983 01dc 0C       		.uleb128 0xc
 1984 01dd 3C       		.uleb128 0x3c
 1985 01de 0C       		.uleb128 0xc
 1986 01df 00       		.byte	0x0
 1987 01e0 00       		.byte	0x0
 1988 01e1 24       		.uleb128 0x24
 1989 01e2 34       		.uleb128 0x34
 1990 01e3 00       		.byte	0x0
 1991 01e4 03       		.uleb128 0x3
 1992 01e5 0E       		.uleb128 0xe
 1993 01e6 3A       		.uleb128 0x3a
 1994 01e7 0B       		.uleb128 0xb
 1995 01e8 3B       		.uleb128 0x3b
 1996 01e9 05       		.uleb128 0x5
 1997 01ea 49       		.uleb128 0x49
 1998 01eb 13       		.uleb128 0x13
 1999 01ec 3F       		.uleb128 0x3f
 2000 01ed 0C       		.uleb128 0xc
 2001 01ee 3C       		.uleb128 0x3c
 2002 01ef 0C       		.uleb128 0xc
 2003 01f0 00       		.byte	0x0
 2004 01f1 00       		.byte	0x0
 2005 01f2 25       		.uleb128 0x25
 2006 01f3 34       		.uleb128 0x34
 2007 01f4 00       		.byte	0x0
 2008 01f5 03       		.uleb128 0x3
 2009 01f6 0E       		.uleb128 0xe
 2010 01f7 3A       		.uleb128 0x3a
 2011 01f8 0B       		.uleb128 0xb
 2012 01f9 3B       		.uleb128 0x3b
 2013 01fa 0B       		.uleb128 0xb
 2014 01fb 49       		.uleb128 0x49
 2015 01fc 13       		.uleb128 0x13
 2016 01fd 02       		.uleb128 0x2
 2017 01fe 0A       		.uleb128 0xa
 2018 01ff 00       		.byte	0x0
 2019 0200 00       		.byte	0x0
 2020 0201 26       		.uleb128 0x26
 2021 0202 01       		.uleb128 0x1
 2022 0203 01       		.byte	0x1
 2023 0204 49       		.uleb128 0x49
 2024 0205 13       		.uleb128 0x13
 2025 0206 01       		.uleb128 0x1
 2026 0207 13       		.uleb128 0x13
 2027 0208 00       		.byte	0x0
 2028 0209 00       		.byte	0x0
 2029 020a 27       		.uleb128 0x27
 2030 020b 21       		.uleb128 0x21
 2031 020c 00       		.byte	0x0
 2032 020d 49       		.uleb128 0x49
 2033 020e 13       		.uleb128 0x13
 2034 020f 2F       		.uleb128 0x2f
 2035 0210 0B       		.uleb128 0xb
 2036 0211 00       		.byte	0x0
 2037 0212 00       		.byte	0x0
ARM GAS  C:\Users\z80\AppData\Local\Temp\cckpho1g.s 			page 37


 2038 0213 00       		.byte	0x0
 2039              		.section	.debug_pubnames,"",%progbits
 2040 0000 26000000 		.4byte	0x26
 2041 0004 0200     		.2byte	0x2
 2042 0006 00000000 		.4byte	.Ldebug_info0
 2043 000a 40070000 		.4byte	0x740
 2044 000e 77060000 		.4byte	0x677
 2045 0012 696E6974 		.ascii	"initWrite\000"
 2045      57726974 
 2045      6500
 2046 001c 8C060000 		.4byte	0x68c
 2047 0020 77726974 		.ascii	"write\000"
 2047      6500
 2048 0026 00000000 		.4byte	0x0
 2049              		.section	.debug_pubtypes,"",%progbits
 2050 0000 6A010000 		.4byte	0x16a
 2051 0004 0200     		.2byte	0x2
 2052 0006 00000000 		.4byte	.Ldebug_info0
 2053 000a 40070000 		.4byte	0x740
 2054 000e 3E000000 		.4byte	0x3e
 2055 0012 75696E74 		.ascii	"uint8_t\000"
 2055      385F7400 
 2056 001a 50000000 		.4byte	0x50
 2057 001e 696E7431 		.ascii	"int16_t\000"
 2057      365F7400 
 2058 0026 62000000 		.4byte	0x62
 2059 002a 75696E74 		.ascii	"uint16_t\000"
 2059      31365F74 
 2059      00
 2060 0033 74000000 		.4byte	0x74
 2061 0037 696E7433 		.ascii	"int32_t\000"
 2061      325F7400 
 2062 003f 86000000 		.4byte	0x86
 2063 0043 75696E74 		.ascii	"uint32_t\000"
 2063      33325F74 
 2063      00
 2064 004c 9F000000 		.4byte	0x9f
 2065 0050 75696E74 		.ascii	"uint64_t\000"
 2065      36345F74 
 2065      00
 2066 0059 B1000000 		.4byte	0xb1
 2067 005d 746D6F64 		.ascii	"tmode_t\000"
 2067      655F7400 
 2068 0065 BC000000 		.4byte	0xbc
 2069 0069 74737461 		.ascii	"tstate_t\000"
 2069      74655F74 
 2069      00
 2070 0072 C7000000 		.4byte	0xc7
 2071 0076 74726566 		.ascii	"trefs_t\000"
 2071      735F7400 
 2072 007e D2000000 		.4byte	0xd2
 2073 0082 74707269 		.ascii	"tprio_t\000"
 2073      6F5F7400 
 2074 008a DD000000 		.4byte	0xdd
 2075 008e 6D73675F 		.ascii	"msg_t\000"
 2075      7400
 2076 0094 E8000000 		.4byte	0xe8
ARM GAS  C:\Users\z80\AppData\Local\Temp\cckpho1g.s 			page 38


 2077 0098 6576656E 		.ascii	"eventmask_t\000"
 2077      746D6173 
 2077      6B5F7400 
 2078 00a4 F3000000 		.4byte	0xf3
 2079 00a8 73797374 		.ascii	"systime_t\000"
 2079      696D655F 
 2079      7400
 2080 00b2 FE000000 		.4byte	0xfe
 2081 00b6 636E745F 		.ascii	"cnt_t\000"
 2081      7400
 2082 00bc 09010000 		.4byte	0x109
 2083 00c0 54687265 		.ascii	"Thread\000"
 2083      616400
 2084 00c7 64020000 		.4byte	0x264
 2085 00cb 54687265 		.ascii	"ThreadsQueue\000"
 2085      61647351 
 2085      75657565 
 2085      00
 2086 00d8 86020000 		.4byte	0x286
 2087 00dc 54687265 		.ascii	"ThreadsList\000"
 2087      6164734C 
 2087      69737400 
 2088 00e8 91020000 		.4byte	0x291
 2089 00ec 72656761 		.ascii	"regarm_t\000"
 2089      726D5F74 
 2089      00
 2090 00f5 9E020000 		.4byte	0x29e
 2091 00f9 73746B61 		.ascii	"stkalign_t\000"
 2091      6C69676E 
 2091      5F7400
 2092 0104 A9020000 		.4byte	0x2a9
 2093 0108 696E7463 		.ascii	"intctx\000"
 2093      747800
 2094 010f 36030000 		.4byte	0x336
 2095 0113 636F6E74 		.ascii	"context\000"
 2095      65787400 
 2096 011b D1030000 		.4byte	0x3d1
 2097 011f 52656164 		.ascii	"ReadyList\000"
 2097      794C6973 
 2097      7400
 2098 0129 DC030000 		.4byte	0x3dc
 2099 012d 4D757465 		.ascii	"Mutex\000"
 2099      7800
 2100 0133 19040000 		.4byte	0x419
 2101 0137 4D757465 		.ascii	"Mutex\000"
 2101      7800
 2102 013d 14010000 		.4byte	0x114
 2103 0141 54687265 		.ascii	"Thread\000"
 2103      616400
 2104 0148 F4040000 		.4byte	0x4f4
 2105 014c 4750494F 		.ascii	"GPIO_TypeDef\000"
 2105      5F547970 
 2105      65446566 
 2105      00
 2106 0159 00050000 		.4byte	0x500
 2107 015d 696F706F 		.ascii	"ioportmask_t\000"
 2107      72746D61 
ARM GAS  C:\Users\z80\AppData\Local\Temp\cckpho1g.s 			page 39


 2107      736B5F74 
 2107      00
 2108 016a 00000000 		.4byte	0x0
 2109              		.section	.debug_aranges,"",%progbits
 2110 0000 2C000000 		.4byte	0x2c
 2111 0004 0200     		.2byte	0x2
 2112 0006 00000000 		.4byte	.Ldebug_info0
 2113 000a 04       		.byte	0x4
 2114 000b 00       		.byte	0x0
 2115 000c 0000     		.2byte	0x0
 2116 000e 0000     		.2byte	0x0
 2117 0010 00000000 		.4byte	.LFB64
 2118 0014 48010000 		.4byte	.LFE64-.LFB64
 2119 0018 00000000 		.4byte	.LFB65
 2120 001c 70000000 		.4byte	.LFE65-.LFB65
 2121 0020 00000000 		.4byte	.LFB66
 2122 0024 22000000 		.4byte	.LFE66-.LFB66
 2123 0028 00000000 		.4byte	0x0
 2124 002c 00000000 		.4byte	0x0
 2125              		.section	.debug_ranges,"",%progbits
 2126              	.Ldebug_ranges0:
 2127 0000 0A000000 		.4byte	.LBB24
 2128 0004 1E000000 		.4byte	.LBE24
 2129 0008 36000000 		.4byte	.LBB41
 2130 000c 48010000 		.4byte	.LBE41
 2131 0010 22000000 		.4byte	.LBB40
 2132 0014 2E000000 		.4byte	.LBE40
 2133 0018 00000000 		.4byte	0x0
 2134 001c 00000000 		.4byte	0x0
 2135 0020 0A000000 		.4byte	.LBB26
 2136 0024 1E000000 		.4byte	.LBE26
 2137 0028 36000000 		.4byte	.LBB39
 2138 002c 48010000 		.4byte	.LBE39
 2139 0030 22000000 		.4byte	.LBB25
 2140 0034 2E000000 		.4byte	.LBE25
 2141 0038 00000000 		.4byte	0x0
 2142 003c 00000000 		.4byte	0x0
 2143 0040 82000000 		.4byte	.LBB29
 2144 0044 84000000 		.4byte	.LBE29
 2145 0048 86000000 		.4byte	.LBB32
 2146 004c A2000000 		.4byte	.LBE32
 2147 0050 00000000 		.4byte	0x0
 2148 0054 00000000 		.4byte	0x0
 2149 0058 82000000 		.4byte	.LBB30
 2150 005c 84000000 		.4byte	.LBE30
 2151 0060 86000000 		.4byte	.LBB31
 2152 0064 A2000000 		.4byte	.LBE31
 2153 0068 00000000 		.4byte	0x0
 2154 006c 00000000 		.4byte	0x0
 2155 0070 00000000 		.4byte	.LFB64
 2156 0074 48010000 		.4byte	.LFE64
 2157 0078 00000000 		.4byte	.LFB65
 2158 007c 70000000 		.4byte	.LFE65
 2159 0080 00000000 		.4byte	.LFB66
 2160 0084 22000000 		.4byte	.LFE66
 2161 0088 00000000 		.4byte	0x0
 2162 008c 00000000 		.4byte	0x0
ARM GAS  C:\Users\z80\AppData\Local\Temp\cckpho1g.s 			page 40


 2163              		.section	.debug_str,"MS",%progbits,1
 2164              	.LASF68:
 2165 0000 4750494F 		.ascii	"GPIO_TypeDef\000"
 2165      5F547970 
 2165      65446566 
 2165      00
 2166              	.LASF17:
 2167 000d 74726566 		.ascii	"trefs_t\000"
 2167      735F7400 
 2168              	.LASF80:
 2169 0015 2E2F7372 		.ascii	"./src/write_ctrl.c\000"
 2169      632F7772 
 2169      6974655F 
 2169      6374726C 
 2169      2E6300
 2170              	.LASF20:
 2171 0028 6576656E 		.ascii	"eventmask_t\000"
 2171      746D6173 
 2171      6B5F7400 
 2172              	.LASF13:
 2173 0034 75696E74 		.ascii	"uint64_t\000"
 2173      36345F74 
 2173      00
 2174              	.LASF44:
 2175 003d 54687265 		.ascii	"ThreadsList\000"
 2175      6164734C 
 2175      69737400 
 2176              	.LASF5:
 2177 0049 73686F72 		.ascii	"short int\000"
 2177      7420696E 
 2177      7400
 2178              	.LASF49:
 2179 0053 725F7175 		.ascii	"r_queue\000"
 2179      65756500 
 2180              	.LASF39:
 2181 005b 705F6570 		.ascii	"p_epending\000"
 2181      656E6469 
 2181      6E6700
 2182              	.LASF56:
 2183 0066 52656164 		.ascii	"ReadyList\000"
 2183      794C6973 
 2183      7400
 2184              	.LASF25:
 2185 0070 705F7072 		.ascii	"p_prev\000"
 2185      657600
 2186              	.LASF51:
 2187 0077 725F6374 		.ascii	"r_ctx\000"
 2187      7800
 2188              	.LASF70:
 2189 007d 64656C61 		.ascii	"delay\000"
 2189      7900
 2190              	.LASF37:
 2191 0083 705F6D73 		.ascii	"p_msgqueue\000"
 2191      67717565 
 2191      756500
 2192              	.LASF26:
 2193 008e 705F7072 		.ascii	"p_prio\000"
ARM GAS  C:\Users\z80\AppData\Local\Temp\cckpho1g.s 			page 41


 2193      696F00
 2194              	.LASF24:
 2195 0095 705F6E65 		.ascii	"p_next\000"
 2195      787400
 2196              	.LASF60:
 2197 009c 6D5F6E65 		.ascii	"m_next\000"
 2197      787400
 2198              	.LASF45:
 2199 00a3 72656761 		.ascii	"regarm_t\000"
 2199      726D5F74 
 2199      00
 2200              	.LASF3:
 2201 00ac 75696E74 		.ascii	"uint8_t\000"
 2201      385F7400 
 2202              	.LASF69:
 2203 00b4 696F706F 		.ascii	"ioportmask_t\000"
 2203      72746D61 
 2203      736B5F74 
 2203      00
 2204              	.LASF35:
 2205 00c1 705F7469 		.ascii	"p_time\000"
 2205      6D6500
 2206              	.LASF23:
 2207 00c8 54687265 		.ascii	"Thread\000"
 2207      616400
 2208              	.LASF15:
 2209 00cf 746D6F64 		.ascii	"tmode_t\000"
 2209      655F7400 
 2210              	.LASF57:
 2211 00d7 4D757465 		.ascii	"Mutex\000"
 2211      7800
 2212              	.LASF12:
 2213 00dd 6C6F6E67 		.ascii	"long long int\000"
 2213      206C6F6E 
 2213      6720696E 
 2213      7400
 2214              	.LASF18:
 2215 00eb 74707269 		.ascii	"tprio_t\000"
 2215      6F5F7400 
 2216              	.LASF65:
 2217 00f3 63686172 		.ascii	"char\000"
 2217      00
 2218              	.LASF9:
 2219 00f8 6C6F6E67 		.ascii	"long int\000"
 2219      20696E74 
 2219      00
 2220              	.LASF66:
 2221 0101 42535252 		.ascii	"BSRR\000"
 2221      00
 2222              	.LASF58:
 2223 0106 6D5F7175 		.ascii	"m_queue\000"
 2223      65756500 
 2224              	.LASF48:
 2225 010e 636F6E74 		.ascii	"context\000"
 2225      65787400 
 2226              	.LASF55:
 2227 0116 725F6375 		.ascii	"r_current\000"
ARM GAS  C:\Users\z80\AppData\Local\Temp\cckpho1g.s 			page 42


 2227      7272656E 
 2227      7400
 2228              	.LASF38:
 2229 0120 705F6D73 		.ascii	"p_msg\000"
 2229      6700
 2230              	.LASF2:
 2231 0126 756E7369 		.ascii	"unsigned char\000"
 2231      676E6564 
 2231      20636861 
 2231      7200
 2232              	.LASF64:
 2233 0134 65776D61 		.ascii	"ewmask\000"
 2233      736B00
 2234              	.LASF1:
 2235 013b 7369676E 		.ascii	"signed char\000"
 2235      65642063 
 2235      68617200 
 2236              	.LASF28:
 2237 0147 705F6E65 		.ascii	"p_newer\000"
 2237      77657200 
 2238              	.LASF14:
 2239 014f 6C6F6E67 		.ascii	"long long unsigned int\000"
 2239      206C6F6E 
 2239      6720756E 
 2239      7369676E 
 2239      65642069 
 2240              	.LASF10:
 2241 0166 75696E74 		.ascii	"uint32_t\000"
 2241      33325F74 
 2241      00
 2242              	.LASF0:
 2243 016f 756E7369 		.ascii	"unsigned int\000"
 2243      676E6564 
 2243      20696E74 
 2243      00
 2244              	.LASF6:
 2245 017c 75696E74 		.ascii	"uint16_t\000"
 2245      31365F74 
 2245      00
 2246              	.LASF31:
 2247 0185 705F7374 		.ascii	"p_stklimit\000"
 2247      6B6C696D 
 2247      697400
 2248              	.LASF42:
 2249 0190 705F6D70 		.ascii	"p_mpool\000"
 2249      6F6F6C00 
 2250              	.LASF75:
 2251 0198 6D757465 		.ascii	"mutex\000"
 2251      7800
 2252              	.LASF52:
 2253 019e 725F6E65 		.ascii	"r_newer\000"
 2253      77657200 
 2254              	.LASF33:
 2255 01a6 705F666C 		.ascii	"p_flags\000"
 2255      61677300 
 2256              	.LASF81:
 2257 01ae 433A5C70 		.ascii	"C:\\projects\\voltamper.git\\firmware\\voltamp\000"
ARM GAS  C:\Users\z80\AppData\Local\Temp\cckpho1g.s 			page 43


 2257      726F6A65 
 2257      6374735C 
 2257      766F6C74 
 2257      616D7065 
 2258              	.LASF41:
 2259 01d9 705F7265 		.ascii	"p_realprio\000"
 2259      616C7072 
 2259      696F00
 2260              	.LASF21:
 2261 01e4 73797374 		.ascii	"systime_t\000"
 2261      696D655F 
 2261      7400
 2262              	.LASF73:
 2263 01ee 726C6973 		.ascii	"rlist\000"
 2263      7400
 2264              	.LASF84:
 2265 01f4 77726974 		.ascii	"write\000"
 2265      6500
 2266              	.LASF30:
 2267 01fa 705F6E61 		.ascii	"p_name\000"
 2267      6D6500
 2268              	.LASF8:
 2269 0201 696E7433 		.ascii	"int32_t\000"
 2269      325F7400 
 2270              	.LASF50:
 2271 0209 725F7072 		.ascii	"r_prio\000"
 2271      696F00
 2272              	.LASF22:
 2273 0210 636E745F 		.ascii	"cnt_t\000"
 2273      7400
 2274              	.LASF7:
 2275 0216 73686F72 		.ascii	"short unsigned int\000"
 2275      7420756E 
 2275      7369676E 
 2275      65642069 
 2275      6E7400
 2276              	.LASF32:
 2277 0229 705F7374 		.ascii	"p_state\000"
 2277      61746500 
 2278              	.LASF4:
 2279 0231 696E7431 		.ascii	"int16_t\000"
 2279      365F7400 
 2280              	.LASF78:
 2281 0239 77615772 		.ascii	"waWrite\000"
 2281      69746500 
 2282              	.LASF54:
 2283 0241 725F7072 		.ascii	"r_preempt\000"
 2283      65656D70 
 2283      7400
 2284              	.LASF36:
 2285 024b 705F7761 		.ascii	"p_waiting\000"
 2285      6974696E 
 2285      6700
 2286              	.LASF40:
 2287 0255 705F6D74 		.ascii	"p_mtxlist\000"
 2287      786C6973 
 2287      7400
ARM GAS  C:\Users\z80\AppData\Local\Temp\cckpho1g.s 			page 44


 2288              	.LASF47:
 2289 025f 696E7463 		.ascii	"intctx\000"
 2289      747800
 2290              	.LASF11:
 2291 0266 6C6F6E67 		.ascii	"long unsigned int\000"
 2291      20756E73 
 2291      69676E65 
 2291      6420696E 
 2291      7400
 2292              	.LASF77:
 2293 0278 70656E64 		.ascii	"pendValue\000"
 2293      56616C75 
 2293      6500
 2294              	.LASF79:
 2295 0282 474E5520 		.ascii	"GNU C 4.5.0\000"
 2295      4320342E 
 2295      352E3000 
 2296              	.LASF71:
 2297 028e 77726974 		.ascii	"writeInternal\000"
 2297      65496E74 
 2297      65726E61 
 2297      6C00
 2298              	.LASF76:
 2299 029c 63757256 		.ascii	"curValue\000"
 2299      616C7565 
 2299      00
 2300              	.LASF63:
 2301 02a5 77746F62 		.ascii	"wtobjp\000"
 2301      6A7000
 2302              	.LASF43:
 2303 02ac 54687265 		.ascii	"ThreadsQueue\000"
 2303      61647351 
 2303      75657565 
 2303      00
 2304              	.LASF16:
 2305 02b9 74737461 		.ascii	"tstate_t\000"
 2305      74655F74 
 2305      00
 2306              	.LASF46:
 2307 02c2 73746B61 		.ascii	"stkalign_t\000"
 2307      6C69676E 
 2307      5F7400
 2308              	.LASF62:
 2309 02cd 65786974 		.ascii	"exitcode\000"
 2309      636F6465 
 2309      00
 2310              	.LASF29:
 2311 02d6 705F6F6C 		.ascii	"p_older\000"
 2311      64657200 
 2312              	.LASF72:
 2313 02de 62697456 		.ascii	"bitVal\000"
 2313      616C00
 2314              	.LASF34:
 2315 02e5 705F7265 		.ascii	"p_refs\000"
 2315      667300
 2316              	.LASF82:
 2317 02ec 77726974 		.ascii	"writeThread\000"
ARM GAS  C:\Users\z80\AppData\Local\Temp\cckpho1g.s 			page 45


 2317      65546872 
 2317      65616400 
 2318              	.LASF27:
 2319 02f8 705F6374 		.ascii	"p_ctx\000"
 2319      7800
 2320              	.LASF74:
 2321 02fe 49544D5F 		.ascii	"ITM_RxBuffer\000"
 2321      52784275 
 2321      66666572 
 2321      00
 2322              	.LASF59:
 2323 030b 6D5F6F77 		.ascii	"m_owner\000"
 2323      6E657200 
 2324              	.LASF67:
 2325 0313 4C434B52 		.ascii	"LCKR\000"
 2325      00
 2326              	.LASF61:
 2327 0318 7264796D 		.ascii	"rdymsg\000"
 2327      736700
 2328              	.LASF19:
 2329 031f 6D73675F 		.ascii	"msg_t\000"
 2329      7400
 2330              	.LASF53:
 2331 0325 725F6F6C 		.ascii	"r_older\000"
 2331      64657200 
 2332              	.LASF83:
 2333 032d 696E6974 		.ascii	"initWrite\000"
 2333      57726974 
 2333      6500
 2334              		.ident	"GCC: (GNU) 4.5.0"
ARM GAS  C:\Users\z80\AppData\Local\Temp\cckpho1g.s 			page 46


DEFINED SYMBOLS
                            *ABS*:00000000 write_ctrl.c
C:\Users\z80\AppData\Local\Temp\cckpho1g.s:24     .text.writeThread:00000000 $t
C:\Users\z80\AppData\Local\Temp\cckpho1g.s:29     .text.writeThread:00000000 writeThread
C:\Users\z80\AppData\Local\Temp\cckpho1g.s:481    .bss.pendValue:00000000 .LANCHOR2
C:\Users\z80\AppData\Local\Temp\cckpho1g.s:467    .bss.curValue:00000000 .LANCHOR3
C:\Users\z80\AppData\Local\Temp\cckpho1g.s:288    .text.writeThread:00000128 $d
C:\Users\z80\AppData\Local\Temp\cckpho1g.s:302    .text.initWrite:00000000 $t
C:\Users\z80\AppData\Local\Temp\cckpho1g.s:308    .text.initWrite:00000000 initWrite
C:\Users\z80\AppData\Local\Temp\cckpho1g.s:428    .bss.mutex:00000000 .LANCHOR0
C:\Users\z80\AppData\Local\Temp\cckpho1g.s:435    .bss.waWrite:00000000 .LANCHOR7
C:\Users\z80\AppData\Local\Temp\cckpho1g.s:387    .text.write:00000000 $t
C:\Users\z80\AppData\Local\Temp\cckpho1g.s:393    .text.write:00000000 write
C:\Users\z80\AppData\Local\Temp\cckpho1g.s:427    .bss.mutex:00000000 $d
C:\Users\z80\AppData\Local\Temp\cckpho1g.s:431    .bss.mutex:00000000 mutex
C:\Users\z80\AppData\Local\Temp\cckpho1g.s:434    .bss.waWrite:00000000 $d
C:\Users\z80\AppData\Local\Temp\cckpho1g.s:438    .bss.waWrite:00000000 waWrite
C:\Users\z80\AppData\Local\Temp\cckpho1g.s:441    .bss.i.3502:00000000 $d
C:\Users\z80\AppData\Local\Temp\cckpho1g.s:445    .bss.i.3502:00000000 i.3502
C:\Users\z80\AppData\Local\Temp\cckpho1g.s:448    .rodata.str1.4:00000000 $d
C:\Users\z80\AppData\Local\Temp\cckpho1g.s:452    .bss.val.3509:00000000 $d
C:\Users\z80\AppData\Local\Temp\cckpho1g.s:456    .bss.val.3509:00000000 val.3509
C:\Users\z80\AppData\Local\Temp\cckpho1g.s:459    .bss.i.3510:00000000 $d
C:\Users\z80\AppData\Local\Temp\cckpho1g.s:463    .bss.i.3510:00000000 i.3510
C:\Users\z80\AppData\Local\Temp\cckpho1g.s:466    .bss.curValue:00000000 $d
C:\Users\z80\AppData\Local\Temp\cckpho1g.s:470    .bss.curValue:00000000 curValue
C:\Users\z80\AppData\Local\Temp\cckpho1g.s:473    .bss.bitVal.3511:00000000 $d
C:\Users\z80\AppData\Local\Temp\cckpho1g.s:477    .bss.bitVal.3511:00000000 bitVal.3511
C:\Users\z80\AppData\Local\Temp\cckpho1g.s:480    .bss.pendValue:00000000 $d
C:\Users\z80\AppData\Local\Temp\cckpho1g.s:484    .bss.pendValue:00000000 pendValue
                     .debug_frame:00000010 $d
C:\Users\z80\AppData\Local\Temp\cckpho1g.s:301    .text.writeThread:00000148 $t

UNDEFINED SYMBOLS
chThdSleep
chMtxLock
chMtxUnlock
rlist
_pal_lld_setgroupmode
chMtxInit
chThdCreateStatic
